
TR-808-firmware.elf:     file format elf32-avr

Sections:
Idx Name          Size      VMA       LMA       File off  Algn
  0 .data         00000158  00800100  00001450  000014e4  2**0
                  CONTENTS, ALLOC, LOAD, DATA
  1 .text         00001450  00000000  00000000  00000094  2**1
                  CONTENTS, ALLOC, LOAD, READONLY, CODE
  2 .bss          00000196  00800258  00800258  0000163c  2**0
                  ALLOC
  3 .comment      00000030  00000000  00000000  0000163c  2**0
                  CONTENTS, READONLY
  4 .note.gnu.avr.deviceinfo 00000040  00000000  00000000  0000166c  2**2
                  CONTENTS, READONLY
  5 .debug_aranges 000003f8  00000000  00000000  000016ac  2**0
                  CONTENTS, READONLY, DEBUGGING
  6 .debug_info   000047c3  00000000  00000000  00001aa4  2**0
                  CONTENTS, READONLY, DEBUGGING
  7 .debug_abbrev 000012d6  00000000  00000000  00006267  2**0
                  CONTENTS, READONLY, DEBUGGING
  8 .debug_line   0000139e  00000000  00000000  0000753d  2**0
                  CONTENTS, READONLY, DEBUGGING
  9 .debug_frame  000009f0  00000000  00000000  000088dc  2**2
                  CONTENTS, READONLY, DEBUGGING
 10 .debug_str    00000fb7  00000000  00000000  000092cc  2**0
                  CONTENTS, READONLY, DEBUGGING
 11 .debug_loc    00001ee3  00000000  00000000  0000a283  2**0
                  CONTENTS, READONLY, DEBUGGING
 12 .debug_ranges 00000310  00000000  00000000  0000c166  2**0
                  CONTENTS, READONLY, DEBUGGING

Disassembly of section .text:

00000000 <__vectors>:
       0:	0c 94 69 00 	jmp	0xd2	; 0xd2 <__ctors_end>
       4:	0c 94 86 00 	jmp	0x10c	; 0x10c <__bad_interrupt>
       8:	0c 94 86 00 	jmp	0x10c	; 0x10c <__bad_interrupt>
       c:	0c 94 86 00 	jmp	0x10c	; 0x10c <__bad_interrupt>
      10:	0c 94 86 00 	jmp	0x10c	; 0x10c <__bad_interrupt>
      14:	0c 94 86 00 	jmp	0x10c	; 0x10c <__bad_interrupt>
      18:	0c 94 86 00 	jmp	0x10c	; 0x10c <__bad_interrupt>
      1c:	0c 94 86 00 	jmp	0x10c	; 0x10c <__bad_interrupt>
      20:	0c 94 86 00 	jmp	0x10c	; 0x10c <__bad_interrupt>
      24:	0c 94 86 00 	jmp	0x10c	; 0x10c <__bad_interrupt>
      28:	0c 94 86 00 	jmp	0x10c	; 0x10c <__bad_interrupt>
      2c:	0c 94 c8 01 	jmp	0x390	; 0x390 <__vector_11>
      30:	0c 94 86 00 	jmp	0x10c	; 0x10c <__bad_interrupt>
      34:	0c 94 86 00 	jmp	0x10c	; 0x10c <__bad_interrupt>
      38:	0c 94 ad 01 	jmp	0x35a	; 0x35a <__vector_14>
      3c:	0c 94 86 00 	jmp	0x10c	; 0x10c <__bad_interrupt>
      40:	0c 94 86 00 	jmp	0x10c	; 0x10c <__bad_interrupt>
      44:	0c 94 86 00 	jmp	0x10c	; 0x10c <__bad_interrupt>
      48:	0c 94 8d 04 	jmp	0x91a	; 0x91a <__vector_18>
      4c:	0c 94 86 00 	jmp	0x10c	; 0x10c <__bad_interrupt>
      50:	0c 94 86 00 	jmp	0x10c	; 0x10c <__bad_interrupt>
      54:	0c 94 86 00 	jmp	0x10c	; 0x10c <__bad_interrupt>
      58:	0c 94 86 00 	jmp	0x10c	; 0x10c <__bad_interrupt>
      5c:	0c 94 86 00 	jmp	0x10c	; 0x10c <__bad_interrupt>
      60:	0c 94 86 00 	jmp	0x10c	; 0x10c <__bad_interrupt>
      64:	0c 94 86 00 	jmp	0x10c	; 0x10c <__bad_interrupt>
      68:	0c 94 86 00 	jmp	0x10c	; 0x10c <__bad_interrupt>
      6c:	0c 94 86 00 	jmp	0x10c	; 0x10c <__bad_interrupt>
      70:	0c 94 86 00 	jmp	0x10c	; 0x10c <__bad_interrupt>
      74:	0c 94 86 00 	jmp	0x10c	; 0x10c <__bad_interrupt>
      78:	0c 94 86 00 	jmp	0x10c	; 0x10c <__bad_interrupt>
      7c:	0c 94 86 00 	jmp	0x10c	; 0x10c <__bad_interrupt>
      80:	0c 94 86 00 	jmp	0x10c	; 0x10c <__bad_interrupt>
      84:	0c 94 86 00 	jmp	0x10c	; 0x10c <__bad_interrupt>
      88:	0c 94 86 00 	jmp	0x10c	; 0x10c <__bad_interrupt>
      8c:	0c 94 86 00 	jmp	0x10c	; 0x10c <__bad_interrupt>
      90:	0c 94 86 00 	jmp	0x10c	; 0x10c <__bad_interrupt>
      94:	0c 94 86 00 	jmp	0x10c	; 0x10c <__bad_interrupt>
      98:	0c 94 86 00 	jmp	0x10c	; 0x10c <__bad_interrupt>
      9c:	0c 94 86 00 	jmp	0x10c	; 0x10c <__bad_interrupt>
      a0:	0c 94 86 00 	jmp	0x10c	; 0x10c <__bad_interrupt>
      a4:	0c 94 86 00 	jmp	0x10c	; 0x10c <__bad_interrupt>
      a8:	0c 94 86 00 	jmp	0x10c	; 0x10c <__bad_interrupt>
      ac:	0c 94 86 00 	jmp	0x10c	; 0x10c <__bad_interrupt>
      b0:	0c 94 86 00 	jmp	0x10c	; 0x10c <__bad_interrupt>
      b4:	72 07       	cpc	r23, r18
      b6:	70 07       	cpc	r23, r16
      b8:	72 07       	cpc	r23, r18
      ba:	74 07       	cpc	r23, r20
      bc:	74 07       	cpc	r23, r20
      be:	7a 07       	cpc	r23, r26
      c0:	74 07       	cpc	r23, r20
      c2:	7a 07       	cpc	r23, r26
      c4:	7a 07       	cpc	r23, r26
      c6:	7a 07       	cpc	r23, r26
      c8:	7a 07       	cpc	r23, r26
      ca:	7a 07       	cpc	r23, r26
      cc:	74 07       	cpc	r23, r20
      ce:	7a 07       	cpc	r23, r26
      d0:	7a 07       	cpc	r23, r26

000000d2 <__ctors_end>:
      d2:	11 24       	eor	r1, r1
      d4:	1f be       	out	0x3f, r1	; 63
      d6:	cf ef       	ldi	r28, 0xFF	; 255
      d8:	d8 e0       	ldi	r29, 0x08	; 8
      da:	de bf       	out	0x3e, r29	; 62
      dc:	cd bf       	out	0x3d, r28	; 61

000000de <__do_copy_data>:
      de:	12 e0       	ldi	r17, 0x02	; 2
      e0:	a0 e0       	ldi	r26, 0x00	; 0
      e2:	b1 e0       	ldi	r27, 0x01	; 1
      e4:	e0 e5       	ldi	r30, 0x50	; 80
      e6:	f4 e1       	ldi	r31, 0x14	; 20
      e8:	02 c0       	rjmp	.+4      	; 0xee <__do_copy_data+0x10>
      ea:	05 90       	lpm	r0, Z+
      ec:	0d 92       	st	X+, r0
      ee:	a8 35       	cpi	r26, 0x58	; 88
      f0:	b1 07       	cpc	r27, r17
      f2:	d9 f7       	brne	.-10     	; 0xea <__do_copy_data+0xc>

000000f4 <__do_clear_bss>:
      f4:	23 e0       	ldi	r18, 0x03	; 3
      f6:	a8 e5       	ldi	r26, 0x58	; 88
      f8:	b2 e0       	ldi	r27, 0x02	; 2
      fa:	01 c0       	rjmp	.+2      	; 0xfe <.do_clear_bss_start>

000000fc <.do_clear_bss_loop>:
      fc:	1d 92       	st	X+, r1

000000fe <.do_clear_bss_start>:
      fe:	ae 3e       	cpi	r26, 0xEE	; 238
     100:	b2 07       	cpc	r27, r18
     102:	e1 f7       	brne	.-8      	; 0xfc <.do_clear_bss_loop>
     104:	0e 94 c2 04 	call	0x984	; 0x984 <main>
     108:	0c 94 26 0a 	jmp	0x144c	; 0x144c <_exit>

0000010c <__bad_interrupt>:
     10c:	0c 94 00 00 	jmp	0	; 0x0 <__vectors>

00000110 <setup_adc>:



void setup_adc(void) {
	
	ADCSRA |= (1<<ADPS2); // 16 MHz/16 = 1 MHz ADC clock, could go as high as 8 MHz (/2)
     110:	ea e7       	ldi	r30, 0x7A	; 122
     112:	f0 e0       	ldi	r31, 0x00	; 0
     114:	80 81       	ld	r24, Z
     116:	84 60       	ori	r24, 0x04	; 4
     118:	80 83       	st	Z, r24
	ADMUX |= (1<<REFS0); //set ADC reference to AVCC (+5V)
     11a:	ec e7       	ldi	r30, 0x7C	; 124
     11c:	f0 e0       	ldi	r31, 0x00	; 0
     11e:	80 81       	ld	r24, Z
     120:	80 64       	ori	r24, 0x40	; 64
     122:	80 83       	st	Z, r24
	ADMUX |= TEMPO_POT; //select channel ADC6 (PE2)
     124:	80 81       	ld	r24, Z
     126:	86 60       	ori	r24, 0x06	; 6
     128:	80 83       	st	Z, r24
	DIDR0 |= (1<<6);	
     12a:	ee e7       	ldi	r30, 0x7E	; 126
     12c:	f0 e0       	ldi	r31, 0x00	; 0
     12e:	80 81       	ld	r24, Z
     130:	80 64       	ori	r24, 0x40	; 64
     132:	80 83       	st	Z, r24
     134:	08 95       	ret

00000136 <read_tempo_pot>:
}

uint16_t read_tempo_pot() {
	
	SPCR1 = 0; //disable spi during adc read
     136:	10 92 ac 00 	sts	0x00AC, r1
	DDRE &= ~(1<<SPI_SS); //ADC input is shared with SPI slave select
     13a:	6a 98       	cbi	0x0d, 2	; 13
	ADCSRA |= (1<<ADEN); //enable ADC. Enabling here adds 12 cycles to ADC conversion, but can't see way to get around it because of shared SPI SS pin
     13c:	ea e7       	ldi	r30, 0x7A	; 122
     13e:	f0 e0       	ldi	r31, 0x00	; 0
     140:	80 81       	ld	r24, Z
     142:	80 68       	ori	r24, 0x80	; 128
     144:	80 83       	st	Z, r24

	ADCSRA |= (1<<ADSC); //start ADC conversion
     146:	80 81       	ld	r24, Z
     148:	80 64       	ori	r24, 0x40	; 64
     14a:	80 83       	st	Z, r24
	while ((ADCSRA & (1<<ADSC))); //wait for ADC conversion to complete (25 cycles of ADC clock - 25 us for 1 MHz ADC clock) - need to figure out what to do with this time - would interrupt be more efficient?	
     14c:	80 81       	ld	r24, Z
     14e:	86 fd       	sbrc	r24, 6
     150:	fd cf       	rjmp	.-6      	; 0x14c <read_tempo_pot+0x16>
	//maybe makes sense to wait because SPI won't work while SPI SS is set as input
	
	//uint16_t adc_read = ADCL;
	//adc_read = adc_read | (ADCH <<8);
	DDRE |= (1<<SPI_SS); //setup SPI SS as output again
     152:	6a 9a       	sbi	0x0d, 2	; 13
	ADCSRA &= ~(1<<ADEN);
     154:	ea e7       	ldi	r30, 0x7A	; 122
     156:	f0 e0       	ldi	r31, 0x00	; 0
     158:	80 81       	ld	r24, Z
     15a:	8f 77       	andi	r24, 0x7F	; 127
     15c:	80 83       	st	Z, r24
	//SPCR1 |= (1<<MSTR1); //setting SPI SS to input requires resetting SPI as master
	SPCR1 = (1<<SPE1) | (1<<MSTR1) | (1<<SPI2X); //Start SPI as MASTER
     15e:	81 e5       	ldi	r24, 0x51	; 81
     160:	80 93 ac 00 	sts	0x00AC, r24
	return ADC;	
     164:	80 91 78 00 	lds	r24, 0x0078
     168:	90 91 79 00 	lds	r25, 0x0079
     16c:	08 95       	ret

0000016e <setup_internal_clock>:


void setup_internal_clock(void) {
	
	
	TCCR1B = (1<<CS12) | (1<<CS10) | (1<<WGM12);//TIMER1_DIVIDE_1024, clear on output compare match
     16e:	8d e0       	ldi	r24, 0x0D	; 13
     170:	80 93 81 00 	sts	0x0081, r24
	TIMSK1 = (1<<OCIE1A);
     174:	82 e0       	ldi	r24, 0x02	; 2
     176:	80 93 6f 00 	sts	0x006F, r24
     17a:	08 95       	ret

0000017c <update_clock_rate>:
	
}

void update_clock_rate(uint16_t rate) {
	
	OCR1A = rate;
     17c:	90 93 89 00 	sts	0x0089, r25
     180:	80 93 88 00 	sts	0x0088, r24
	if (TCNT1 > rate) TCNT1 = rate - 1; //this prevents wrapping. setting TCNT1 = rate would cause immediate interrupt. Is that OK?
     184:	20 91 84 00 	lds	r18, 0x0084
     188:	30 91 85 00 	lds	r19, 0x0085
     18c:	82 17       	cp	r24, r18
     18e:	93 07       	cpc	r25, r19
     190:	28 f4       	brcc	.+10     	; 0x19c <update_clock_rate+0x20>
     192:	01 97       	sbiw	r24, 0x01	; 1
     194:	90 93 85 00 	sts	0x0085, r25
     198:	80 93 84 00 	sts	0x0084, r24
     19c:	08 95       	ret

0000019e <trigger_drum>:
	{15,7, 1<<MA_TRIG,255, 0, MA_LED},
	{16,8, 1<<ACCENT, 255, 0, ACCENT_1_LED} //this last accent element is a bit of a hack - not currently used to access accent, but useful to turn on accent LED when accent it triggered by step sequencer (see interrupt.c)
			
};

void trigger_drum(uint8_t note, uint8_t velocity) {
     19e:	1f 93       	push	r17
     1a0:	cf 93       	push	r28
     1a2:	df 93       	push	r29
     1a4:	16 2f       	mov	r17, r22
	
		//while(trigger_finished == 0);	//need to wait until trigger interrupt is complete before triggering new drum sound, otherwise new hits come and and 'overwrite' old hits, preventing their triggers from finishing
		//could implement a trigger queue instead of waiting but this is really more of a concern from simultaneous drum hits coming from MIDI or live play. Sequencer triggers won't have this problem unless 
		//individual accents are implemented for sequencer
		current_drum_hit = note;
     1a6:	80 93 58 02 	sts	0x0258, r24

		spi_data[drum_hit[note].spi_byte_num] |= drum_hit[note].trig_bit;
     1aa:	c8 2f       	mov	r28, r24
     1ac:	d0 e0       	ldi	r29, 0x00	; 0
     1ae:	fe 01       	movw	r30, r28
     1b0:	ee 0f       	add	r30, r30
     1b2:	ff 1f       	adc	r31, r31
     1b4:	ec 0f       	add	r30, r28
     1b6:	fd 1f       	adc	r31, r29
     1b8:	ee 0f       	add	r30, r30
     1ba:	ff 1f       	adc	r31, r31
     1bc:	e0 50       	subi	r30, 0x00	; 0
     1be:	ff 4f       	sbci	r31, 0xFF	; 255
     1c0:	a0 81       	ld	r26, Z
     1c2:	9a 2f       	mov	r25, r26
     1c4:	99 1f       	adc	r25, r25
     1c6:	99 27       	eor	r25, r25
     1c8:	99 1f       	adc	r25, r25
     1ca:	a1 81       	ldd	r26, Z+1	; 0x01
     1cc:	a7 70       	andi	r26, 0x07	; 7
     1ce:	aa 0f       	add	r26, r26
     1d0:	a9 2b       	or	r26, r25
     1d2:	b0 e0       	ldi	r27, 0x00	; 0
     1d4:	a8 59       	subi	r26, 0x98	; 152
     1d6:	bd 4f       	sbci	r27, 0xFD	; 253
     1d8:	9c 91       	ld	r25, X
     1da:	82 81       	ldd	r24, Z+2	; 0x02
     1dc:	89 2b       	or	r24, r25
     1de:	8c 93       	st	X, r24
		//toggle(drum_hit[note].led_index);
		//spi_data[drum_hit[note].spi_led_byte_num] |= drum_hit[note].led_bit;
			
		if (drum_hit[note].switch_bit != 255) {//need to set instrument switch
     1e0:	83 81       	ldd	r24, Z+3	; 0x03
     1e2:	8f 3f       	cpi	r24, 0xFF	; 255
     1e4:	09 f1       	breq	.+66     	; 0x228 <trigger_drum+0x8a>
				
			toggle(ACCENT_1_LED);	
     1e6:	84 e1       	ldi	r24, 0x14	; 20
     1e8:	0e 94 7f 02 	call	0x4fe	; 0x4fe <toggle>
			spi_data[3] ^= (-(drum_hit[note].switch_value) ^ spi_data[3]) & drum_hit[note].switch_bit; //this sets switch_value in spi_data byte to switch_value (0 or 1)
     1ec:	a8 e6       	ldi	r26, 0x68	; 104
     1ee:	b2 e0       	ldi	r27, 0x02	; 2
     1f0:	13 96       	adiw	r26, 0x03	; 3
     1f2:	2c 91       	ld	r18, X
     1f4:	13 97       	sbiw	r26, 0x03	; 3
     1f6:	ae 01       	movw	r20, r28
     1f8:	44 0f       	add	r20, r20
     1fa:	55 1f       	adc	r21, r21
     1fc:	fa 01       	movw	r30, r20
     1fe:	ec 0f       	add	r30, r28
     200:	fd 1f       	adc	r31, r29
     202:	ee 0f       	add	r30, r30
     204:	ff 1f       	adc	r31, r31
     206:	ec 5f       	subi	r30, 0xFC	; 252
     208:	fe 4f       	sbci	r31, 0xFE	; 254
     20a:	90 81       	ld	r25, Z
     20c:	91 70       	andi	r25, 0x01	; 1
     20e:	91 95       	neg	r25
     210:	92 27       	eor	r25, r18
     212:	c4 0f       	add	r28, r20
     214:	d5 1f       	adc	r29, r21
     216:	cc 0f       	add	r28, r28
     218:	dd 1f       	adc	r29, r29
     21a:	c0 50       	subi	r28, 0x00	; 0
     21c:	df 4f       	sbci	r29, 0xFF	; 255
     21e:	8b 81       	ldd	r24, Y+3	; 0x03
     220:	98 23       	and	r25, r24
     222:	29 27       	eor	r18, r25
     224:	13 96       	adiw	r26, 0x03	; 3
     226:	2c 93       	st	X, r18
					
		}
			
		if (velocity > 64) {
     228:	11 34       	cpi	r17, 0x41	; 65
     22a:	28 f0       	brcs	.+10     	; 0x236 <trigger_drum+0x98>
			spi_data[8] |= (1<<ACCENT);
     22c:	e8 e6       	ldi	r30, 0x68	; 104
     22e:	f2 e0       	ldi	r31, 0x02	; 2
     230:	80 85       	ldd	r24, Z+8	; 0x08
     232:	81 60       	ori	r24, 0x01	; 1
     234:	80 87       	std	Z+8, r24	; 0x08
			//toggle(ACCENT_1_LED);
		}
		PORTD |= 1<<TRIG; //move all of this into one tidy function something like play_drum(drum_index) - this will then be applicable to sequencer as well
     236:	5d 9a       	sbi	0x0b, 5	; 11
			
		update_spi();
     238:	0e 94 5f 05 	call	0xabe	; 0xabe <update_spi>
			
		PORTD &= ~(1<<TRIG);
     23c:	5d 98       	cbi	0x0b, 5	; 11
		
		
		//now need to set up interrupt for roughly 1 ms. 
		//start timer
		TIMSK0 |= (1<<OCIE0A); //enable output compare match A
     23e:	ee e6       	ldi	r30, 0x6E	; 110
     240:	f0 e0       	ldi	r31, 0x00	; 0
     242:	80 81       	ld	r24, Z
     244:	82 60       	ori	r24, 0x02	; 2
     246:	80 83       	st	Z, r24
		TCCR0B |= (1<<CS01) | (1<<CS00); //set to /64 of system clock start timer
     248:	85 b5       	in	r24, 0x25	; 37
     24a:	83 60       	ori	r24, 0x03	; 3
     24c:	85 bd       	out	0x25, r24	; 37
		trigger_finished = 0;
     24e:	10 92 66 01 	sts	0x0166, r1
}
     252:	df 91       	pop	r29
     254:	cf 91       	pop	r28
     256:	1f 91       	pop	r17
     258:	08 95       	ret

0000025a <clear_all_trigs>:

void clear_all_trigs(void) {

	spi_data[8] = 0;
     25a:	e8 e6       	ldi	r30, 0x68	; 104
     25c:	f2 e0       	ldi	r31, 0x02	; 2
     25e:	10 86       	std	Z+8, r1	; 0x08
	spi_data[6] &= 0b11110000; //make these masks constants
     260:	86 81       	ldd	r24, Z+6	; 0x06
     262:	80 7f       	andi	r24, 0xF0	; 240
     264:	86 83       	std	Z+6, r24	; 0x06
	spi_data[7] &= 0b11011111;	
     266:	87 81       	ldd	r24, Z+7	; 0x07
     268:	8f 7d       	andi	r24, 0xDF	; 223
     26a:	87 83       	std	Z+7, r24	; 0x07
     26c:	08 95       	ret

0000026e <trigger_step>:
	
}

void trigger_step(void) { //trigger all drums on current step
     26e:	cf 92       	push	r12
     270:	df 92       	push	r13
     272:	ef 92       	push	r14
     274:	ff 92       	push	r15
     276:	0f 93       	push	r16
     278:	1f 93       	push	r17
     27a:	cf 93       	push	r28
     27c:	df 93       	push	r29

	clear_all_trigs();
     27e:	0e 94 2d 01 	call	0x25a	; 0x25a <clear_all_trigs>
     282:	05 e0       	ldi	r16, 0x05	; 5
     284:	11 e0       	ldi	r17, 0x01	; 1
	for (int i = BD; i <= MA; i++) {
     286:	c0 e0       	ldi	r28, 0x00	; 0
     288:	d0 e0       	ldi	r29, 0x00	; 0
		
		if ((sequencer.current_pattern.first_part[sequencer.current_step] >> i) &1) {
     28a:	0f 2e       	mov	r0, r31
     28c:	f8 ec       	ldi	r31, 0xC8	; 200
     28e:	cf 2e       	mov	r12, r31
     290:	f3 e0       	ldi	r31, 0x03	; 3
     292:	df 2e       	mov	r13, r31
     294:	f0 2d       	mov	r31, r0
			turn_on(drum_hit[i].led_index);
			spi_data[drum_hit[i].spi_byte_num] |= drum_hit[i].trig_bit;
			if (drum_hit[i].switch_bit != 255) {//need to set instrument switch
						
				spi_data[3] ^= (-(drum_hit[i].switch_value) ^ spi_data[3]) & drum_hit[i].switch_bit; //this sets switch_value in spi_data byte to switch_value (0 or 1)
     296:	0f 2e       	mov	r0, r31
     298:	f8 e6       	ldi	r31, 0x68	; 104
     29a:	ef 2e       	mov	r14, r31
     29c:	f2 e0       	ldi	r31, 0x02	; 2
     29e:	ff 2e       	mov	r15, r31
     2a0:	f0 2d       	mov	r31, r0
void trigger_step(void) { //trigger all drums on current step

	clear_all_trigs();
	for (int i = BD; i <= MA; i++) {
		
		if ((sequencer.current_pattern.first_part[sequencer.current_step] >> i) &1) {
     2a2:	d6 01       	movw	r26, r12
     2a4:	ec 91       	ld	r30, X
     2a6:	ef 70       	andi	r30, 0x0F	; 15
     2a8:	f0 e0       	ldi	r31, 0x00	; 0
     2aa:	ee 0f       	add	r30, r30
     2ac:	ff 1f       	adc	r31, r31
     2ae:	e9 58       	subi	r30, 0x89	; 137
     2b0:	fc 4f       	sbci	r31, 0xFC	; 252
     2b2:	80 81       	ld	r24, Z
     2b4:	91 81       	ldd	r25, Z+1	; 0x01
     2b6:	0c 2e       	mov	r0, r28
     2b8:	02 c0       	rjmp	.+4      	; 0x2be <trigger_step+0x50>
     2ba:	96 95       	lsr	r25
     2bc:	87 95       	ror	r24
     2be:	0a 94       	dec	r0
     2c0:	e2 f7       	brpl	.-8      	; 0x2ba <trigger_step+0x4c>
     2c2:	80 ff       	sbrs	r24, 0
     2c4:	3a c0       	rjmp	.+116    	; 0x33a <trigger_step+0xcc>
			turn_on(drum_hit[i].led_index);
     2c6:	f8 01       	movw	r30, r16
     2c8:	80 81       	ld	r24, Z
     2ca:	0e 94 42 02 	call	0x484	; 0x484 <turn_on>
			spi_data[drum_hit[i].spi_byte_num] |= drum_hit[i].trig_bit;
     2ce:	de 01       	movw	r26, r28
     2d0:	aa 0f       	add	r26, r26
     2d2:	bb 1f       	adc	r27, r27
     2d4:	ac 0f       	add	r26, r28
     2d6:	bd 1f       	adc	r27, r29
     2d8:	aa 0f       	add	r26, r26
     2da:	bb 1f       	adc	r27, r27
     2dc:	a0 50       	subi	r26, 0x00	; 0
     2de:	bf 4f       	sbci	r27, 0xFF	; 255
     2e0:	ec 91       	ld	r30, X
     2e2:	8e 2f       	mov	r24, r30
     2e4:	88 1f       	adc	r24, r24
     2e6:	88 27       	eor	r24, r24
     2e8:	88 1f       	adc	r24, r24
     2ea:	11 96       	adiw	r26, 0x01	; 1
     2ec:	ec 91       	ld	r30, X
     2ee:	e7 70       	andi	r30, 0x07	; 7
     2f0:	ee 0f       	add	r30, r30
     2f2:	e8 2b       	or	r30, r24
     2f4:	f0 e0       	ldi	r31, 0x00	; 0
     2f6:	e8 59       	subi	r30, 0x98	; 152
     2f8:	fd 4f       	sbci	r31, 0xFD	; 253
     2fa:	d8 01       	movw	r26, r16
     2fc:	13 97       	sbiw	r26, 0x03	; 3
     2fe:	9c 91       	ld	r25, X
     300:	80 81       	ld	r24, Z
     302:	89 2b       	or	r24, r25
     304:	80 83       	st	Z, r24
     306:	f8 01       	movw	r30, r16
     308:	32 97       	sbiw	r30, 0x02	; 2
			if (drum_hit[i].switch_bit != 255) {//need to set instrument switch
     30a:	80 81       	ld	r24, Z
     30c:	8f 3f       	cpi	r24, 0xFF	; 255
     30e:	a9 f0       	breq	.+42     	; 0x33a <trigger_step+0xcc>
						
				spi_data[3] ^= (-(drum_hit[i].switch_value) ^ spi_data[3]) & drum_hit[i].switch_bit; //this sets switch_value in spi_data byte to switch_value (0 or 1)
     310:	d7 01       	movw	r26, r14
     312:	13 96       	adiw	r26, 0x03	; 3
     314:	2c 91       	ld	r18, X
     316:	13 97       	sbiw	r26, 0x03	; 3
     318:	fe 01       	movw	r30, r28
     31a:	ee 0f       	add	r30, r30
     31c:	ff 1f       	adc	r31, r31
     31e:	ec 0f       	add	r30, r28
     320:	fd 1f       	adc	r31, r29
     322:	ee 0f       	add	r30, r30
     324:	ff 1f       	adc	r31, r31
     326:	ec 5f       	subi	r30, 0xFC	; 252
     328:	fe 4f       	sbci	r31, 0xFE	; 254
     32a:	90 81       	ld	r25, Z
     32c:	91 70       	andi	r25, 0x01	; 1
     32e:	91 95       	neg	r25
     330:	92 27       	eor	r25, r18
     332:	89 23       	and	r24, r25
     334:	82 27       	eor	r24, r18
     336:	13 96       	adiw	r26, 0x03	; 3
     338:	8c 93       	st	X, r24
}

void trigger_step(void) { //trigger all drums on current step

	clear_all_trigs();
	for (int i = BD; i <= MA; i++) {
     33a:	21 96       	adiw	r28, 0x01	; 1
     33c:	0a 5f       	subi	r16, 0xFA	; 250
     33e:	1f 4f       	sbci	r17, 0xFF	; 255
     340:	c0 31       	cpi	r28, 0x10	; 16
     342:	d1 05       	cpc	r29, r1
     344:	09 f0       	breq	.+2      	; 0x348 <trigger_step+0xda>
     346:	ad cf       	rjmp	.-166    	; 0x2a2 <trigger_step+0x34>
				spi_data[3] ^= (-(drum_hit[i].switch_value) ^ spi_data[3]) & drum_hit[i].switch_bit; //this sets switch_value in spi_data byte to switch_value (0 or 1)
						
			}		
		}
	}
     348:	df 91       	pop	r29
     34a:	cf 91       	pop	r28
     34c:	1f 91       	pop	r17
     34e:	0f 91       	pop	r16
     350:	ff 90       	pop	r15
     352:	ef 90       	pop	r14
     354:	df 90       	pop	r13
     356:	cf 90       	pop	r12
     358:	08 95       	ret

0000035a <__vector_14>:
#include "clock.h"
#include "sequencer.h"



ISR (TIMER0_COMPA_vect) {
     35a:	1f 92       	push	r1
     35c:	0f 92       	push	r0
     35e:	0f b6       	in	r0, 0x3f	; 63
     360:	0f 92       	push	r0
     362:	11 24       	eor	r1, r1
     364:	8f 93       	push	r24
     366:	ef 93       	push	r30
     368:	ff 93       	push	r31
	
	TCCR0B = 0; //turn off timer
     36a:	15 bc       	out	0x25, r1	; 37
	TIMSK0 &= ~(1<<OCIE0A); //turn off output compare 
     36c:	ee e6       	ldi	r30, 0x6E	; 110
     36e:	f0 e0       	ldi	r31, 0x00	; 0
     370:	80 81       	ld	r24, Z
     372:	8d 7f       	andi	r24, 0xFD	; 253
     374:	80 83       	st	Z, r24
		//spi_data[8] = 0;
	//}
	////toggle(drum_hit[current_drum_hit].led_index);
	////toggle(ACCENT_1_LED);
	//update_spi(); //should set flag here and update SPI from main loop. SPI should take about 10 microseconds
	sequencer.trigger_finished = 1;
     376:	e8 ec       	ldi	r30, 0xC8	; 200
     378:	f3 e0       	ldi	r31, 0x03	; 3
     37a:	80 81       	ld	r24, Z
     37c:	80 62       	ori	r24, 0x20	; 32
     37e:	80 83       	st	Z, r24
	
}
     380:	ff 91       	pop	r31
     382:	ef 91       	pop	r30
     384:	8f 91       	pop	r24
     386:	0f 90       	pop	r0
     388:	0f be       	out	0x3f, r0	; 63
     38a:	0f 90       	pop	r0
     38c:	1f 90       	pop	r1
     38e:	18 95       	reti

00000390 <__vector_11>:

ISR (TIMER1_COMPA_vect) { //output compare match for internal clock
     390:	1f 92       	push	r1
     392:	0f 92       	push	r0
     394:	0f b6       	in	r0, 0x3f	; 63
     396:	0f 92       	push	r0
     398:	11 24       	eor	r1, r1
     39a:	2f 93       	push	r18
     39c:	3f 93       	push	r19
     39e:	4f 93       	push	r20
     3a0:	5f 93       	push	r21
     3a2:	6f 93       	push	r22
     3a4:	7f 93       	push	r23
     3a6:	8f 93       	push	r24
     3a8:	9f 93       	push	r25
     3aa:	af 93       	push	r26
     3ac:	bf 93       	push	r27
     3ae:	cf 93       	push	r28
     3b0:	df 93       	push	r29
     3b2:	ef 93       	push	r30
     3b4:	ff 93       	push	r31
	
	
	if (sequencer.START) { 
     3b6:	80 91 76 03 	lds	r24, 0x0376
     3ba:	81 ff       	sbrs	r24, 1
     3bc:	26 c0       	rjmp	.+76     	; 0x40a <__vector_11+0x7a>
		
		if (internal_clock.ppqn_counter == internal_clock.divider >> 1) { //50% step width, sort of
     3be:	e3 e7       	ldi	r30, 0x73	; 115
     3c0:	f2 e0       	ldi	r31, 0x02	; 2
     3c2:	80 81       	ld	r24, Z
     3c4:	86 95       	lsr	r24
     3c6:	91 81       	ldd	r25, Z+1	; 0x01
     3c8:	98 13       	cpse	r25, r24
     3ca:	2c c0       	rjmp	.+88     	; 0x424 <__vector_11+0x94>
			
			spi_data[1] = sequencer.step_led_mask[sequencer.current_inst];
     3cc:	cb ec       	ldi	r28, 0xCB	; 203
     3ce:	d3 e0       	ldi	r29, 0x03	; 3
     3d0:	e8 81       	ld	r30, Y
     3d2:	f0 e0       	ldi	r31, 0x00	; 0
     3d4:	ee 0f       	add	r30, r30
     3d6:	ff 1f       	adc	r31, r31
     3d8:	e4 53       	subi	r30, 0x34	; 52
     3da:	fc 4f       	sbci	r31, 0xFC	; 252
     3dc:	90 81       	ld	r25, Z
     3de:	81 81       	ldd	r24, Z+1	; 0x01
     3e0:	e8 e6       	ldi	r30, 0x68	; 104
     3e2:	f2 e0       	ldi	r31, 0x02	; 2
     3e4:	91 83       	std	Z+1, r25	; 0x01
			spi_data[0] = sequencer.step_led_mask[sequencer.current_inst] >> 8;
     3e6:	80 83       	st	Z, r24
			turn_off_all_inst_leds();
     3e8:	0e 94 92 02 	call	0x524	; 0x524 <turn_off_all_inst_leds>
			turn_on(drum_hit[sequencer.current_inst].led_index);
     3ec:	88 81       	ld	r24, Y
     3ee:	90 e0       	ldi	r25, 0x00	; 0
     3f0:	fc 01       	movw	r30, r24
     3f2:	ee 0f       	add	r30, r30
     3f4:	ff 1f       	adc	r31, r31
     3f6:	e8 0f       	add	r30, r24
     3f8:	f9 1f       	adc	r31, r25
     3fa:	ee 0f       	add	r30, r30
     3fc:	ff 1f       	adc	r31, r31
     3fe:	e0 50       	subi	r30, 0x00	; 0
     400:	ff 4f       	sbci	r31, 0xFF	; 255
     402:	85 81       	ldd	r24, Z+5	; 0x05
     404:	0e 94 42 02 	call	0x484	; 0x484 <turn_on>
     408:	0d c0       	rjmp	.+26     	; 0x424 <__vector_11+0x94>
		}

	} else {
		spi_data[1] = 0;
     40a:	e8 e6       	ldi	r30, 0x68	; 104
     40c:	f2 e0       	ldi	r31, 0x02	; 2
     40e:	11 82       	std	Z+1, r1	; 0x01
		spi_data[0] = 0;
     410:	10 82       	st	Z, r1
		if (internal_clock.beat_counter <2) { //1/4 note, regardless of scale (based on original 808 behavior) - don't take this as gospel. may need to adjust with different pre-scales
     412:	80 91 75 02 	lds	r24, 0x0275
     416:	83 70       	andi	r24, 0x03	; 3
     418:	90 e0       	ldi	r25, 0x00	; 0
     41a:	02 97       	sbiw	r24, 0x02	; 2
     41c:	1c f4       	brge	.+6      	; 0x424 <__vector_11+0x94>
			turn_on(STEP_1_LED); //eventually need to turn on current pattern LED in pattern mode - other modes will require different behavior to be coded
     41e:	80 e0       	ldi	r24, 0x00	; 0
     420:	0e 94 42 02 	call	0x484	; 0x484 <turn_on>
		}
	} 
	
	if (++internal_clock.ppqn_counter == internal_clock.divider)
     424:	e3 e7       	ldi	r30, 0x73	; 115
     426:	f2 e0       	ldi	r31, 0x02	; 2
     428:	81 81       	ldd	r24, Z+1	; 0x01
     42a:	8f 5f       	subi	r24, 0xFF	; 255
     42c:	81 83       	std	Z+1, r24	; 0x01
     42e:	90 81       	ld	r25, Z
     430:	89 13       	cpse	r24, r25
     432:	15 c0       	rjmp	.+42     	; 0x45e <__vector_11+0xce>
	{
		sequencer.next_step_flag = 1;
     434:	e8 ec       	ldi	r30, 0xC8	; 200
     436:	f3 e0       	ldi	r31, 0x03	; 3
     438:	80 81       	ld	r24, Z
     43a:	80 61       	ori	r24, 0x10	; 16
		internal_clock.beat_counter++;
     43c:	a5 e7       	ldi	r26, 0x75	; 117
     43e:	b2 e0       	ldi	r27, 0x02	; 2
     440:	9c 91       	ld	r25, X
     442:	21 e0       	ldi	r18, 0x01	; 1
     444:	29 0f       	add	r18, r25
     446:	23 70       	andi	r18, 0x03	; 3
     448:	9c 7f       	andi	r25, 0xFC	; 252
     44a:	92 2b       	or	r25, r18
     44c:	9c 93       	st	X, r25
		internal_clock.ppqn_counter = 0;
     44e:	10 92 74 02 	sts	0x0274, r1
		sequencer.current_step++; //hopefully this will overflow from 15 to 0 - it does!
     452:	91 e0       	ldi	r25, 0x01	; 1
     454:	98 0f       	add	r25, r24
     456:	9f 70       	andi	r25, 0x0F	; 15
     458:	80 7f       	andi	r24, 0xF0	; 240
     45a:	89 2b       	or	r24, r25
     45c:	80 83       	st	Z, r24
	}
	
     45e:	ff 91       	pop	r31
     460:	ef 91       	pop	r30
     462:	df 91       	pop	r29
     464:	cf 91       	pop	r28
     466:	bf 91       	pop	r27
     468:	af 91       	pop	r26
     46a:	9f 91       	pop	r25
     46c:	8f 91       	pop	r24
     46e:	7f 91       	pop	r23
     470:	6f 91       	pop	r22
     472:	5f 91       	pop	r21
     474:	4f 91       	pop	r20
     476:	3f 91       	pop	r19
     478:	2f 91       	pop	r18
     47a:	0f 90       	pop	r0
     47c:	0f be       	out	0x3f, r0	; 63
     47e:	0f 90       	pop	r0
     480:	1f 90       	pop	r1
     482:	18 95       	reti

00000484 <turn_on>:
	{	1<<6	,	7	,	0	,	NO_BLINK},
	{	1<<7	,	7	,	0	,	NO_BLINK}
	
};

void turn_on(uint8_t led_index) {
     484:	cf 93       	push	r28
     486:	df 93       	push	r29
	
	spi_data[led[led_index].spi_byte] |= led[led_index].spi_bit;
     488:	90 e0       	ldi	r25, 0x00	; 0
     48a:	9c 01       	movw	r18, r24
     48c:	22 0f       	add	r18, r18
     48e:	33 1f       	adc	r19, r19
     490:	82 0f       	add	r24, r18
     492:	93 1f       	adc	r25, r19
     494:	dc 01       	movw	r26, r24
     496:	a8 59       	subi	r26, 0x98	; 152
     498:	be 4f       	sbci	r27, 0xFE	; 254
     49a:	2c 91       	ld	r18, X
     49c:	e2 2f       	mov	r30, r18
     49e:	ef 70       	andi	r30, 0x0F	; 15
     4a0:	f0 e0       	ldi	r31, 0x00	; 0
     4a2:	e8 59       	subi	r30, 0x98	; 152
     4a4:	fd 4f       	sbci	r31, 0xFD	; 253
     4a6:	ec 01       	movw	r28, r24
     4a8:	c9 59       	subi	r28, 0x99	; 153
     4aa:	de 4f       	sbci	r29, 0xFE	; 254
     4ac:	30 81       	ld	r19, Z
     4ae:	88 81       	ld	r24, Y
     4b0:	83 2b       	or	r24, r19
     4b2:	80 83       	st	Z, r24
	led[led_index].state = 1;
     4b4:	82 2f       	mov	r24, r18
     4b6:	80 61       	ori	r24, 0x10	; 16
     4b8:	8c 93       	st	X, r24

}
     4ba:	df 91       	pop	r29
     4bc:	cf 91       	pop	r28
     4be:	08 95       	ret

000004c0 <turn_off>:

void turn_off(uint8_t led_index) {
     4c0:	cf 93       	push	r28
     4c2:	df 93       	push	r29
	
	spi_data[led[led_index].spi_byte] &= ~(led[led_index].spi_bit);
     4c4:	90 e0       	ldi	r25, 0x00	; 0
     4c6:	9c 01       	movw	r18, r24
     4c8:	22 0f       	add	r18, r18
     4ca:	33 1f       	adc	r19, r19
     4cc:	82 0f       	add	r24, r18
     4ce:	93 1f       	adc	r25, r19
     4d0:	dc 01       	movw	r26, r24
     4d2:	a8 59       	subi	r26, 0x98	; 152
     4d4:	be 4f       	sbci	r27, 0xFE	; 254
     4d6:	2c 91       	ld	r18, X
     4d8:	e2 2f       	mov	r30, r18
     4da:	ef 70       	andi	r30, 0x0F	; 15
     4dc:	f0 e0       	ldi	r31, 0x00	; 0
     4de:	e8 59       	subi	r30, 0x98	; 152
     4e0:	fd 4f       	sbci	r31, 0xFD	; 253
     4e2:	ec 01       	movw	r28, r24
     4e4:	c9 59       	subi	r28, 0x99	; 153
     4e6:	de 4f       	sbci	r29, 0xFE	; 254
     4e8:	88 81       	ld	r24, Y
     4ea:	80 95       	com	r24
     4ec:	90 81       	ld	r25, Z
     4ee:	89 23       	and	r24, r25
     4f0:	80 83       	st	Z, r24
	led[led_index].state = 0;
     4f2:	82 2f       	mov	r24, r18
     4f4:	8f 7e       	andi	r24, 0xEF	; 239
     4f6:	8c 93       	st	X, r24
}
     4f8:	df 91       	pop	r29
     4fa:	cf 91       	pop	r28
     4fc:	08 95       	ret

000004fe <toggle>:

	//led[led_index].state ^= led[led_index].state;
	//
	//spi_data[led[led_index].spi_byte] ^= (-led[led_index].state^spi_data[led[led_index].spi_byte]) & led[led_index].spi_bit;
		
	if (led[led_index].state) {
     4fe:	28 2f       	mov	r18, r24
     500:	30 e0       	ldi	r19, 0x00	; 0
     502:	f9 01       	movw	r30, r18
     504:	ee 0f       	add	r30, r30
     506:	ff 1f       	adc	r31, r31
     508:	2e 0f       	add	r18, r30
     50a:	3f 1f       	adc	r19, r31
     50c:	f9 01       	movw	r30, r18
     50e:	e8 59       	subi	r30, 0x98	; 152
     510:	fe 4f       	sbci	r31, 0xFE	; 254
     512:	90 81       	ld	r25, Z
     514:	94 ff       	sbrs	r25, 4
     516:	03 c0       	rjmp	.+6      	; 0x51e <toggle+0x20>
		
		turn_off(led_index);
     518:	0e 94 60 02 	call	0x4c0	; 0x4c0 <turn_off>
     51c:	08 95       	ret
		
	} else { 
		
		turn_on(led_index);
     51e:	0e 94 42 02 	call	0x484	; 0x484 <turn_on>
     522:	08 95       	ret

00000524 <turn_off_all_inst_leds>:
	}
}

void turn_off_all_inst_leds(void) { //TODO: make masks constants

	spi_data[2] &= spi_data[2] & 0b00001111; //turn off AC, BD, SD, LT
     524:	e8 e6       	ldi	r30, 0x68	; 104
     526:	f2 e0       	ldi	r31, 0x02	; 2
     528:	82 81       	ldd	r24, Z+2	; 0x02
     52a:	8f 70       	andi	r24, 0x0F	; 15
     52c:	82 83       	std	Z+2, r24	; 0x02
	spi_data[7] &= spi_data[7] & 0b00100000; // turn off MT, HT, RS, CP, MA, CB, CY
     52e:	87 81       	ldd	r24, Z+7	; 0x07
     530:	80 72       	andi	r24, 0x20	; 32
     532:	87 83       	std	Z+7, r24	; 0x07
	spi_data[3] &= spi_data[3] & 0b00001111; // turn off LC, MC, HC, CL
     534:	83 81       	ldd	r24, Z+3	; 0x03
     536:	8f 70       	andi	r24, 0x0F	; 15
     538:	83 83       	std	Z+3, r24	; 0x03
	spi_data[6] &= spi_data[6] & 0b11001111; //turn off OH, CH	
     53a:	86 81       	ldd	r24, Z+6	; 0x06
     53c:	8f 7c       	andi	r24, 0xCF	; 207
     53e:	86 83       	std	Z+6, r24	; 0x06
     540:	08 95       	ret

00000542 <note_off_event>:
	}

		
}

void note_off_event(MidiDevice * device, uint8_t status, uint8_t note, uint8_t velocity) {}
     542:	08 95       	ret

00000544 <real_time_event>:

void real_time_event(MidiDevice * device, uint8_t real_time_byte) {}
     544:	08 95       	ret

00000546 <note_on_event>:


void note_on_event(MidiDevice * device, uint8_t status, uint8_t note, uint8_t velocity) {
	

	if (note < 16) { //TODO: implement MIDI learn function to dynamically map notes to drum hits
     546:	40 31       	cpi	r20, 0x10	; 16
     548:	20 f4       	brcc	.+8      	; 0x552 <note_on_event+0xc>
     54a:	62 2f       	mov	r22, r18
     54c:	84 2f       	mov	r24, r20
		
		trigger_drum(note, velocity);
     54e:	0e 94 cf 00 	call	0x19e	; 0x19e <trigger_drum>
     552:	08 95       	ret

00000554 <update_tempo>:
}

void update_tempo() {
	
	int tempo_adc_change = 0;
	new_tempo_adc = read_tempo_pot();
     554:	0e 94 9b 00 	call	0x136	; 0x136 <read_tempo_pot>
     558:	90 93 5c 02 	sts	0x025C, r25
     55c:	80 93 5b 02 	sts	0x025B, r24
	tempo_adc_change = new_tempo_adc - current_tempo_adc;
     560:	20 91 59 02 	lds	r18, 0x0259
     564:	30 91 5a 02 	lds	r19, 0x025A
     568:	82 1b       	sub	r24, r18
     56a:	93 0b       	sbc	r25, r19
	current_tempo_adc = current_tempo_adc + (tempo_adc_change >>2);
     56c:	95 95       	asr	r25
     56e:	87 95       	ror	r24
     570:	95 95       	asr	r25
     572:	87 95       	ror	r24
     574:	82 0f       	add	r24, r18
     576:	93 1f       	adc	r25, r19
     578:	90 93 5a 02 	sts	0x025A, r25
     57c:	80 93 59 02 	sts	0x0259, r24
	
	internal_clock.rate = (1023 - current_tempo_adc) + TIMER_OFFSET; //offset to get desirable tempo range
     580:	23 e6       	ldi	r18, 0x63	; 99
     582:	34 e0       	ldi	r19, 0x04	; 4
     584:	a9 01       	movw	r20, r18
     586:	48 1b       	sub	r20, r24
     588:	59 0b       	sbc	r21, r25
     58a:	ca 01       	movw	r24, r20
     58c:	e3 e7       	ldi	r30, 0x73	; 115
     58e:	f2 e0       	ldi	r31, 0x02	; 2
     590:	54 83       	std	Z+4, r21	; 0x04
     592:	43 83       	std	Z+3, r20	; 0x03

	if (internal_clock.rate != internal_clock.previous_rate) {
     594:	25 81       	ldd	r18, Z+5	; 0x05
     596:	36 81       	ldd	r19, Z+6	; 0x06
     598:	42 17       	cp	r20, r18
     59a:	53 07       	cpc	r21, r19
     59c:	11 f0       	breq	.+4      	; 0x5a2 <update_tempo+0x4e>
		
		update_clock_rate(internal_clock.rate);
     59e:	0e 94 be 00 	call	0x17c	; 0x17c <update_clock_rate>
		
	}
	
	internal_clock.previous_rate = internal_clock.rate;	
     5a2:	e3 e7       	ldi	r30, 0x73	; 115
     5a4:	f2 e0       	ldi	r31, 0x02	; 2
     5a6:	83 81       	ldd	r24, Z+3	; 0x03
     5a8:	94 81       	ldd	r25, Z+4	; 0x04
     5aa:	96 83       	std	Z+6, r25	; 0x06
     5ac:	85 83       	std	Z+5, r24	; 0x05
     5ae:	08 95       	ret

000005b0 <update_step_board>:
	
}

void update_step_board() {
     5b0:	bf 92       	push	r11
     5b2:	cf 92       	push	r12
     5b4:	df 92       	push	r13
     5b6:	ef 92       	push	r14
     5b8:	ff 92       	push	r15
     5ba:	0f 93       	push	r16
     5bc:	1f 93       	push	r17
     5be:	cf 93       	push	r28
     5c0:	df 93       	push	r29
	
	if (sequencer.START && (sequencer.mode == PATTERN_FIRST || sequencer.mode == PATTERN_SECOND)) {
     5c2:	80 91 76 03 	lds	r24, 0x0376
     5c6:	81 ff       	sbrs	r24, 1
     5c8:	9a c0       	rjmp	.+308    	; 0x6fe <update_step_board+0x14e>
     5ca:	80 91 75 03 	lds	r24, 0x0375
     5ce:	81 50       	subi	r24, 0x01	; 1
     5d0:	82 30       	cpi	r24, 0x02	; 2
     5d2:	08 f0       	brcs	.+2      	; 0x5d6 <update_step_board+0x26>
     5d4:	94 c0       	rjmp	.+296    	; 0x6fe <update_step_board+0x14e>
		
		if (sequencer.current_inst == AC) { //bah, inefficient duplicate code to handle ACCENT
     5d6:	80 91 cb 03 	lds	r24, 0x03CB
     5da:	80 31       	cpi	r24, 0x10	; 16
     5dc:	09 f0       	breq	.+2      	; 0x5e0 <update_step_board+0x30>
     5de:	45 c0       	rjmp	.+138    	; 0x66a <update_step_board+0xba>
     5e0:	0f 2e       	mov	r0, r31
     5e2:	f7 eb       	ldi	r31, 0xB7	; 183
     5e4:	cf 2e       	mov	r12, r31
     5e6:	f3 e0       	ldi	r31, 0x03	; 3
     5e8:	df 2e       	mov	r13, r31
     5ea:	f0 2d       	mov	r31, r0
     5ec:	c0 e0       	ldi	r28, 0x00	; 0
     5ee:	d0 e0       	ldi	r29, 0x00	; 0
							
				if (button[i].state) {
								
					toggle(i);
					button[i].state ^= button[i].state;
					sequencer.current_pattern.accent[i] ^= 1<<0; //just toggle first bit
     5f0:	bb 24       	eor	r11, r11
     5f2:	b3 94       	inc	r11
					sequencer.step_led_mask[sequencer.current_inst] ^= 1<<i; //this creates array out of bound issue, because AC = 16. Why no compile errors or warnings?
     5f4:	0f 2e       	mov	r0, r31
     5f6:	fb ec       	ldi	r31, 0xCB	; 203
     5f8:	ef 2e       	mov	r14, r31
     5fa:	f3 e0       	ldi	r31, 0x03	; 3
     5fc:	ff 2e       	mov	r15, r31
     5fe:	f0 2d       	mov	r31, r0
     600:	01 e0       	ldi	r16, 0x01	; 1
     602:	10 e0       	ldi	r17, 0x00	; 0
		
		if (sequencer.current_inst == AC) { //bah, inefficient duplicate code to handle ACCENT
				
			for (int i = 0; i < 16; i++) { //button and led indices match for 0-15. How convenient.
							
				if (button[i].state) {
     604:	fe 01       	movw	r30, r28
     606:	ee 0f       	add	r30, r30
     608:	ff 1f       	adc	r31, r31
     60a:	ee 5e       	subi	r30, 0xEE	; 238
     60c:	fd 4f       	sbci	r31, 0xFD	; 253
     60e:	80 81       	ld	r24, Z
     610:	86 ff       	sbrs	r24, 6
     612:	23 c0       	rjmp	.+70     	; 0x65a <update_step_board+0xaa>
								
					toggle(i);
     614:	8c 2f       	mov	r24, r28
     616:	0e 94 7f 02 	call	0x4fe	; 0x4fe <toggle>
					button[i].state ^= button[i].state;
     61a:	fe 01       	movw	r30, r28
     61c:	ee 0f       	add	r30, r30
     61e:	ff 1f       	adc	r31, r31
     620:	ee 5e       	subi	r30, 0xEE	; 238
     622:	fd 4f       	sbci	r31, 0xFD	; 253
     624:	80 81       	ld	r24, Z
     626:	8f 7b       	andi	r24, 0xBF	; 191
     628:	80 83       	st	Z, r24
					sequencer.current_pattern.accent[i] ^= 1<<0; //just toggle first bit
     62a:	d6 01       	movw	r26, r12
     62c:	8c 91       	ld	r24, X
     62e:	8b 25       	eor	r24, r11
     630:	8c 93       	st	X, r24
					sequencer.step_led_mask[sequencer.current_inst] ^= 1<<i; //this creates array out of bound issue, because AC = 16. Why no compile errors or warnings?
     632:	d7 01       	movw	r26, r14
     634:	ec 91       	ld	r30, X
     636:	f0 e0       	ldi	r31, 0x00	; 0
     638:	ee 0f       	add	r30, r30
     63a:	ff 1f       	adc	r31, r31
     63c:	e4 53       	subi	r30, 0x34	; 52
     63e:	fc 4f       	sbci	r31, 0xFC	; 252
     640:	80 81       	ld	r24, Z
     642:	91 81       	ldd	r25, Z+1	; 0x01
     644:	98 01       	movw	r18, r16
     646:	0c 2e       	mov	r0, r28
     648:	02 c0       	rjmp	.+4      	; 0x64e <update_step_board+0x9e>
     64a:	22 0f       	add	r18, r18
     64c:	33 1f       	adc	r19, r19
     64e:	0a 94       	dec	r0
     650:	e2 f7       	brpl	.-8      	; 0x64a <update_step_board+0x9a>
     652:	82 27       	eor	r24, r18
     654:	93 27       	eor	r25, r19
     656:	91 83       	std	Z+1, r25	; 0x01
     658:	80 83       	st	Z, r24
	
	if (sequencer.START && (sequencer.mode == PATTERN_FIRST || sequencer.mode == PATTERN_SECOND)) {
		
		if (sequencer.current_inst == AC) { //bah, inefficient duplicate code to handle ACCENT
				
			for (int i = 0; i < 16; i++) { //button and led indices match for 0-15. How convenient.
     65a:	21 96       	adiw	r28, 0x01	; 1
     65c:	ef ef       	ldi	r30, 0xFF	; 255
     65e:	ce 1a       	sub	r12, r30
     660:	de 0a       	sbc	r13, r30
     662:	c0 31       	cpi	r28, 0x10	; 16
     664:	d1 05       	cpc	r29, r1
     666:	71 f6       	brne	.-100    	; 0x604 <update_step_board+0x54>
     668:	4a c0       	rjmp	.+148    	; 0x6fe <update_step_board+0x14e>
     66a:	07 e7       	ldi	r16, 0x77	; 119
     66c:	13 e0       	ldi	r17, 0x03	; 3

void update_step_board() {
	
	if (sequencer.START && (sequencer.mode == PATTERN_FIRST || sequencer.mode == PATTERN_SECOND)) {
		
		if (sequencer.current_inst == AC) { //bah, inefficient duplicate code to handle ACCENT
     66e:	c0 e0       	ldi	r28, 0x00	; 0
     670:	d0 e0       	ldi	r29, 0x00	; 0
				
			if (button[i].state) {
					
				toggle(i);
				button[i].state ^= button[i].state;
				sequencer.current_pattern.first_part[i] ^= 1<<sequencer.current_inst; //just work with first part of pattern and only 16 steps for now				
     672:	0f 2e       	mov	r0, r31
     674:	fb ec       	ldi	r31, 0xCB	; 203
     676:	ef 2e       	mov	r14, r31
     678:	f3 e0       	ldi	r31, 0x03	; 3
     67a:	ff 2e       	mov	r15, r31
     67c:	f0 2d       	mov	r31, r0
     67e:	cc 24       	eor	r12, r12
     680:	c3 94       	inc	r12
     682:	d1 2c       	mov	r13, r1
			}
			return;		
		}
		for (int i = 0; i < 16; i++) { //button and led indices match for 0-15. How convenient.
				
			if (button[i].state) {
     684:	fe 01       	movw	r30, r28
     686:	ee 0f       	add	r30, r30
     688:	ff 1f       	adc	r31, r31
     68a:	ee 5e       	subi	r30, 0xEE	; 238
     68c:	fd 4f       	sbci	r31, 0xFD	; 253
     68e:	80 81       	ld	r24, Z
     690:	86 ff       	sbrs	r24, 6
     692:	2f c0       	rjmp	.+94     	; 0x6f2 <update_step_board+0x142>
					
				toggle(i);
     694:	8c 2f       	mov	r24, r28
     696:	0e 94 7f 02 	call	0x4fe	; 0x4fe <toggle>
				button[i].state ^= button[i].state;
     69a:	fe 01       	movw	r30, r28
     69c:	ee 0f       	add	r30, r30
     69e:	ff 1f       	adc	r31, r31
     6a0:	ee 5e       	subi	r30, 0xEE	; 238
     6a2:	fd 4f       	sbci	r31, 0xFD	; 253
     6a4:	80 81       	ld	r24, Z
     6a6:	8f 7b       	andi	r24, 0xBF	; 191
     6a8:	80 83       	st	Z, r24
				sequencer.current_pattern.first_part[i] ^= 1<<sequencer.current_inst; //just work with first part of pattern and only 16 steps for now				
     6aa:	d7 01       	movw	r26, r14
     6ac:	8c 91       	ld	r24, X
     6ae:	e8 2f       	mov	r30, r24
     6b0:	f0 e0       	ldi	r31, 0x00	; 0
     6b2:	96 01       	movw	r18, r12
     6b4:	02 c0       	rjmp	.+4      	; 0x6ba <update_step_board+0x10a>
     6b6:	22 0f       	add	r18, r18
     6b8:	33 1f       	adc	r19, r19
     6ba:	8a 95       	dec	r24
     6bc:	e2 f7       	brpl	.-8      	; 0x6b6 <update_step_board+0x106>
     6be:	c9 01       	movw	r24, r18
     6c0:	d8 01       	movw	r26, r16
     6c2:	2d 91       	ld	r18, X+
     6c4:	3c 91       	ld	r19, X
     6c6:	11 97       	sbiw	r26, 0x01	; 1
     6c8:	82 27       	eor	r24, r18
     6ca:	93 27       	eor	r25, r19
     6cc:	8d 93       	st	X+, r24
     6ce:	9c 93       	st	X, r25
				sequencer.step_led_mask[sequencer.current_inst] ^= 1<<i;				
     6d0:	ee 0f       	add	r30, r30
     6d2:	ff 1f       	adc	r31, r31
     6d4:	e4 53       	subi	r30, 0x34	; 52
     6d6:	fc 4f       	sbci	r31, 0xFC	; 252
     6d8:	80 81       	ld	r24, Z
     6da:	91 81       	ldd	r25, Z+1	; 0x01
     6dc:	96 01       	movw	r18, r12
     6de:	0c 2e       	mov	r0, r28
     6e0:	02 c0       	rjmp	.+4      	; 0x6e6 <update_step_board+0x136>
     6e2:	22 0f       	add	r18, r18
     6e4:	33 1f       	adc	r19, r19
     6e6:	0a 94       	dec	r0
     6e8:	e2 f7       	brpl	.-8      	; 0x6e2 <update_step_board+0x132>
     6ea:	82 27       	eor	r24, r18
     6ec:	93 27       	eor	r25, r19
     6ee:	91 83       	std	Z+1, r25	; 0x01
     6f0:	80 83       	st	Z, r24
					sequencer.step_led_mask[sequencer.current_inst] ^= 1<<i; //this creates array out of bound issue, because AC = 16. Why no compile errors or warnings?
				}
			}
			return;		
		}
		for (int i = 0; i < 16; i++) { //button and led indices match for 0-15. How convenient.
     6f2:	21 96       	adiw	r28, 0x01	; 1
     6f4:	0e 5f       	subi	r16, 0xFE	; 254
     6f6:	1f 4f       	sbci	r17, 0xFF	; 255
     6f8:	c0 31       	cpi	r28, 0x10	; 16
     6fa:	d1 05       	cpc	r29, r1
     6fc:	19 f6       	brne	.-122    	; 0x684 <update_step_board+0xd4>
				sequencer.current_pattern.first_part[i] ^= 1<<sequencer.current_inst; //just work with first part of pattern and only 16 steps for now				
				sequencer.step_led_mask[sequencer.current_inst] ^= 1<<i;				
			}			
		}
	}
}
     6fe:	df 91       	pop	r29
     700:	cf 91       	pop	r28
     702:	1f 91       	pop	r17
     704:	0f 91       	pop	r16
     706:	ff 90       	pop	r15
     708:	ef 90       	pop	r14
     70a:	df 90       	pop	r13
     70c:	cf 90       	pop	r12
     70e:	bf 90       	pop	r11
     710:	08 95       	ret

00000712 <live_hits>:

void live_hits(void) {
	
	if (button[INST_BD_2_SW].state) {
     712:	80 91 34 02 	lds	r24, 0x0234
     716:	86 ff       	sbrs	r24, 6
     718:	08 c0       	rjmp	.+16     	; 0x72a <live_hits+0x18>
		
		button[INST_BD_2_SW].state ^= button[INST_BD_2_SW].state;
     71a:	e4 e3       	ldi	r30, 0x34	; 52
     71c:	f2 e0       	ldi	r31, 0x02	; 2
     71e:	8f 7b       	andi	r24, 0xBF	; 191
     720:	80 83       	st	Z, r24
		trigger_drum(BD, 0);
     722:	60 e0       	ldi	r22, 0x00	; 0
     724:	80 e0       	ldi	r24, 0x00	; 0
     726:	0e 94 cf 00 	call	0x19e	; 0x19e <trigger_drum>
	}
	
	if (button[INST_SD_3_SW].state) {
     72a:	80 91 36 02 	lds	r24, 0x0236
     72e:	86 ff       	sbrs	r24, 6
     730:	08 c0       	rjmp	.+16     	; 0x742 <live_hits+0x30>
		
		button[INST_SD_3_SW].state ^= button[INST_SD_3_SW].state;
     732:	e6 e3       	ldi	r30, 0x36	; 54
     734:	f2 e0       	ldi	r31, 0x02	; 2
     736:	8f 7b       	andi	r24, 0xBF	; 191
     738:	80 83       	st	Z, r24
		trigger_drum(SD,0);
     73a:	60 e0       	ldi	r22, 0x00	; 0
     73c:	81 e0       	ldi	r24, 0x01	; 1
     73e:	0e 94 cf 00 	call	0x19e	; 0x19e <trigger_drum>
	}
	
	if (button[INST_LT_4_SW].state) {
     742:	80 91 38 02 	lds	r24, 0x0238
     746:	86 ff       	sbrs	r24, 6
     748:	08 c0       	rjmp	.+16     	; 0x75a <live_hits+0x48>
		
		button[INST_LT_4_SW].state ^= button[INST_LT_4_SW].state;
     74a:	e8 e3       	ldi	r30, 0x38	; 56
     74c:	f2 e0       	ldi	r31, 0x02	; 2
     74e:	8f 7b       	andi	r24, 0xBF	; 191
     750:	80 83       	st	Z, r24
		trigger_drum(LT, 0);
     752:	60 e0       	ldi	r22, 0x00	; 0
     754:	82 e0       	ldi	r24, 0x02	; 2
     756:	0e 94 cf 00 	call	0x19e	; 0x19e <trigger_drum>
	}
	
	if (button[INST_MT_5_SW].state) {
     75a:	80 91 3a 02 	lds	r24, 0x023A
     75e:	86 ff       	sbrs	r24, 6
     760:	08 c0       	rjmp	.+16     	; 0x772 <live_hits+0x60>
		
		button[INST_MT_5_SW].state ^= button[INST_MT_5_SW].state;
     762:	ea e3       	ldi	r30, 0x3A	; 58
     764:	f2 e0       	ldi	r31, 0x02	; 2
     766:	8f 7b       	andi	r24, 0xBF	; 191
     768:	80 83       	st	Z, r24
		trigger_drum(MT,0);
     76a:	60 e0       	ldi	r22, 0x00	; 0
     76c:	83 e0       	ldi	r24, 0x03	; 3
     76e:	0e 94 cf 00 	call	0x19e	; 0x19e <trigger_drum>
	}	
	
	if (button[INST_HT_6_SW].state) {
     772:	80 91 3c 02 	lds	r24, 0x023C
     776:	86 ff       	sbrs	r24, 6
     778:	08 c0       	rjmp	.+16     	; 0x78a <live_hits+0x78>
		
		button[INST_HT_6_SW].state ^= button[INST_HT_6_SW].state;
     77a:	ec e3       	ldi	r30, 0x3C	; 60
     77c:	f2 e0       	ldi	r31, 0x02	; 2
     77e:	8f 7b       	andi	r24, 0xBF	; 191
     780:	80 83       	st	Z, r24
		trigger_drum(HT, 0);
     782:	60 e0       	ldi	r22, 0x00	; 0
     784:	84 e0       	ldi	r24, 0x04	; 4
     786:	0e 94 cf 00 	call	0x19e	; 0x19e <trigger_drum>
	}
	
	if (button[INST_RS_7_SW].state) {
     78a:	80 91 3e 02 	lds	r24, 0x023E
     78e:	86 ff       	sbrs	r24, 6
     790:	08 c0       	rjmp	.+16     	; 0x7a2 <live_hits+0x90>
		
		button[INST_RS_7_SW].state ^= button[INST_RS_7_SW].state;
     792:	ee e3       	ldi	r30, 0x3E	; 62
     794:	f2 e0       	ldi	r31, 0x02	; 2
     796:	8f 7b       	andi	r24, 0xBF	; 191
     798:	80 83       	st	Z, r24
		trigger_drum(RS,0);
     79a:	60 e0       	ldi	r22, 0x00	; 0
     79c:	85 e0       	ldi	r24, 0x05	; 5
     79e:	0e 94 cf 00 	call	0x19e	; 0x19e <trigger_drum>
	}
	
	if (button[INST_CP_8_SW].state) {
     7a2:	80 91 40 02 	lds	r24, 0x0240
     7a6:	86 ff       	sbrs	r24, 6
     7a8:	08 c0       	rjmp	.+16     	; 0x7ba <live_hits+0xa8>
		
		button[INST_CP_8_SW].state ^= button[INST_CP_8_SW].state;
     7aa:	e0 e4       	ldi	r30, 0x40	; 64
     7ac:	f2 e0       	ldi	r31, 0x02	; 2
     7ae:	8f 7b       	andi	r24, 0xBF	; 191
     7b0:	80 83       	st	Z, r24
		trigger_drum(CP, 0);
     7b2:	60 e0       	ldi	r22, 0x00	; 0
     7b4:	86 e0       	ldi	r24, 0x06	; 6
     7b6:	0e 94 cf 00 	call	0x19e	; 0x19e <trigger_drum>
	}
	
	if (button[INST_CB_9_SW].state) {
     7ba:	80 91 42 02 	lds	r24, 0x0242
     7be:	86 ff       	sbrs	r24, 6
     7c0:	08 c0       	rjmp	.+16     	; 0x7d2 <live_hits+0xc0>
		
		button[INST_CB_9_SW].state ^= button[INST_CB_9_SW].state;
     7c2:	e2 e4       	ldi	r30, 0x42	; 66
     7c4:	f2 e0       	ldi	r31, 0x02	; 2
     7c6:	8f 7b       	andi	r24, 0xBF	; 191
     7c8:	80 83       	st	Z, r24
		trigger_drum(CB,0);
     7ca:	60 e0       	ldi	r22, 0x00	; 0
     7cc:	87 e0       	ldi	r24, 0x07	; 7
     7ce:	0e 94 cf 00 	call	0x19e	; 0x19e <trigger_drum>
	}	
	if (button[INST_CY_10_SW].state) {
     7d2:	80 91 44 02 	lds	r24, 0x0244
     7d6:	86 ff       	sbrs	r24, 6
     7d8:	08 c0       	rjmp	.+16     	; 0x7ea <live_hits+0xd8>
		
		button[INST_CY_10_SW].state ^= button[INST_CY_10_SW].state;
     7da:	e4 e4       	ldi	r30, 0x44	; 68
     7dc:	f2 e0       	ldi	r31, 0x02	; 2
     7de:	8f 7b       	andi	r24, 0xBF	; 191
     7e0:	80 83       	st	Z, r24
		trigger_drum(CY,0);
     7e2:	60 e0       	ldi	r22, 0x00	; 0
     7e4:	88 e0       	ldi	r24, 0x08	; 8
     7e6:	0e 94 cf 00 	call	0x19e	; 0x19e <trigger_drum>
	}
	
	if (button[INST_OH_11_SW].state) {
     7ea:	80 91 46 02 	lds	r24, 0x0246
     7ee:	86 ff       	sbrs	r24, 6
     7f0:	08 c0       	rjmp	.+16     	; 0x802 <live_hits+0xf0>
		
		button[INST_OH_11_SW].state ^= button[INST_OH_11_SW].state;
     7f2:	e6 e4       	ldi	r30, 0x46	; 70
     7f4:	f2 e0       	ldi	r31, 0x02	; 2
     7f6:	8f 7b       	andi	r24, 0xBF	; 191
     7f8:	80 83       	st	Z, r24
		trigger_drum(OH, 0);
     7fa:	60 e0       	ldi	r22, 0x00	; 0
     7fc:	89 e0       	ldi	r24, 0x09	; 9
     7fe:	0e 94 cf 00 	call	0x19e	; 0x19e <trigger_drum>
	}
	
	if (button[INST_CH_12_SW].state) {
     802:	80 91 48 02 	lds	r24, 0x0248
     806:	86 ff       	sbrs	r24, 6
     808:	08 c0       	rjmp	.+16     	; 0x81a <live_hits+0x108>
		
		button[INST_CH_12_SW].state ^= button[INST_CH_12_SW].state;
     80a:	e8 e4       	ldi	r30, 0x48	; 72
     80c:	f2 e0       	ldi	r31, 0x02	; 2
     80e:	8f 7b       	andi	r24, 0xBF	; 191
     810:	80 83       	st	Z, r24
		trigger_drum(CH,0);
     812:	60 e0       	ldi	r22, 0x00	; 0
     814:	8a e0       	ldi	r24, 0x0A	; 10
     816:	0e 94 cf 00 	call	0x19e	; 0x19e <trigger_drum>
     81a:	08 95       	ret

0000081c <refresh>:
}




void refresh(void) {
     81c:	cf 93       	push	r28
     81e:	df 93       	push	r29
	//if (sequencer.SHIFT) update_tempo(); //this analog reading is noisy - need to do it less often, like maybe only when shift is pressed?
	update_tempo(); //meh, doesn't seem to make a huge difference.
     820:	0e 94 aa 02 	call	0x554	; 0x554 <update_tempo>
	read_switches();
     824:	0e 94 83 05 	call	0xb06	; 0xb06 <read_switches>
	check_start_stop_tap();
     828:	0e 94 f3 05 	call	0xbe6	; 0xbe6 <check_start_stop_tap>
	
	parse_switch_data();
     82c:	0e 94 cc 05 	call	0xb98	; 0xb98 <parse_switch_data>
	if (sequencer.mode == MANUAL_PLAY) live_hits();
     830:	80 91 75 03 	lds	r24, 0x0375
     834:	83 30       	cpi	r24, 0x03	; 3
     836:	11 f4       	brne	.+4      	; 0x83c <refresh+0x20>
     838:	0e 94 89 03 	call	0x712	; 0x712 <live_hits>
	update_mode();
     83c:	0e 94 1c 05 	call	0xa38	; 0xa38 <update_mode>
	check_inst_switches();
     840:	0e 94 15 06 	call	0xc2a	; 0xc2a <check_inst_switches>
	update_step_board();
     844:	0e 94 d8 02 	call	0x5b0	; 0x5b0 <update_step_board>
	if (sequencer.START) { //this is an effort to synchronize SPI update within main loop - basically manipulate SPI data bytes and then do one single update_spi() call per loop
     848:	80 91 76 03 	lds	r24, 0x0376
     84c:	81 ff       	sbrs	r24, 1
     84e:	4e c0       	rjmp	.+156    	; 0x8ec <refresh+0xd0>
		
		if (sequencer.next_step_flag) {
     850:	80 91 c8 03 	lds	r24, 0x03C8
     854:	84 ff       	sbrs	r24, 4
     856:	52 c0       	rjmp	.+164    	; 0x8fc <refresh+0xe0>
			sequencer.next_step_flag = 0;
     858:	e8 ec       	ldi	r30, 0xC8	; 200
     85a:	f3 e0       	ldi	r31, 0x03	; 3
     85c:	8f 7e       	andi	r24, 0xEF	; 239
     85e:	80 83       	st	Z, r24
			while(sequencer.trigger_finished == 0); //make sure previous instrument trigger is finished before initiating next one
     860:	80 72       	andi	r24, 0x20	; 32
     862:	88 23       	and	r24, r24
     864:	f1 f3       	breq	.-4      	; 0x862 <refresh+0x46>
			PORTD |= (1<<TRIG);
     866:	5d 9a       	sbi	0x0b, 5	; 11
			spi_data[1] = (1 << sequencer.current_step) | sequencer.step_led_mask[sequencer.current_inst];// | sequencer.current_pattern.first_part[sequencer.current_inst];
     868:	c8 ec       	ldi	r28, 0xC8	; 200
     86a:	d3 e0       	ldi	r29, 0x03	; 3
     86c:	88 81       	ld	r24, Y
     86e:	8f 70       	andi	r24, 0x0F	; 15
     870:	21 e0       	ldi	r18, 0x01	; 1
     872:	30 e0       	ldi	r19, 0x00	; 0
     874:	02 c0       	rjmp	.+4      	; 0x87a <refresh+0x5e>
     876:	22 0f       	add	r18, r18
     878:	33 1f       	adc	r19, r19
     87a:	8a 95       	dec	r24
     87c:	e2 f7       	brpl	.-8      	; 0x876 <refresh+0x5a>
     87e:	e0 91 cb 03 	lds	r30, 0x03CB
     882:	f0 e0       	ldi	r31, 0x00	; 0
     884:	ee 0f       	add	r30, r30
     886:	ff 1f       	adc	r31, r31
     888:	e4 53       	subi	r30, 0x34	; 52
     88a:	fc 4f       	sbci	r31, 0xFC	; 252
     88c:	90 81       	ld	r25, Z
     88e:	81 81       	ldd	r24, Z+1	; 0x01
			spi_data[1] &= ~(sequencer.step_led_mask[sequencer.current_inst] & (1<<sequencer.current_step));
     890:	e8 e6       	ldi	r30, 0x68	; 104
     892:	f2 e0       	ldi	r31, 0x02	; 2
     894:	49 2f       	mov	r20, r25
     896:	42 23       	and	r20, r18
     898:	40 95       	com	r20
		
		if (sequencer.next_step_flag) {
			sequencer.next_step_flag = 0;
			while(sequencer.trigger_finished == 0); //make sure previous instrument trigger is finished before initiating next one
			PORTD |= (1<<TRIG);
			spi_data[1] = (1 << sequencer.current_step) | sequencer.step_led_mask[sequencer.current_inst];// | sequencer.current_pattern.first_part[sequencer.current_inst];
     89a:	92 2b       	or	r25, r18
			spi_data[1] &= ~(sequencer.step_led_mask[sequencer.current_inst] & (1<<sequencer.current_step));
     89c:	94 23       	and	r25, r20
     89e:	91 83       	std	Z+1, r25	; 0x01
			spi_data[0] = ((1 << sequencer.current_step) >> 8) | (sequencer.step_led_mask[sequencer.current_inst] >> 8);// | (sequencer.current_pattern.first_part[sequencer.current_inst] >> 8);
			spi_data[0] &= ~((sequencer.step_led_mask[sequencer.current_inst]>>8) & ((1<<sequencer.current_step) >>8));
     8a0:	98 2f       	mov	r25, r24
     8a2:	93 23       	and	r25, r19
     8a4:	90 95       	com	r25
			sequencer.next_step_flag = 0;
			while(sequencer.trigger_finished == 0); //make sure previous instrument trigger is finished before initiating next one
			PORTD |= (1<<TRIG);
			spi_data[1] = (1 << sequencer.current_step) | sequencer.step_led_mask[sequencer.current_inst];// | sequencer.current_pattern.first_part[sequencer.current_inst];
			spi_data[1] &= ~(sequencer.step_led_mask[sequencer.current_inst] & (1<<sequencer.current_step));
			spi_data[0] = ((1 << sequencer.current_step) >> 8) | (sequencer.step_led_mask[sequencer.current_inst] >> 8);// | (sequencer.current_pattern.first_part[sequencer.current_inst] >> 8);
     8a6:	83 2b       	or	r24, r19
			spi_data[0] &= ~((sequencer.step_led_mask[sequencer.current_inst]>>8) & ((1<<sequencer.current_step) >>8));
     8a8:	89 23       	and	r24, r25
     8aa:	80 83       	st	Z, r24
			trigger_step(); 
     8ac:	0e 94 37 01 	call	0x26e	; 0x26e <trigger_step>
			if (sequencer.current_pattern.accent[sequencer.current_step] &1) {
     8b0:	e8 81       	ld	r30, Y
     8b2:	ef 70       	andi	r30, 0x0F	; 15
     8b4:	f0 e0       	ldi	r31, 0x00	; 0
     8b6:	e9 54       	subi	r30, 0x49	; 73
     8b8:	fc 4f       	sbci	r31, 0xFC	; 252
     8ba:	80 81       	ld	r24, Z
     8bc:	80 ff       	sbrs	r24, 0
     8be:	08 c0       	rjmp	.+16     	; 0x8d0 <refresh+0xb4>
				spi_data[8] |= 1<<ACCENT;
     8c0:	e8 e6       	ldi	r30, 0x68	; 104
     8c2:	f2 e0       	ldi	r31, 0x02	; 2
     8c4:	80 85       	ldd	r24, Z+8	; 0x08
     8c6:	81 60       	ori	r24, 0x01	; 1
     8c8:	80 87       	std	Z+8, r24	; 0x08
				turn_on(ACCENT_1_LED);
     8ca:	84 e1       	ldi	r24, 0x14	; 20
     8cc:	0e 94 42 02 	call	0x484	; 0x484 <turn_on>
			}
			TIMSK0 |= (1<<OCIE0A); //enable output compare match A
     8d0:	ee e6       	ldi	r30, 0x6E	; 110
     8d2:	f0 e0       	ldi	r31, 0x00	; 0
     8d4:	80 81       	ld	r24, Z
     8d6:	82 60       	ori	r24, 0x02	; 2
     8d8:	80 83       	st	Z, r24
			TCCR0B |= (1<<CS01) | (1<<CS00); //set to /64 of system clock start timer
     8da:	85 b5       	in	r24, 0x25	; 37
     8dc:	83 60       	ori	r24, 0x03	; 3
     8de:	85 bd       	out	0x25, r24	; 37
			sequencer.trigger_finished = 0;
     8e0:	e8 ec       	ldi	r30, 0xC8	; 200
     8e2:	f3 e0       	ldi	r31, 0x03	; 3
     8e4:	80 81       	ld	r24, Z
     8e6:	8f 7d       	andi	r24, 0xDF	; 223
     8e8:	80 83       	st	Z, r24
     8ea:	08 c0       	rjmp	.+16     	; 0x8fc <refresh+0xe0>
		} else {
			

			
		}		
	} else if (sequencer.next_step_flag){
     8ec:	80 91 c8 03 	lds	r24, 0x03C8
     8f0:	84 ff       	sbrs	r24, 4
     8f2:	04 c0       	rjmp	.+8      	; 0x8fc <refresh+0xe0>
		
			sequencer.next_step_flag = 0;
     8f4:	e8 ec       	ldi	r30, 0xC8	; 200
     8f6:	f3 e0       	ldi	r31, 0x03	; 3
     8f8:	8f 7e       	andi	r24, 0xEF	; 239
     8fa:	80 83       	st	Z, r24
		//sequencer.trigger_finished = 0;
		//clear_all_trigs();
		//spi_data[8] = 0; //err wait a sec - this trigger only works for AC, BC...CP. Does this mean only rising edge matters? Need to look into this.
	}
	
	update_spi();
     8fc:	0e 94 5f 05 	call	0xabe	; 0xabe <update_spi>
	PORTD &= ~(1<<TRIG);
     900:	5d 98       	cbi	0x0b, 5	; 11
	//if (trigger_finished && sequencer.SHIFT) update_tempo(); //turning off SPI during pot read creates problem for trigger interrupt
	
}
     902:	df 91       	pop	r29
     904:	cf 91       	pop	r28
     906:	08 95       	ret

00000908 <setup_midi_usart>:

void setup_midi_usart(void)
{
	uint16_t ubbr_value = 31; //16MHz/(16*31250 BAUD) - 1
	//write ubbr_value to H and L UBBR1 registers:
	UBRR0L = (unsigned char) ubbr_value;
     908:	8f e1       	ldi	r24, 0x1F	; 31
     90a:	80 93 c4 00 	sts	0x00C4, r24
	UBRR0H = (unsigned char) (ubbr_value >> 8);
     90e:	10 92 c5 00 	sts	0x00C5, r1
	
	UCSR0B = (1<<RXEN0)|(1<<TXEN0) | (1<<RXCIE0);
     912:	88 e9       	ldi	r24, 0x98	; 152
     914:	80 93 c1 00 	sts	0x00C1, r24
     918:	08 95       	ret

0000091a <__vector_18>:
	//UCSR0C |= (0<<UMSEL0)|(0<<UMSEL01)|(0<<UPM01)|(0<<UPM00)|(0<<USBS0)|(0<<UCSZ02)|(1<<UCSZ01)|(1<<UCSZ00);
}



ISR (USART0_RX_vect) { // USART receive interrupt
     91a:	1f 92       	push	r1
     91c:	0f 92       	push	r0
     91e:	0f b6       	in	r0, 0x3f	; 63
     920:	0f 92       	push	r0
     922:	11 24       	eor	r1, r1
     924:	2f 93       	push	r18
     926:	3f 93       	push	r19
     928:	4f 93       	push	r20
     92a:	5f 93       	push	r21
     92c:	6f 93       	push	r22
     92e:	7f 93       	push	r23
     930:	8f 93       	push	r24
     932:	9f 93       	push	r25
     934:	af 93       	push	r26
     936:	bf 93       	push	r27
     938:	ef 93       	push	r30
     93a:	ff 93       	push	r31
     93c:	cf 93       	push	r28
     93e:	df 93       	push	r29
     940:	1f 92       	push	r1
     942:	cd b7       	in	r28, 0x3d	; 61
     944:	de b7       	in	r29, 0x3e	; 62
	//PORTB ^= (1<<ARP_SYNC_LED); //toggle arp VCO_SYNC_LATCH_BIT LED
	uint8_t inByte = UDR0;
     946:	80 91 c6 00 	lds	r24, 0x00C6
     94a:	89 83       	std	Y+1, r24	; 0x01
	midi_device_input(&midi_device, 1, &inByte);
     94c:	ae 01       	movw	r20, r28
     94e:	4f 5f       	subi	r20, 0xFF	; 255
     950:	5f 4f       	sbci	r21, 0xFF	; 255
     952:	61 e0       	ldi	r22, 0x01	; 1
     954:	88 e8       	ldi	r24, 0x88	; 136
     956:	92 e0       	ldi	r25, 0x02	; 2
     958:	0e 94 b9 07 	call	0xf72	; 0xf72 <midi_device_input>
	//calling a function in an interrupt is inefficient according to AVR C guidelines
	// so this function should maybe be inlined in main loop if inByte is made volatile
	//***HOWEVER***, xnor-midi example code has this function being called from USART_RX_vect ISR
}
     95c:	0f 90       	pop	r0
     95e:	df 91       	pop	r29
     960:	cf 91       	pop	r28
     962:	ff 91       	pop	r31
     964:	ef 91       	pop	r30
     966:	bf 91       	pop	r27
     968:	af 91       	pop	r26
     96a:	9f 91       	pop	r25
     96c:	8f 91       	pop	r24
     96e:	7f 91       	pop	r23
     970:	6f 91       	pop	r22
     972:	5f 91       	pop	r21
     974:	4f 91       	pop	r20
     976:	3f 91       	pop	r19
     978:	2f 91       	pop	r18
     97a:	0f 90       	pop	r0
     97c:	0f be       	out	0x3f, r0	; 63
     97e:	0f 90       	pop	r0
     980:	1f 90       	pop	r1
     982:	18 95       	reti

00000984 <main>:
int main(void)
{
	
	
	
    DDRD |= (1<<TRIG); //set PD5, TRIG to output
     984:	55 9a       	sbi	0x0a, 5	; 10
	
	//setup SPI
	DDRE |= (1<<SPI_MOSI) | (1<<SPI_SS); //set MOSI and SS as outs (SS needs to be set as output or it breaks SPI
     986:	8d b1       	in	r24, 0x0d	; 13
     988:	8c 60       	ori	r24, 0x0C	; 12
     98a:	8d b9       	out	0x0d, r24	; 13
	DDRC |= (1<<SPI_CLK) | (1<<SPI_LED_LATCH) | (1<<SPI_SW_LATCH);
     98c:	87 b1       	in	r24, 0x07	; 7
     98e:	8e 60       	ori	r24, 0x0E	; 14
     990:	87 b9       	out	0x07, r24	; 7
	DDRB |= (1<<SPI_EN);
     992:	20 9a       	sbi	0x04, 0	; 4
	//DDRB &= ~((1<<TAP) | (1<<START_STOP)); //set start/stop tap pins as inputs
	
	PORTE &= ~(1<<SPI_MOSI );
     994:	73 98       	cbi	0x0e, 3	; 14
	PORTC &= ~(1<<SPI_CLK | 1<<SPI_LED_LATCH | 1<<SPI_SW_LATCH);
     996:	88 b1       	in	r24, 0x08	; 8
     998:	81 7f       	andi	r24, 0xF1	; 241
     99a:	88 b9       	out	0x08, r24	; 8
	PORTB &= ~(1<<SPI_EN); //active low
     99c:	28 98       	cbi	0x05, 0	; 5
	
	PORTC |= (1<<SPI_LED_LATCH); //toggle LED LATCH HIGH (disabled)
     99e:	43 9a       	sbi	0x08, 3	; 8
	
	SPCR1 = (1<<SPE1) | (1<<MSTR1); //Start SPI as MASTER
     9a0:	80 e5       	ldi	r24, 0x50	; 80
     9a2:	80 93 ac 00 	sts	0x00AC, r24
	SPSR1 |= (1<<SPI2X); //set clock rate to XTAL/2 (8 MHz)
     9a6:	ed ea       	ldi	r30, 0xAD	; 173
     9a8:	f0 e0       	ldi	r31, 0x00	; 0
     9aa:	80 81       	ld	r24, Z
     9ac:	81 60       	ori	r24, 0x01	; 1
     9ae:	80 83       	st	Z, r24
	
	
	
	turn_on(STEP_1_LED);
     9b0:	80 e0       	ldi	r24, 0x00	; 0
     9b2:	0e 94 42 02 	call	0x484	; 0x484 <turn_on>
	turn_on(MODE_2_PATTERN_FIRST_PART);
     9b6:	8d e1       	ldi	r24, 0x1D	; 29
     9b8:	0e 94 42 02 	call	0x484	; 0x484 <turn_on>
	turn_on(FILL_MANUAL);
     9bc:	82 e2       	ldi	r24, 0x22	; 34
     9be:	0e 94 42 02 	call	0x484	; 0x484 <turn_on>
	
	update_spi();
     9c2:	0e 94 5f 05 	call	0xabe	; 0xabe <update_spi>
	
	
	//setup Timer0 for drum triggering interrupt
	
	TCCR0A |= (1<<WGM01); //clear on compare match A
     9c6:	84 b5       	in	r24, 0x24	; 36
     9c8:	82 60       	ori	r24, 0x02	; 2
     9ca:	84 bd       	out	0x24, r24	; 36
	OCR0A = 225; //gives period of about 0.9ms
     9cc:	81 ee       	ldi	r24, 0xE1	; 225
     9ce:	87 bd       	out	0x27, r24	; 39
	
	
	
	//setup MIDI
	//initialize MIDI device
	midi_device_init(&midi_device);
     9d0:	88 e8       	ldi	r24, 0x88	; 136
     9d2:	92 e0       	ldi	r25, 0x02	; 2
     9d4:	0e 94 88 07 	call	0xf10	; 0xf10 <midi_device_init>
	//register callbacks
	midi_register_noteon_callback(&midi_device, note_on_event);
     9d8:	63 ea       	ldi	r22, 0xA3	; 163
     9da:	72 e0       	ldi	r23, 0x02	; 2
     9dc:	88 e8       	ldi	r24, 0x88	; 136
     9de:	92 e0       	ldi	r25, 0x02	; 2
     9e0:	0e 94 7c 07 	call	0xef8	; 0xef8 <midi_register_noteon_callback>
	midi_register_noteoff_callback(&midi_device, note_off_event);
     9e4:	61 ea       	ldi	r22, 0xA1	; 161
     9e6:	72 e0       	ldi	r23, 0x02	; 2
     9e8:	88 e8       	ldi	r24, 0x88	; 136
     9ea:	92 e0       	ldi	r25, 0x02	; 2
     9ec:	0e 94 80 07 	call	0xf00	; 0xf00 <midi_register_noteoff_callback>
	midi_register_realtime_callback(&midi_device, real_time_event);
     9f0:	62 ea       	ldi	r22, 0xA2	; 162
     9f2:	72 e0       	ldi	r23, 0x02	; 2
     9f4:	88 e8       	ldi	r24, 0x88	; 136
     9f6:	92 e0       	ldi	r25, 0x02	; 2
     9f8:	0e 94 84 07 	call	0xf08	; 0xf08 <midi_register_realtime_callback>
	//midi_register_songposition_callback(&midi_device, song_position_event);
	//setup MIDI USART
	setup_midi_usart();
     9fc:	0e 94 84 04 	call	0x908	; 0x908 <setup_midi_usart>
	
	setup_internal_clock();
     a00:	0e 94 b7 00 	call	0x16e	; 0x16e <setup_internal_clock>
	internal_clock.divider = 6; //6 pulses is 1/16th note - this is are default fundamental step
     a04:	e3 e7       	ldi	r30, 0x73	; 115
     a06:	f2 e0       	ldi	r31, 0x02	; 2
     a08:	86 e0       	ldi	r24, 0x06	; 6
     a0a:	80 83       	st	Z, r24
	internal_clock.ppqn_counter = 1;
     a0c:	81 e0       	ldi	r24, 0x01	; 1
     a0e:	81 83       	std	Z+1, r24	; 0x01
	//internal_clock.rate = 400; //use fixed rate to get clock working
	//update_clock_rate(internal_clock.rate);
	setup_adc();
     a10:	0e 94 88 00 	call	0x110	; 0x110 <setup_adc>
	sequencer.trigger_finished = 1;
     a14:	e8 ec       	ldi	r30, 0xC8	; 200
     a16:	f3 e0       	ldi	r31, 0x03	; 3
     a18:	80 81       	ld	r24, Z
     a1a:	80 62       	ori	r24, 0x20	; 32
     a1c:	80 83       	st	Z, r24
	sequencer.START = 0;
     a1e:	e6 e7       	ldi	r30, 0x76	; 118
     a20:	f3 e0       	ldi	r31, 0x03	; 3
     a22:	80 81       	ld	r24, Z
     a24:	8d 7f       	andi	r24, 0xFD	; 253
     a26:	80 83       	st	Z, r24
	//update_tempo();
	sei(); //enable global interrupts	
     a28:	78 94       	sei
	
    while (1) 
    {
	midi_device_process(&midi_device); //this needs to be called 'frequently' in order for MIDI to work
     a2a:	88 e8       	ldi	r24, 0x88	; 136
     a2c:	92 e0       	ldi	r25, 0x02	; 2
     a2e:	0e 94 b2 09 	call	0x1364	; 0x1364 <midi_device_process>
	
	refresh();		
     a32:	0e 94 0e 04 	call	0x81c	; 0x81c <refresh>

	
	}
     a36:	f9 cf       	rjmp	.-14     	; 0xa2a <main+0xa6>

00000a38 <update_mode>:

enum global_mode current_mode[6] = {PATTERN_CLEAR, PATTERN_FIRST, PATTERN_SECOND, MANUAL_PLAY, PLAY_RHYTHM, COMPOSE_RHYTHM};

void update_mode(void) {
	
	if (button[MODE_SW].state) {
     a38:	80 91 52 02 	lds	r24, 0x0252
     a3c:	86 ff       	sbrs	r24, 6
     a3e:	34 c0       	rjmp	.+104    	; 0xaa8 <update_mode+0x70>
		
		button[MODE_SW].state ^= button[MODE_SW].state; //toggle switch state
     a40:	e2 e5       	ldi	r30, 0x52	; 82
     a42:	f2 e0       	ldi	r31, 0x02	; 2
     a44:	8f 7b       	andi	r24, 0xBF	; 191
     a46:	80 83       	st	Z, r24
		
		if (sequencer.SHIFT) {
     a48:	80 91 76 03 	lds	r24, 0x0376
     a4c:	80 ff       	sbrs	r24, 0
     a4e:	0c c0       	rjmp	.+24     	; 0xa68 <update_mode+0x30>
			
			
			if (mode_index-- == 0) mode_index = NUM_MODES -1;
     a50:	80 91 5d 02 	lds	r24, 0x025D
     a54:	88 23       	and	r24, r24
     a56:	21 f0       	breq	.+8      	; 0xa60 <update_mode+0x28>
     a58:	81 50       	subi	r24, 0x01	; 1
     a5a:	80 93 5d 02 	sts	0x025D, r24
     a5e:	0e c0       	rjmp	.+28     	; 0xa7c <update_mode+0x44>
     a60:	85 e0       	ldi	r24, 0x05	; 5
     a62:	80 93 5d 02 	sts	0x025D, r24
     a66:	0a c0       	rjmp	.+20     	; 0xa7c <update_mode+0x44>
			
		} else {
			
			 if (++mode_index == NUM_MODES) mode_index = 0;
     a68:	80 91 5d 02 	lds	r24, 0x025D
     a6c:	8f 5f       	subi	r24, 0xFF	; 255
     a6e:	86 30       	cpi	r24, 0x06	; 6
     a70:	19 f0       	breq	.+6      	; 0xa78 <update_mode+0x40>
     a72:	80 93 5d 02 	sts	0x025D, r24
     a76:	02 c0       	rjmp	.+4      	; 0xa7c <update_mode+0x44>
     a78:	10 92 5d 02 	sts	0x025D, r1
			 
		}
		
		sequencer.mode = current_mode[mode_index];
     a7c:	20 91 5d 02 	lds	r18, 0x025D
     a80:	e2 2f       	mov	r30, r18
     a82:	f0 e0       	ldi	r31, 0x00	; 0
     a84:	e4 5f       	subi	r30, 0xF4	; 244
     a86:	fd 4f       	sbci	r31, 0xFD	; 253
     a88:	80 81       	ld	r24, Z
     a8a:	80 93 75 03 	sts	0x0375, r24
		uint8_t data_mask = spi_data[4] & 0b11000000; //mask to preserve top two bits of SPI byte 4
		spi_data[4] = (1<< mode_index) | data_mask; 
     a8e:	e8 e6       	ldi	r30, 0x68	; 104
     a90:	f2 e0       	ldi	r31, 0x02	; 2
     a92:	81 e0       	ldi	r24, 0x01	; 1
     a94:	90 e0       	ldi	r25, 0x00	; 0
     a96:	02 c0       	rjmp	.+4      	; 0xa9c <update_mode+0x64>
     a98:	88 0f       	add	r24, r24
     a9a:	99 1f       	adc	r25, r25
     a9c:	2a 95       	dec	r18
     a9e:	e2 f7       	brpl	.-8      	; 0xa98 <update_mode+0x60>
			 if (++mode_index == NUM_MODES) mode_index = 0;
			 
		}
		
		sequencer.mode = current_mode[mode_index];
		uint8_t data_mask = spi_data[4] & 0b11000000; //mask to preserve top two bits of SPI byte 4
     aa0:	94 81       	ldd	r25, Z+4	; 0x04
     aa2:	90 7c       	andi	r25, 0xC0	; 192
		spi_data[4] = (1<< mode_index) | data_mask; 
     aa4:	89 2b       	or	r24, r25
     aa6:	84 83       	std	Z+4, r24	; 0x04
     aa8:	08 95       	ret

00000aaa <spi_shift_byte>:
uint8_t spi_previous_switch_data[5] = {0};
uint8_t switch_states[5] = {0};
	
uint8_t spi_shift_byte(uint8_t byte) { //shifts out byte for LED data and simultaneously reads switch data
	
	SPDR1 = byte;
     aaa:	80 93 ae 00 	sts	0x00AE, r24
	while (!(SPSR1 & (1<<SPIF1)));
     aae:	ed ea       	ldi	r30, 0xAD	; 173
     ab0:	f0 e0       	ldi	r31, 0x00	; 0
     ab2:	80 81       	ld	r24, Z
     ab4:	88 23       	and	r24, r24
     ab6:	ec f7       	brge	.-6      	; 0xab2 <spi_shift_byte+0x8>
	return SPDR1;
     ab8:	80 91 ae 00 	lds	r24, 0x00AE
	
}	
     abc:	08 95       	ret

00000abe <update_spi>:

void update_spi(void) { //updates LEDs and triggers, doesn't read data back
     abe:	cf 93       	push	r28
     ac0:	df 93       	push	r29
	
		spi_shift_byte(spi_data[0]);
     ac2:	c8 e6       	ldi	r28, 0x68	; 104
     ac4:	d2 e0       	ldi	r29, 0x02	; 2
     ac6:	88 81       	ld	r24, Y
     ac8:	0e 94 55 05 	call	0xaaa	; 0xaaa <spi_shift_byte>
		spi_shift_byte(spi_data[1]);
     acc:	89 81       	ldd	r24, Y+1	; 0x01
     ace:	0e 94 55 05 	call	0xaaa	; 0xaaa <spi_shift_byte>
		spi_shift_byte(spi_data[2]);
     ad2:	8a 81       	ldd	r24, Y+2	; 0x02
     ad4:	0e 94 55 05 	call	0xaaa	; 0xaaa <spi_shift_byte>
		spi_shift_byte(spi_data[3]);
     ad8:	8b 81       	ldd	r24, Y+3	; 0x03
     ada:	0e 94 55 05 	call	0xaaa	; 0xaaa <spi_shift_byte>
		spi_shift_byte(spi_data[4]);
     ade:	8c 81       	ldd	r24, Y+4	; 0x04
     ae0:	0e 94 55 05 	call	0xaaa	; 0xaaa <spi_shift_byte>
		spi_shift_byte(spi_data[5]);
     ae4:	8d 81       	ldd	r24, Y+5	; 0x05
     ae6:	0e 94 55 05 	call	0xaaa	; 0xaaa <spi_shift_byte>
		spi_shift_byte(spi_data[6]);
     aea:	8e 81       	ldd	r24, Y+6	; 0x06
     aec:	0e 94 55 05 	call	0xaaa	; 0xaaa <spi_shift_byte>
		spi_shift_byte(spi_data[7]);
     af0:	8f 81       	ldd	r24, Y+7	; 0x07
     af2:	0e 94 55 05 	call	0xaaa	; 0xaaa <spi_shift_byte>
		spi_shift_byte(spi_data[8]);
     af6:	88 85       	ldd	r24, Y+8	; 0x08
     af8:	0e 94 55 05 	call	0xaaa	; 0xaaa <spi_shift_byte>
		
		PORTC &= ~(1<<SPI_LED_LATCH);
     afc:	43 98       	cbi	0x08, 3	; 8
		PORTC |= (1<<SPI_LED_LATCH);
     afe:	43 9a       	sbi	0x08, 3	; 8
	
	
};
     b00:	df 91       	pop	r29
     b02:	cf 91       	pop	r28
     b04:	08 95       	ret

00000b06 <read_switches>:

void read_switches(void) { //reads switch data
     b06:	cf 93       	push	r28
     b08:	df 93       	push	r29
	
	PORTC |= (1<<SPI_SW_LATCH); //latch switch data
     b0a:	42 9a       	sbi	0x08, 2	; 8
	
	spi_current_switch_data[0] = spi_shift_byte(0x00); //not toggling LED latches so doesn't matter what we send out
     b0c:	80 e0       	ldi	r24, 0x00	; 0
     b0e:	0e 94 55 05 	call	0xaaa	; 0xaaa <spi_shift_byte>
     b12:	c3 e6       	ldi	r28, 0x63	; 99
     b14:	d2 e0       	ldi	r29, 0x02	; 2
     b16:	88 83       	st	Y, r24
	spi_current_switch_data[1] = spi_shift_byte(0x00);
     b18:	80 e0       	ldi	r24, 0x00	; 0
     b1a:	0e 94 55 05 	call	0xaaa	; 0xaaa <spi_shift_byte>
     b1e:	89 83       	std	Y+1, r24	; 0x01
	spi_current_switch_data[2] = spi_shift_byte(0x00);
     b20:	80 e0       	ldi	r24, 0x00	; 0
     b22:	0e 94 55 05 	call	0xaaa	; 0xaaa <spi_shift_byte>
     b26:	8a 83       	std	Y+2, r24	; 0x02
	spi_current_switch_data[3] = spi_shift_byte(0x00);
     b28:	80 e0       	ldi	r24, 0x00	; 0
     b2a:	0e 94 55 05 	call	0xaaa	; 0xaaa <spi_shift_byte>
     b2e:	8b 83       	std	Y+3, r24	; 0x03
	spi_current_switch_data[4] = spi_shift_byte(0x00);
     b30:	80 e0       	ldi	r24, 0x00	; 0
     b32:	0e 94 55 05 	call	0xaaa	; 0xaaa <spi_shift_byte>
     b36:	8c 83       	std	Y+4, r24	; 0x04
	
	PORTC &= ~(1<<SPI_SW_LATCH);
     b38:	42 98       	cbi	0x08, 2	; 8
	
	sequencer.SHIFT = ((spi_current_switch_data[0] >> SHIFT_BIT) & 1);
     b3a:	98 81       	ld	r25, Y
     b3c:	39 2f       	mov	r19, r25
     b3e:	36 95       	lsr	r19
     b40:	e6 e7       	ldi	r30, 0x76	; 118
     b42:	f3 e0       	ldi	r31, 0x03	; 3
     b44:	20 81       	ld	r18, Z
     b46:	30 fb       	bst	r19, 0
     b48:	20 f9       	bld	r18, 0
     b4a:	20 83       	st	Z, r18
	//debounce
	spi_current_switch_data[0] ^= spi_previous_switch_data[0];
     b4c:	ee e5       	ldi	r30, 0x5E	; 94
     b4e:	f2 e0       	ldi	r31, 0x02	; 2
     b50:	20 81       	ld	r18, Z
     b52:	92 27       	eor	r25, r18
	spi_previous_switch_data[0] ^= spi_current_switch_data[0];
     b54:	29 27       	eor	r18, r25
     b56:	20 83       	st	Z, r18
	spi_current_switch_data[0] &= spi_previous_switch_data[0];
     b58:	92 23       	and	r25, r18
     b5a:	98 83       	st	Y, r25
	
	spi_current_switch_data[1] ^= spi_previous_switch_data[1];
     b5c:	21 81       	ldd	r18, Z+1	; 0x01
     b5e:	99 81       	ldd	r25, Y+1	; 0x01
     b60:	92 27       	eor	r25, r18
	spi_previous_switch_data[1] ^= spi_current_switch_data[1];
     b62:	29 27       	eor	r18, r25
     b64:	21 83       	std	Z+1, r18	; 0x01
	spi_current_switch_data[1] &= spi_previous_switch_data[1];
     b66:	92 23       	and	r25, r18
     b68:	99 83       	std	Y+1, r25	; 0x01
	
	spi_current_switch_data[2] ^= spi_previous_switch_data[2];
     b6a:	22 81       	ldd	r18, Z+2	; 0x02
     b6c:	9a 81       	ldd	r25, Y+2	; 0x02
     b6e:	92 27       	eor	r25, r18
	spi_previous_switch_data[2] ^= spi_current_switch_data[2];
     b70:	29 27       	eor	r18, r25
     b72:	22 83       	std	Z+2, r18	; 0x02
	spi_current_switch_data[2] &= spi_previous_switch_data[2];
     b74:	92 23       	and	r25, r18
     b76:	9a 83       	std	Y+2, r25	; 0x02
	
	spi_current_switch_data[3] ^= spi_previous_switch_data[3];
     b78:	23 81       	ldd	r18, Z+3	; 0x03
     b7a:	9b 81       	ldd	r25, Y+3	; 0x03
     b7c:	92 27       	eor	r25, r18
	spi_previous_switch_data[3] ^= spi_current_switch_data[3];
     b7e:	29 27       	eor	r18, r25
     b80:	23 83       	std	Z+3, r18	; 0x03
	spi_current_switch_data[3] &= spi_previous_switch_data[3];			
     b82:	92 23       	and	r25, r18
     b84:	9b 83       	std	Y+3, r25	; 0x03
	
	spi_current_switch_data[4] ^= spi_previous_switch_data[4];
     b86:	94 81       	ldd	r25, Z+4	; 0x04
     b88:	89 27       	eor	r24, r25
	spi_previous_switch_data[4] ^= spi_current_switch_data[4];
     b8a:	98 27       	eor	r25, r24
     b8c:	94 83       	std	Z+4, r25	; 0x04
	spi_current_switch_data[4] &= spi_previous_switch_data[4];
     b8e:	89 23       	and	r24, r25
     b90:	8c 83       	std	Y+4, r24	; 0x04
	//spi_shift_byte(spi_data[7]);
	//spi_shift_byte(spi_data[8]);
	

	
     b92:	df 91       	pop	r29
     b94:	cf 91       	pop	r28
     b96:	08 95       	ret

00000b98 <parse_switch_data>:
uint8_t current_start_stop_tap_state = 0;
uint8_t previous_start_stop_tap_state = 0;	
	
void parse_switch_data(void) {
	
	for (int i = 0; i < NUM_BUTTONS; i++) {
     b98:	40 e0       	ldi	r20, 0x00	; 0
     b9a:	50 e0       	ldi	r21, 0x00	; 0
		
		//button[i].current_state = (switch_states[button[i].spi_byte] & button[i].spi_bit) & 1; //need to fix this
		uint8_t current_state = (spi_current_switch_data[button[i].spi_byte] >> button[i].spi_bit) &1 ;
		button[i].state ^= current_state;
     b9c:	da 01       	movw	r26, r20
     b9e:	aa 0f       	add	r26, r26
     ba0:	bb 1f       	adc	r27, r27
     ba2:	ae 5e       	subi	r26, 0xEE	; 238
     ba4:	bd 4f       	sbci	r27, 0xFD	; 253
void parse_switch_data(void) {
	
	for (int i = 0; i < NUM_BUTTONS; i++) {
		
		//button[i].current_state = (switch_states[button[i].spi_byte] & button[i].spi_bit) & 1; //need to fix this
		uint8_t current_state = (spi_current_switch_data[button[i].spi_byte] >> button[i].spi_bit) &1 ;
     ba6:	8c 91       	ld	r24, X
     ba8:	e8 2f       	mov	r30, r24
     baa:	e6 95       	lsr	r30
     bac:	e6 95       	lsr	r30
     bae:	e6 95       	lsr	r30
     bb0:	e7 70       	andi	r30, 0x07	; 7
     bb2:	f0 e0       	ldi	r31, 0x00	; 0
     bb4:	ed 59       	subi	r30, 0x9D	; 157
     bb6:	fd 4f       	sbci	r31, 0xFD	; 253
     bb8:	20 81       	ld	r18, Z
     bba:	30 e0       	ldi	r19, 0x00	; 0
     bbc:	98 2f       	mov	r25, r24
     bbe:	97 70       	andi	r25, 0x07	; 7
     bc0:	02 c0       	rjmp	.+4      	; 0xbc6 <parse_switch_data+0x2e>
     bc2:	35 95       	asr	r19
     bc4:	27 95       	ror	r18
     bc6:	9a 95       	dec	r25
     bc8:	e2 f7       	brpl	.-8      	; 0xbc2 <parse_switch_data+0x2a>
     bca:	21 70       	andi	r18, 0x01	; 1
		button[i].state ^= current_state;
     bcc:	86 fb       	bst	r24, 6
     bce:	99 27       	eor	r25, r25
     bd0:	90 f9       	bld	r25, 0
     bd2:	29 27       	eor	r18, r25
     bd4:	20 fb       	bst	r18, 0
     bd6:	86 f9       	bld	r24, 6
     bd8:	8c 93       	st	X, r24
uint8_t current_start_stop_tap_state = 0;
uint8_t previous_start_stop_tap_state = 0;	
	
void parse_switch_data(void) {
	
	for (int i = 0; i < NUM_BUTTONS; i++) {
     bda:	4f 5f       	subi	r20, 0xFF	; 255
     bdc:	5f 4f       	sbci	r21, 0xFF	; 255
     bde:	43 32       	cpi	r20, 0x23	; 35
     be0:	51 05       	cpc	r21, r1
     be2:	e1 f6       	brne	.-72     	; 0xb9c <parse_switch_data+0x4>
		button[i].state ^= current_state;
		
	}
	
	
}	
     be4:	08 95       	ret

00000be6 <check_start_stop_tap>:

void check_start_stop_tap(void) {
	
	current_start_stop_tap_state = PINB;
     be6:	93 b1       	in	r25, 0x03	; 3
	current_start_stop_tap_state ^= previous_start_stop_tap_state;
     be8:	80 91 71 02 	lds	r24, 0x0271
     bec:	98 27       	eor	r25, r24
	previous_start_stop_tap_state ^= current_start_stop_tap_state;
     bee:	89 27       	eor	r24, r25
     bf0:	80 93 71 02 	sts	0x0271, r24
	current_start_stop_tap_state &= previous_start_stop_tap_state;
     bf4:	89 23       	and	r24, r25
     bf6:	80 93 72 02 	sts	0x0272, r24
	uint8_t start_state = sequencer.START;
     bfa:	e6 e7       	ldi	r30, 0x76	; 118
     bfc:	f3 e0       	ldi	r31, 0x03	; 3
     bfe:	90 81       	ld	r25, Z
     c00:	91 fb       	bst	r25, 1
     c02:	22 27       	eor	r18, r18
     c04:	20 f9       	bld	r18, 0
	sequencer.START ^= current_start_stop_tap_state >> START_STOP;
     c06:	86 95       	lsr	r24
     c08:	82 27       	eor	r24, r18
     c0a:	80 fb       	bst	r24, 0
     c0c:	91 f9       	bld	r25, 1
     c0e:	90 83       	st	Z, r25
	
	if (sequencer.START && (start_state == 0)) {
     c10:	91 ff       	sbrs	r25, 1
     c12:	0a c0       	rjmp	.+20     	; 0xc28 <check_start_stop_tap+0x42>
     c14:	21 11       	cpse	r18, r1
     c16:	08 c0       	rjmp	.+16     	; 0xc28 <check_start_stop_tap+0x42>
		
		sequencer.current_step = 0;
     c18:	e8 ec       	ldi	r30, 0xC8	; 200
     c1a:	f3 e0       	ldi	r31, 0x03	; 3
     c1c:	80 81       	ld	r24, Z
		sequencer.next_step_flag = 1;
     c1e:	80 7f       	andi	r24, 0xF0	; 240
     c20:	80 61       	ori	r24, 0x10	; 16
     c22:	80 83       	st	Z, r24
		internal_clock.ppqn_counter = 0;//internal_clock.divider - 1;
     c24:	10 92 74 02 	sts	0x0274, r1
     c28:	08 95       	ret

00000c2a <check_inst_switches>:
		//
	//}
	
}
	
void check_inst_switches(void) {
     c2a:	3f 92       	push	r3
     c2c:	4f 92       	push	r4
     c2e:	5f 92       	push	r5
     c30:	6f 92       	push	r6
     c32:	7f 92       	push	r7
     c34:	8f 92       	push	r8
     c36:	9f 92       	push	r9
     c38:	af 92       	push	r10
     c3a:	bf 92       	push	r11
     c3c:	cf 92       	push	r12
     c3e:	df 92       	push	r13
     c40:	ef 92       	push	r14
     c42:	ff 92       	push	r15
     c44:	0f 93       	push	r16
     c46:	1f 93       	push	r17
     c48:	cf 93       	push	r28
     c4a:	df 93       	push	r29
     c4c:	0f 2e       	mov	r0, r31
     c4e:	f5 e0       	ldi	r31, 0x05	; 5
     c50:	ef 2e       	mov	r14, r31
     c52:	f1 e0       	ldi	r31, 0x01	; 1
     c54:	ff 2e       	mov	r15, r31
     c56:	f0 2d       	mov	r31, r0
     c58:	0f 2e       	mov	r0, r31
     c5a:	fb e3       	ldi	r31, 0x3B	; 59
     c5c:	8f 2e       	mov	r8, r31
     c5e:	f1 e0       	ldi	r31, 0x01	; 1
     c60:	9f 2e       	mov	r9, r31
     c62:	f0 2d       	mov	r31, r0
     c64:	02 e1       	ldi	r16, 0x12	; 18
     c66:	10 e0       	ldi	r17, 0x00	; 0
     c68:	c1 e1       	ldi	r28, 0x11	; 17
     c6a:	d0 e0       	ldi	r29, 0x00	; 0
     c6c:	c1 2c       	mov	r12, r1
     c6e:	d1 2c       	mov	r13, r1
				}
				
				
			} else {
				
				if ((sequencer.current_inst == CP) && (i - INST_BD_2_SW == CP)) { //exception to handle CP/MA as they don't use a switch bit
     c70:	0f 2e       	mov	r0, r31
     c72:	fb ec       	ldi	r31, 0xCB	; 203
     c74:	af 2e       	mov	r10, r31
     c76:	f3 e0       	ldi	r31, 0x03	; 3
     c78:	bf 2e       	mov	r11, r31
     c7a:	f0 2d       	mov	r31, r0
					
					turn_on(drum_hit[MA].led_index);
     c7c:	0f 2e       	mov	r0, r31
     c7e:	ff e5       	ldi	r31, 0x5F	; 95
     c80:	4f 2e       	mov	r4, r31
     c82:	f1 e0       	ldi	r31, 0x01	; 1
     c84:	5f 2e       	mov	r5, r31
     c86:	f0 2d       	mov	r31, r0
					sequencer.current_inst = MA;
     c88:	0f 2e       	mov	r0, r31
     c8a:	ff e0       	ldi	r31, 0x0F	; 15
     c8c:	3f 2e       	mov	r3, r31
     c8e:	f0 2d       	mov	r31, r0
     c90:	0c c0       	rjmp	.+24     	; 0xcaa <check_inst_switches+0x80>
     c92:	8f ef       	ldi	r24, 0xFF	; 255
     c94:	c8 1a       	sub	r12, r24
     c96:	d8 0a       	sbc	r13, r24
     c98:	21 96       	adiw	r28, 0x01	; 1
     c9a:	0f 5f       	subi	r16, 0xFF	; 255
     c9c:	1f 4f       	sbci	r17, 0xFF	; 255
     c9e:	a6 e0       	ldi	r26, 0x06	; 6
     ca0:	ea 0e       	add	r14, r26
     ca2:	f1 1c       	adc	r15, r1
     ca4:	b6 e0       	ldi	r27, 0x06	; 6
     ca6:	8b 0e       	add	r8, r27
     ca8:	91 1c       	adc	r9, r1
	
void check_inst_switches(void) {
	
	for (int i = INST_BD_2_SW; i <= INST_CH_12_SW; i++) { //scan BD to CH
		
		if (button[i].state) {
     caa:	fe 01       	movw	r30, r28
     cac:	ee 0f       	add	r30, r30
     cae:	ff 1f       	adc	r31, r31
     cb0:	ee 5e       	subi	r30, 0xEE	; 238
     cb2:	fd 4f       	sbci	r31, 0xFD	; 253
     cb4:	80 81       	ld	r24, Z
     cb6:	86 ff       	sbrs	r24, 6
     cb8:	37 c0       	rjmp	.+110    	; 0xd28 <check_inst_switches+0xfe>
			
			button[i].state ^= button[i].state; //toggle state
     cba:	fe 01       	movw	r30, r28
     cbc:	ee 0f       	add	r30, r30
     cbe:	ff 1f       	adc	r31, r31
     cc0:	ee 5e       	subi	r30, 0xEE	; 238
     cc2:	fd 4f       	sbci	r31, 0xFD	; 253
     cc4:	8f 7b       	andi	r24, 0xBF	; 191
     cc6:	80 83       	st	Z, r24
			turn_off_all_inst_leds();
     cc8:	0e 94 92 02 	call	0x524	; 0x524 <turn_off_all_inst_leds>
     ccc:	f7 01       	movw	r30, r14
     cce:	d7 01       	movw	r26, r14
     cd0:	12 97       	sbiw	r26, 0x02	; 2
			
			
			if(drum_hit[i - INST_BD_2_SW].switch_bit != 255) { // need to handle instrument toggle here
     cd2:	8c 91       	ld	r24, X
     cd4:	8f 3f       	cpi	r24, 0xFF	; 255
     cd6:	a9 f0       	breq	.+42     	; 0xd02 <check_inst_switches+0xd8>
				
				
				if (sequencer.current_inst == i - INST_BD_2_SW) {
     cd8:	d5 01       	movw	r26, r10
     cda:	8c 91       	ld	r24, X
     cdc:	90 e0       	ldi	r25, 0x00	; 0
     cde:	c8 16       	cp	r12, r24
     ce0:	d9 06       	cpc	r13, r25
     ce2:	49 f4       	brne	.+18     	; 0xcf6 <check_inst_switches+0xcc>
					//alternative drum hits are offset by 9 places in drum_hit array
					turn_on(drum_hit[i-INST_BD_2_SW + 9].led_index);
     ce4:	f4 01       	movw	r30, r8
     ce6:	80 81       	ld	r24, Z
     ce8:	0e 94 42 02 	call	0x484	; 0x484 <turn_on>
     cec:	89 e0       	ldi	r24, 0x09	; 9
     cee:	8c 0d       	add	r24, r12
					sequencer.current_inst = i - INST_BD_2_SW + 9;
     cf0:	d5 01       	movw	r26, r10
     cf2:	8c 93       	st	X, r24
     cf4:	19 c0       	rjmp	.+50     	; 0xd28 <check_inst_switches+0xfe>
					
				} else {
					
					turn_on(drum_hit[i-INST_BD_2_SW].led_index);
     cf6:	80 81       	ld	r24, Z
     cf8:	0e 94 42 02 	call	0x484	; 0x484 <turn_on>
					sequencer.current_inst = i - INST_BD_2_SW;
     cfc:	f5 01       	movw	r30, r10
     cfe:	c0 82       	st	Z, r12
     d00:	13 c0       	rjmp	.+38     	; 0xd28 <check_inst_switches+0xfe>
				}
				
				
			} else {
				
				if ((sequencer.current_inst == CP) && (i - INST_BD_2_SW == CP)) { //exception to handle CP/MA as they don't use a switch bit
     d02:	d5 01       	movw	r26, r10
     d04:	8c 91       	ld	r24, X
     d06:	86 30       	cpi	r24, 0x06	; 6
     d08:	51 f4       	brne	.+20     	; 0xd1e <check_inst_switches+0xf4>
     d0a:	c7 31       	cpi	r28, 0x17	; 23
     d0c:	d1 05       	cpc	r29, r1
     d0e:	39 f4       	brne	.+14     	; 0xd1e <check_inst_switches+0xf4>
					
					turn_on(drum_hit[MA].led_index);
     d10:	f2 01       	movw	r30, r4
     d12:	80 81       	ld	r24, Z
     d14:	0e 94 42 02 	call	0x484	; 0x484 <turn_on>
					sequencer.current_inst = MA;
     d18:	d5 01       	movw	r26, r10
     d1a:	3c 92       	st	X, r3
     d1c:	ba cf       	rjmp	.-140    	; 0xc92 <check_inst_switches+0x68>
					
				} else {
					
					turn_on(drum_hit[i - INST_BD_2_SW].led_index);
     d1e:	80 81       	ld	r24, Z
     d20:	0e 94 42 02 	call	0x484	; 0x484 <turn_on>
					sequencer.current_inst = i - INST_BD_2_SW; //inst index starts with BD = 0
     d24:	f5 01       	movw	r30, r10
     d26:	c0 82       	st	Z, r12
	
}
	
void check_inst_switches(void) {
	
	for (int i = INST_BD_2_SW; i <= INST_CH_12_SW; i++) { //scan BD to CH
     d28:	0c 31       	cpi	r16, 0x1C	; 28
     d2a:	11 05       	cpc	r17, r1
     d2c:	0c f4       	brge	.+2      	; 0xd30 <check_inst_switches+0x106>
     d2e:	b1 cf       	rjmp	.-158    	; 0xc92 <check_inst_switches+0x68>
			//return; //could break out here and not bother scanning everything - means only one button press can be detected
		}
		
	}
	
	if (button[INST_AC_1_SW].state) {
     d30:	80 91 32 02 	lds	r24, 0x0232
     d34:	86 ff       	sbrs	r24, 6
     d36:	0c c0       	rjmp	.+24     	; 0xd50 <check_inst_switches+0x126>
		button[INST_AC_1_SW].state ^= button[INST_AC_1_SW].state; //toggle state
     d38:	e2 e3       	ldi	r30, 0x32	; 50
     d3a:	f2 e0       	ldi	r31, 0x02	; 2
     d3c:	8f 7b       	andi	r24, 0xBF	; 191
     d3e:	80 83       	st	Z, r24
		turn_off_all_inst_leds();
     d40:	0e 94 92 02 	call	0x524	; 0x524 <turn_off_all_inst_leds>
		turn_on(ACCENT_1_LED);
     d44:	84 e1       	ldi	r24, 0x14	; 20
     d46:	0e 94 42 02 	call	0x484	; 0x484 <turn_on>
		sequencer.current_inst = AC;
     d4a:	80 e1       	ldi	r24, 0x10	; 16
     d4c:	80 93 cb 03 	sts	0x03CB, r24
	}
	
}	
     d50:	df 91       	pop	r29
     d52:	cf 91       	pop	r28
     d54:	1f 91       	pop	r17
     d56:	0f 91       	pop	r16
     d58:	ff 90       	pop	r15
     d5a:	ef 90       	pop	r14
     d5c:	df 90       	pop	r13
     d5e:	cf 90       	pop	r12
     d60:	bf 90       	pop	r11
     d62:	af 90       	pop	r10
     d64:	9f 90       	pop	r9
     d66:	8f 90       	pop	r8
     d68:	7f 90       	pop	r7
     d6a:	6f 90       	pop	r6
     d6c:	5f 90       	pop	r5
     d6e:	4f 90       	pop	r4
     d70:	3f 90       	pop	r3
     d72:	08 95       	ret

00000d74 <bytequeue_init>:
//along with avr-bytequeue.  If not, see <http://www.gnu.org/licenses/>.

#include "bytequeue.h"
#include "interrupt_setting.h"

void bytequeue_init(byteQueue_t * queue, uint8_t * dataArray, byteQueueIndex_t arrayLen){
     d74:	fc 01       	movw	r30, r24
   queue->length = arrayLen;
     d76:	42 83       	std	Z+2, r20	; 0x02
   queue->data = dataArray;
     d78:	74 83       	std	Z+4, r23	; 0x04
     d7a:	63 83       	std	Z+3, r22	; 0x03
   queue->start = queue->end = 0;
     d7c:	11 82       	std	Z+1, r1	; 0x01
     d7e:	10 82       	st	Z, r1
     d80:	08 95       	ret

00000d82 <bytequeue_enqueue>:
}

bool bytequeue_enqueue(byteQueue_t * queue, uint8_t item){
     d82:	ff 92       	push	r15
     d84:	0f 93       	push	r16
     d86:	1f 93       	push	r17
     d88:	cf 93       	push	r28
     d8a:	df 93       	push	r29
     d8c:	ec 01       	movw	r28, r24
     d8e:	06 2f       	mov	r16, r22
   interrupt_setting_t setting = store_and_clear_interrupt();
     d90:	0e 94 3a 07 	call	0xe74	; 0xe74 <store_and_clear_interrupt>
     d94:	18 2f       	mov	r17, r24
   //full
   if(((queue->end + 1) % queue->length) == queue->start){
     d96:	f9 80       	ldd	r15, Y+1	; 0x01
     d98:	4f 2d       	mov	r20, r15
     d9a:	50 e0       	ldi	r21, 0x00	; 0
     d9c:	ca 01       	movw	r24, r20
     d9e:	01 96       	adiw	r24, 0x01	; 1
     da0:	2a 81       	ldd	r18, Y+2	; 0x02
     da2:	62 2f       	mov	r22, r18
     da4:	70 e0       	ldi	r23, 0x00	; 0
     da6:	0e 94 e9 09 	call	0x13d2	; 0x13d2 <__divmodhi4>
     daa:	28 81       	ld	r18, Y
     dac:	30 e0       	ldi	r19, 0x00	; 0
     dae:	82 17       	cp	r24, r18
     db0:	93 07       	cpc	r25, r19
     db2:	29 f4       	brne	.+10     	; 0xdbe <bytequeue_enqueue+0x3c>
      restore_interrupt_setting(setting);
     db4:	81 2f       	mov	r24, r17
     db6:	0e 94 3d 07 	call	0xe7a	; 0xe7a <restore_interrupt_setting>
      return false;
     dba:	80 e0       	ldi	r24, 0x00	; 0
     dbc:	12 c0       	rjmp	.+36     	; 0xde2 <bytequeue_enqueue+0x60>
   } else {
      queue->data[queue->end] = item;
     dbe:	eb 81       	ldd	r30, Y+3	; 0x03
     dc0:	fc 81       	ldd	r31, Y+4	; 0x04
     dc2:	ef 0d       	add	r30, r15
     dc4:	f1 1d       	adc	r31, r1
     dc6:	00 83       	st	Z, r16
      queue->end = (queue->end + 1) % queue->length;
     dc8:	29 81       	ldd	r18, Y+1	; 0x01
     dca:	30 e0       	ldi	r19, 0x00	; 0
     dcc:	c9 01       	movw	r24, r18
     dce:	01 96       	adiw	r24, 0x01	; 1
     dd0:	6a 81       	ldd	r22, Y+2	; 0x02
     dd2:	70 e0       	ldi	r23, 0x00	; 0
     dd4:	0e 94 e9 09 	call	0x13d2	; 0x13d2 <__divmodhi4>
     dd8:	89 83       	std	Y+1, r24	; 0x01
      restore_interrupt_setting(setting);
     dda:	81 2f       	mov	r24, r17
     ddc:	0e 94 3d 07 	call	0xe7a	; 0xe7a <restore_interrupt_setting>
      return true;
     de0:	81 e0       	ldi	r24, 0x01	; 1
   }
}
     de2:	df 91       	pop	r29
     de4:	cf 91       	pop	r28
     de6:	1f 91       	pop	r17
     de8:	0f 91       	pop	r16
     dea:	ff 90       	pop	r15
     dec:	08 95       	ret

00000dee <bytequeue_length>:

byteQueueIndex_t bytequeue_length(byteQueue_t * queue){
     dee:	cf 93       	push	r28
     df0:	df 93       	push	r29
     df2:	ec 01       	movw	r28, r24
   byteQueueIndex_t len;
   interrupt_setting_t setting = store_and_clear_interrupt();
     df4:	0e 94 3a 07 	call	0xe74	; 0xe74 <store_and_clear_interrupt>
   if(queue->end >= queue->start)
     df8:	39 81       	ldd	r19, Y+1	; 0x01
     dfa:	28 81       	ld	r18, Y
     dfc:	32 17       	cp	r19, r18
     dfe:	18 f0       	brcs	.+6      	; 0xe06 <bytequeue_length+0x18>
      len = queue->end - queue->start;
     e00:	c3 2f       	mov	r28, r19
     e02:	c2 1b       	sub	r28, r18
     e04:	04 c0       	rjmp	.+8      	; 0xe0e <bytequeue_length+0x20>
     e06:	9a 81       	ldd	r25, Y+2	; 0x02
     e08:	c3 2f       	mov	r28, r19
     e0a:	c9 0f       	add	r28, r25
   else
      len = (queue->length - queue->start) + queue->end;
     e0c:	c2 1b       	sub	r28, r18
   restore_interrupt_setting(setting);
     e0e:	0e 94 3d 07 	call	0xe7a	; 0xe7a <restore_interrupt_setting>
   return len;
}
     e12:	8c 2f       	mov	r24, r28
     e14:	df 91       	pop	r29
     e16:	cf 91       	pop	r28
     e18:	08 95       	ret

00000e1a <bytequeue_get>:

//we don't need to avoid interrupts if there is only one reader
uint8_t bytequeue_get(byteQueue_t * queue, byteQueueIndex_t index){
     e1a:	fc 01       	movw	r30, r24
   return queue->data[(queue->start + index) % queue->length];
     e1c:	80 81       	ld	r24, Z
     e1e:	70 e0       	ldi	r23, 0x00	; 0
     e20:	9b 01       	movw	r18, r22
     e22:	28 0f       	add	r18, r24
     e24:	31 1d       	adc	r19, r1
     e26:	c9 01       	movw	r24, r18
     e28:	62 81       	ldd	r22, Z+2	; 0x02
     e2a:	70 e0       	ldi	r23, 0x00	; 0
     e2c:	0e 94 e9 09 	call	0x13d2	; 0x13d2 <__divmodhi4>
     e30:	03 80       	ldd	r0, Z+3	; 0x03
     e32:	f4 81       	ldd	r31, Z+4	; 0x04
     e34:	e0 2d       	mov	r30, r0
     e36:	e8 0f       	add	r30, r24
     e38:	f9 1f       	adc	r31, r25
}
     e3a:	80 81       	ld	r24, Z
     e3c:	08 95       	ret

00000e3e <bytequeue_remove>:

//we just update the start index to remove elements
void bytequeue_remove(byteQueue_t * queue, byteQueueIndex_t numToRemove){
     e3e:	1f 93       	push	r17
     e40:	cf 93       	push	r28
     e42:	df 93       	push	r29
     e44:	ec 01       	movw	r28, r24
     e46:	16 2f       	mov	r17, r22
   interrupt_setting_t setting = store_and_clear_interrupt();
     e48:	0e 94 3a 07 	call	0xe74	; 0xe74 <store_and_clear_interrupt>
     e4c:	48 2f       	mov	r20, r24
   queue->start = (queue->start + numToRemove) % queue->length;
     e4e:	88 81       	ld	r24, Y
     e50:	21 2f       	mov	r18, r17
     e52:	30 e0       	ldi	r19, 0x00	; 0
     e54:	b9 01       	movw	r22, r18
     e56:	68 0f       	add	r22, r24
     e58:	71 1d       	adc	r23, r1
     e5a:	cb 01       	movw	r24, r22
     e5c:	6a 81       	ldd	r22, Y+2	; 0x02
     e5e:	70 e0       	ldi	r23, 0x00	; 0
     e60:	0e 94 e9 09 	call	0x13d2	; 0x13d2 <__divmodhi4>
     e64:	88 83       	st	Y, r24
   restore_interrupt_setting(setting);
     e66:	84 2f       	mov	r24, r20
     e68:	0e 94 3d 07 	call	0xe7a	; 0xe7a <restore_interrupt_setting>
}
     e6c:	df 91       	pop	r29
     e6e:	cf 91       	pop	r28
     e70:	1f 91       	pop	r17
     e72:	08 95       	ret

00000e74 <store_and_clear_interrupt>:

#include "interrupt_setting.h"
#include <avr/interrupt.h>

interrupt_setting_t store_and_clear_interrupt(void) {
   uint8_t sreg = SREG;
     e74:	8f b7       	in	r24, 0x3f	; 63
   cli();
     e76:	f8 94       	cli
   return sreg;
}
     e78:	08 95       	ret

00000e7a <restore_interrupt_setting>:

void restore_interrupt_setting(interrupt_setting_t setting) {
   SREG = setting;
     e7a:	8f bf       	out	0x3f, r24	; 63
     e7c:	08 95       	ret

00000e7e <midi_is_statusbyte>:
#define NULL 0
#endif

bool midi_is_statusbyte(uint8_t theByte){
   return (bool)(theByte & MIDI_STATUSMASK);
}
     e7e:	88 1f       	adc	r24, r24
     e80:	88 27       	eor	r24, r24
     e82:	88 1f       	adc	r24, r24
     e84:	08 95       	ret

00000e86 <midi_is_realtime>:

bool midi_is_realtime(uint8_t theByte){
   return (theByte >= MIDI_CLOCK);
     e86:	91 e0       	ldi	r25, 0x01	; 1
     e88:	88 3f       	cpi	r24, 0xF8	; 248
     e8a:	08 f4       	brcc	.+2      	; 0xe8e <midi_is_realtime+0x8>
     e8c:	90 e0       	ldi	r25, 0x00	; 0
}
     e8e:	89 2f       	mov	r24, r25
     e90:	08 95       	ret

00000e92 <midi_packet_length>:

midi_packet_length_t midi_packet_length(uint8_t status){
   switch(status & 0xF0){
     e92:	98 2f       	mov	r25, r24
     e94:	90 7f       	andi	r25, 0xF0	; 240
     e96:	90 3c       	cpi	r25, 0xC0	; 192
     e98:	b1 f0       	breq	.+44     	; 0xec6 <midi_packet_length+0x34>
     e9a:	58 f4       	brcc	.+22     	; 0xeb2 <midi_packet_length+0x20>
     e9c:	90 39       	cpi	r25, 0x90	; 144
     e9e:	41 f1       	breq	.+80     	; 0xef0 <midi_packet_length+0x5e>
     ea0:	18 f4       	brcc	.+6      	; 0xea8 <midi_packet_length+0x16>
     ea2:	90 38       	cpi	r25, 0x80	; 128
     ea4:	19 f5       	brne	.+70     	; 0xeec <midi_packet_length+0x5a>
     ea6:	24 c0       	rjmp	.+72     	; 0xef0 <midi_packet_length+0x5e>
     ea8:	90 3a       	cpi	r25, 0xA0	; 160
     eaa:	11 f1       	breq	.+68     	; 0xef0 <midi_packet_length+0x5e>
     eac:	90 3b       	cpi	r25, 0xB0	; 176
     eae:	f1 f4       	brne	.+60     	; 0xeec <midi_packet_length+0x5a>
     eb0:	1f c0       	rjmp	.+62     	; 0xef0 <midi_packet_length+0x5e>
     eb2:	90 3e       	cpi	r25, 0xE0	; 224
     eb4:	e9 f0       	breq	.+58     	; 0xef0 <midi_packet_length+0x5e>
     eb6:	18 f4       	brcc	.+6      	; 0xebe <midi_packet_length+0x2c>
     eb8:	90 3d       	cpi	r25, 0xD0	; 208
     eba:	29 f0       	breq	.+10     	; 0xec6 <midi_packet_length+0x34>
     ebc:	17 c0       	rjmp	.+46     	; 0xeec <midi_packet_length+0x5a>
     ebe:	90 3f       	cpi	r25, 0xF0	; 240
     ec0:	21 f0       	breq	.+8      	; 0xeca <midi_packet_length+0x38>
     ec2:	93 3f       	cpi	r25, 0xF3	; 243
     ec4:	99 f4       	brne	.+38     	; 0xeec <midi_packet_length+0x5a>
      case MIDI_PITCHBEND:
         return THREE3;
      case MIDI_PROGCHANGE:
      case MIDI_CHANPRESSURE:
      case MIDI_SONGSELECT:
         return TWO2;
     ec6:	82 e0       	ldi	r24, 0x02	; 2
     ec8:	08 95       	ret
      case 0xF0:
         switch(status) {
     eca:	90 e0       	ldi	r25, 0x00	; 0
     ecc:	fc 01       	movw	r30, r24
     ece:	e1 5f       	subi	r30, 0xF1	; 241
     ed0:	f1 09       	sbc	r31, r1
     ed2:	ef 30       	cpi	r30, 0x0F	; 15
     ed4:	f1 05       	cpc	r31, r1
     ed6:	40 f4       	brcc	.+16     	; 0xee8 <midi_packet_length+0x56>
     ed8:	e6 5a       	subi	r30, 0xA6	; 166
     eda:	ff 4f       	sbci	r31, 0xFF	; 255
     edc:	0c 94 fd 09 	jmp	0x13fa	; 0x13fa <__tablejump2__>
            case MIDI_ACTIVESENSE:
            case MIDI_RESET:
            case MIDI_TUNEREQUEST:
               return ONE1;
            case MIDI_SONGPOSITION:
               return THREE3;
     ee0:	83 e0       	ldi	r24, 0x03	; 3
     ee2:	08 95       	ret
            case MIDI_TC_QUARTERFRAME:
            case MIDI_SONGSELECT:
               return TWO2;
     ee4:	82 e0       	ldi	r24, 0x02	; 2
     ee6:	08 95       	ret
            case SYSEX_END:
            case SYSEX_BEGIN:
            default:
               return UNDEFINED;
     ee8:	80 e0       	ldi	r24, 0x00	; 0
     eea:	08 95       	ret
         }
      default:
         return UNDEFINED;
     eec:	80 e0       	ldi	r24, 0x00	; 0
     eee:	08 95       	ret
      case MIDI_CC:
      case MIDI_NOTEON:
      case MIDI_NOTEOFF:
      case MIDI_AFTERTOUCH:
      case MIDI_PITCHBEND:
         return THREE3;
     ef0:	83 e0       	ldi	r24, 0x03	; 3
     ef2:	08 95       	ret
            case MIDI_CONTINUE:
            case MIDI_STOP:
            case MIDI_ACTIVESENSE:
            case MIDI_RESET:
            case MIDI_TUNEREQUEST:
               return ONE1;
     ef4:	81 e0       	ldi	r24, 0x01	; 1
               return UNDEFINED;
         }
      default:
         return UNDEFINED;
   }
}
     ef6:	08 95       	ret

00000ef8 <midi_register_noteon_callback>:
void midi_register_cc_callback(MidiDevice * device, midi_three_byte_func_t func){
   device->input_cc_callback = func;
}

void midi_register_noteon_callback(MidiDevice * device, midi_three_byte_func_t func){
   device->input_noteon_callback = func;
     ef8:	fc 01       	movw	r30, r24
     efa:	75 83       	std	Z+5, r23	; 0x05
     efc:	64 83       	std	Z+4, r22	; 0x04
     efe:	08 95       	ret

00000f00 <midi_register_noteoff_callback>:
}

void midi_register_noteoff_callback(MidiDevice * device, midi_three_byte_func_t func){
   device->input_noteoff_callback = func;
     f00:	fc 01       	movw	r30, r24
     f02:	77 83       	std	Z+7, r23	; 0x07
     f04:	66 83       	std	Z+6, r22	; 0x06
     f06:	08 95       	ret

00000f08 <midi_register_realtime_callback>:
void midi_register_tc_quarterframe_callback(MidiDevice * device, midi_two_byte_func_t func) {
   device->input_tc_quarterframe_callback = func;
}

void midi_register_realtime_callback(MidiDevice * device, midi_one_byte_func_t func){
   device->input_realtime_callback = func;
     f08:	fc 01       	movw	r30, r24
     f0a:	77 8b       	std	Z+23, r23	; 0x17
     f0c:	66 8b       	std	Z+22, r22	; 0x16
     f0e:	08 95       	ret

00000f10 <midi_device_init>:

//forward declarations, internally used to call the callbacks
void midi_input_callbacks(MidiDevice * device, uint16_t cnt, uint8_t byte0, uint8_t byte1, uint8_t byte2);
void midi_process_byte(MidiDevice * device, uint8_t input);

void midi_device_init(MidiDevice * device){
     f10:	cf 93       	push	r28
     f12:	df 93       	push	r29
     f14:	ec 01       	movw	r28, r24
  device->input_state = IDLE;
     f16:	1d a2       	std	Y+37, r1	; 0x25
  device->input_count = 0;
     f18:	1f a2       	std	Y+39, r1	; 0x27
     f1a:	1e a2       	std	Y+38, r1	; 0x26
  bytequeue_init(&device->input_queue, device->input_queue_data, MIDI_INPUT_QUEUE_LENGTH);
     f1c:	bc 01       	movw	r22, r24
     f1e:	68 5d       	subi	r22, 0xD8	; 216
     f20:	7f 4f       	sbci	r23, 0xFF	; 255
     f22:	40 ec       	ldi	r20, 0xC0	; 192
     f24:	88 51       	subi	r24, 0x18	; 24
     f26:	9f 4f       	sbci	r25, 0xFF	; 255
     f28:	0e 94 ba 06 	call	0xd74	; 0xd74 <bytequeue_init>

  //three byte funcs
  device->input_cc_callback = NULL;
     f2c:	1b 82       	std	Y+3, r1	; 0x03
     f2e:	1a 82       	std	Y+2, r1	; 0x02
  device->input_noteon_callback = NULL;
     f30:	1d 82       	std	Y+5, r1	; 0x05
     f32:	1c 82       	std	Y+4, r1	; 0x04
  device->input_noteoff_callback = NULL;
     f34:	1f 82       	std	Y+7, r1	; 0x07
     f36:	1e 82       	std	Y+6, r1	; 0x06
  device->input_aftertouch_callback = NULL;
     f38:	19 86       	std	Y+9, r1	; 0x09
     f3a:	18 86       	std	Y+8, r1	; 0x08
  device->input_pitchbend_callback = NULL;
     f3c:	1b 86       	std	Y+11, r1	; 0x0b
     f3e:	1a 86       	std	Y+10, r1	; 0x0a
  device->input_songposition_callback = NULL;
     f40:	1d 86       	std	Y+13, r1	; 0x0d
     f42:	1c 86       	std	Y+12, r1	; 0x0c

  //two byte funcs
  device->input_progchange_callback = NULL;
     f44:	1f 86       	std	Y+15, r1	; 0x0f
     f46:	1e 86       	std	Y+14, r1	; 0x0e
  device->input_chanpressure_callback = NULL;
     f48:	19 8a       	std	Y+17, r1	; 0x11
     f4a:	18 8a       	std	Y+16, r1	; 0x10
  device->input_songselect_callback = NULL;
     f4c:	1b 8a       	std	Y+19, r1	; 0x13
     f4e:	1a 8a       	std	Y+18, r1	; 0x12
  device->input_tc_quarterframe_callback = NULL;
     f50:	1d 8a       	std	Y+21, r1	; 0x15
     f52:	1c 8a       	std	Y+20, r1	; 0x14

  //one byte funcs
  device->input_realtime_callback = NULL;
     f54:	1f 8a       	std	Y+23, r1	; 0x17
     f56:	1e 8a       	std	Y+22, r1	; 0x16
  device->input_tunerequest_callback = NULL;
     f58:	19 8e       	std	Y+25, r1	; 0x19
     f5a:	18 8e       	std	Y+24, r1	; 0x18

  //var byte functions
  device->input_sysex_callback = NULL;
     f5c:	1b 8e       	std	Y+27, r1	; 0x1b
     f5e:	1a 8e       	std	Y+26, r1	; 0x1a
  device->input_fallthrough_callback = NULL;
     f60:	1d 8e       	std	Y+29, r1	; 0x1d
     f62:	1c 8e       	std	Y+28, r1	; 0x1c
  device->input_catchall_callback = NULL;
     f64:	1f 8e       	std	Y+31, r1	; 0x1f
     f66:	1e 8e       	std	Y+30, r1	; 0x1e

  device->pre_input_process_callback = NULL;
     f68:	19 a2       	std	Y+33, r1	; 0x21
     f6a:	18 a2       	std	Y+32, r1	; 0x20
}
     f6c:	df 91       	pop	r29
     f6e:	cf 91       	pop	r28
     f70:	08 95       	ret

00000f72 <midi_device_input>:

void midi_device_input(MidiDevice * device, uint8_t cnt, uint8_t * input) {
     f72:	ef 92       	push	r14
     f74:	ff 92       	push	r15
     f76:	0f 93       	push	r16
     f78:	1f 93       	push	r17
     f7a:	cf 93       	push	r28
     f7c:	df 93       	push	r29
  uint8_t i;
  for (i = 0; i < cnt; i++)
     f7e:	66 23       	and	r22, r22
     f80:	99 f0       	breq	.+38     	; 0xfa8 <midi_device_input+0x36>
     f82:	ea 01       	movw	r28, r20
     f84:	61 50       	subi	r22, 0x01	; 1
     f86:	06 2f       	mov	r16, r22
     f88:	10 e0       	ldi	r17, 0x00	; 0
     f8a:	0f 5f       	subi	r16, 0xFF	; 255
     f8c:	1f 4f       	sbci	r17, 0xFF	; 255
     f8e:	04 0f       	add	r16, r20
     f90:	15 1f       	adc	r17, r21
    bytequeue_enqueue(&device->input_queue, input[i]);
     f92:	7c 01       	movw	r14, r24
     f94:	28 ee       	ldi	r18, 0xE8	; 232
     f96:	e2 0e       	add	r14, r18
     f98:	f1 1c       	adc	r15, r1
     f9a:	69 91       	ld	r22, Y+
     f9c:	c7 01       	movw	r24, r14
     f9e:	0e 94 c1 06 	call	0xd82	; 0xd82 <bytequeue_enqueue>
  device->pre_input_process_callback = NULL;
}

void midi_device_input(MidiDevice * device, uint8_t cnt, uint8_t * input) {
  uint8_t i;
  for (i = 0; i < cnt; i++)
     fa2:	c0 17       	cp	r28, r16
     fa4:	d1 07       	cpc	r29, r17
     fa6:	c9 f7       	brne	.-14     	; 0xf9a <midi_device_input+0x28>
    bytequeue_enqueue(&device->input_queue, input[i]);
}
     fa8:	df 91       	pop	r29
     faa:	cf 91       	pop	r28
     fac:	1f 91       	pop	r17
     fae:	0f 91       	pop	r16
     fb0:	ff 90       	pop	r15
     fb2:	ef 90       	pop	r14
     fb4:	08 95       	ret

00000fb6 <midi_input_callbacks>:
      }
    }
  }
}

void midi_input_callbacks(MidiDevice * device, uint16_t cnt, uint8_t byte0, uint8_t byte1, uint8_t byte2) {
     fb6:	af 92       	push	r10
     fb8:	bf 92       	push	r11
     fba:	cf 92       	push	r12
     fbc:	df 92       	push	r13
     fbe:	ef 92       	push	r14
     fc0:	ff 92       	push	r15
     fc2:	0f 93       	push	r16
     fc4:	1f 93       	push	r17
     fc6:	cf 93       	push	r28
     fc8:	df 93       	push	r29
     fca:	00 d0       	rcall	.+0      	; 0xfcc <midi_input_callbacks+0x16>
     fcc:	1f 92       	push	r1
     fce:	cd b7       	in	r28, 0x3d	; 61
     fd0:	de b7       	in	r29, 0x3e	; 62
     fd2:	7c 01       	movw	r14, r24
     fd4:	6b 01       	movw	r12, r22
     fd6:	14 2f       	mov	r17, r20
     fd8:	b2 2e       	mov	r11, r18
     fda:	a0 2e       	mov	r10, r16
  //did we end up calling a callback?
  bool called = false;
  if (device->input_state == SYSEX_MESSAGE) {
     fdc:	dc 01       	movw	r26, r24
     fde:	95 96       	adiw	r26, 0x25	; 37
     fe0:	8c 91       	ld	r24, X
     fe2:	95 97       	sbiw	r26, 0x25	; 37
     fe4:	84 30       	cpi	r24, 0x04	; 4
     fe6:	11 f5       	brne	.+68     	; 0x102c <midi_input_callbacks+0x76>
    if (device->input_sysex_callback) {
     fe8:	5a 96       	adiw	r26, 0x1a	; 26
     fea:	ed 91       	ld	r30, X+
     fec:	fc 91       	ld	r31, X
     fee:	5b 97       	sbiw	r26, 0x1b	; 27
     ff0:	30 97       	sbiw	r30, 0x00	; 0
     ff2:	09 f4       	brne	.+2      	; 0xff6 <midi_input_callbacks+0x40>
     ff4:	cc c0       	rjmp	.+408    	; 0x118e <midi_input_callbacks+0x1d8>
      const uint16_t start = ((cnt - 1) / 3) * 3;
     ff6:	9b 01       	movw	r18, r22
     ff8:	21 50       	subi	r18, 0x01	; 1
     ffa:	31 09       	sbc	r19, r1
     ffc:	ab ea       	ldi	r26, 0xAB	; 171
     ffe:	ba ea       	ldi	r27, 0xAA	; 170
    1000:	0e 94 03 0a 	call	0x1406	; 0x1406 <__umulhisi3>
    1004:	96 95       	lsr	r25
    1006:	87 95       	ror	r24
    1008:	9c 01       	movw	r18, r24
    100a:	22 0f       	add	r18, r18
    100c:	33 1f       	adc	r19, r19
    100e:	82 0f       	add	r24, r18
    1010:	93 1f       	adc	r25, r19
      const uint8_t length = (cnt - start);
      uint8_t data[3];
      data[0] = byte0;
    1012:	49 83       	std	Y+1, r20	; 0x01
      data[1] = byte1;
    1014:	ba 82       	std	Y+2, r11	; 0x02
      data[2] = byte2;
    1016:	0b 83       	std	Y+3, r16	; 0x03
  //did we end up calling a callback?
  bool called = false;
  if (device->input_state == SYSEX_MESSAGE) {
    if (device->input_sysex_callback) {
      const uint16_t start = ((cnt - 1) / 3) * 3;
      const uint8_t length = (cnt - start);
    1018:	4c 2d       	mov	r20, r12
    101a:	48 1b       	sub	r20, r24
      uint8_t data[3];
      data[0] = byte0;
      data[1] = byte1;
      data[2] = byte2;
      device->input_sysex_callback(device, start, length, data);
    101c:	9e 01       	movw	r18, r28
    101e:	2f 5f       	subi	r18, 0xFF	; 255
    1020:	3f 4f       	sbci	r19, 0xFF	; 255
    1022:	68 2f       	mov	r22, r24
    1024:	79 2f       	mov	r23, r25
    1026:	c7 01       	movw	r24, r14
    1028:	09 95       	icall
    102a:	be c0       	rjmp	.+380    	; 0x11a8 <midi_input_callbacks+0x1f2>
      called = true;
    }
  } else {
    switch (cnt) {
    102c:	62 30       	cpi	r22, 0x02	; 2
    102e:	71 05       	cpc	r23, r1
    1030:	09 f4       	brne	.+2      	; 0x1034 <midi_input_callbacks+0x7e>
    1032:	55 c0       	rjmp	.+170    	; 0x10de <midi_input_callbacks+0x128>
    1034:	63 30       	cpi	r22, 0x03	; 3
    1036:	71 05       	cpc	r23, r1
    1038:	29 f0       	breq	.+10     	; 0x1044 <midi_input_callbacks+0x8e>
    103a:	61 30       	cpi	r22, 0x01	; 1
    103c:	71 05       	cpc	r23, r1
    103e:	09 f0       	breq	.+2      	; 0x1042 <midi_input_callbacks+0x8c>
    1040:	a1 c0       	rjmp	.+322    	; 0x1184 <midi_input_callbacks+0x1ce>
    1042:	88 c0       	rjmp	.+272    	; 0x1154 <midi_input_callbacks+0x19e>
      case 3:
        {
          midi_three_byte_func_t func = NULL;
          switch (byte0 & 0xF0) {
    1044:	84 2f       	mov	r24, r20
    1046:	80 7f       	andi	r24, 0xF0	; 240
    1048:	80 3a       	cpi	r24, 0xA0	; 160
    104a:	f1 f0       	breq	.+60     	; 0x1088 <midi_input_callbacks+0xd2>
    104c:	28 f4       	brcc	.+10     	; 0x1058 <midi_input_callbacks+0xa2>
    104e:	80 38       	cpi	r24, 0x80	; 128
    1050:	a9 f0       	breq	.+42     	; 0x107c <midi_input_callbacks+0xc6>
    1052:	80 39       	cpi	r24, 0x90	; 144
    1054:	69 f0       	breq	.+26     	; 0x1070 <midi_input_callbacks+0xba>
    1056:	2f c0       	rjmp	.+94     	; 0x10b6 <midi_input_callbacks+0x100>
    1058:	80 3e       	cpi	r24, 0xE0	; 224
    105a:	e1 f0       	breq	.+56     	; 0x1094 <midi_input_callbacks+0xde>
    105c:	80 3f       	cpi	r24, 0xF0	; 240
    105e:	01 f1       	breq	.+64     	; 0x10a0 <midi_input_callbacks+0xea>
    1060:	80 3b       	cpi	r24, 0xB0	; 176
    1062:	49 f5       	brne	.+82     	; 0x10b6 <midi_input_callbacks+0x100>
            case MIDI_CC:
              func = device->input_cc_callback;
    1064:	d7 01       	movw	r26, r14
    1066:	12 96       	adiw	r26, 0x02	; 2
    1068:	ed 91       	ld	r30, X+
    106a:	fc 91       	ld	r31, X
    106c:	13 97       	sbiw	r26, 0x03	; 3
              break;
    106e:	25 c0       	rjmp	.+74     	; 0x10ba <midi_input_callbacks+0x104>
            case MIDI_NOTEON:
              func = device->input_noteon_callback;
    1070:	d7 01       	movw	r26, r14
    1072:	14 96       	adiw	r26, 0x04	; 4
    1074:	ed 91       	ld	r30, X+
    1076:	fc 91       	ld	r31, X
    1078:	15 97       	sbiw	r26, 0x05	; 5
              break;
    107a:	1f c0       	rjmp	.+62     	; 0x10ba <midi_input_callbacks+0x104>
            case MIDI_NOTEOFF:
              func = device->input_noteoff_callback;
    107c:	d7 01       	movw	r26, r14
    107e:	16 96       	adiw	r26, 0x06	; 6
    1080:	ed 91       	ld	r30, X+
    1082:	fc 91       	ld	r31, X
    1084:	17 97       	sbiw	r26, 0x07	; 7
              break;
    1086:	19 c0       	rjmp	.+50     	; 0x10ba <midi_input_callbacks+0x104>
            case MIDI_AFTERTOUCH:
              func = device->input_aftertouch_callback;
    1088:	d7 01       	movw	r26, r14
    108a:	18 96       	adiw	r26, 0x08	; 8
    108c:	ed 91       	ld	r30, X+
    108e:	fc 91       	ld	r31, X
    1090:	19 97       	sbiw	r26, 0x09	; 9
              break;
    1092:	13 c0       	rjmp	.+38     	; 0x10ba <midi_input_callbacks+0x104>
            case MIDI_PITCHBEND:
              func = device->input_pitchbend_callback;
    1094:	d7 01       	movw	r26, r14
    1096:	1a 96       	adiw	r26, 0x0a	; 10
    1098:	ed 91       	ld	r30, X+
    109a:	fc 91       	ld	r31, X
    109c:	1b 97       	sbiw	r26, 0x0b	; 11
              break;
    109e:	0d c0       	rjmp	.+26     	; 0x10ba <midi_input_callbacks+0x104>
            case 0xF0:
              if (byte0 == MIDI_SONGPOSITION)
    10a0:	42 3f       	cpi	r20, 0xF2	; 242
    10a2:	09 f0       	breq	.+2      	; 0x10a6 <midi_input_callbacks+0xf0>
    10a4:	74 c0       	rjmp	.+232    	; 0x118e <midi_input_callbacks+0x1d8>
                func = device->input_songposition_callback;
    10a6:	d7 01       	movw	r26, r14
    10a8:	1c 96       	adiw	r26, 0x0c	; 12
    10aa:	ed 91       	ld	r30, X+
    10ac:	fc 91       	ld	r31, X
    10ae:	1d 97       	sbiw	r26, 0x0d	; 13
              break;
            default:
              break;
          }
          if(func) {
    10b0:	30 97       	sbiw	r30, 0x00	; 0
    10b2:	41 f4       	brne	.+16     	; 0x10c4 <midi_input_callbacks+0x10e>
    10b4:	6c c0       	rjmp	.+216    	; 0x118e <midi_input_callbacks+0x1d8>
    }
  } else {
    switch (cnt) {
      case 3:
        {
          midi_three_byte_func_t func = NULL;
    10b6:	e0 e0       	ldi	r30, 0x00	; 0
    10b8:	f0 e0       	ldi	r31, 0x00	; 0
                func = device->input_songposition_callback;
              break;
            default:
              break;
          }
          if(func) {
    10ba:	30 97       	sbiw	r30, 0x00	; 0
    10bc:	09 f4       	brne	.+2      	; 0x10c0 <midi_input_callbacks+0x10a>
    10be:	67 c0       	rjmp	.+206    	; 0x118e <midi_input_callbacks+0x1d8>
            //mask off the channel for non song position functions
            if (byte0 == MIDI_SONGPOSITION)
    10c0:	12 3f       	cpi	r17, 0xF2	; 242
    10c2:	31 f4       	brne	.+12     	; 0x10d0 <midi_input_callbacks+0x11a>
              func(device, byte0, byte1, byte2);
    10c4:	2a 2d       	mov	r18, r10
    10c6:	4b 2d       	mov	r20, r11
    10c8:	62 ef       	ldi	r22, 0xF2	; 242
    10ca:	c7 01       	movw	r24, r14
    10cc:	09 95       	icall
    10ce:	6c c0       	rjmp	.+216    	; 0x11a8 <midi_input_callbacks+0x1f2>
            else
              func(device, byte0 & 0x0F, byte1, byte2);
    10d0:	2a 2d       	mov	r18, r10
    10d2:	4b 2d       	mov	r20, r11
    10d4:	61 2f       	mov	r22, r17
    10d6:	6f 70       	andi	r22, 0x0F	; 15
    10d8:	c7 01       	movw	r24, r14
    10da:	09 95       	icall
    10dc:	65 c0       	rjmp	.+202    	; 0x11a8 <midi_input_callbacks+0x1f2>
        }
        break;
      case 2:
        {
          midi_two_byte_func_t func = NULL;
          switch (byte0 & 0xF0) {
    10de:	84 2f       	mov	r24, r20
    10e0:	80 7f       	andi	r24, 0xF0	; 240
    10e2:	80 3d       	cpi	r24, 0xD0	; 208
    10e4:	51 f0       	breq	.+20     	; 0x10fa <midi_input_callbacks+0x144>
    10e6:	80 3f       	cpi	r24, 0xF0	; 240
    10e8:	71 f0       	breq	.+28     	; 0x1106 <midi_input_callbacks+0x150>
    10ea:	80 3c       	cpi	r24, 0xC0	; 192
    10ec:	01 f5       	brne	.+64     	; 0x112e <midi_input_callbacks+0x178>
            case MIDI_PROGCHANGE:
              func = device->input_progchange_callback;
    10ee:	d7 01       	movw	r26, r14
    10f0:	1e 96       	adiw	r26, 0x0e	; 14
    10f2:	ed 91       	ld	r30, X+
    10f4:	fc 91       	ld	r31, X
    10f6:	1f 97       	sbiw	r26, 0x0f	; 15
              break;
    10f8:	1c c0       	rjmp	.+56     	; 0x1132 <midi_input_callbacks+0x17c>
            case MIDI_CHANPRESSURE:
              func = device->input_chanpressure_callback;
    10fa:	d7 01       	movw	r26, r14
    10fc:	50 96       	adiw	r26, 0x10	; 16
    10fe:	ed 91       	ld	r30, X+
    1100:	fc 91       	ld	r31, X
    1102:	51 97       	sbiw	r26, 0x11	; 17
              break;
    1104:	16 c0       	rjmp	.+44     	; 0x1132 <midi_input_callbacks+0x17c>
            case 0xF0:
              if (byte0 == MIDI_SONGSELECT)
    1106:	43 3f       	cpi	r20, 0xF3	; 243
    1108:	41 f4       	brne	.+16     	; 0x111a <midi_input_callbacks+0x164>
                func = device->input_songselect_callback;
    110a:	d7 01       	movw	r26, r14
    110c:	52 96       	adiw	r26, 0x12	; 18
    110e:	ed 91       	ld	r30, X+
    1110:	fc 91       	ld	r31, X
    1112:	53 97       	sbiw	r26, 0x13	; 19
                func = device->input_tc_quarterframe_callback;
              break;
            default:
              break;
          }
          if(func) {
    1114:	30 97       	sbiw	r30, 0x00	; 0
    1116:	99 f4       	brne	.+38     	; 0x113e <midi_input_callbacks+0x188>
    1118:	3a c0       	rjmp	.+116    	; 0x118e <midi_input_callbacks+0x1d8>
              func = device->input_chanpressure_callback;
              break;
            case 0xF0:
              if (byte0 == MIDI_SONGSELECT)
                func = device->input_songselect_callback;
              else if (byte0 == MIDI_TC_QUARTERFRAME)
    111a:	41 3f       	cpi	r20, 0xF1	; 241
    111c:	c1 f5       	brne	.+112    	; 0x118e <midi_input_callbacks+0x1d8>
                func = device->input_tc_quarterframe_callback;
    111e:	d7 01       	movw	r26, r14
    1120:	54 96       	adiw	r26, 0x14	; 20
    1122:	ed 91       	ld	r30, X+
    1124:	fc 91       	ld	r31, X
    1126:	55 97       	sbiw	r26, 0x15	; 21
              break;
            default:
              break;
          }
          if(func) {
    1128:	30 97       	sbiw	r30, 0x00	; 0
    112a:	49 f4       	brne	.+18     	; 0x113e <midi_input_callbacks+0x188>
    112c:	30 c0       	rjmp	.+96     	; 0x118e <midi_input_callbacks+0x1d8>
          }
        }
        break;
      case 2:
        {
          midi_two_byte_func_t func = NULL;
    112e:	e0 e0       	ldi	r30, 0x00	; 0
    1130:	f0 e0       	ldi	r31, 0x00	; 0
                func = device->input_tc_quarterframe_callback;
              break;
            default:
              break;
          }
          if(func) {
    1132:	30 97       	sbiw	r30, 0x00	; 0
    1134:	61 f1       	breq	.+88     	; 0x118e <midi_input_callbacks+0x1d8>
            //mask off the channel
            if (byte0 == MIDI_SONGSELECT || byte0 == MIDI_TC_QUARTERFRAME)
    1136:	81 2f       	mov	r24, r17
    1138:	8d 7f       	andi	r24, 0xFD	; 253
    113a:	81 3f       	cpi	r24, 0xF1	; 241
    113c:	29 f4       	brne	.+10     	; 0x1148 <midi_input_callbacks+0x192>
              func(device, byte0, byte1);
    113e:	4b 2d       	mov	r20, r11
    1140:	61 2f       	mov	r22, r17
    1142:	c7 01       	movw	r24, r14
    1144:	09 95       	icall
    1146:	30 c0       	rjmp	.+96     	; 0x11a8 <midi_input_callbacks+0x1f2>
            else
              func(device, byte0 & 0x0F, byte1);
    1148:	4b 2d       	mov	r20, r11
    114a:	61 2f       	mov	r22, r17
    114c:	6f 70       	andi	r22, 0x0F	; 15
    114e:	c7 01       	movw	r24, r14
    1150:	09 95       	icall
    1152:	2a c0       	rjmp	.+84     	; 0x11a8 <midi_input_callbacks+0x1f2>
        }
        break;
      case 1:
        {
          midi_one_byte_func_t func = NULL;
          if (midi_is_realtime(byte0))
    1154:	84 2f       	mov	r24, r20
    1156:	0e 94 43 07 	call	0xe86	; 0xe86 <midi_is_realtime>
    115a:	88 23       	and	r24, r24
    115c:	31 f0       	breq	.+12     	; 0x116a <midi_input_callbacks+0x1b4>
            func = device->input_realtime_callback;
    115e:	d7 01       	movw	r26, r14
    1160:	56 96       	adiw	r26, 0x16	; 22
    1162:	ed 91       	ld	r30, X+
    1164:	fc 91       	ld	r31, X
    1166:	57 97       	sbiw	r26, 0x17	; 23
    1168:	07 c0       	rjmp	.+14     	; 0x1178 <midi_input_callbacks+0x1c2>
          else if (byte0 == MIDI_TUNEREQUEST)
    116a:	16 3f       	cpi	r17, 0xF6	; 246
    116c:	81 f4       	brne	.+32     	; 0x118e <midi_input_callbacks+0x1d8>
            func = device->input_tunerequest_callback;
    116e:	d7 01       	movw	r26, r14
    1170:	58 96       	adiw	r26, 0x18	; 24
    1172:	ed 91       	ld	r30, X+
    1174:	fc 91       	ld	r31, X
    1176:	59 97       	sbiw	r26, 0x19	; 25
          if (func) {
    1178:	30 97       	sbiw	r30, 0x00	; 0
    117a:	49 f0       	breq	.+18     	; 0x118e <midi_input_callbacks+0x1d8>
            func(device, byte0);
    117c:	61 2f       	mov	r22, r17
    117e:	c7 01       	movw	r24, r14
    1180:	09 95       	icall
    1182:	12 c0       	rjmp	.+36     	; 0x11a8 <midi_input_callbacks+0x1f2>
          }
        }
        break;
      default:
        //just in case
        if (cnt > 3)
    1184:	64 30       	cpi	r22, 0x04	; 4
    1186:	71 05       	cpc	r23, r1
    1188:	10 f0       	brcs	.+4      	; 0x118e <midi_input_callbacks+0x1d8>
          cnt = 0;
    118a:	c1 2c       	mov	r12, r1
    118c:	d1 2c       	mov	r13, r1
    }
  }

  //if there is fallthrough default callback and we haven't called a more specific one, 
  //call the fallthrough
  if (!called && device->input_fallthrough_callback)
    118e:	d7 01       	movw	r26, r14
    1190:	5c 96       	adiw	r26, 0x1c	; 28
    1192:	ed 91       	ld	r30, X+
    1194:	fc 91       	ld	r31, X
    1196:	5d 97       	sbiw	r26, 0x1d	; 29
    1198:	30 97       	sbiw	r30, 0x00	; 0
    119a:	31 f0       	breq	.+12     	; 0x11a8 <midi_input_callbacks+0x1f2>
    device->input_fallthrough_callback(device, cnt, byte0, byte1, byte2);
    119c:	0a 2d       	mov	r16, r10
    119e:	2b 2d       	mov	r18, r11
    11a0:	41 2f       	mov	r20, r17
    11a2:	b6 01       	movw	r22, r12
    11a4:	c7 01       	movw	r24, r14
    11a6:	09 95       	icall
  //always call the catch all if it exists
  if (device->input_catchall_callback)
    11a8:	d7 01       	movw	r26, r14
    11aa:	5e 96       	adiw	r26, 0x1e	; 30
    11ac:	ed 91       	ld	r30, X+
    11ae:	fc 91       	ld	r31, X
    11b0:	5f 97       	sbiw	r26, 0x1f	; 31
    11b2:	30 97       	sbiw	r30, 0x00	; 0
    11b4:	31 f0       	breq	.+12     	; 0x11c2 <midi_input_callbacks+0x20c>
    device->input_catchall_callback(device, cnt, byte0, byte1, byte2);
    11b6:	0a 2d       	mov	r16, r10
    11b8:	2b 2d       	mov	r18, r11
    11ba:	41 2f       	mov	r20, r17
    11bc:	b6 01       	movw	r22, r12
    11be:	c7 01       	movw	r24, r14
    11c0:	09 95       	icall
}
    11c2:	0f 90       	pop	r0
    11c4:	0f 90       	pop	r0
    11c6:	0f 90       	pop	r0
    11c8:	df 91       	pop	r29
    11ca:	cf 91       	pop	r28
    11cc:	1f 91       	pop	r17
    11ce:	0f 91       	pop	r16
    11d0:	ff 90       	pop	r15
    11d2:	ef 90       	pop	r14
    11d4:	df 90       	pop	r13
    11d6:	cf 90       	pop	r12
    11d8:	bf 90       	pop	r11
    11da:	af 90       	pop	r10
    11dc:	08 95       	ret

000011de <midi_process_byte>:
    midi_process_byte(device, val);
    bytequeue_remove(&device->input_queue, 1);
  }
}

void midi_process_byte(MidiDevice * device, uint8_t input) {
    11de:	ff 92       	push	r15
    11e0:	0f 93       	push	r16
    11e2:	1f 93       	push	r17
    11e4:	cf 93       	push	r28
    11e6:	df 93       	push	r29
    11e8:	ec 01       	movw	r28, r24
    11ea:	16 2f       	mov	r17, r22
  if (midi_is_realtime(input)) {
    11ec:	86 2f       	mov	r24, r22
    11ee:	0e 94 43 07 	call	0xe86	; 0xe86 <midi_is_realtime>
    11f2:	88 23       	and	r24, r24
    11f4:	69 f0       	breq	.+26     	; 0x1210 <midi_process_byte+0x32>
    //call callback, store and restore state
    input_state_t state = device->input_state;
    11f6:	fd a0       	ldd	r15, Y+37	; 0x25
    device->input_state = ONE_BYTE_MESSAGE;
    11f8:	81 e0       	ldi	r24, 0x01	; 1
    11fa:	8d a3       	std	Y+37, r24	; 0x25
    midi_input_callbacks(device, 1, input, 0, 0);
    11fc:	00 e0       	ldi	r16, 0x00	; 0
    11fe:	20 e0       	ldi	r18, 0x00	; 0
    1200:	41 2f       	mov	r20, r17
    1202:	61 e0       	ldi	r22, 0x01	; 1
    1204:	70 e0       	ldi	r23, 0x00	; 0
    1206:	ce 01       	movw	r24, r28
    1208:	0e 94 db 07 	call	0xfb6	; 0xfb6 <midi_input_callbacks>
    device->input_state = state;
    120c:	fd a2       	std	Y+37, r15	; 0x25
    120e:	a4 c0       	rjmp	.+328    	; 0x1358 <midi_process_byte+0x17a>
  } else if (midi_is_statusbyte(input)) {
    1210:	81 2f       	mov	r24, r17
    1212:	0e 94 3f 07 	call	0xe7e	; 0xe7e <midi_is_statusbyte>
    1216:	88 23       	and	r24, r24
    1218:	09 f4       	brne	.+2      	; 0x121c <midi_process_byte+0x3e>
    121a:	5d c0       	rjmp	.+186    	; 0x12d6 <midi_process_byte+0xf8>
    //store the byte
    if (device->input_state != SYSEX_MESSAGE) {
    121c:	8d a1       	ldd	r24, Y+37	; 0x25
    121e:	84 30       	cpi	r24, 0x04	; 4
    1220:	29 f0       	breq	.+10     	; 0x122c <midi_process_byte+0x4e>
      device->input_buffer[0] = input;
    1222:	1a a3       	std	Y+34, r17	; 0x22
      device->input_count = 1;
    1224:	81 e0       	ldi	r24, 0x01	; 1
    1226:	90 e0       	ldi	r25, 0x00	; 0
    1228:	9f a3       	std	Y+39, r25	; 0x27
    122a:	8e a3       	std	Y+38, r24	; 0x26
    }
    switch (midi_packet_length(input)) {
    122c:	81 2f       	mov	r24, r17
    122e:	0e 94 49 07 	call	0xe92	; 0xe92 <midi_packet_length>
    1232:	81 30       	cpi	r24, 0x01	; 1
    1234:	31 f0       	breq	.+12     	; 0x1242 <midi_process_byte+0x64>
    1236:	b8 f0       	brcs	.+46     	; 0x1266 <midi_process_byte+0x88>
    1238:	82 30       	cpi	r24, 0x02	; 2
    123a:	79 f0       	breq	.+30     	; 0x125a <midi_process_byte+0x7c>
    123c:	83 30       	cpi	r24, 0x03	; 3
    123e:	81 f0       	breq	.+32     	; 0x1260 <midi_process_byte+0x82>
    1240:	46 c0       	rjmp	.+140    	; 0x12ce <midi_process_byte+0xf0>
      case ONE1:
        device->input_state = ONE_BYTE_MESSAGE;;
    1242:	81 e0       	ldi	r24, 0x01	; 1
    1244:	8d a3       	std	Y+37, r24	; 0x25
        midi_input_callbacks(device, 1, input, 0, 0);
    1246:	00 e0       	ldi	r16, 0x00	; 0
    1248:	20 e0       	ldi	r18, 0x00	; 0
    124a:	41 2f       	mov	r20, r17
    124c:	61 e0       	ldi	r22, 0x01	; 1
    124e:	70 e0       	ldi	r23, 0x00	; 0
    1250:	ce 01       	movw	r24, r28
    1252:	0e 94 db 07 	call	0xfb6	; 0xfb6 <midi_input_callbacks>
        device->input_state = IDLE;
    1256:	1d a2       	std	Y+37, r1	; 0x25
        break;
    1258:	7f c0       	rjmp	.+254    	; 0x1358 <midi_process_byte+0x17a>
      case TWO2:
        device->input_state = TWO_BYTE_MESSAGE;
    125a:	82 e0       	ldi	r24, 0x02	; 2
    125c:	8d a3       	std	Y+37, r24	; 0x25
        break;
    125e:	7c c0       	rjmp	.+248    	; 0x1358 <midi_process_byte+0x17a>
      case THREE3:
        device->input_state = THREE_BYTE_MESSAGE;
    1260:	83 e0       	ldi	r24, 0x03	; 3
    1262:	8d a3       	std	Y+37, r24	; 0x25
        break;
    1264:	79 c0       	rjmp	.+242    	; 0x1358 <midi_process_byte+0x17a>
      case UNDEFINED:
        switch(input) {
    1266:	10 3f       	cpi	r17, 0xF0	; 240
    1268:	19 f0       	breq	.+6      	; 0x1270 <midi_process_byte+0x92>
    126a:	17 3f       	cpi	r17, 0xF7	; 247
    126c:	51 f0       	breq	.+20     	; 0x1282 <midi_process_byte+0xa4>
    126e:	2b c0       	rjmp	.+86     	; 0x12c6 <midi_process_byte+0xe8>
          case SYSEX_BEGIN:
            device->input_state = SYSEX_MESSAGE;
    1270:	84 e0       	ldi	r24, 0x04	; 4
    1272:	8d a3       	std	Y+37, r24	; 0x25
            device->input_buffer[0] = input;
    1274:	80 ef       	ldi	r24, 0xF0	; 240
    1276:	8a a3       	std	Y+34, r24	; 0x22
            device->input_count = 1;
    1278:	81 e0       	ldi	r24, 0x01	; 1
    127a:	90 e0       	ldi	r25, 0x00	; 0
    127c:	9f a3       	std	Y+39, r25	; 0x27
    127e:	8e a3       	std	Y+38, r24	; 0x26
            break;
    1280:	6b c0       	rjmp	.+214    	; 0x1358 <midi_process_byte+0x17a>
          case SYSEX_END:
            //send what is left in the input buffer, set idle
            device->input_buffer[device->input_count % 3] = input;
    1282:	4e a1       	ldd	r20, Y+38	; 0x26
    1284:	5f a1       	ldd	r21, Y+39	; 0x27
    1286:	9a 01       	movw	r18, r20
    1288:	ab ea       	ldi	r26, 0xAB	; 171
    128a:	ba ea       	ldi	r27, 0xAA	; 170
    128c:	0e 94 03 0a 	call	0x1406	; 0x1406 <__umulhisi3>
    1290:	96 95       	lsr	r25
    1292:	87 95       	ror	r24
    1294:	9c 01       	movw	r18, r24
    1296:	22 0f       	add	r18, r18
    1298:	33 1f       	adc	r19, r19
    129a:	82 0f       	add	r24, r18
    129c:	93 1f       	adc	r25, r19
    129e:	fa 01       	movw	r30, r20
    12a0:	e8 1b       	sub	r30, r24
    12a2:	f9 0b       	sbc	r31, r25
    12a4:	ec 0f       	add	r30, r28
    12a6:	fd 1f       	adc	r31, r29
    12a8:	87 ef       	ldi	r24, 0xF7	; 247
    12aa:	82 a3       	std	Z+34, r24	; 0x22
            device->input_count += 1;
    12ac:	ba 01       	movw	r22, r20
    12ae:	6f 5f       	subi	r22, 0xFF	; 255
    12b0:	7f 4f       	sbci	r23, 0xFF	; 255
    12b2:	7f a3       	std	Y+39, r23	; 0x27
    12b4:	6e a3       	std	Y+38, r22	; 0x26
            //call the callback
            midi_input_callbacks(device, device->input_count, 
    12b6:	0c a1       	ldd	r16, Y+36	; 0x24
    12b8:	2b a1       	ldd	r18, Y+35	; 0x23
    12ba:	4a a1       	ldd	r20, Y+34	; 0x22
    12bc:	ce 01       	movw	r24, r28
    12be:	0e 94 db 07 	call	0xfb6	; 0xfb6 <midi_input_callbacks>
                device->input_buffer[0], device->input_buffer[1], device->input_buffer[2]);
            device->input_state = IDLE;
    12c2:	1d a2       	std	Y+37, r1	; 0x25
            break;
    12c4:	49 c0       	rjmp	.+146    	; 0x1358 <midi_process_byte+0x17a>
          default:
            device->input_state = IDLE;
    12c6:	1d a2       	std	Y+37, r1	; 0x25
            device->input_count = 0;
    12c8:	1f a2       	std	Y+39, r1	; 0x27
    12ca:	1e a2       	std	Y+38, r1	; 0x26
    12cc:	45 c0       	rjmp	.+138    	; 0x1358 <midi_process_byte+0x17a>
        }

        break;
      default:
        device->input_state = IDLE;
    12ce:	1d a2       	std	Y+37, r1	; 0x25
        device->input_count = 0;
    12d0:	1f a2       	std	Y+39, r1	; 0x27
    12d2:	1e a2       	std	Y+38, r1	; 0x26
        break;
    12d4:	41 c0       	rjmp	.+130    	; 0x1358 <midi_process_byte+0x17a>
    }
  } else {
    if (device->input_state != IDLE) {
    12d6:	ed a1       	ldd	r30, Y+37	; 0x25
    12d8:	ee 23       	and	r30, r30
    12da:	f1 f1       	breq	.+124    	; 0x1358 <midi_process_byte+0x17a>
      //store the byte
      device->input_buffer[device->input_count % 3] = input;
    12dc:	4e a1       	ldd	r20, Y+38	; 0x26
    12de:	5f a1       	ldd	r21, Y+39	; 0x27
    12e0:	9a 01       	movw	r18, r20
    12e2:	ab ea       	ldi	r26, 0xAB	; 171
    12e4:	ba ea       	ldi	r27, 0xAA	; 170
    12e6:	0e 94 03 0a 	call	0x1406	; 0x1406 <__umulhisi3>
    12ea:	96 95       	lsr	r25
    12ec:	87 95       	ror	r24
    12ee:	9c 01       	movw	r18, r24
    12f0:	22 0f       	add	r18, r18
    12f2:	33 1f       	adc	r19, r19
    12f4:	82 0f       	add	r24, r18
    12f6:	93 1f       	adc	r25, r19
    12f8:	9a 01       	movw	r18, r20
    12fa:	28 1b       	sub	r18, r24
    12fc:	39 0b       	sbc	r19, r25
    12fe:	de 01       	movw	r26, r28
    1300:	a2 0f       	add	r26, r18
    1302:	b3 1f       	adc	r27, r19
    1304:	92 96       	adiw	r26, 0x22	; 34
    1306:	1c 93       	st	X, r17
      //increment count
      uint16_t prev = device->input_count;
      device->input_count += 1;
    1308:	ba 01       	movw	r22, r20
    130a:	6f 5f       	subi	r22, 0xFF	; 255
    130c:	7f 4f       	sbci	r23, 0xFF	; 255
    130e:	7f a3       	std	Y+39, r23	; 0x27
    1310:	6e a3       	std	Y+38, r22	; 0x26

      switch(prev % 3) {
    1312:	21 30       	cpi	r18, 0x01	; 1
    1314:	31 05       	cpc	r19, r1
    1316:	89 f0       	breq	.+34     	; 0x133a <midi_process_byte+0x15c>
    1318:	22 30       	cpi	r18, 0x02	; 2
    131a:	31 05       	cpc	r19, r1
    131c:	e9 f4       	brne	.+58     	; 0x1358 <midi_process_byte+0x17a>
        case 2:
          //call callback
          midi_input_callbacks(device, device->input_count,
    131e:	0c a1       	ldd	r16, Y+36	; 0x24
    1320:	2b a1       	ldd	r18, Y+35	; 0x23
    1322:	4a a1       	ldd	r20, Y+34	; 0x22
    1324:	ce 01       	movw	r24, r28
    1326:	0e 94 db 07 	call	0xfb6	; 0xfb6 <midi_input_callbacks>
              device->input_buffer[0], device->input_buffer[1], device->input_buffer[2]);
          if (device->input_state != SYSEX_MESSAGE) {
    132a:	8d a1       	ldd	r24, Y+37	; 0x25
    132c:	84 30       	cpi	r24, 0x04	; 4
    132e:	a1 f0       	breq	.+40     	; 0x1358 <midi_process_byte+0x17a>
            //set to 1, keeping status byte, allowing for running status
            device->input_count = 1;
    1330:	81 e0       	ldi	r24, 0x01	; 1
    1332:	90 e0       	ldi	r25, 0x00	; 0
    1334:	9f a3       	std	Y+39, r25	; 0x27
    1336:	8e a3       	std	Y+38, r24	; 0x26
    1338:	0f c0       	rjmp	.+30     	; 0x1358 <midi_process_byte+0x17a>
          }
          break;
        case 1:
          if (device->input_state == TWO_BYTE_MESSAGE) {
    133a:	e2 30       	cpi	r30, 0x02	; 2
    133c:	69 f4       	brne	.+26     	; 0x1358 <midi_process_byte+0x17a>
            //call callback
            midi_input_callbacks(device, device->input_count,
    133e:	00 e0       	ldi	r16, 0x00	; 0
    1340:	2b a1       	ldd	r18, Y+35	; 0x23
    1342:	4a a1       	ldd	r20, Y+34	; 0x22
    1344:	ce 01       	movw	r24, r28
    1346:	0e 94 db 07 	call	0xfb6	; 0xfb6 <midi_input_callbacks>
                device->input_buffer[0], device->input_buffer[1], 0);
            if (device->input_state != SYSEX_MESSAGE) {
    134a:	8d a1       	ldd	r24, Y+37	; 0x25
    134c:	84 30       	cpi	r24, 0x04	; 4
    134e:	21 f0       	breq	.+8      	; 0x1358 <midi_process_byte+0x17a>
              //set to 1, keeping status byte, allowing for running status
              device->input_count = 1;
    1350:	81 e0       	ldi	r24, 0x01	; 1
    1352:	90 e0       	ldi	r25, 0x00	; 0
    1354:	9f a3       	std	Y+39, r25	; 0x27
    1356:	8e a3       	std	Y+38, r24	; 0x26
          //one byte messages are dealt with directly
          break;
      }
    }
  }
}
    1358:	df 91       	pop	r29
    135a:	cf 91       	pop	r28
    135c:	1f 91       	pop	r17
    135e:	0f 91       	pop	r16
    1360:	ff 90       	pop	r15
    1362:	08 95       	ret

00001364 <midi_device_process>:

void midi_device_set_pre_input_process_func(MidiDevice * device, midi_no_byte_func_t pre_process_func){
  device->pre_input_process_callback = pre_process_func;
}

void midi_device_process(MidiDevice * device) {
    1364:	cf 92       	push	r12
    1366:	df 92       	push	r13
    1368:	ef 92       	push	r14
    136a:	ff 92       	push	r15
    136c:	0f 93       	push	r16
    136e:	1f 93       	push	r17
    1370:	cf 93       	push	r28
    1372:	df 93       	push	r29
    1374:	6c 01       	movw	r12, r24
  //call the pre_input_process_callback if there is one
  if(device->pre_input_process_callback)
    1376:	dc 01       	movw	r26, r24
    1378:	90 96       	adiw	r26, 0x20	; 32
    137a:	ed 91       	ld	r30, X+
    137c:	fc 91       	ld	r31, X
    137e:	91 97       	sbiw	r26, 0x21	; 33
    1380:	30 97       	sbiw	r30, 0x00	; 0
    1382:	09 f0       	breq	.+2      	; 0x1386 <midi_device_process+0x22>
    device->pre_input_process_callback(device);
    1384:	09 95       	icall

  //pull stuff off the queue and process
  byteQueueIndex_t len = bytequeue_length(&device->input_queue);
    1386:	86 01       	movw	r16, r12
    1388:	08 51       	subi	r16, 0x18	; 24
    138a:	1f 4f       	sbci	r17, 0xFF	; 255
    138c:	c8 01       	movw	r24, r16
    138e:	0e 94 f7 06 	call	0xdee	; 0xdee <bytequeue_length>
  uint16_t i;
  //TODO limit number of bytes processed?
  for(i = 0; i < len; i++) {
    1392:	e8 2e       	mov	r14, r24
    1394:	f1 2c       	mov	r15, r1
    1396:	e1 14       	cp	r14, r1
    1398:	f1 04       	cpc	r15, r1
    139a:	91 f0       	breq	.+36     	; 0x13c0 <midi_device_process+0x5c>
    139c:	c0 e0       	ldi	r28, 0x00	; 0
    139e:	d0 e0       	ldi	r29, 0x00	; 0
    uint8_t val = bytequeue_get(&device->input_queue, 0);
    13a0:	60 e0       	ldi	r22, 0x00	; 0
    13a2:	c8 01       	movw	r24, r16
    13a4:	0e 94 0d 07 	call	0xe1a	; 0xe1a <bytequeue_get>
    13a8:	68 2f       	mov	r22, r24
    midi_process_byte(device, val);
    13aa:	c6 01       	movw	r24, r12
    13ac:	0e 94 ef 08 	call	0x11de	; 0x11de <midi_process_byte>
    bytequeue_remove(&device->input_queue, 1);
    13b0:	61 e0       	ldi	r22, 0x01	; 1
    13b2:	c8 01       	movw	r24, r16
    13b4:	0e 94 1f 07 	call	0xe3e	; 0xe3e <bytequeue_remove>

  //pull stuff off the queue and process
  byteQueueIndex_t len = bytequeue_length(&device->input_queue);
  uint16_t i;
  //TODO limit number of bytes processed?
  for(i = 0; i < len; i++) {
    13b8:	21 96       	adiw	r28, 0x01	; 1
    13ba:	ce 15       	cp	r28, r14
    13bc:	df 05       	cpc	r29, r15
    13be:	81 f7       	brne	.-32     	; 0x13a0 <midi_device_process+0x3c>
    uint8_t val = bytequeue_get(&device->input_queue, 0);
    midi_process_byte(device, val);
    bytequeue_remove(&device->input_queue, 1);
  }
}
    13c0:	df 91       	pop	r29
    13c2:	cf 91       	pop	r28
    13c4:	1f 91       	pop	r17
    13c6:	0f 91       	pop	r16
    13c8:	ff 90       	pop	r15
    13ca:	ef 90       	pop	r14
    13cc:	df 90       	pop	r13
    13ce:	cf 90       	pop	r12
    13d0:	08 95       	ret

000013d2 <__divmodhi4>:
    13d2:	97 fb       	bst	r25, 7
    13d4:	07 2e       	mov	r0, r23
    13d6:	16 f4       	brtc	.+4      	; 0x13dc <__divmodhi4+0xa>
    13d8:	00 94       	com	r0
    13da:	07 d0       	rcall	.+14     	; 0x13ea <__divmodhi4_neg1>
    13dc:	77 fd       	sbrc	r23, 7
    13de:	09 d0       	rcall	.+18     	; 0x13f2 <__divmodhi4_neg2>
    13e0:	0e 94 12 0a 	call	0x1424	; 0x1424 <__udivmodhi4>
    13e4:	07 fc       	sbrc	r0, 7
    13e6:	05 d0       	rcall	.+10     	; 0x13f2 <__divmodhi4_neg2>
    13e8:	3e f4       	brtc	.+14     	; 0x13f8 <__divmodhi4_exit>

000013ea <__divmodhi4_neg1>:
    13ea:	90 95       	com	r25
    13ec:	81 95       	neg	r24
    13ee:	9f 4f       	sbci	r25, 0xFF	; 255
    13f0:	08 95       	ret

000013f2 <__divmodhi4_neg2>:
    13f2:	70 95       	com	r23
    13f4:	61 95       	neg	r22
    13f6:	7f 4f       	sbci	r23, 0xFF	; 255

000013f8 <__divmodhi4_exit>:
    13f8:	08 95       	ret

000013fa <__tablejump2__>:
    13fa:	ee 0f       	add	r30, r30
    13fc:	ff 1f       	adc	r31, r31
    13fe:	05 90       	lpm	r0, Z+
    1400:	f4 91       	lpm	r31, Z
    1402:	e0 2d       	mov	r30, r0
    1404:	09 94       	ijmp

00001406 <__umulhisi3>:
    1406:	a2 9f       	mul	r26, r18
    1408:	b0 01       	movw	r22, r0
    140a:	b3 9f       	mul	r27, r19
    140c:	c0 01       	movw	r24, r0
    140e:	a3 9f       	mul	r26, r19
    1410:	70 0d       	add	r23, r0
    1412:	81 1d       	adc	r24, r1
    1414:	11 24       	eor	r1, r1
    1416:	91 1d       	adc	r25, r1
    1418:	b2 9f       	mul	r27, r18
    141a:	70 0d       	add	r23, r0
    141c:	81 1d       	adc	r24, r1
    141e:	11 24       	eor	r1, r1
    1420:	91 1d       	adc	r25, r1
    1422:	08 95       	ret

00001424 <__udivmodhi4>:
    1424:	aa 1b       	sub	r26, r26
    1426:	bb 1b       	sub	r27, r27
    1428:	51 e1       	ldi	r21, 0x11	; 17
    142a:	07 c0       	rjmp	.+14     	; 0x143a <__udivmodhi4_ep>

0000142c <__udivmodhi4_loop>:
    142c:	aa 1f       	adc	r26, r26
    142e:	bb 1f       	adc	r27, r27
    1430:	a6 17       	cp	r26, r22
    1432:	b7 07       	cpc	r27, r23
    1434:	10 f0       	brcs	.+4      	; 0x143a <__udivmodhi4_ep>
    1436:	a6 1b       	sub	r26, r22
    1438:	b7 0b       	sbc	r27, r23

0000143a <__udivmodhi4_ep>:
    143a:	88 1f       	adc	r24, r24
    143c:	99 1f       	adc	r25, r25
    143e:	5a 95       	dec	r21
    1440:	a9 f7       	brne	.-22     	; 0x142c <__udivmodhi4_loop>
    1442:	80 95       	com	r24
    1444:	90 95       	com	r25
    1446:	bc 01       	movw	r22, r24
    1448:	cd 01       	movw	r24, r26
    144a:	08 95       	ret

0000144c <_exit>:
    144c:	f8 94       	cli

0000144e <__stop_program>:
    144e:	ff cf       	rjmp	.-2      	; 0x144e <__stop_program>
