
TR-808-firmware.elf:     file format elf32-avr

Sections:
Idx Name          Size      VMA       LMA       File off  Algn
  0 .data         00000130  00800100  00004e72  00004f06  2**0
                  CONTENTS, ALLOC, LOAD, DATA
  1 .text         00004e72  00000000  00000000  00000094  2**1
                  CONTENTS, ALLOC, LOAD, READONLY, CODE
  2 .bss          000003af  00800230  00800230  00005036  2**0
                  ALLOC
  3 .comment      00000030  00000000  00000000  00005036  2**0
                  CONTENTS, READONLY
  4 .note.gnu.avr.deviceinfo 00000040  00000000  00000000  00005068  2**2
                  CONTENTS, READONLY

Disassembly of section .text:

00000000 <__vectors>:
       0:	0c 94 2a 01 	jmp	0x254	; 0x254 <__ctors_end>
       4:	0c 94 f5 05 	jmp	0xbea	; 0xbea <__vector_1>
       8:	0c 94 b8 05 	jmp	0xb70	; 0xb70 <__vector_2>
       c:	0c 94 47 01 	jmp	0x28e	; 0x28e <__bad_interrupt>
      10:	0c 94 47 01 	jmp	0x28e	; 0x28e <__bad_interrupt>
      14:	0c 94 1f 06 	jmp	0xc3e	; 0xc3e <__vector_5>
      18:	0c 94 47 01 	jmp	0x28e	; 0x28e <__bad_interrupt>
      1c:	0c 94 b6 06 	jmp	0xd6c	; 0xd6c <__vector_7>
      20:	0c 94 47 01 	jmp	0x28e	; 0x28e <__bad_interrupt>
      24:	0c 94 47 01 	jmp	0x28e	; 0x28e <__bad_interrupt>
      28:	0c 94 47 01 	jmp	0x28e	; 0x28e <__bad_interrupt>
      2c:	0c 94 df 06 	jmp	0xdbe	; 0xdbe <__vector_11>
      30:	0c 94 47 01 	jmp	0x28e	; 0x28e <__bad_interrupt>
      34:	0c 94 47 01 	jmp	0x28e	; 0x28e <__bad_interrupt>
      38:	0c 94 52 06 	jmp	0xca4	; 0xca4 <__vector_14>
      3c:	0c 94 47 01 	jmp	0x28e	; 0x28e <__bad_interrupt>
      40:	0c 94 47 01 	jmp	0x28e	; 0x28e <__bad_interrupt>
      44:	0c 94 47 01 	jmp	0x28e	; 0x28e <__bad_interrupt>
      48:	0c 94 62 07 	jmp	0xec4	; 0xec4 <__vector_18>
      4c:	0c 94 97 07 	jmp	0xf2e	; 0xf2e <__vector_19>
      50:	0c 94 47 01 	jmp	0x28e	; 0x28e <__bad_interrupt>
      54:	0c 94 47 01 	jmp	0x28e	; 0x28e <__bad_interrupt>
      58:	0c 94 47 01 	jmp	0x28e	; 0x28e <__bad_interrupt>
      5c:	0c 94 47 01 	jmp	0x28e	; 0x28e <__bad_interrupt>
      60:	0c 94 01 22 	jmp	0x4402	; 0x4402 <__vector_24>
      64:	0c 94 47 01 	jmp	0x28e	; 0x28e <__bad_interrupt>
      68:	0c 94 47 01 	jmp	0x28e	; 0x28e <__bad_interrupt>
      6c:	0c 94 47 01 	jmp	0x28e	; 0x28e <__bad_interrupt>
      70:	0c 94 47 01 	jmp	0x28e	; 0x28e <__bad_interrupt>
      74:	0c 94 47 01 	jmp	0x28e	; 0x28e <__bad_interrupt>
      78:	0c 94 47 01 	jmp	0x28e	; 0x28e <__bad_interrupt>
      7c:	0c 94 47 01 	jmp	0x28e	; 0x28e <__bad_interrupt>
      80:	0c 94 47 01 	jmp	0x28e	; 0x28e <__bad_interrupt>
      84:	0c 94 cb 06 	jmp	0xd96	; 0xd96 <__vector_33>
      88:	0c 94 47 01 	jmp	0x28e	; 0x28e <__bad_interrupt>
      8c:	0c 94 47 01 	jmp	0x28e	; 0x28e <__bad_interrupt>
      90:	0c 94 47 01 	jmp	0x28e	; 0x28e <__bad_interrupt>
      94:	0c 94 47 01 	jmp	0x28e	; 0x28e <__bad_interrupt>
      98:	0c 94 47 01 	jmp	0x28e	; 0x28e <__bad_interrupt>
      9c:	0c 94 47 01 	jmp	0x28e	; 0x28e <__bad_interrupt>
      a0:	0c 94 47 01 	jmp	0x28e	; 0x28e <__bad_interrupt>
      a4:	0c 94 47 01 	jmp	0x28e	; 0x28e <__bad_interrupt>
      a8:	0c 94 d5 06 	jmp	0xdaa	; 0xdaa <__vector_42>
      ac:	0c 94 47 01 	jmp	0x28e	; 0x28e <__bad_interrupt>
      b0:	0c 94 47 01 	jmp	0x28e	; 0x28e <__bad_interrupt>
      b4:	25 22       	and	r2, r21
      b6:	46 23       	and	r20, r22
      b8:	46 23       	and	r20, r22
      ba:	46 23       	and	r20, r22
      bc:	46 23       	and	r20, r22
      be:	46 23       	and	r20, r22
      c0:	46 23       	and	r20, r22
      c2:	46 23       	and	r20, r22
      c4:	25 22       	and	r2, r21
      c6:	46 23       	and	r20, r22
      c8:	46 23       	and	r20, r22
      ca:	46 23       	and	r20, r22
      cc:	46 23       	and	r20, r22
      ce:	46 23       	and	r20, r22
      d0:	46 23       	and	r20, r22
      d2:	46 23       	and	r20, r22
      d4:	44 22       	and	r4, r20
      d6:	46 23       	and	r20, r22
      d8:	46 23       	and	r20, r22
      da:	46 23       	and	r20, r22
      dc:	46 23       	and	r20, r22
      de:	46 23       	and	r20, r22
      e0:	46 23       	and	r20, r22
      e2:	46 23       	and	r20, r22
      e4:	3d 23       	and	r19, r29
      e6:	46 23       	and	r20, r22
      e8:	46 23       	and	r20, r22
      ea:	46 23       	and	r20, r22
      ec:	46 23       	and	r20, r22
      ee:	46 23       	and	r20, r22
      f0:	46 23       	and	r20, r22
      f2:	46 23       	and	r20, r22
      f4:	44 22       	and	r4, r20
      f6:	46 23       	and	r20, r22
      f8:	46 23       	and	r20, r22
      fa:	46 23       	and	r20, r22
      fc:	46 23       	and	r20, r22
      fe:	46 23       	and	r20, r22
     100:	46 23       	and	r20, r22
     102:	46 23       	and	r20, r22
     104:	3d 23       	and	r19, r29
     106:	46 23       	and	r20, r22
     108:	46 23       	and	r20, r22
     10a:	46 23       	and	r20, r22
     10c:	46 23       	and	r20, r22
     10e:	46 23       	and	r20, r22
     110:	46 23       	and	r20, r22
     112:	46 23       	and	r20, r22
     114:	46 23       	and	r20, r22
     116:	46 23       	and	r20, r22
     118:	46 23       	and	r20, r22
     11a:	46 23       	and	r20, r22
     11c:	46 23       	and	r20, r22
     11e:	46 23       	and	r20, r22
     120:	46 23       	and	r20, r22
     122:	46 23       	and	r20, r22
     124:	9b 22       	and	r9, r27
     126:	46 23       	and	r20, r22
     128:	46 23       	and	r20, r22
     12a:	46 23       	and	r20, r22
     12c:	46 23       	and	r20, r22
     12e:	46 23       	and	r20, r22
     130:	46 23       	and	r20, r22
     132:	46 23       	and	r20, r22
     134:	3d 23       	and	r19, r29
     136:	46 23       	and	r20, r22
     138:	46 23       	and	r20, r22
     13a:	46 23       	and	r20, r22
     13c:	46 23       	and	r20, r22
     13e:	46 23       	and	r20, r22
     140:	46 23       	and	r20, r22
     142:	46 23       	and	r20, r22
     144:	86 22       	and	r8, r22
     146:	46 23       	and	r20, r22
     148:	46 23       	and	r20, r22
     14a:	46 23       	and	r20, r22
     14c:	46 23       	and	r20, r22
     14e:	46 23       	and	r20, r22
     150:	46 23       	and	r20, r22
     152:	46 23       	and	r20, r22
     154:	af 22       	and	r10, r31
     156:	46 23       	and	r20, r22
     158:	46 23       	and	r20, r22
     15a:	46 23       	and	r20, r22
     15c:	46 23       	and	r20, r22
     15e:	46 23       	and	r20, r22
     160:	46 23       	and	r20, r22
     162:	46 23       	and	r20, r22
     164:	d7 22       	and	r13, r23
     166:	46 23       	and	r20, r22
     168:	46 23       	and	r20, r22
     16a:	46 23       	and	r20, r22
     16c:	46 23       	and	r20, r22
     16e:	46 23       	and	r20, r22
     170:	46 23       	and	r20, r22
     172:	46 23       	and	r20, r22
     174:	d7 22       	and	r13, r23
     176:	46 23       	and	r20, r22
     178:	46 23       	and	r20, r22
     17a:	46 23       	and	r20, r22
     17c:	46 23       	and	r20, r22
     17e:	46 23       	and	r20, r22
     180:	46 23       	and	r20, r22
     182:	46 23       	and	r20, r22
     184:	d7 22       	and	r13, r23
     186:	46 23       	and	r20, r22
     188:	46 23       	and	r20, r22
     18a:	46 23       	and	r20, r22
     18c:	46 23       	and	r20, r22
     18e:	46 23       	and	r20, r22
     190:	46 23       	and	r20, r22
     192:	46 23       	and	r20, r22
     194:	d7 22       	and	r13, r23
     196:	46 23       	and	r20, r22
     198:	46 23       	and	r20, r22
     19a:	46 23       	and	r20, r22
     19c:	46 23       	and	r20, r22
     19e:	46 23       	and	r20, r22
     1a0:	46 23       	and	r20, r22
     1a2:	46 23       	and	r20, r22
     1a4:	df 22       	and	r13, r31
     1a6:	46 23       	and	r20, r22
     1a8:	46 23       	and	r20, r22
     1aa:	46 23       	and	r20, r22
     1ac:	46 23       	and	r20, r22
     1ae:	46 23       	and	r20, r22
     1b0:	46 23       	and	r20, r22
     1b2:	46 23       	and	r20, r22
     1b4:	39 23       	and	r19, r25
     1b6:	46 23       	and	r20, r22
     1b8:	46 23       	and	r20, r22
     1ba:	46 23       	and	r20, r22
     1bc:	46 23       	and	r20, r22
     1be:	46 23       	and	r20, r22
     1c0:	46 23       	and	r20, r22
     1c2:	46 23       	and	r20, r22
     1c4:	df 22       	and	r13, r31
     1c6:	46 23       	and	r20, r22
     1c8:	46 23       	and	r20, r22
     1ca:	46 23       	and	r20, r22
     1cc:	46 23       	and	r20, r22
     1ce:	46 23       	and	r20, r22
     1d0:	46 23       	and	r20, r22
     1d2:	46 23       	and	r20, r22
     1d4:	39 23       	and	r19, r25
     1d6:	46 23       	and	r20, r22
     1d8:	46 23       	and	r20, r22
     1da:	46 23       	and	r20, r22
     1dc:	46 23       	and	r20, r22
     1de:	46 23       	and	r20, r22
     1e0:	46 23       	and	r20, r22
     1e2:	46 23       	and	r20, r22
     1e4:	03 23       	and	r16, r19
     1e6:	46 23       	and	r20, r22
     1e8:	46 23       	and	r20, r22
     1ea:	46 23       	and	r20, r22
     1ec:	46 23       	and	r20, r22
     1ee:	46 23       	and	r20, r22
     1f0:	46 23       	and	r20, r22
     1f2:	46 23       	and	r20, r22
     1f4:	15 23       	and	r17, r21
     1f6:	46 23       	and	r20, r22
     1f8:	46 23       	and	r20, r22
     1fa:	46 23       	and	r20, r22
     1fc:	46 23       	and	r20, r22
     1fe:	46 23       	and	r20, r22
     200:	46 23       	and	r20, r22
     202:	46 23       	and	r20, r22
     204:	15 23       	and	r17, r21
     206:	46 23       	and	r20, r22
     208:	46 23       	and	r20, r22
     20a:	46 23       	and	r20, r22
     20c:	46 23       	and	r20, r22
     20e:	46 23       	and	r20, r22
     210:	46 23       	and	r20, r22
     212:	46 23       	and	r20, r22
     214:	19 23       	and	r17, r25
     216:	46 23       	and	r20, r22
     218:	46 23       	and	r20, r22
     21a:	46 23       	and	r20, r22
     21c:	46 23       	and	r20, r22
     21e:	46 23       	and	r20, r22
     220:	46 23       	and	r20, r22
     222:	46 23       	and	r20, r22
     224:	39 23       	and	r19, r25
     226:	46 23       	and	r20, r22
     228:	46 23       	and	r20, r22
     22a:	46 23       	and	r20, r22
     22c:	46 23       	and	r20, r22
     22e:	46 23       	and	r20, r22
     230:	46 23       	and	r20, r22
     232:	46 23       	and	r20, r22
     234:	39 23       	and	r19, r25
     236:	1a 24       	eor	r1, r10
     238:	18 24       	eor	r1, r8
     23a:	1a 24       	eor	r1, r10
     23c:	1c 24       	eor	r1, r12
     23e:	1c 24       	eor	r1, r12
     240:	22 24       	eor	r2, r2
     242:	1c 24       	eor	r1, r12
     244:	22 24       	eor	r2, r2
     246:	22 24       	eor	r2, r2
     248:	22 24       	eor	r2, r2
     24a:	22 24       	eor	r2, r2
     24c:	22 24       	eor	r2, r2
     24e:	1c 24       	eor	r1, r12
     250:	22 24       	eor	r2, r2
     252:	22 24       	eor	r2, r2

00000254 <__ctors_end>:
     254:	11 24       	eor	r1, r1
     256:	1f be       	out	0x3f, r1	; 63
     258:	cf ef       	ldi	r28, 0xFF	; 255
     25a:	d8 e0       	ldi	r29, 0x08	; 8
     25c:	de bf       	out	0x3e, r29	; 62
     25e:	cd bf       	out	0x3d, r28	; 61

00000260 <__do_copy_data>:
     260:	12 e0       	ldi	r17, 0x02	; 2
     262:	a0 e0       	ldi	r26, 0x00	; 0
     264:	b1 e0       	ldi	r27, 0x01	; 1
     266:	e2 e7       	ldi	r30, 0x72	; 114
     268:	fe e4       	ldi	r31, 0x4E	; 78
     26a:	02 c0       	rjmp	.+4      	; 0x270 <__do_copy_data+0x10>
     26c:	05 90       	lpm	r0, Z+
     26e:	0d 92       	st	X+, r0
     270:	a0 33       	cpi	r26, 0x30	; 48
     272:	b1 07       	cpc	r27, r17
     274:	d9 f7       	brne	.-10     	; 0x26c <__do_copy_data+0xc>

00000276 <__do_clear_bss>:
     276:	25 e0       	ldi	r18, 0x05	; 5
     278:	a0 e3       	ldi	r26, 0x30	; 48
     27a:	b2 e0       	ldi	r27, 0x02	; 2
     27c:	01 c0       	rjmp	.+2      	; 0x280 <.do_clear_bss_start>

0000027e <.do_clear_bss_loop>:
     27e:	1d 92       	st	X+, r1

00000280 <.do_clear_bss_start>:
     280:	af 3d       	cpi	r26, 0xDF	; 223
     282:	b2 07       	cpc	r27, r18
     284:	e1 f7       	brne	.-8      	; 0x27e <.do_clear_bss_loop>
     286:	0e 94 aa 0a 	call	0x1554	; 0x1554 <main>
     28a:	0c 94 37 27 	jmp	0x4e6e	; 0x4e6e <_exit>

0000028e <__bad_interrupt>:
     28e:	0c 94 00 00 	jmp	0	; 0x0 <__vectors>

00000292 <handle_TWI_result>:
     292:	08 95       	ret

00000294 <eeprom_init>:
     294:	cf 92       	push	r12
     296:	df 92       	push	r13
     298:	ef 92       	push	r14
     29a:	ff 92       	push	r15
     29c:	0f 93       	push	r16
     29e:	1f 93       	push	r17
     2a0:	0f 2e       	mov	r0, r31
     2a2:	f9 e4       	ldi	r31, 0x49	; 73
     2a4:	cf 2e       	mov	r12, r31
     2a6:	f1 e0       	ldi	r31, 0x01	; 1
     2a8:	df 2e       	mov	r13, r31
     2aa:	f0 2d       	mov	r31, r0
     2ac:	0f 2e       	mov	r0, r31
     2ae:	fd e8       	ldi	r31, 0x8D	; 141
     2b0:	ef 2e       	mov	r14, r31
     2b2:	f1 2c       	mov	r15, r1
     2b4:	f0 2d       	mov	r31, r0
     2b6:	00 e5       	ldi	r16, 0x50	; 80
     2b8:	12 e0       	ldi	r17, 0x02	; 2
     2ba:	20 e0       	ldi	r18, 0x00	; 0
     2bc:	35 e3       	ldi	r19, 0x35	; 53
     2be:	4c e0       	ldi	r20, 0x0C	; 12
     2c0:	50 e0       	ldi	r21, 0x00	; 0
     2c2:	60 e0       	ldi	r22, 0x00	; 0
     2c4:	74 e2       	ldi	r23, 0x24	; 36
     2c6:	84 ef       	ldi	r24, 0xF4	; 244
     2c8:	90 e0       	ldi	r25, 0x00	; 0
     2ca:	0e 94 77 21 	call	0x42ee	; 0x42ee <TWI_init>
     2ce:	10 93 df 02 	sts	0x02DF, r17
     2d2:	00 93 de 02 	sts	0x02DE, r16
     2d6:	10 93 f6 02 	sts	0x02F6, r17
     2da:	00 93 f5 02 	sts	0x02F5, r16
     2de:	10 93 fa 02 	sts	0x02FA, r17
     2e2:	00 93 f9 02 	sts	0x02F9, r16
     2e6:	10 93 ee 02 	sts	0x02EE, r17
     2ea:	00 93 ed 02 	sts	0x02ED, r16
     2ee:	10 93 f2 02 	sts	0x02F2, r17
     2f2:	00 93 f1 02 	sts	0x02F1, r16
     2f6:	1f 91       	pop	r17
     2f8:	0f 91       	pop	r16
     2fa:	ff 90       	pop	r15
     2fc:	ef 90       	pop	r14
     2fe:	df 90       	pop	r13
     300:	cf 90       	pop	r12
     302:	08 95       	ret

00000304 <read_pattern>:
     304:	cf 93       	push	r28
     306:	df 93       	push	r29
     308:	ec 01       	movw	r28, r24
     30a:	90 91 ef 02 	lds	r25, 0x02EF
     30e:	91 11       	cpse	r25, r1
     310:	fc cf       	rjmp	.-8      	; 0x30a <read_pattern+0x6>
     312:	50 e0       	ldi	r21, 0x00	; 0
     314:	54 2f       	mov	r21, r20
     316:	44 27       	eor	r20, r20
     318:	52 95       	swap	r21
     31a:	50 7f       	andi	r21, 0xF0	; 240
     31c:	46 0f       	add	r20, r22
     31e:	57 1f       	adc	r21, r23
     320:	e0 91 de 02 	lds	r30, 0x02DE
     324:	f0 91 df 02 	lds	r31, 0x02DF
     328:	50 83       	st	Z, r21
     32a:	e0 91 de 02 	lds	r30, 0x02DE
     32e:	f0 91 df 02 	lds	r31, 0x02DF
     332:	41 83       	std	Z+1, r20	; 0x01
     334:	4b e8       	ldi	r20, 0x8B	; 139
     336:	50 e0       	ldi	r21, 0x00	; 0
     338:	62 e0       	ldi	r22, 0x02	; 2
     33a:	70 e0       	ldi	r23, 0x00	; 0
     33c:	80 e5       	ldi	r24, 0x50	; 80
     33e:	0e 94 ca 21 	call	0x4394	; 0x4394 <TWI_master_start_write_then_read>
     342:	90 91 ef 02 	lds	r25, 0x02EF
     346:	91 11       	cpse	r25, r1
     348:	fc cf       	rjmp	.-8      	; 0x342 <read_pattern+0x3e>
     34a:	e0 91 f9 02 	lds	r30, 0x02F9
     34e:	f0 91 fa 02 	lds	r31, 0x02FA
     352:	8b e8       	ldi	r24, 0x8B	; 139
     354:	de 01       	movw	r26, r28
     356:	01 90       	ld	r0, Z+
     358:	0d 92       	st	X+, r0
     35a:	8a 95       	dec	r24
     35c:	e1 f7       	brne	.-8      	; 0x356 <read_pattern+0x52>
     35e:	ce 01       	movw	r24, r28
     360:	df 91       	pop	r29
     362:	cf 91       	pop	r28
     364:	08 95       	ret

00000366 <write_pattern>:
     366:	0f 93       	push	r16
     368:	1f 93       	push	r17
     36a:	cf 93       	push	r28
     36c:	df 93       	push	r29
     36e:	9c 01       	movw	r18, r24
     370:	8a 01       	movw	r16, r20
     372:	90 91 ef 02 	lds	r25, 0x02EF
     376:	91 11       	cpse	r25, r1
     378:	fc cf       	rjmp	.-8      	; 0x372 <write_pattern+0xc>
     37a:	c6 2f       	mov	r28, r22
     37c:	d0 e0       	ldi	r29, 0x00	; 0
     37e:	dc 2f       	mov	r29, r28
     380:	cc 27       	eor	r28, r28
     382:	d2 95       	swap	r29
     384:	d0 7f       	andi	r29, 0xF0	; 240
     386:	c2 0f       	add	r28, r18
     388:	d3 1f       	adc	r29, r19
     38a:	e0 91 f5 02 	lds	r30, 0x02F5
     38e:	f0 91 f6 02 	lds	r31, 0x02F6
     392:	d0 83       	st	Z, r29
     394:	e0 91 f5 02 	lds	r30, 0x02F5
     398:	f0 91 f6 02 	lds	r31, 0x02F6
     39c:	c1 83       	std	Z+1, r28	; 0x01
     39e:	80 e8       	ldi	r24, 0x80	; 128
     3a0:	f8 01       	movw	r30, r16
     3a2:	a2 e5       	ldi	r26, 0x52	; 82
     3a4:	b2 e0       	ldi	r27, 0x02	; 2
     3a6:	01 90       	ld	r0, Z+
     3a8:	0d 92       	st	X+, r0
     3aa:	8a 95       	dec	r24
     3ac:	e1 f7       	brne	.-8      	; 0x3a6 <write_pattern+0x40>
     3ae:	62 e8       	ldi	r22, 0x82	; 130
     3b0:	70 e0       	ldi	r23, 0x00	; 0
     3b2:	80 e5       	ldi	r24, 0x50	; 80
     3b4:	0e 94 a8 21 	call	0x4350	; 0x4350 <TWI_master_start_write>
     3b8:	c0 58       	subi	r28, 0x80	; 128
     3ba:	df 4f       	sbci	r29, 0xFF	; 255
     3bc:	90 91 ef 02 	lds	r25, 0x02EF
     3c0:	91 11       	cpse	r25, r1
     3c2:	fc cf       	rjmp	.-8      	; 0x3bc <write_pattern+0x56>
     3c4:	e0 91 f5 02 	lds	r30, 0x02F5
     3c8:	f0 91 f6 02 	lds	r31, 0x02F6
     3cc:	d0 83       	st	Z, r29
     3ce:	e0 91 f5 02 	lds	r30, 0x02F5
     3d2:	f0 91 f6 02 	lds	r31, 0x02F6
     3d6:	c1 83       	std	Z+1, r28	; 0x01
     3d8:	f8 01       	movw	r30, r16
     3da:	e0 58       	subi	r30, 0x80	; 128
     3dc:	ff 4f       	sbci	r31, 0xFF	; 255
     3de:	8b e0       	ldi	r24, 0x0B	; 11
     3e0:	a2 e5       	ldi	r26, 0x52	; 82
     3e2:	b2 e0       	ldi	r27, 0x02	; 2
     3e4:	01 90       	ld	r0, Z+
     3e6:	0d 92       	st	X+, r0
     3e8:	8a 95       	dec	r24
     3ea:	e1 f7       	brne	.-8      	; 0x3e4 <write_pattern+0x7e>
     3ec:	6d e0       	ldi	r22, 0x0D	; 13
     3ee:	70 e0       	ldi	r23, 0x00	; 0
     3f0:	80 e5       	ldi	r24, 0x50	; 80
     3f2:	0e 94 a8 21 	call	0x4350	; 0x4350 <TWI_master_start_write>
     3f6:	80 91 ef 02 	lds	r24, 0x02EF
     3fa:	81 11       	cpse	r24, r1
     3fc:	fc cf       	rjmp	.-8      	; 0x3f6 <write_pattern+0x90>
     3fe:	df 91       	pop	r29
     400:	cf 91       	pop	r28
     402:	1f 91       	pop	r17
     404:	0f 91       	pop	r16
     406:	08 95       	ret

00000408 <eeprom_read_rhythm_track>:
     408:	cf 93       	push	r28
     40a:	df 93       	push	r29
     40c:	ec 01       	movw	r28, r24
     40e:	90 91 ef 02 	lds	r25, 0x02EF
     412:	91 11       	cpse	r25, r1
     414:	fc cf       	rjmp	.-8      	; 0x40e <eeprom_read_rhythm_track+0x6>
     416:	6e 57       	subi	r22, 0x7E	; 126
     418:	7e 4f       	sbci	r23, 0xFE	; 254
     41a:	76 95       	lsr	r23
     41c:	76 2f       	mov	r23, r22
     41e:	66 27       	eor	r22, r22
     420:	77 95       	ror	r23
     422:	67 95       	ror	r22
     424:	e0 91 de 02 	lds	r30, 0x02DE
     428:	f0 91 df 02 	lds	r31, 0x02DF
     42c:	70 83       	st	Z, r23
     42e:	e0 91 de 02 	lds	r30, 0x02DE
     432:	f0 91 df 02 	lds	r31, 0x02DF
     436:	61 83       	std	Z+1, r22	; 0x01
     438:	41 e4       	ldi	r20, 0x41	; 65
     43a:	50 e0       	ldi	r21, 0x00	; 0
     43c:	62 e0       	ldi	r22, 0x02	; 2
     43e:	70 e0       	ldi	r23, 0x00	; 0
     440:	80 e5       	ldi	r24, 0x50	; 80
     442:	0e 94 ca 21 	call	0x4394	; 0x4394 <TWI_master_start_write_then_read>
     446:	90 91 ef 02 	lds	r25, 0x02EF
     44a:	91 11       	cpse	r25, r1
     44c:	fc cf       	rjmp	.-8      	; 0x446 <eeprom_read_rhythm_track+0x3e>
     44e:	e0 91 f1 02 	lds	r30, 0x02F1
     452:	f0 91 f2 02 	lds	r31, 0x02F2
     456:	81 e4       	ldi	r24, 0x41	; 65
     458:	de 01       	movw	r26, r28
     45a:	01 90       	ld	r0, Z+
     45c:	0d 92       	st	X+, r0
     45e:	8a 95       	dec	r24
     460:	e1 f7       	brne	.-8      	; 0x45a <eeprom_read_rhythm_track+0x52>
     462:	ce 01       	movw	r24, r28
     464:	df 91       	pop	r29
     466:	cf 91       	pop	r28
     468:	08 95       	ret

0000046a <eeprom_write_rhythm_track>:
     46a:	9c 01       	movw	r18, r24
     46c:	90 91 ef 02 	lds	r25, 0x02EF
     470:	91 11       	cpse	r25, r1
     472:	fc cf       	rjmp	.-8      	; 0x46c <eeprom_write_rhythm_track+0x2>
     474:	c9 01       	movw	r24, r18
     476:	8e 57       	subi	r24, 0x7E	; 126
     478:	9e 4f       	sbci	r25, 0xFE	; 254
     47a:	96 95       	lsr	r25
     47c:	98 2f       	mov	r25, r24
     47e:	88 27       	eor	r24, r24
     480:	97 95       	ror	r25
     482:	87 95       	ror	r24
     484:	e0 91 f5 02 	lds	r30, 0x02F5
     488:	f0 91 f6 02 	lds	r31, 0x02F6
     48c:	90 83       	st	Z, r25
     48e:	e0 91 f5 02 	lds	r30, 0x02F5
     492:	f0 91 f6 02 	lds	r31, 0x02F6
     496:	81 83       	std	Z+1, r24	; 0x01
     498:	81 e4       	ldi	r24, 0x41	; 65
     49a:	fb 01       	movw	r30, r22
     49c:	a2 e5       	ldi	r26, 0x52	; 82
     49e:	b2 e0       	ldi	r27, 0x02	; 2
     4a0:	01 90       	ld	r0, Z+
     4a2:	0d 92       	st	X+, r0
     4a4:	8a 95       	dec	r24
     4a6:	e1 f7       	brne	.-8      	; 0x4a0 <eeprom_write_rhythm_track+0x36>
     4a8:	63 e4       	ldi	r22, 0x43	; 67
     4aa:	70 e0       	ldi	r23, 0x00	; 0
     4ac:	80 e5       	ldi	r24, 0x50	; 80
     4ae:	0e 94 a8 21 	call	0x4350	; 0x4350 <TWI_master_start_write>
     4b2:	80 91 ef 02 	lds	r24, 0x02EF
     4b6:	81 11       	cpse	r24, r1
     4b8:	fc cf       	rjmp	.-8      	; 0x4b2 <eeprom_write_rhythm_track+0x48>
     4ba:	08 95       	ret

000004bc <setup_adc>:
     4bc:	ea e7       	ldi	r30, 0x7A	; 122
     4be:	f0 e0       	ldi	r31, 0x00	; 0
     4c0:	80 81       	ld	r24, Z
     4c2:	84 60       	ori	r24, 0x04	; 4
     4c4:	80 83       	st	Z, r24
     4c6:	ac e7       	ldi	r26, 0x7C	; 124
     4c8:	b0 e0       	ldi	r27, 0x00	; 0
     4ca:	8c 91       	ld	r24, X
     4cc:	80 64       	ori	r24, 0x40	; 64
     4ce:	8c 93       	st	X, r24
     4d0:	8c 91       	ld	r24, X
     4d2:	83 60       	ori	r24, 0x03	; 3
     4d4:	8c 93       	st	X, r24
     4d6:	ae e7       	ldi	r26, 0x7E	; 126
     4d8:	b0 e0       	ldi	r27, 0x00	; 0
     4da:	8c 91       	ld	r24, X
     4dc:	88 60       	ori	r24, 0x08	; 8
     4de:	8c 93       	st	X, r24
     4e0:	80 81       	ld	r24, Z
     4e2:	80 68       	ori	r24, 0x80	; 128
     4e4:	80 83       	st	Z, r24
     4e6:	08 95       	ret

000004e8 <read_tempo_pot>:
     4e8:	ea e7       	ldi	r30, 0x7A	; 122
     4ea:	f0 e0       	ldi	r31, 0x00	; 0
     4ec:	80 81       	ld	r24, Z
     4ee:	80 64       	ori	r24, 0x40	; 64
     4f0:	80 83       	st	Z, r24
     4f2:	80 81       	ld	r24, Z
     4f4:	86 fd       	sbrc	r24, 6
     4f6:	fd cf       	rjmp	.-6      	; 0x4f2 <read_tempo_pot+0xa>
     4f8:	80 91 78 00 	lds	r24, 0x0078
     4fc:	90 91 79 00 	lds	r25, 0x0079
     500:	08 95       	ret

00000502 <setup_clock>:
     502:	8c e0       	ldi	r24, 0x0C	; 12
     504:	80 93 81 00 	sts	0x0081, r24
     508:	82 e0       	ldi	r24, 0x02	; 2
     50a:	80 93 6f 00 	sts	0x006F, r24
     50e:	85 e0       	ldi	r24, 0x05	; 5
     510:	80 93 91 00 	sts	0x0091, r24
     514:	86 e4       	ldi	r24, 0x46	; 70
     516:	80 93 b4 00 	sts	0x00B4, r24
     51a:	80 93 b3 00 	sts	0x00B3, r24
     51e:	ed ef       	ldi	r30, 0xFD	; 253
     520:	f2 e0       	ldi	r31, 0x02	; 2
     522:	80 81       	ld	r24, Z
     524:	88 7f       	andi	r24, 0xF8	; 248
     526:	80 83       	st	Z, r24
     528:	08 95       	ret

0000052a <update_clock_rate>:
     52a:	90 93 89 00 	sts	0x0089, r25
     52e:	80 93 88 00 	sts	0x0088, r24
     532:	20 91 84 00 	lds	r18, 0x0084
     536:	30 91 85 00 	lds	r19, 0x0085
     53a:	82 17       	cp	r24, r18
     53c:	93 07       	cpc	r25, r19
     53e:	28 f4       	brcc	.+10     	; 0x54a <update_clock_rate+0x20>
     540:	01 97       	sbiw	r24, 0x01	; 1
     542:	90 93 85 00 	sts	0x0085, r25
     546:	80 93 84 00 	sts	0x0084, r24
     54a:	08 95       	ret

0000054c <process_external_clock_event>:
     54c:	80 91 94 00 	lds	r24, 0x0094
     550:	90 91 95 00 	lds	r25, 0x0095
     554:	90 93 04 03 	sts	0x0304, r25
     558:	80 93 03 03 	sts	0x0303, r24
     55c:	80 91 e2 02 	lds	r24, 0x02E2
     560:	84 ff       	sbrs	r24, 4
     562:	0a c0       	rjmp	.+20     	; 0x578 <process_external_clock_event+0x2c>
     564:	e2 ee       	ldi	r30, 0xE2	; 226
     566:	f2 e0       	ldi	r31, 0x02	; 2
     568:	80 81       	ld	r24, Z
     56a:	8f 7e       	andi	r24, 0xEF	; 239
     56c:	80 83       	st	Z, r24
     56e:	10 92 85 00 	sts	0x0085, r1
     572:	10 92 84 00 	sts	0x0084, r1
     576:	27 c0       	rjmp	.+78     	; 0x5c6 <process_external_clock_event+0x7a>
     578:	80 91 03 03 	lds	r24, 0x0303
     57c:	90 91 04 03 	lds	r25, 0x0304
     580:	0e 94 95 02 	call	0x52a	; 0x52a <update_clock_rate>
     584:	80 91 fd 02 	lds	r24, 0x02FD
     588:	98 2f       	mov	r25, r24
     58a:	92 95       	swap	r25
     58c:	96 95       	lsr	r25
     58e:	96 95       	lsr	r25
     590:	93 70       	andi	r25, 0x03	; 3
     592:	80 91 fe 02 	lds	r24, 0x02FE
     596:	81 70       	andi	r24, 0x01	; 1
     598:	88 0f       	add	r24, r24
     59a:	88 0f       	add	r24, r24
     59c:	89 2b       	or	r24, r25
     59e:	99 f0       	breq	.+38     	; 0x5c6 <process_external_clock_event+0x7a>
     5a0:	90 91 fd 02 	lds	r25, 0x02FD
     5a4:	89 2f       	mov	r24, r25
     5a6:	82 95       	swap	r24
     5a8:	86 95       	lsr	r24
     5aa:	86 95       	lsr	r24
     5ac:	83 70       	andi	r24, 0x03	; 3
     5ae:	90 91 fe 02 	lds	r25, 0x02FE
     5b2:	91 70       	andi	r25, 0x01	; 1
     5b4:	99 0f       	add	r25, r25
     5b6:	99 0f       	add	r25, r25
     5b8:	98 2b       	or	r25, r24
     5ba:	eb ef       	ldi	r30, 0xFB	; 251
     5bc:	f2 e0       	ldi	r31, 0x02	; 2
     5be:	81 81       	ldd	r24, Z+1	; 0x01
     5c0:	89 1b       	sub	r24, r25
     5c2:	8c 5f       	subi	r24, 0xFC	; 252
     5c4:	81 83       	std	Z+1, r24	; 0x01
     5c6:	e2 ee       	ldi	r30, 0xE2	; 226
     5c8:	f2 e0       	ldi	r31, 0x02	; 2
     5ca:	80 81       	ld	r24, Z
     5cc:	8f 7d       	andi	r24, 0xDF	; 223
     5ce:	80 83       	st	Z, r24
     5d0:	ed ef       	ldi	r30, 0xFD	; 253
     5d2:	f2 e0       	ldi	r31, 0x02	; 2
     5d4:	80 81       	ld	r24, Z
     5d6:	8f 73       	andi	r24, 0x3F	; 63
     5d8:	80 83       	st	Z, r24
     5da:	81 81       	ldd	r24, Z+1	; 0x01
     5dc:	8e 7f       	andi	r24, 0xFE	; 254
     5de:	81 83       	std	Z+1, r24	; 0x01
     5e0:	10 92 95 00 	sts	0x0095, r1
     5e4:	10 92 94 00 	sts	0x0094, r1
     5e8:	0e 94 e0 0d 	call	0x1bc0	; 0x1bc0 <process_tick>
     5ec:	e1 e8       	ldi	r30, 0x81	; 129
     5ee:	f0 e0       	ldi	r31, 0x00	; 0
     5f0:	80 81       	ld	r24, Z
     5f2:	84 60       	ori	r24, 0x04	; 4
     5f4:	80 83       	st	Z, r24
     5f6:	08 95       	ret

000005f8 <clear_all_trigs>:
     5f8:	e1 e4       	ldi	r30, 0x41	; 65
     5fa:	f2 e0       	ldi	r31, 0x02	; 2
     5fc:	10 86       	std	Z+8, r1	; 0x08
     5fe:	86 81       	ldd	r24, Z+6	; 0x06
     600:	80 7f       	andi	r24, 0xF0	; 240
     602:	86 83       	std	Z+6, r24	; 0x06
     604:	87 81       	ldd	r24, Z+7	; 0x07
     606:	8f 7d       	andi	r24, 0xDF	; 223
     608:	87 83       	std	Z+7, r24	; 0x07
     60a:	08 95       	ret

0000060c <trigger_drum>:
     60c:	ff 92       	push	r15
     60e:	0f 93       	push	r16
     610:	1f 93       	push	r17
     612:	cf 93       	push	r28
     614:	df 93       	push	r29
     616:	c8 2f       	mov	r28, r24
     618:	f6 2e       	mov	r15, r22
     61a:	0e 94 fc 02 	call	0x5f8	; 0x5f8 <clear_all_trigs>
     61e:	e1 ee       	ldi	r30, 0xE1	; 225
     620:	f2 e0       	ldi	r31, 0x02	; 2
     622:	90 81       	ld	r25, Z
     624:	93 ff       	sbrs	r25, 3
     626:	fd cf       	rjmp	.-6      	; 0x622 <trigger_drum+0x16>
     628:	c0 93 30 02 	sts	0x0230, r28
     62c:	0c 2f       	mov	r16, r28
     62e:	10 e0       	ldi	r17, 0x00	; 0
     630:	87 e0       	ldi	r24, 0x07	; 7
     632:	c8 9f       	mul	r28, r24
     634:	e0 01       	movw	r28, r0
     636:	11 24       	eor	r1, r1
     638:	c0 50       	subi	r28, 0x00	; 0
     63a:	df 4f       	sbci	r29, 0xFF	; 255
     63c:	e8 81       	ld	r30, Y
     63e:	8e 2f       	mov	r24, r30
     640:	88 1f       	adc	r24, r24
     642:	88 27       	eor	r24, r24
     644:	88 1f       	adc	r24, r24
     646:	e9 81       	ldd	r30, Y+1	; 0x01
     648:	e7 70       	andi	r30, 0x07	; 7
     64a:	ee 0f       	add	r30, r30
     64c:	e8 2b       	or	r30, r24
     64e:	f0 e0       	ldi	r31, 0x00	; 0
     650:	ef 5b       	subi	r30, 0xBF	; 191
     652:	fd 4f       	sbci	r31, 0xFD	; 253
     654:	90 81       	ld	r25, Z
     656:	8a 81       	ldd	r24, Y+2	; 0x02
     658:	89 2b       	or	r24, r25
     65a:	80 83       	st	Z, r24
     65c:	8d 81       	ldd	r24, Y+5	; 0x05
     65e:	0e 94 d6 07 	call	0xfac	; 0xfac <turn_on>
     662:	9b 81       	ldd	r25, Y+3	; 0x03
     664:	9f 3f       	cpi	r25, 0xFF	; 255
     666:	c1 f0       	breq	.+48     	; 0x698 <trigger_drum+0x8c>
     668:	a1 e4       	ldi	r26, 0x41	; 65
     66a:	b2 e0       	ldi	r27, 0x02	; 2
     66c:	13 96       	adiw	r26, 0x03	; 3
     66e:	2c 91       	ld	r18, X
     670:	13 97       	sbiw	r26, 0x03	; 3
     672:	f8 01       	movw	r30, r16
     674:	ee 0f       	add	r30, r30
     676:	ff 1f       	adc	r31, r31
     678:	ee 0f       	add	r30, r30
     67a:	ff 1f       	adc	r31, r31
     67c:	ee 0f       	add	r30, r30
     67e:	ff 1f       	adc	r31, r31
     680:	e0 1b       	sub	r30, r16
     682:	f1 0b       	sbc	r31, r17
     684:	ec 5f       	subi	r30, 0xFC	; 252
     686:	fe 4f       	sbci	r31, 0xFE	; 254
     688:	80 81       	ld	r24, Z
     68a:	81 70       	andi	r24, 0x01	; 1
     68c:	81 95       	neg	r24
     68e:	82 27       	eor	r24, r18
     690:	89 23       	and	r24, r25
     692:	82 27       	eor	r24, r18
     694:	13 96       	adiw	r26, 0x03	; 3
     696:	8c 93       	st	X, r24
     698:	80 e4       	ldi	r24, 0x40	; 64
     69a:	8f 15       	cp	r24, r15
     69c:	40 f4       	brcc	.+16     	; 0x6ae <trigger_drum+0xa2>
     69e:	e1 e4       	ldi	r30, 0x41	; 65
     6a0:	f2 e0       	ldi	r31, 0x02	; 2
     6a2:	80 85       	ldd	r24, Z+8	; 0x08
     6a4:	81 60       	ori	r24, 0x01	; 1
     6a6:	80 87       	std	Z+8, r24	; 0x08
     6a8:	84 e1       	ldi	r24, 0x14	; 20
     6aa:	0e 94 d6 07 	call	0xfac	; 0xfac <turn_on>
     6ae:	5d 9a       	sbi	0x0b, 5	; 11
     6b0:	ee e6       	ldi	r30, 0x6E	; 110
     6b2:	f0 e0       	ldi	r31, 0x00	; 0
     6b4:	80 81       	ld	r24, Z
     6b6:	82 60       	ori	r24, 0x02	; 2
     6b8:	80 83       	st	Z, r24
     6ba:	85 b5       	in	r24, 0x25	; 37
     6bc:	85 60       	ori	r24, 0x05	; 5
     6be:	85 bd       	out	0x25, r24	; 37
     6c0:	e1 ee       	ldi	r30, 0xE1	; 225
     6c2:	f2 e0       	ldi	r31, 0x02	; 2
     6c4:	80 81       	ld	r24, Z
     6c6:	87 7f       	andi	r24, 0xF7	; 247
     6c8:	80 83       	st	Z, r24
     6ca:	df 91       	pop	r29
     6cc:	cf 91       	pop	r28
     6ce:	1f 91       	pop	r17
     6d0:	0f 91       	pop	r16
     6d2:	ff 90       	pop	r15
     6d4:	08 95       	ret

000006d6 <trigger_roll>:
     6d6:	cf 93       	push	r28
     6d8:	df 93       	push	r29
     6da:	cd b7       	in	r28, 0x3d	; 61
     6dc:	de b7       	in	r29, 0x3e	; 62
     6de:	2a 97       	sbiw	r28, 0x0a	; 10
     6e0:	0f b6       	in	r0, 0x3f	; 63
     6e2:	f8 94       	cli
     6e4:	de bf       	out	0x3e, r29	; 62
     6e6:	0f be       	out	0x3f, r0	; 63
     6e8:	cd bf       	out	0x3d, r28	; 61
     6ea:	8a e0       	ldi	r24, 0x0A	; 10
     6ec:	e9 e1       	ldi	r30, 0x19	; 25
     6ee:	f2 e0       	ldi	r31, 0x02	; 2
     6f0:	de 01       	movw	r26, r28
     6f2:	11 96       	adiw	r26, 0x01	; 1
     6f4:	01 90       	ld	r0, Z+
     6f6:	0d 92       	st	X+, r0
     6f8:	8a 95       	dec	r24
     6fa:	e1 f7       	brne	.-8      	; 0x6f4 <trigger_roll+0x1e>
     6fc:	80 91 d5 05 	lds	r24, 0x05D5
     700:	98 2f       	mov	r25, r24
     702:	92 95       	swap	r25
     704:	96 95       	lsr	r25
     706:	97 70       	andi	r25, 0x07	; 7
     708:	80 91 d6 05 	lds	r24, 0x05D6
     70c:	81 70       	andi	r24, 0x01	; 1
     70e:	88 0f       	add	r24, r24
     710:	88 0f       	add	r24, r24
     712:	88 0f       	add	r24, r24
     714:	89 2b       	or	r24, r25
     716:	21 e0       	ldi	r18, 0x01	; 1
     718:	30 e0       	ldi	r19, 0x00	; 0
     71a:	02 c0       	rjmp	.+4      	; 0x720 <trigger_roll+0x4a>
     71c:	22 0f       	add	r18, r18
     71e:	33 1f       	adc	r19, r19
     720:	8a 95       	dec	r24
     722:	e2 f7       	brpl	.-8      	; 0x71c <trigger_roll+0x46>
     724:	e0 91 fe 04 	lds	r30, 0x04FE
     728:	8e 2f       	mov	r24, r30
     72a:	82 95       	swap	r24
     72c:	86 95       	lsr	r24
     72e:	86 95       	lsr	r24
     730:	83 70       	andi	r24, 0x03	; 3
     732:	e0 91 ff 04 	lds	r30, 0x04FF
     736:	e1 70       	andi	r30, 0x01	; 1
     738:	ee 0f       	add	r30, r30
     73a:	ee 0f       	add	r30, r30
     73c:	e8 2b       	or	r30, r24
     73e:	f0 e0       	ldi	r31, 0x00	; 0
     740:	31 97       	sbiw	r30, 0x01	; 1
     742:	ee 0f       	add	r30, r30
     744:	ff 1f       	adc	r31, r31
     746:	81 e0       	ldi	r24, 0x01	; 1
     748:	90 e0       	ldi	r25, 0x00	; 0
     74a:	8c 0f       	add	r24, r28
     74c:	9d 1f       	adc	r25, r29
     74e:	e8 0f       	add	r30, r24
     750:	f9 1f       	adc	r31, r25
     752:	80 81       	ld	r24, Z
     754:	91 81       	ldd	r25, Z+1	; 0x01
     756:	82 23       	and	r24, r18
     758:	93 23       	and	r25, r19
     75a:	89 2b       	or	r24, r25
     75c:	d9 f0       	breq	.+54     	; 0x794 <trigger_roll+0xbe>
     75e:	a0 91 db 05 	lds	r26, 0x05DB
     762:	97 e0       	ldi	r25, 0x07	; 7
     764:	a9 9f       	mul	r26, r25
     766:	d0 01       	movw	r26, r0
     768:	11 24       	eor	r1, r1
     76a:	a0 50       	subi	r26, 0x00	; 0
     76c:	bf 4f       	sbci	r27, 0xFF	; 255
     76e:	ec 91       	ld	r30, X
     770:	8e 2f       	mov	r24, r30
     772:	88 1f       	adc	r24, r24
     774:	88 27       	eor	r24, r24
     776:	88 1f       	adc	r24, r24
     778:	11 96       	adiw	r26, 0x01	; 1
     77a:	ec 91       	ld	r30, X
     77c:	11 97       	sbiw	r26, 0x01	; 1
     77e:	e7 70       	andi	r30, 0x07	; 7
     780:	ee 0f       	add	r30, r30
     782:	e8 2b       	or	r30, r24
     784:	f0 e0       	ldi	r31, 0x00	; 0
     786:	ef 5b       	subi	r30, 0xBF	; 191
     788:	fd 4f       	sbci	r31, 0xFD	; 253
     78a:	90 81       	ld	r25, Z
     78c:	12 96       	adiw	r26, 0x02	; 2
     78e:	8c 91       	ld	r24, X
     790:	89 2b       	or	r24, r25
     792:	80 83       	st	Z, r24
     794:	2a 96       	adiw	r28, 0x0a	; 10
     796:	0f b6       	in	r0, 0x3f	; 63
     798:	f8 94       	cli
     79a:	de bf       	out	0x3e, r29	; 62
     79c:	0f be       	out	0x3f, r0	; 63
     79e:	cd bf       	out	0x3d, r28	; 61
     7a0:	df 91       	pop	r29
     7a2:	cf 91       	pop	r28
     7a4:	08 95       	ret

000007a6 <trigger_step>:
     7a6:	3f 92       	push	r3
     7a8:	4f 92       	push	r4
     7aa:	5f 92       	push	r5
     7ac:	6f 92       	push	r6
     7ae:	7f 92       	push	r7
     7b0:	8f 92       	push	r8
     7b2:	9f 92       	push	r9
     7b4:	af 92       	push	r10
     7b6:	bf 92       	push	r11
     7b8:	cf 92       	push	r12
     7ba:	df 92       	push	r13
     7bc:	ef 92       	push	r14
     7be:	ff 92       	push	r15
     7c0:	0f 93       	push	r16
     7c2:	1f 93       	push	r17
     7c4:	cf 93       	push	r28
     7c6:	df 93       	push	r29
     7c8:	00 d0       	rcall	.+0      	; 0x7ca <trigger_step+0x24>
     7ca:	00 d0       	rcall	.+0      	; 0x7cc <trigger_step+0x26>
     7cc:	cd b7       	in	r28, 0x3d	; 61
     7ce:	de b7       	in	r29, 0x3e	; 62
     7d0:	5d 9a       	sbi	0x0b, 5	; 11
     7d2:	0e 94 fc 02 	call	0x5f8	; 0x5f8 <clear_all_trigs>
     7d6:	ee e6       	ldi	r30, 0x6E	; 110
     7d8:	f0 e0       	ldi	r31, 0x00	; 0
     7da:	80 81       	ld	r24, Z
     7dc:	82 60       	ori	r24, 0x02	; 2
     7de:	80 83       	st	Z, r24
     7e0:	85 b5       	in	r24, 0x25	; 37
     7e2:	85 60       	ori	r24, 0x05	; 5
     7e4:	85 bd       	out	0x25, r24	; 37
     7e6:	80 91 fe 04 	lds	r24, 0x04FE
     7ea:	98 2f       	mov	r25, r24
     7ec:	92 95       	swap	r25
     7ee:	96 95       	lsr	r25
     7f0:	96 95       	lsr	r25
     7f2:	93 70       	andi	r25, 0x03	; 3
     7f4:	80 91 ff 04 	lds	r24, 0x04FF
     7f8:	81 70       	andi	r24, 0x01	; 1
     7fa:	88 0f       	add	r24, r24
     7fc:	88 0f       	add	r24, r24
     7fe:	89 2b       	or	r24, r25
     800:	09 f4       	brne	.+2      	; 0x804 <trigger_step+0x5e>
     802:	f0 c0       	rjmp	.+480    	; 0x9e4 <__stack+0xe5>
     804:	0e 94 6b 03 	call	0x6d6	; 0x6d6 <trigger_roll>
     808:	ed c0       	rjmp	.+474    	; 0x9e4 <__stack+0xe5>
     80a:	d4 01       	movw	r26, r8
     80c:	8c 91       	ld	r24, X
     80e:	81 fb       	bst	r24, 1
     810:	00 27       	eor	r16, r16
     812:	00 f9       	bld	r16, 0
     814:	10 e0       	ldi	r17, 0x00	; 0
     816:	f5 01       	movw	r30, r10
     818:	90 81       	ld	r25, Z
     81a:	92 95       	swap	r25
     81c:	96 95       	lsr	r25
     81e:	97 70       	andi	r25, 0x07	; 7
     820:	81 70       	andi	r24, 0x01	; 1
     822:	88 0f       	add	r24, r24
     824:	88 0f       	add	r24, r24
     826:	88 0f       	add	r24, r24
     828:	89 2b       	or	r24, r25
     82a:	d6 01       	movw	r26, r12
     82c:	9c 91       	ld	r25, X
     82e:	f8 01       	movw	r30, r16
     830:	e2 95       	swap	r30
     832:	f2 95       	swap	r31
     834:	f0 7f       	andi	r31, 0xF0	; 240
     836:	fe 27       	eor	r31, r30
     838:	e0 7f       	andi	r30, 0xF0	; 240
     83a:	fe 27       	eor	r31, r30
     83c:	96 95       	lsr	r25
     83e:	91 70       	andi	r25, 0x01	; 1
     840:	39 9e       	mul	r3, r25
     842:	e0 0d       	add	r30, r0
     844:	f1 1d       	adc	r31, r1
     846:	11 24       	eor	r1, r1
     848:	e8 0f       	add	r30, r24
     84a:	f1 1d       	adc	r31, r1
     84c:	ee 0f       	add	r30, r30
     84e:	ff 1f       	adc	r31, r31
     850:	ec 5f       	subi	r30, 0xFC	; 252
     852:	fa 4f       	sbci	r31, 0xFA	; 250
     854:	80 81       	ld	r24, Z
     856:	91 81       	ldd	r25, Z+1	; 0x01
     858:	0b 80       	ldd	r0, Y+3	; 0x03
     85a:	02 c0       	rjmp	.+4      	; 0x860 <trigger_step+0xba>
     85c:	96 95       	lsr	r25
     85e:	87 95       	ror	r24
     860:	0a 94       	dec	r0
     862:	e2 f7       	brpl	.-8      	; 0x85c <trigger_step+0xb6>
     864:	80 ff       	sbrs	r24, 0
     866:	64 c0       	rjmp	.+200    	; 0x930 <__stack+0x31>
     868:	f3 01       	movw	r30, r6
     86a:	80 81       	ld	r24, Z
     86c:	8f 71       	andi	r24, 0x1F	; 31
     86e:	90 e0       	ldi	r25, 0x00	; 0
     870:	2b 81       	ldd	r18, Y+3	; 0x03
     872:	3c 81       	ldd	r19, Y+4	; 0x04
     874:	82 17       	cp	r24, r18
     876:	93 07       	cpc	r25, r19
     878:	09 f4       	brne	.+2      	; 0x87c <trigger_step+0xd6>
     87a:	2b 9a       	sbi	0x05, 3	; 5
     87c:	eb 81       	ldd	r30, Y+3	; 0x03
     87e:	fc 81       	ldd	r31, Y+4	; 0x04
     880:	ee 0f       	add	r30, r30
     882:	ff 1f       	adc	r31, r31
     884:	ee 0f       	add	r30, r30
     886:	ff 1f       	adc	r31, r31
     888:	ee 0f       	add	r30, r30
     88a:	ff 1f       	adc	r31, r31
     88c:	4b 81       	ldd	r20, Y+3	; 0x03
     88e:	5c 81       	ldd	r21, Y+4	; 0x04
     890:	e4 1b       	sub	r30, r20
     892:	f5 0b       	sbc	r31, r21
     894:	ea 5f       	subi	r30, 0xFA	; 250
     896:	fe 4f       	sbci	r31, 0xFE	; 254
     898:	80 81       	ld	r24, Z
     89a:	80 fd       	sbrc	r24, 0
     89c:	49 c0       	rjmp	.+146    	; 0x930 <__stack+0x31>
     89e:	ac ef       	ldi	r26, 0xFC	; 252
     8a0:	b4 e0       	ldi	r27, 0x04	; 4
     8a2:	8c 91       	ld	r24, X
     8a4:	84 fd       	sbrc	r24, 4
     8a6:	04 c0       	rjmp	.+8      	; 0x8b0 <trigger_step+0x10a>
     8a8:	f7 01       	movw	r30, r14
     8aa:	80 81       	ld	r24, Z
     8ac:	0e 94 d6 07 	call	0xfac	; 0xfac <turn_on>
     8b0:	ab 81       	ldd	r26, Y+3	; 0x03
     8b2:	bc 81       	ldd	r27, Y+4	; 0x04
     8b4:	aa 0f       	add	r26, r26
     8b6:	bb 1f       	adc	r27, r27
     8b8:	aa 0f       	add	r26, r26
     8ba:	bb 1f       	adc	r27, r27
     8bc:	aa 0f       	add	r26, r26
     8be:	bb 1f       	adc	r27, r27
     8c0:	2b 81       	ldd	r18, Y+3	; 0x03
     8c2:	3c 81       	ldd	r19, Y+4	; 0x04
     8c4:	a2 1b       	sub	r26, r18
     8c6:	b3 0b       	sbc	r27, r19
     8c8:	a0 50       	subi	r26, 0x00	; 0
     8ca:	bf 4f       	sbci	r27, 0xFF	; 255
     8cc:	ec 91       	ld	r30, X
     8ce:	8e 2f       	mov	r24, r30
     8d0:	88 1f       	adc	r24, r24
     8d2:	88 27       	eor	r24, r24
     8d4:	88 1f       	adc	r24, r24
     8d6:	11 96       	adiw	r26, 0x01	; 1
     8d8:	ec 91       	ld	r30, X
     8da:	e7 70       	andi	r30, 0x07	; 7
     8dc:	ee 0f       	add	r30, r30
     8de:	e8 2b       	or	r30, r24
     8e0:	f0 e0       	ldi	r31, 0x00	; 0
     8e2:	ef 5b       	subi	r30, 0xBF	; 191
     8e4:	fd 4f       	sbci	r31, 0xFD	; 253
     8e6:	d7 01       	movw	r26, r14
     8e8:	13 97       	sbiw	r26, 0x03	; 3
     8ea:	9c 91       	ld	r25, X
     8ec:	80 81       	ld	r24, Z
     8ee:	89 2b       	or	r24, r25
     8f0:	80 83       	st	Z, r24
     8f2:	f7 01       	movw	r30, r14
     8f4:	32 97       	sbiw	r30, 0x02	; 2
     8f6:	80 81       	ld	r24, Z
     8f8:	8f 3f       	cpi	r24, 0xFF	; 255
     8fa:	d1 f0       	breq	.+52     	; 0x930 <__stack+0x31>
     8fc:	d2 01       	movw	r26, r4
     8fe:	13 96       	adiw	r26, 0x03	; 3
     900:	2c 91       	ld	r18, X
     902:	13 97       	sbiw	r26, 0x03	; 3
     904:	eb 81       	ldd	r30, Y+3	; 0x03
     906:	fc 81       	ldd	r31, Y+4	; 0x04
     908:	ee 0f       	add	r30, r30
     90a:	ff 1f       	adc	r31, r31
     90c:	ee 0f       	add	r30, r30
     90e:	ff 1f       	adc	r31, r31
     910:	ee 0f       	add	r30, r30
     912:	ff 1f       	adc	r31, r31
     914:	4b 81       	ldd	r20, Y+3	; 0x03
     916:	5c 81       	ldd	r21, Y+4	; 0x04
     918:	e4 1b       	sub	r30, r20
     91a:	f5 0b       	sbc	r31, r21
     91c:	ec 5f       	subi	r30, 0xFC	; 252
     91e:	fe 4f       	sbci	r31, 0xFE	; 254
     920:	90 81       	ld	r25, Z
     922:	91 70       	andi	r25, 0x01	; 1
     924:	91 95       	neg	r25
     926:	92 27       	eor	r25, r18
     928:	89 23       	and	r24, r25
     92a:	82 27       	eor	r24, r18
     92c:	13 96       	adiw	r26, 0x03	; 3
     92e:	8c 93       	st	X, r24
     930:	8b 81       	ldd	r24, Y+3	; 0x03
     932:	9c 81       	ldd	r25, Y+4	; 0x04
     934:	01 96       	adiw	r24, 0x01	; 1
     936:	9c 83       	std	Y+4, r25	; 0x04
     938:	8b 83       	std	Y+3, r24	; 0x03
     93a:	97 e0       	ldi	r25, 0x07	; 7
     93c:	e9 0e       	add	r14, r25
     93e:	f1 1c       	adc	r15, r1
     940:	ab 81       	ldd	r26, Y+3	; 0x03
     942:	bc 81       	ldd	r27, Y+4	; 0x04
     944:	50 97       	sbiw	r26, 0x10	; 16
     946:	09 f0       	breq	.+2      	; 0x94a <__stack+0x4b>
     948:	60 cf       	rjmp	.-320    	; 0x80a <trigger_step+0x64>
     94a:	90 91 d1 05 	lds	r25, 0x05D1
     94e:	80 91 d6 05 	lds	r24, 0x05D6
     952:	81 fb       	bst	r24, 1
     954:	bb 27       	eor	r27, r27
     956:	b0 f9       	bld	r27, 0
     958:	b9 83       	std	Y+1, r27	; 0x01
     95a:	1a 82       	std	Y+2, r1	; 0x02
     95c:	96 95       	lsr	r25
     95e:	91 70       	andi	r25, 0x01	; 1
     960:	e9 81       	ldd	r30, Y+1	; 0x01
     962:	fa 81       	ldd	r31, Y+2	; 0x02
     964:	22 e2       	ldi	r18, 0x22	; 34
     966:	92 9f       	mul	r25, r18
     968:	e0 0d       	add	r30, r0
     96a:	f1 1d       	adc	r31, r1
     96c:	11 24       	eor	r1, r1
     96e:	ee 0f       	add	r30, r30
     970:	ff 1f       	adc	r31, r31
     972:	e0 50       	subi	r30, 0x00	; 0
     974:	fb 4f       	sbci	r31, 0xFB	; 251
     976:	90 91 d5 05 	lds	r25, 0x05D5
     97a:	92 95       	swap	r25
     97c:	96 95       	lsr	r25
     97e:	97 70       	andi	r25, 0x07	; 7
     980:	81 70       	andi	r24, 0x01	; 1
     982:	88 0f       	add	r24, r24
     984:	88 0f       	add	r24, r24
     986:	88 0f       	add	r24, r24
     988:	89 2b       	or	r24, r25
     98a:	20 81       	ld	r18, Z
     98c:	31 81       	ldd	r19, Z+1	; 0x01
     98e:	a9 01       	movw	r20, r18
     990:	02 c0       	rjmp	.+4      	; 0x996 <__stack+0x97>
     992:	56 95       	lsr	r21
     994:	47 95       	ror	r20
     996:	8a 95       	dec	r24
     998:	e2 f7       	brpl	.-8      	; 0x992 <__stack+0x93>
     99a:	40 ff       	sbrs	r20, 0
     99c:	4e c0       	rjmp	.+156    	; 0xa3a <__stack+0x13b>
     99e:	e1 e4       	ldi	r30, 0x41	; 65
     9a0:	f2 e0       	ldi	r31, 0x02	; 2
     9a2:	80 85       	ldd	r24, Z+8	; 0x08
     9a4:	81 60       	ori	r24, 0x01	; 1
     9a6:	80 87       	std	Z+8, r24	; 0x08
     9a8:	80 91 dd 05 	lds	r24, 0x05DD
     9ac:	8f 71       	andi	r24, 0x1F	; 31
     9ae:	80 31       	cpi	r24, 0x10	; 16
     9b0:	09 f4       	brne	.+2      	; 0x9b4 <__stack+0xb5>
     9b2:	2b 9a       	sbi	0x05, 3	; 5
     9b4:	80 91 dd 05 	lds	r24, 0x05DD
     9b8:	98 2f       	mov	r25, r24
     9ba:	92 95       	swap	r25
     9bc:	96 95       	lsr	r25
     9be:	97 70       	andi	r25, 0x07	; 7
     9c0:	80 91 de 05 	lds	r24, 0x05DE
     9c4:	83 70       	andi	r24, 0x03	; 3
     9c6:	88 0f       	add	r24, r24
     9c8:	88 0f       	add	r24, r24
     9ca:	88 0f       	add	r24, r24
     9cc:	89 2b       	or	r24, r25
     9ce:	80 31       	cpi	r24, 0x10	; 16
     9d0:	09 f4       	brne	.+2      	; 0x9d4 <__stack+0xd5>
     9d2:	2c 9a       	sbi	0x05, 4	; 5
     9d4:	80 91 fc 04 	lds	r24, 0x04FC
     9d8:	84 fd       	sbrc	r24, 4
     9da:	2f c0       	rjmp	.+94     	; 0xa3a <__stack+0x13b>
     9dc:	84 e1       	ldi	r24, 0x14	; 20
     9de:	0e 94 d6 07 	call	0xfac	; 0xfac <turn_on>
     9e2:	2b c0       	rjmp	.+86     	; 0xa3a <__stack+0x13b>
     9e4:	0f 2e       	mov	r0, r31
     9e6:	f5 e0       	ldi	r31, 0x05	; 5
     9e8:	ef 2e       	mov	r14, r31
     9ea:	f1 e0       	ldi	r31, 0x01	; 1
     9ec:	ff 2e       	mov	r15, r31
     9ee:	f0 2d       	mov	r31, r0
     9f0:	1c 82       	std	Y+4, r1	; 0x04
     9f2:	1b 82       	std	Y+3, r1	; 0x03
     9f4:	0f 2e       	mov	r0, r31
     9f6:	f6 ed       	ldi	r31, 0xD6	; 214
     9f8:	8f 2e       	mov	r8, r31
     9fa:	f5 e0       	ldi	r31, 0x05	; 5
     9fc:	9f 2e       	mov	r9, r31
     9fe:	f0 2d       	mov	r31, r0
     a00:	0f 2e       	mov	r0, r31
     a02:	f5 ed       	ldi	r31, 0xD5	; 213
     a04:	af 2e       	mov	r10, r31
     a06:	f5 e0       	ldi	r31, 0x05	; 5
     a08:	bf 2e       	mov	r11, r31
     a0a:	f0 2d       	mov	r31, r0
     a0c:	0f 2e       	mov	r0, r31
     a0e:	f1 ed       	ldi	r31, 0xD1	; 209
     a10:	cf 2e       	mov	r12, r31
     a12:	f5 e0       	ldi	r31, 0x05	; 5
     a14:	df 2e       	mov	r13, r31
     a16:	f0 2d       	mov	r31, r0
     a18:	0f 2e       	mov	r0, r31
     a1a:	f2 e2       	ldi	r31, 0x22	; 34
     a1c:	3f 2e       	mov	r3, r31
     a1e:	f0 2d       	mov	r31, r0
     a20:	0f 2e       	mov	r0, r31
     a22:	fd ed       	ldi	r31, 0xDD	; 221
     a24:	6f 2e       	mov	r6, r31
     a26:	f5 e0       	ldi	r31, 0x05	; 5
     a28:	7f 2e       	mov	r7, r31
     a2a:	f0 2d       	mov	r31, r0
     a2c:	0f 2e       	mov	r0, r31
     a2e:	f1 e4       	ldi	r31, 0x41	; 65
     a30:	4f 2e       	mov	r4, r31
     a32:	f2 e0       	ldi	r31, 0x02	; 2
     a34:	5f 2e       	mov	r5, r31
     a36:	f0 2d       	mov	r31, r0
     a38:	e8 ce       	rjmp	.-560    	; 0x80a <trigger_step+0x64>
     a3a:	0f 90       	pop	r0
     a3c:	0f 90       	pop	r0
     a3e:	0f 90       	pop	r0
     a40:	0f 90       	pop	r0
     a42:	df 91       	pop	r29
     a44:	cf 91       	pop	r28
     a46:	1f 91       	pop	r17
     a48:	0f 91       	pop	r16
     a4a:	ff 90       	pop	r15
     a4c:	ef 90       	pop	r14
     a4e:	df 90       	pop	r13
     a50:	cf 90       	pop	r12
     a52:	bf 90       	pop	r11
     a54:	af 90       	pop	r10
     a56:	9f 90       	pop	r9
     a58:	8f 90       	pop	r8
     a5a:	7f 90       	pop	r7
     a5c:	6f 90       	pop	r6
     a5e:	5f 90       	pop	r5
     a60:	4f 90       	pop	r4
     a62:	3f 90       	pop	r3
     a64:	08 95       	ret

00000a66 <live_hits>:
     a66:	80 91 07 02 	lds	r24, 0x0207
     a6a:	86 ff       	sbrs	r24, 6
     a6c:	08 c0       	rjmp	.+16     	; 0xa7e <live_hits+0x18>
     a6e:	e7 e0       	ldi	r30, 0x07	; 7
     a70:	f2 e0       	ldi	r31, 0x02	; 2
     a72:	8f 7b       	andi	r24, 0xBF	; 191
     a74:	80 83       	st	Z, r24
     a76:	60 e0       	ldi	r22, 0x00	; 0
     a78:	80 e0       	ldi	r24, 0x00	; 0
     a7a:	0e 94 06 03 	call	0x60c	; 0x60c <trigger_drum>
     a7e:	80 91 08 02 	lds	r24, 0x0208
     a82:	86 ff       	sbrs	r24, 6
     a84:	08 c0       	rjmp	.+16     	; 0xa96 <live_hits+0x30>
     a86:	e8 e0       	ldi	r30, 0x08	; 8
     a88:	f2 e0       	ldi	r31, 0x02	; 2
     a8a:	8f 7b       	andi	r24, 0xBF	; 191
     a8c:	80 83       	st	Z, r24
     a8e:	60 e0       	ldi	r22, 0x00	; 0
     a90:	81 e0       	ldi	r24, 0x01	; 1
     a92:	0e 94 06 03 	call	0x60c	; 0x60c <trigger_drum>
     a96:	80 91 09 02 	lds	r24, 0x0209
     a9a:	86 ff       	sbrs	r24, 6
     a9c:	08 c0       	rjmp	.+16     	; 0xaae <live_hits+0x48>
     a9e:	e9 e0       	ldi	r30, 0x09	; 9
     aa0:	f2 e0       	ldi	r31, 0x02	; 2
     aa2:	8f 7b       	andi	r24, 0xBF	; 191
     aa4:	80 83       	st	Z, r24
     aa6:	60 e0       	ldi	r22, 0x00	; 0
     aa8:	82 e0       	ldi	r24, 0x02	; 2
     aaa:	0e 94 06 03 	call	0x60c	; 0x60c <trigger_drum>
     aae:	80 91 0a 02 	lds	r24, 0x020A
     ab2:	86 ff       	sbrs	r24, 6
     ab4:	08 c0       	rjmp	.+16     	; 0xac6 <live_hits+0x60>
     ab6:	ea e0       	ldi	r30, 0x0A	; 10
     ab8:	f2 e0       	ldi	r31, 0x02	; 2
     aba:	8f 7b       	andi	r24, 0xBF	; 191
     abc:	80 83       	st	Z, r24
     abe:	60 e0       	ldi	r22, 0x00	; 0
     ac0:	83 e0       	ldi	r24, 0x03	; 3
     ac2:	0e 94 06 03 	call	0x60c	; 0x60c <trigger_drum>
     ac6:	80 91 0b 02 	lds	r24, 0x020B
     aca:	86 ff       	sbrs	r24, 6
     acc:	08 c0       	rjmp	.+16     	; 0xade <live_hits+0x78>
     ace:	eb e0       	ldi	r30, 0x0B	; 11
     ad0:	f2 e0       	ldi	r31, 0x02	; 2
     ad2:	8f 7b       	andi	r24, 0xBF	; 191
     ad4:	80 83       	st	Z, r24
     ad6:	60 e0       	ldi	r22, 0x00	; 0
     ad8:	84 e0       	ldi	r24, 0x04	; 4
     ada:	0e 94 06 03 	call	0x60c	; 0x60c <trigger_drum>
     ade:	80 91 0c 02 	lds	r24, 0x020C
     ae2:	86 ff       	sbrs	r24, 6
     ae4:	08 c0       	rjmp	.+16     	; 0xaf6 <live_hits+0x90>
     ae6:	ec e0       	ldi	r30, 0x0C	; 12
     ae8:	f2 e0       	ldi	r31, 0x02	; 2
     aea:	8f 7b       	andi	r24, 0xBF	; 191
     aec:	80 83       	st	Z, r24
     aee:	60 e0       	ldi	r22, 0x00	; 0
     af0:	85 e0       	ldi	r24, 0x05	; 5
     af2:	0e 94 06 03 	call	0x60c	; 0x60c <trigger_drum>
     af6:	80 91 0d 02 	lds	r24, 0x020D
     afa:	86 ff       	sbrs	r24, 6
     afc:	08 c0       	rjmp	.+16     	; 0xb0e <live_hits+0xa8>
     afe:	ed e0       	ldi	r30, 0x0D	; 13
     b00:	f2 e0       	ldi	r31, 0x02	; 2
     b02:	8f 7b       	andi	r24, 0xBF	; 191
     b04:	80 83       	st	Z, r24
     b06:	60 e0       	ldi	r22, 0x00	; 0
     b08:	86 e0       	ldi	r24, 0x06	; 6
     b0a:	0e 94 06 03 	call	0x60c	; 0x60c <trigger_drum>
     b0e:	80 91 0e 02 	lds	r24, 0x020E
     b12:	86 ff       	sbrs	r24, 6
     b14:	08 c0       	rjmp	.+16     	; 0xb26 <live_hits+0xc0>
     b16:	ee e0       	ldi	r30, 0x0E	; 14
     b18:	f2 e0       	ldi	r31, 0x02	; 2
     b1a:	8f 7b       	andi	r24, 0xBF	; 191
     b1c:	80 83       	st	Z, r24
     b1e:	60 e0       	ldi	r22, 0x00	; 0
     b20:	87 e0       	ldi	r24, 0x07	; 7
     b22:	0e 94 06 03 	call	0x60c	; 0x60c <trigger_drum>
     b26:	80 91 0f 02 	lds	r24, 0x020F
     b2a:	86 ff       	sbrs	r24, 6
     b2c:	08 c0       	rjmp	.+16     	; 0xb3e <live_hits+0xd8>
     b2e:	ef e0       	ldi	r30, 0x0F	; 15
     b30:	f2 e0       	ldi	r31, 0x02	; 2
     b32:	8f 7b       	andi	r24, 0xBF	; 191
     b34:	80 83       	st	Z, r24
     b36:	60 e0       	ldi	r22, 0x00	; 0
     b38:	88 e0       	ldi	r24, 0x08	; 8
     b3a:	0e 94 06 03 	call	0x60c	; 0x60c <trigger_drum>
     b3e:	80 91 10 02 	lds	r24, 0x0210
     b42:	86 ff       	sbrs	r24, 6
     b44:	08 c0       	rjmp	.+16     	; 0xb56 <live_hits+0xf0>
     b46:	e0 e1       	ldi	r30, 0x10	; 16
     b48:	f2 e0       	ldi	r31, 0x02	; 2
     b4a:	8f 7b       	andi	r24, 0xBF	; 191
     b4c:	80 83       	st	Z, r24
     b4e:	60 e0       	ldi	r22, 0x00	; 0
     b50:	89 e0       	ldi	r24, 0x09	; 9
     b52:	0e 94 06 03 	call	0x60c	; 0x60c <trigger_drum>
     b56:	80 91 11 02 	lds	r24, 0x0211
     b5a:	86 ff       	sbrs	r24, 6
     b5c:	08 c0       	rjmp	.+16     	; 0xb6e <live_hits+0x108>
     b5e:	e1 e1       	ldi	r30, 0x11	; 17
     b60:	f2 e0       	ldi	r31, 0x02	; 2
     b62:	8f 7b       	andi	r24, 0xBF	; 191
     b64:	80 83       	st	Z, r24
     b66:	60 e0       	ldi	r22, 0x00	; 0
     b68:	8a e0       	ldi	r24, 0x0A	; 10
     b6a:	0e 94 06 03 	call	0x60c	; 0x60c <trigger_drum>
     b6e:	08 95       	ret

00000b70 <__vector_2>:
     b70:	1f 92       	push	r1
     b72:	0f 92       	push	r0
     b74:	0f b6       	in	r0, 0x3f	; 63
     b76:	0f 92       	push	r0
     b78:	11 24       	eor	r1, r1
     b7a:	2f 93       	push	r18
     b7c:	3f 93       	push	r19
     b7e:	4f 93       	push	r20
     b80:	5f 93       	push	r21
     b82:	6f 93       	push	r22
     b84:	7f 93       	push	r23
     b86:	8f 93       	push	r24
     b88:	9f 93       	push	r25
     b8a:	af 93       	push	r26
     b8c:	bf 93       	push	r27
     b8e:	ef 93       	push	r30
     b90:	ff 93       	push	r31
     b92:	80 91 e2 02 	lds	r24, 0x02E2
     b96:	84 ff       	sbrs	r24, 4
     b98:	15 c0       	rjmp	.+42     	; 0xbc4 <__vector_2+0x54>
     b9a:	ed ef       	ldi	r30, 0xFD	; 253
     b9c:	f2 e0       	ldi	r31, 0x02	; 2
     b9e:	80 81       	ld	r24, Z
     ba0:	86 95       	lsr	r24
     ba2:	86 95       	lsr	r24
     ba4:	86 95       	lsr	r24
     ba6:	8f 5f       	subi	r24, 0xFF	; 255
     ba8:	87 70       	andi	r24, 0x07	; 7
     baa:	28 2f       	mov	r18, r24
     bac:	22 0f       	add	r18, r18
     bae:	22 0f       	add	r18, r18
     bb0:	22 0f       	add	r18, r18
     bb2:	90 81       	ld	r25, Z
     bb4:	97 7c       	andi	r25, 0xC7	; 199
     bb6:	92 2b       	or	r25, r18
     bb8:	90 83       	st	Z, r25
     bba:	81 30       	cpi	r24, 0x01	; 1
     bbc:	29 f4       	brne	.+10     	; 0xbc8 <__vector_2+0x58>
     bbe:	0e 94 a6 02 	call	0x54c	; 0x54c <process_external_clock_event>
     bc2:	02 c0       	rjmp	.+4      	; 0xbc8 <__vector_2+0x58>
     bc4:	0e 94 a6 02 	call	0x54c	; 0x54c <process_external_clock_event>
     bc8:	ff 91       	pop	r31
     bca:	ef 91       	pop	r30
     bcc:	bf 91       	pop	r27
     bce:	af 91       	pop	r26
     bd0:	9f 91       	pop	r25
     bd2:	8f 91       	pop	r24
     bd4:	7f 91       	pop	r23
     bd6:	6f 91       	pop	r22
     bd8:	5f 91       	pop	r21
     bda:	4f 91       	pop	r20
     bdc:	3f 91       	pop	r19
     bde:	2f 91       	pop	r18
     be0:	0f 90       	pop	r0
     be2:	0f be       	out	0x3f, r0	; 63
     be4:	0f 90       	pop	r0
     be6:	1f 90       	pop	r1
     be8:	18 95       	reti

00000bea <__vector_1>:
     bea:	1f 92       	push	r1
     bec:	0f 92       	push	r0
     bee:	0f b6       	in	r0, 0x3f	; 63
     bf0:	0f 92       	push	r0
     bf2:	11 24       	eor	r1, r1
     bf4:	2f 93       	push	r18
     bf6:	3f 93       	push	r19
     bf8:	4f 93       	push	r20
     bfa:	5f 93       	push	r21
     bfc:	6f 93       	push	r22
     bfe:	7f 93       	push	r23
     c00:	8f 93       	push	r24
     c02:	9f 93       	push	r25
     c04:	af 93       	push	r26
     c06:	bf 93       	push	r27
     c08:	ef 93       	push	r30
     c0a:	ff 93       	push	r31
     c0c:	eb ef       	ldi	r30, 0xFB	; 251
     c0e:	f2 e0       	ldi	r31, 0x02	; 2
     c10:	80 81       	ld	r24, Z
     c12:	81 50       	subi	r24, 0x01	; 1
     c14:	81 83       	std	Z+1, r24	; 0x01
     c16:	0e 94 e0 0d 	call	0x1bc0	; 0x1bc0 <process_tick>
     c1a:	32 9a       	sbi	0x06, 2	; 6
     c1c:	ff 91       	pop	r31
     c1e:	ef 91       	pop	r30
     c20:	bf 91       	pop	r27
     c22:	af 91       	pop	r26
     c24:	9f 91       	pop	r25
     c26:	8f 91       	pop	r24
     c28:	7f 91       	pop	r23
     c2a:	6f 91       	pop	r22
     c2c:	5f 91       	pop	r21
     c2e:	4f 91       	pop	r20
     c30:	3f 91       	pop	r19
     c32:	2f 91       	pop	r18
     c34:	0f 90       	pop	r0
     c36:	0f be       	out	0x3f, r0	; 63
     c38:	0f 90       	pop	r0
     c3a:	1f 90       	pop	r1
     c3c:	18 95       	reti

00000c3e <__vector_5>:
     c3e:	1f 92       	push	r1
     c40:	0f 92       	push	r0
     c42:	0f b6       	in	r0, 0x3f	; 63
     c44:	0f 92       	push	r0
     c46:	11 24       	eor	r1, r1
     c48:	2f 93       	push	r18
     c4a:	3f 93       	push	r19
     c4c:	4f 93       	push	r20
     c4e:	5f 93       	push	r21
     c50:	6f 93       	push	r22
     c52:	7f 93       	push	r23
     c54:	8f 93       	push	r24
     c56:	9f 93       	push	r25
     c58:	af 93       	push	r26
     c5a:	bf 93       	push	r27
     c5c:	ef 93       	push	r30
     c5e:	ff 93       	push	r31
     c60:	4c 9b       	sbis	0x09, 4	; 9
     c62:	08 c0       	rjmp	.+16     	; 0xc74 <__vector_5+0x36>
     c64:	ec ef       	ldi	r30, 0xFC	; 252
     c66:	f4 e0       	ldi	r31, 0x04	; 4
     c68:	80 81       	ld	r24, Z
     c6a:	80 62       	ori	r24, 0x20	; 32
     c6c:	80 83       	st	Z, r24
     c6e:	0e 94 fe 0e 	call	0x1dfc	; 0x1dfc <process_start>
     c72:	07 c0       	rjmp	.+14     	; 0xc82 <__vector_5+0x44>
     c74:	ec ef       	ldi	r30, 0xFC	; 252
     c76:	f4 e0       	ldi	r31, 0x04	; 4
     c78:	80 81       	ld	r24, Z
     c7a:	8f 7d       	andi	r24, 0xDF	; 223
     c7c:	80 83       	st	Z, r24
     c7e:	0e 94 98 0f 	call	0x1f30	; 0x1f30 <process_stop>
     c82:	ff 91       	pop	r31
     c84:	ef 91       	pop	r30
     c86:	bf 91       	pop	r27
     c88:	af 91       	pop	r26
     c8a:	9f 91       	pop	r25
     c8c:	8f 91       	pop	r24
     c8e:	7f 91       	pop	r23
     c90:	6f 91       	pop	r22
     c92:	5f 91       	pop	r21
     c94:	4f 91       	pop	r20
     c96:	3f 91       	pop	r19
     c98:	2f 91       	pop	r18
     c9a:	0f 90       	pop	r0
     c9c:	0f be       	out	0x3f, r0	; 63
     c9e:	0f 90       	pop	r0
     ca0:	1f 90       	pop	r1
     ca2:	18 95       	reti

00000ca4 <__vector_14>:
     ca4:	1f 92       	push	r1
     ca6:	0f 92       	push	r0
     ca8:	0f b6       	in	r0, 0x3f	; 63
     caa:	0f 92       	push	r0
     cac:	11 24       	eor	r1, r1
     cae:	2f 93       	push	r18
     cb0:	3f 93       	push	r19
     cb2:	4f 93       	push	r20
     cb4:	5f 93       	push	r21
     cb6:	6f 93       	push	r22
     cb8:	7f 93       	push	r23
     cba:	8f 93       	push	r24
     cbc:	9f 93       	push	r25
     cbe:	af 93       	push	r26
     cc0:	bf 93       	push	r27
     cc2:	cf 93       	push	r28
     cc4:	df 93       	push	r29
     cc6:	ef 93       	push	r30
     cc8:	ff 93       	push	r31
     cca:	15 bc       	out	0x25, r1	; 37
     ccc:	ee e6       	ldi	r30, 0x6E	; 110
     cce:	f0 e0       	ldi	r31, 0x00	; 0
     cd0:	80 81       	ld	r24, Z
     cd2:	8d 7f       	andi	r24, 0xFD	; 253
     cd4:	80 83       	st	Z, r24
     cd6:	e1 ee       	ldi	r30, 0xE1	; 225
     cd8:	f2 e0       	ldi	r31, 0x02	; 2
     cda:	80 81       	ld	r24, Z
     cdc:	88 60       	ori	r24, 0x08	; 8
     cde:	80 83       	st	Z, r24
     ce0:	80 91 fb 04 	lds	r24, 0x04FB
     ce4:	81 11       	cpse	r24, r1
     ce6:	2f c0       	rjmp	.+94     	; 0xd46 <__vector_14+0xa2>
     ce8:	a0 91 30 02 	lds	r26, 0x0230
     cec:	87 e0       	ldi	r24, 0x07	; 7
     cee:	a8 9f       	mul	r26, r24
     cf0:	d0 01       	movw	r26, r0
     cf2:	11 24       	eor	r1, r1
     cf4:	a0 50       	subi	r26, 0x00	; 0
     cf6:	bf 4f       	sbci	r27, 0xFF	; 255
     cf8:	ec 91       	ld	r30, X
     cfa:	8e 2f       	mov	r24, r30
     cfc:	88 1f       	adc	r24, r24
     cfe:	88 27       	eor	r24, r24
     d00:	88 1f       	adc	r24, r24
     d02:	11 96       	adiw	r26, 0x01	; 1
     d04:	ec 91       	ld	r30, X
     d06:	11 97       	sbiw	r26, 0x01	; 1
     d08:	e7 70       	andi	r30, 0x07	; 7
     d0a:	ee 0f       	add	r30, r30
     d0c:	e8 2b       	or	r30, r24
     d0e:	f0 e0       	ldi	r31, 0x00	; 0
     d10:	c1 e4       	ldi	r28, 0x41	; 65
     d12:	d2 e0       	ldi	r29, 0x02	; 2
     d14:	ef 5b       	subi	r30, 0xBF	; 191
     d16:	fd 4f       	sbci	r31, 0xFD	; 253
     d18:	12 96       	adiw	r26, 0x02	; 2
     d1a:	8c 91       	ld	r24, X
     d1c:	80 95       	com	r24
     d1e:	90 81       	ld	r25, Z
     d20:	89 23       	and	r24, r25
     d22:	80 83       	st	Z, r24
     d24:	84 e1       	ldi	r24, 0x14	; 20
     d26:	0e 94 f1 07 	call	0xfe2	; 0xfe2 <turn_off>
     d2a:	88 85       	ldd	r24, Y+8	; 0x08
     d2c:	8e 7f       	andi	r24, 0xFE	; 254
     d2e:	88 87       	std	Y+8, r24	; 0x08
     d30:	e0 91 30 02 	lds	r30, 0x0230
     d34:	87 e0       	ldi	r24, 0x07	; 7
     d36:	e8 9f       	mul	r30, r24
     d38:	f0 01       	movw	r30, r0
     d3a:	11 24       	eor	r1, r1
     d3c:	e0 50       	subi	r30, 0x00	; 0
     d3e:	ff 4f       	sbci	r31, 0xFF	; 255
     d40:	85 81       	ldd	r24, Z+5	; 0x05
     d42:	0e 94 f1 07 	call	0xfe2	; 0xfe2 <turn_off>
     d46:	ff 91       	pop	r31
     d48:	ef 91       	pop	r30
     d4a:	df 91       	pop	r29
     d4c:	cf 91       	pop	r28
     d4e:	bf 91       	pop	r27
     d50:	af 91       	pop	r26
     d52:	9f 91       	pop	r25
     d54:	8f 91       	pop	r24
     d56:	7f 91       	pop	r23
     d58:	6f 91       	pop	r22
     d5a:	5f 91       	pop	r21
     d5c:	4f 91       	pop	r20
     d5e:	3f 91       	pop	r19
     d60:	2f 91       	pop	r18
     d62:	0f 90       	pop	r0
     d64:	0f be       	out	0x3f, r0	; 63
     d66:	0f 90       	pop	r0
     d68:	1f 90       	pop	r1
     d6a:	18 95       	reti

00000d6c <__vector_7>:
     d6c:	1f 92       	push	r1
     d6e:	0f 92       	push	r0
     d70:	0f b6       	in	r0, 0x3f	; 63
     d72:	0f 92       	push	r0
     d74:	11 24       	eor	r1, r1
     d76:	8f 93       	push	r24
     d78:	ef 93       	push	r30
     d7a:	ff 93       	push	r31
     d7c:	e3 ee       	ldi	r30, 0xE3	; 227
     d7e:	f2 e0       	ldi	r31, 0x02	; 2
     d80:	80 81       	ld	r24, Z
     d82:	81 60       	ori	r24, 0x01	; 1
     d84:	80 83       	st	Z, r24
     d86:	ff 91       	pop	r31
     d88:	ef 91       	pop	r30
     d8a:	8f 91       	pop	r24
     d8c:	0f 90       	pop	r0
     d8e:	0f be       	out	0x3f, r0	; 63
     d90:	0f 90       	pop	r0
     d92:	1f 90       	pop	r1
     d94:	18 95       	reti

00000d96 <__vector_33>:
     d96:	1f 92       	push	r1
     d98:	0f 92       	push	r0
     d9a:	0f b6       	in	r0, 0x3f	; 63
     d9c:	0f 92       	push	r0
     d9e:	11 24       	eor	r1, r1
     da0:	0f 90       	pop	r0
     da2:	0f be       	out	0x3f, r0	; 63
     da4:	0f 90       	pop	r0
     da6:	1f 90       	pop	r1
     da8:	18 95       	reti

00000daa <__vector_42>:
     daa:	1f 92       	push	r1
     dac:	0f 92       	push	r0
     dae:	0f b6       	in	r0, 0x3f	; 63
     db0:	0f 92       	push	r0
     db2:	11 24       	eor	r1, r1
     db4:	0f 90       	pop	r0
     db6:	0f be       	out	0x3f, r0	; 63
     db8:	0f 90       	pop	r0
     dba:	1f 90       	pop	r1
     dbc:	18 95       	reti

00000dbe <__vector_11>:
     dbe:	1f 92       	push	r1
     dc0:	0f 92       	push	r0
     dc2:	0f b6       	in	r0, 0x3f	; 63
     dc4:	0f 92       	push	r0
     dc6:	11 24       	eor	r1, r1
     dc8:	2f 93       	push	r18
     dca:	3f 93       	push	r19
     dcc:	4f 93       	push	r20
     dce:	5f 93       	push	r21
     dd0:	6f 93       	push	r22
     dd2:	7f 93       	push	r23
     dd4:	8f 93       	push	r24
     dd6:	9f 93       	push	r25
     dd8:	af 93       	push	r26
     dda:	bf 93       	push	r27
     ddc:	ef 93       	push	r30
     dde:	ff 93       	push	r31
     de0:	80 91 e2 02 	lds	r24, 0x02E2
     de4:	84 fd       	sbrc	r24, 4
     de6:	5d c0       	rjmp	.+186    	; 0xea2 <__vector_11+0xe4>
     de8:	0e 94 e0 0d 	call	0x1bc0	; 0x1bc0 <process_tick>
     dec:	ed ef       	ldi	r30, 0xFD	; 253
     dee:	f2 e0       	ldi	r31, 0x02	; 2
     df0:	20 81       	ld	r18, Z
     df2:	27 70       	andi	r18, 0x07	; 7
     df4:	81 e0       	ldi	r24, 0x01	; 1
     df6:	82 0f       	add	r24, r18
     df8:	98 2f       	mov	r25, r24
     dfa:	97 70       	andi	r25, 0x07	; 7
     dfc:	80 81       	ld	r24, Z
     dfe:	88 7f       	andi	r24, 0xF8	; 248
     e00:	89 2b       	or	r24, r25
     e02:	80 83       	st	Z, r24
     e04:	23 30       	cpi	r18, 0x03	; 3
     e06:	09 f0       	breq	.+2      	; 0xe0a <__vector_11+0x4c>
     e08:	4c c0       	rjmp	.+152    	; 0xea2 <__vector_11+0xe4>
     e0a:	80 81       	ld	r24, Z
     e0c:	88 7f       	andi	r24, 0xF8	; 248
     e0e:	80 83       	st	Z, r24
     e10:	80 91 fb 04 	lds	r24, 0x04FB
     e14:	81 30       	cpi	r24, 0x01	; 1
     e16:	51 f4       	brne	.+20     	; 0xe2c <__vector_11+0x6e>
     e18:	87 e0       	ldi	r24, 0x07	; 7
     e1a:	93 e0       	ldi	r25, 0x03	; 3
     e1c:	0e 94 24 24 	call	0x4848	; 0x4848 <midi_send_clock>
     e20:	80 91 fc 04 	lds	r24, 0x04FC
     e24:	85 ff       	sbrs	r24, 5
     e26:	3d c0       	rjmp	.+122    	; 0xea2 <__vector_11+0xe4>
     e28:	32 9a       	sbi	0x06, 2	; 6
     e2a:	3b c0       	rjmp	.+118    	; 0xea2 <__vector_11+0xe4>
     e2c:	83 30       	cpi	r24, 0x03	; 3
     e2e:	c9 f5       	brne	.+114    	; 0xea2 <__vector_11+0xe4>
     e30:	e0 eb       	ldi	r30, 0xB0	; 176
     e32:	f0 e0       	ldi	r31, 0x00	; 0
     e34:	80 81       	ld	r24, Z
     e36:	8f 7e       	andi	r24, 0xEF	; 239
     e38:	80 83       	st	Z, r24
     e3a:	a1 eb       	ldi	r26, 0xB1	; 177
     e3c:	b0 e0       	ldi	r27, 0x00	; 0
     e3e:	8c 91       	ld	r24, X
     e40:	80 64       	ori	r24, 0x40	; 64
     e42:	8c 93       	st	X, r24
     e44:	80 81       	ld	r24, Z
     e46:	80 63       	ori	r24, 0x30	; 48
     e48:	80 83       	st	Z, r24
     e4a:	10 92 b2 00 	sts	0x00B2, r1
     e4e:	80 91 fc 04 	lds	r24, 0x04FC
     e52:	85 fd       	sbrc	r24, 5
     e54:	32 9a       	sbi	0x06, 2	; 6
     e56:	80 91 e3 02 	lds	r24, 0x02E3
     e5a:	81 ff       	sbrs	r24, 1
     e5c:	22 c0       	rjmp	.+68     	; 0xea2 <__vector_11+0xe4>
     e5e:	ed ef       	ldi	r30, 0xFD	; 253
     e60:	f2 e0       	ldi	r31, 0x02	; 2
     e62:	80 81       	ld	r24, Z
     e64:	86 95       	lsr	r24
     e66:	86 95       	lsr	r24
     e68:	86 95       	lsr	r24
     e6a:	8f 5f       	subi	r24, 0xFF	; 255
     e6c:	87 70       	andi	r24, 0x07	; 7
     e6e:	28 2f       	mov	r18, r24
     e70:	22 0f       	add	r18, r18
     e72:	22 0f       	add	r18, r18
     e74:	22 0f       	add	r18, r18
     e76:	90 81       	ld	r25, Z
     e78:	97 7c       	andi	r25, 0xC7	; 199
     e7a:	92 2b       	or	r25, r18
     e7c:	90 83       	st	Z, r25
     e7e:	81 30       	cpi	r24, 0x01	; 1
     e80:	81 f4       	brne	.+32     	; 0xea2 <__vector_11+0xe4>
     e82:	e3 ee       	ldi	r30, 0xE3	; 227
     e84:	f2 e0       	ldi	r31, 0x02	; 2
     e86:	80 81       	ld	r24, Z
     e88:	8d 7f       	andi	r24, 0xFD	; 253
     e8a:	80 83       	st	Z, r24
     e8c:	5c 9a       	sbi	0x0b, 4	; 11
     e8e:	10 92 fc 02 	sts	0x02FC, r1
     e92:	e1 ee       	ldi	r30, 0xE1	; 225
     e94:	f2 e0       	ldi	r31, 0x02	; 2
     e96:	80 81       	ld	r24, Z
     e98:	81 60       	ori	r24, 0x01	; 1
     e9a:	80 83       	st	Z, r24
     e9c:	80 81       	ld	r24, Z
     e9e:	8d 7f       	andi	r24, 0xFD	; 253
     ea0:	80 83       	st	Z, r24
     ea2:	ff 91       	pop	r31
     ea4:	ef 91       	pop	r30
     ea6:	bf 91       	pop	r27
     ea8:	af 91       	pop	r26
     eaa:	9f 91       	pop	r25
     eac:	8f 91       	pop	r24
     eae:	7f 91       	pop	r23
     eb0:	6f 91       	pop	r22
     eb2:	5f 91       	pop	r21
     eb4:	4f 91       	pop	r20
     eb6:	3f 91       	pop	r19
     eb8:	2f 91       	pop	r18
     eba:	0f 90       	pop	r0
     ebc:	0f be       	out	0x3f, r0	; 63
     ebe:	0f 90       	pop	r0
     ec0:	1f 90       	pop	r1
     ec2:	18 95       	reti

00000ec4 <__vector_18>:
     ec4:	1f 92       	push	r1
     ec6:	0f 92       	push	r0
     ec8:	0f b6       	in	r0, 0x3f	; 63
     eca:	0f 92       	push	r0
     ecc:	11 24       	eor	r1, r1
     ece:	2f 93       	push	r18
     ed0:	3f 93       	push	r19
     ed2:	4f 93       	push	r20
     ed4:	5f 93       	push	r21
     ed6:	6f 93       	push	r22
     ed8:	7f 93       	push	r23
     eda:	8f 93       	push	r24
     edc:	9f 93       	push	r25
     ede:	af 93       	push	r26
     ee0:	bf 93       	push	r27
     ee2:	ef 93       	push	r30
     ee4:	ff 93       	push	r31
     ee6:	cf 93       	push	r28
     ee8:	df 93       	push	r29
     eea:	1f 92       	push	r1
     eec:	cd b7       	in	r28, 0x3d	; 61
     eee:	de b7       	in	r29, 0x3e	; 62
     ef0:	80 91 c6 00 	lds	r24, 0x00C6
     ef4:	89 83       	std	Y+1, r24	; 0x01
     ef6:	ae 01       	movw	r20, r28
     ef8:	4f 5f       	subi	r20, 0xFF	; 255
     efa:	5f 4f       	sbci	r21, 0xFF	; 255
     efc:	61 e0       	ldi	r22, 0x01	; 1
     efe:	87 e0       	ldi	r24, 0x07	; 7
     f00:	93 e0       	ldi	r25, 0x03	; 3
     f02:	0e 94 85 24 	call	0x490a	; 0x490a <midi_device_input>
     f06:	0f 90       	pop	r0
     f08:	df 91       	pop	r29
     f0a:	cf 91       	pop	r28
     f0c:	ff 91       	pop	r31
     f0e:	ef 91       	pop	r30
     f10:	bf 91       	pop	r27
     f12:	af 91       	pop	r26
     f14:	9f 91       	pop	r25
     f16:	8f 91       	pop	r24
     f18:	7f 91       	pop	r23
     f1a:	6f 91       	pop	r22
     f1c:	5f 91       	pop	r21
     f1e:	4f 91       	pop	r20
     f20:	3f 91       	pop	r19
     f22:	2f 91       	pop	r18
     f24:	0f 90       	pop	r0
     f26:	0f be       	out	0x3f, r0	; 63
     f28:	0f 90       	pop	r0
     f2a:	1f 90       	pop	r1
     f2c:	18 95       	reti

00000f2e <__vector_19>:
     f2e:	1f 92       	push	r1
     f30:	0f 92       	push	r0
     f32:	0f b6       	in	r0, 0x3f	; 63
     f34:	0f 92       	push	r0
     f36:	11 24       	eor	r1, r1
     f38:	2f 93       	push	r18
     f3a:	3f 93       	push	r19
     f3c:	4f 93       	push	r20
     f3e:	5f 93       	push	r21
     f40:	6f 93       	push	r22
     f42:	7f 93       	push	r23
     f44:	8f 93       	push	r24
     f46:	9f 93       	push	r25
     f48:	af 93       	push	r26
     f4a:	bf 93       	push	r27
     f4c:	ef 93       	push	r30
     f4e:	ff 93       	push	r31
     f50:	84 eb       	ldi	r24, 0xB4	; 180
     f52:	94 e0       	ldi	r25, 0x04	; 4
     f54:	0e 94 9f 23 	call	0x473e	; 0x473e <bytequeue_length>
     f58:	88 23       	and	r24, r24
     f5a:	61 f0       	breq	.+24     	; 0xf74 <__vector_19+0x46>
     f5c:	60 e0       	ldi	r22, 0x00	; 0
     f5e:	84 eb       	ldi	r24, 0xB4	; 180
     f60:	94 e0       	ldi	r25, 0x04	; 4
     f62:	0e 94 b5 23 	call	0x476a	; 0x476a <bytequeue_get>
     f66:	80 93 c6 00 	sts	0x00C6, r24
     f6a:	61 e0       	ldi	r22, 0x01	; 1
     f6c:	84 eb       	ldi	r24, 0xB4	; 180
     f6e:	94 e0       	ldi	r25, 0x04	; 4
     f70:	0e 94 c7 23 	call	0x478e	; 0x478e <bytequeue_remove>
     f74:	84 eb       	ldi	r24, 0xB4	; 180
     f76:	94 e0       	ldi	r25, 0x04	; 4
     f78:	0e 94 9f 23 	call	0x473e	; 0x473e <bytequeue_length>
     f7c:	81 11       	cpse	r24, r1
     f7e:	05 c0       	rjmp	.+10     	; 0xf8a <__vector_19+0x5c>
     f80:	e1 ec       	ldi	r30, 0xC1	; 193
     f82:	f0 e0       	ldi	r31, 0x00	; 0
     f84:	80 81       	ld	r24, Z
     f86:	8f 7d       	andi	r24, 0xDF	; 223
     f88:	80 83       	st	Z, r24
     f8a:	ff 91       	pop	r31
     f8c:	ef 91       	pop	r30
     f8e:	bf 91       	pop	r27
     f90:	af 91       	pop	r26
     f92:	9f 91       	pop	r25
     f94:	8f 91       	pop	r24
     f96:	7f 91       	pop	r23
     f98:	6f 91       	pop	r22
     f9a:	5f 91       	pop	r21
     f9c:	4f 91       	pop	r20
     f9e:	3f 91       	pop	r19
     fa0:	2f 91       	pop	r18
     fa2:	0f 90       	pop	r0
     fa4:	0f be       	out	0x3f, r0	; 63
     fa6:	0f 90       	pop	r0
     fa8:	1f 90       	pop	r1
     faa:	18 95       	reti

00000fac <turn_on>:
     fac:	cf 93       	push	r28
     fae:	df 93       	push	r29
     fb0:	90 e0       	ldi	r25, 0x00	; 0
     fb2:	88 0f       	add	r24, r24
     fb4:	99 1f       	adc	r25, r25
     fb6:	dc 01       	movw	r26, r24
     fb8:	ac 57       	subi	r26, 0x7C	; 124
     fba:	be 4f       	sbci	r27, 0xFE	; 254
     fbc:	2c 91       	ld	r18, X
     fbe:	e2 2f       	mov	r30, r18
     fc0:	ef 70       	andi	r30, 0x0F	; 15
     fc2:	f0 e0       	ldi	r31, 0x00	; 0
     fc4:	ef 5b       	subi	r30, 0xBF	; 191
     fc6:	fd 4f       	sbci	r31, 0xFD	; 253
     fc8:	ec 01       	movw	r28, r24
     fca:	cd 57       	subi	r28, 0x7D	; 125
     fcc:	de 4f       	sbci	r29, 0xFE	; 254
     fce:	30 81       	ld	r19, Z
     fd0:	88 81       	ld	r24, Y
     fd2:	83 2b       	or	r24, r19
     fd4:	80 83       	st	Z, r24
     fd6:	82 2f       	mov	r24, r18
     fd8:	80 61       	ori	r24, 0x10	; 16
     fda:	8c 93       	st	X, r24
     fdc:	df 91       	pop	r29
     fde:	cf 91       	pop	r28
     fe0:	08 95       	ret

00000fe2 <turn_off>:
     fe2:	cf 93       	push	r28
     fe4:	df 93       	push	r29
     fe6:	90 e0       	ldi	r25, 0x00	; 0
     fe8:	88 0f       	add	r24, r24
     fea:	99 1f       	adc	r25, r25
     fec:	dc 01       	movw	r26, r24
     fee:	ac 57       	subi	r26, 0x7C	; 124
     ff0:	be 4f       	sbci	r27, 0xFE	; 254
     ff2:	2c 91       	ld	r18, X
     ff4:	e2 2f       	mov	r30, r18
     ff6:	ef 70       	andi	r30, 0x0F	; 15
     ff8:	f0 e0       	ldi	r31, 0x00	; 0
     ffa:	ef 5b       	subi	r30, 0xBF	; 191
     ffc:	fd 4f       	sbci	r31, 0xFD	; 253
     ffe:	ec 01       	movw	r28, r24
    1000:	cd 57       	subi	r28, 0x7D	; 125
    1002:	de 4f       	sbci	r29, 0xFE	; 254
    1004:	88 81       	ld	r24, Y
    1006:	80 95       	com	r24
    1008:	90 81       	ld	r25, Z
    100a:	89 23       	and	r24, r25
    100c:	80 83       	st	Z, r24
    100e:	82 2f       	mov	r24, r18
    1010:	8f 7e       	andi	r24, 0xEF	; 239
    1012:	8c 93       	st	X, r24
    1014:	df 91       	pop	r29
    1016:	cf 91       	pop	r28
    1018:	08 95       	ret

0000101a <toggle>:
    101a:	e8 2f       	mov	r30, r24
    101c:	f0 e0       	ldi	r31, 0x00	; 0
    101e:	ee 0f       	add	r30, r30
    1020:	ff 1f       	adc	r31, r31
    1022:	ec 57       	subi	r30, 0x7C	; 124
    1024:	fe 4f       	sbci	r31, 0xFE	; 254
    1026:	90 81       	ld	r25, Z
    1028:	94 ff       	sbrs	r25, 4
    102a:	03 c0       	rjmp	.+6      	; 0x1032 <toggle+0x18>
    102c:	0e 94 f1 07 	call	0xfe2	; 0xfe2 <turn_off>
    1030:	08 95       	ret
    1032:	0e 94 d6 07 	call	0xfac	; 0xfac <turn_on>
    1036:	08 95       	ret

00001038 <turn_off_all_inst_leds>:
    1038:	e1 e4       	ldi	r30, 0x41	; 65
    103a:	f2 e0       	ldi	r31, 0x02	; 2
    103c:	82 81       	ldd	r24, Z+2	; 0x02
    103e:	8f 70       	andi	r24, 0x0F	; 15
    1040:	82 83       	std	Z+2, r24	; 0x02
    1042:	87 81       	ldd	r24, Z+7	; 0x07
    1044:	80 72       	andi	r24, 0x20	; 32
    1046:	87 83       	std	Z+7, r24	; 0x07
    1048:	83 81       	ldd	r24, Z+3	; 0x03
    104a:	8f 70       	andi	r24, 0x0F	; 15
    104c:	83 83       	std	Z+3, r24	; 0x03
    104e:	86 81       	ldd	r24, Z+6	; 0x06
    1050:	8f 7c       	andi	r24, 0xCF	; 207
    1052:	86 83       	std	Z+6, r24	; 0x06
    1054:	08 95       	ret

00001056 <show_mutes>:
    1056:	0f 93       	push	r16
    1058:	1f 93       	push	r17
    105a:	cf 93       	push	r28
    105c:	df 93       	push	r29
    105e:	05 e0       	ldi	r16, 0x05	; 5
    1060:	11 e0       	ldi	r17, 0x01	; 1
    1062:	c0 e0       	ldi	r28, 0x00	; 0
    1064:	d0 e0       	ldi	r29, 0x00	; 0
    1066:	fe 01       	movw	r30, r28
    1068:	ee 0f       	add	r30, r30
    106a:	ff 1f       	adc	r31, r31
    106c:	ee 0f       	add	r30, r30
    106e:	ff 1f       	adc	r31, r31
    1070:	ee 0f       	add	r30, r30
    1072:	ff 1f       	adc	r31, r31
    1074:	ec 1b       	sub	r30, r28
    1076:	fd 0b       	sbc	r31, r29
    1078:	ea 5f       	subi	r30, 0xFA	; 250
    107a:	fe 4f       	sbci	r31, 0xFE	; 254
    107c:	80 81       	ld	r24, Z
    107e:	80 ff       	sbrs	r24, 0
    1080:	05 c0       	rjmp	.+10     	; 0x108c <show_mutes+0x36>
    1082:	f8 01       	movw	r30, r16
    1084:	80 81       	ld	r24, Z
    1086:	0e 94 d6 07 	call	0xfac	; 0xfac <turn_on>
    108a:	04 c0       	rjmp	.+8      	; 0x1094 <show_mutes+0x3e>
    108c:	f8 01       	movw	r30, r16
    108e:	80 81       	ld	r24, Z
    1090:	0e 94 f1 07 	call	0xfe2	; 0xfe2 <turn_off>
    1094:	21 96       	adiw	r28, 0x01	; 1
    1096:	09 5f       	subi	r16, 0xF9	; 249
    1098:	1f 4f       	sbci	r17, 0xFF	; 255
    109a:	c0 31       	cpi	r28, 0x10	; 16
    109c:	d1 05       	cpc	r29, r1
    109e:	19 f7       	brne	.-58     	; 0x1066 <show_mutes+0x10>
    10a0:	df 91       	pop	r29
    10a2:	cf 91       	pop	r28
    10a4:	1f 91       	pop	r17
    10a6:	0f 91       	pop	r16
    10a8:	08 95       	ret

000010aa <update_inst_leds>:
    10aa:	80 91 fa 04 	lds	r24, 0x04FA
    10ae:	83 30       	cpi	r24, 0x03	; 3
    10b0:	09 f4       	brne	.+2      	; 0x10b4 <update_inst_leds+0xa>
    10b2:	49 c0       	rjmp	.+146    	; 0x1146 <update_inst_leds+0x9c>
    10b4:	38 f0       	brcs	.+14     	; 0x10c4 <update_inst_leds+0x1a>
    10b6:	84 30       	cpi	r24, 0x04	; 4
    10b8:	09 f4       	brne	.+2      	; 0x10bc <update_inst_leds+0x12>
    10ba:	58 c0       	rjmp	.+176    	; 0x116c <update_inst_leds+0xc2>
    10bc:	85 30       	cpi	r24, 0x05	; 5
    10be:	09 f4       	brne	.+2      	; 0x10c2 <update_inst_leds+0x18>
    10c0:	70 c0       	rjmp	.+224    	; 0x11a2 <update_inst_leds+0xf8>
    10c2:	08 95       	ret
    10c4:	80 91 fc 04 	lds	r24, 0x04FC
    10c8:	84 ff       	sbrs	r24, 4
    10ca:	31 c0       	rjmp	.+98     	; 0x112e <update_inst_leds+0x84>
    10cc:	80 91 fd 04 	lds	r24, 0x04FD
    10d0:	80 ff       	sbrs	r24, 0
    10d2:	2a c0       	rjmp	.+84     	; 0x1128 <update_inst_leds+0x7e>
    10d4:	0e 94 1c 08 	call	0x1038	; 0x1038 <turn_off_all_inst_leds>
    10d8:	80 91 d1 05 	lds	r24, 0x05D1
    10dc:	82 fd       	sbrc	r24, 2
    10de:	0d c0       	rjmp	.+26     	; 0x10fa <update_inst_leds+0x50>
    10e0:	e0 91 dd 05 	lds	r30, 0x05DD
    10e4:	ef 71       	andi	r30, 0x1F	; 31
    10e6:	87 e0       	ldi	r24, 0x07	; 7
    10e8:	e8 9f       	mul	r30, r24
    10ea:	f0 01       	movw	r30, r0
    10ec:	11 24       	eor	r1, r1
    10ee:	e0 50       	subi	r30, 0x00	; 0
    10f0:	ff 4f       	sbci	r31, 0xFF	; 255
    10f2:	85 81       	ldd	r24, Z+5	; 0x05
    10f4:	0e 94 d6 07 	call	0xfac	; 0xfac <turn_on>
    10f8:	08 95       	ret
    10fa:	e0 91 dd 05 	lds	r30, 0x05DD
    10fe:	8e 2f       	mov	r24, r30
    1100:	82 95       	swap	r24
    1102:	86 95       	lsr	r24
    1104:	87 70       	andi	r24, 0x07	; 7
    1106:	e0 91 de 05 	lds	r30, 0x05DE
    110a:	e3 70       	andi	r30, 0x03	; 3
    110c:	ee 0f       	add	r30, r30
    110e:	ee 0f       	add	r30, r30
    1110:	ee 0f       	add	r30, r30
    1112:	e8 2b       	or	r30, r24
    1114:	87 e0       	ldi	r24, 0x07	; 7
    1116:	e8 9f       	mul	r30, r24
    1118:	f0 01       	movw	r30, r0
    111a:	11 24       	eor	r1, r1
    111c:	e0 50       	subi	r30, 0x00	; 0
    111e:	ff 4f       	sbci	r31, 0xFF	; 255
    1120:	85 81       	ldd	r24, Z+5	; 0x05
    1122:	0e 94 d6 07 	call	0xfac	; 0xfac <turn_on>
    1126:	08 95       	ret
    1128:	0e 94 2b 08 	call	0x1056	; 0x1056 <show_mutes>
    112c:	08 95       	ret
    112e:	e0 91 db 05 	lds	r30, 0x05DB
    1132:	87 e0       	ldi	r24, 0x07	; 7
    1134:	e8 9f       	mul	r30, r24
    1136:	f0 01       	movw	r30, r0
    1138:	11 24       	eor	r1, r1
    113a:	e0 50       	subi	r30, 0x00	; 0
    113c:	ff 4f       	sbci	r31, 0xFF	; 255
    113e:	85 81       	ldd	r24, Z+5	; 0x05
    1140:	0e 94 d6 07 	call	0xfac	; 0xfac <turn_on>
    1144:	08 95       	ret
    1146:	80 91 fc 04 	lds	r24, 0x04FC
    114a:	84 ff       	sbrs	r24, 4
    114c:	03 c0       	rjmp	.+6      	; 0x1154 <update_inst_leds+0xaa>
    114e:	0e 94 2b 08 	call	0x1056	; 0x1056 <show_mutes>
    1152:	08 95       	ret
    1154:	e0 91 db 05 	lds	r30, 0x05DB
    1158:	87 e0       	ldi	r24, 0x07	; 7
    115a:	e8 9f       	mul	r30, r24
    115c:	f0 01       	movw	r30, r0
    115e:	11 24       	eor	r1, r1
    1160:	e0 50       	subi	r30, 0x00	; 0
    1162:	ff 4f       	sbci	r31, 0xFF	; 255
    1164:	85 81       	ldd	r24, Z+5	; 0x05
    1166:	0e 94 d6 07 	call	0xfac	; 0xfac <turn_on>
    116a:	08 95       	ret
    116c:	80 91 fc 04 	lds	r24, 0x04FC
    1170:	84 ff       	sbrs	r24, 4
    1172:	03 c0       	rjmp	.+6      	; 0x117a <update_inst_leds+0xd0>
    1174:	0e 94 2b 08 	call	0x1056	; 0x1056 <show_mutes>
    1178:	08 95       	ret
    117a:	e0 91 d9 05 	lds	r30, 0x05D9
    117e:	8e 2f       	mov	r24, r30
    1180:	82 95       	swap	r24
    1182:	86 95       	lsr	r24
    1184:	86 95       	lsr	r24
    1186:	83 70       	andi	r24, 0x03	; 3
    1188:	e0 91 da 05 	lds	r30, 0x05DA
    118c:	e3 70       	andi	r30, 0x03	; 3
    118e:	ee 0f       	add	r30, r30
    1190:	ee 0f       	add	r30, r30
    1192:	e8 2b       	or	r30, r24
    1194:	f0 e0       	ldi	r31, 0x00	; 0
    1196:	e9 58       	subi	r30, 0x89	; 137
    1198:	fe 4f       	sbci	r31, 0xFE	; 254
    119a:	80 81       	ld	r24, Z
    119c:	0e 94 d6 07 	call	0xfac	; 0xfac <turn_on>
    11a0:	08 95       	ret
    11a2:	80 91 fc 04 	lds	r24, 0x04FC
    11a6:	84 ff       	sbrs	r24, 4
    11a8:	03 c0       	rjmp	.+6      	; 0x11b0 <update_inst_leds+0x106>
    11aa:	0e 94 2b 08 	call	0x1056	; 0x1056 <show_mutes>
    11ae:	08 95       	ret
    11b0:	e0 91 d9 05 	lds	r30, 0x05D9
    11b4:	8e 2f       	mov	r24, r30
    11b6:	82 95       	swap	r24
    11b8:	86 95       	lsr	r24
    11ba:	86 95       	lsr	r24
    11bc:	83 70       	andi	r24, 0x03	; 3
    11be:	e0 91 da 05 	lds	r30, 0x05DA
    11c2:	e3 70       	andi	r30, 0x03	; 3
    11c4:	ee 0f       	add	r30, r30
    11c6:	ee 0f       	add	r30, r30
    11c8:	e8 2b       	or	r30, r24
    11ca:	f0 e0       	ldi	r31, 0x00	; 0
    11cc:	e9 58       	subi	r30, 0x89	; 137
    11ce:	fe 4f       	sbci	r31, 0xFE	; 254
    11d0:	80 81       	ld	r24, Z
    11d2:	0e 94 d6 07 	call	0xfac	; 0xfac <turn_on>
    11d6:	08 95       	ret

000011d8 <update_inst_led_mask>:
    11d8:	cf 92       	push	r12
    11da:	df 92       	push	r13
    11dc:	ef 92       	push	r14
    11de:	ff 92       	push	r15
    11e0:	0f 93       	push	r16
    11e2:	1f 93       	push	r17
    11e4:	cf 93       	push	r28
    11e6:	df 93       	push	r29
    11e8:	80 91 d6 05 	lds	r24, 0x05D6
    11ec:	82 fb       	bst	r24, 2
    11ee:	44 27       	eor	r20, r20
    11f0:	40 f9       	bld	r20, 0
    11f2:	50 e0       	ldi	r21, 0x00	; 0
    11f4:	20 91 d1 05 	lds	r18, 0x05D1
    11f8:	a1 e0       	ldi	r26, 0x01	; 1
    11fa:	b0 e0       	ldi	r27, 0x00	; 0
    11fc:	00 90 db 05 	lds	r0, 0x05DB
    1200:	02 c0       	rjmp	.+4      	; 0x1206 <update_inst_led_mask+0x2e>
    1202:	aa 0f       	add	r26, r26
    1204:	bb 1f       	adc	r27, r27
    1206:	0a 94       	dec	r0
    1208:	e2 f7       	brpl	.-8      	; 0x1202 <update_inst_led_mask+0x2a>
    120a:	fa 01       	movw	r30, r20
    120c:	e6 50       	subi	r30, 0x06	; 6
    120e:	fb 4f       	sbci	r31, 0xFB	; 251
    1210:	e7 52       	subi	r30, 0x27	; 39
    1212:	ff 4f       	sbci	r31, 0xFF	; 255
    1214:	60 81       	ld	r22, Z
    1216:	70 e0       	ldi	r23, 0x00	; 0
    1218:	c1 2c       	mov	r12, r1
    121a:	d1 2c       	mov	r13, r1
    121c:	76 01       	movw	r14, r12
    121e:	80 e0       	ldi	r24, 0x00	; 0
    1220:	90 e0       	ldi	r25, 0x00	; 0
    1222:	42 95       	swap	r20
    1224:	52 95       	swap	r21
    1226:	50 7f       	andi	r21, 0xF0	; 240
    1228:	54 27       	eor	r21, r20
    122a:	40 7f       	andi	r20, 0xF0	; 240
    122c:	54 27       	eor	r21, r20
    122e:	26 95       	lsr	r18
    1230:	21 70       	andi	r18, 0x01	; 1
    1232:	32 e2       	ldi	r19, 0x22	; 34
    1234:	23 9f       	mul	r18, r19
    1236:	40 0d       	add	r20, r0
    1238:	51 1d       	adc	r21, r1
    123a:	11 24       	eor	r1, r1
    123c:	c1 e0       	ldi	r28, 0x01	; 1
    123e:	d0 e0       	ldi	r29, 0x00	; 0
    1240:	fa 01       	movw	r30, r20
    1242:	e8 0f       	add	r30, r24
    1244:	f9 1f       	adc	r31, r25
    1246:	ee 0f       	add	r30, r30
    1248:	ff 1f       	adc	r31, r31
    124a:	ec 5f       	subi	r30, 0xFC	; 252
    124c:	fa 4f       	sbci	r31, 0xFA	; 250
    124e:	20 81       	ld	r18, Z
    1250:	31 81       	ldd	r19, Z+1	; 0x01
    1252:	2a 23       	and	r18, r26
    1254:	3b 23       	and	r19, r27
    1256:	23 2b       	or	r18, r19
    1258:	79 f0       	breq	.+30     	; 0x1278 <update_inst_led_mask+0xa0>
    125a:	8e 01       	movw	r16, r28
    125c:	08 2e       	mov	r0, r24
    125e:	02 c0       	rjmp	.+4      	; 0x1264 <update_inst_led_mask+0x8c>
    1260:	00 0f       	add	r16, r16
    1262:	11 1f       	adc	r17, r17
    1264:	0a 94       	dec	r0
    1266:	e2 f7       	brpl	.-8      	; 0x1260 <update_inst_led_mask+0x88>
    1268:	01 2e       	mov	r0, r17
    126a:	00 0c       	add	r0, r0
    126c:	22 0b       	sbc	r18, r18
    126e:	33 0b       	sbc	r19, r19
    1270:	c0 2a       	or	r12, r16
    1272:	d1 2a       	or	r13, r17
    1274:	e2 2a       	or	r14, r18
    1276:	f3 2a       	or	r15, r19
    1278:	01 96       	adiw	r24, 0x01	; 1
    127a:	68 17       	cp	r22, r24
    127c:	79 07       	cpc	r23, r25
    127e:	04 f7       	brge	.-64     	; 0x1240 <update_inst_led_mask+0x68>
    1280:	c0 92 cd 05 	sts	0x05CD, r12
    1284:	d0 92 ce 05 	sts	0x05CE, r13
    1288:	e0 92 cf 05 	sts	0x05CF, r14
    128c:	f0 92 d0 05 	sts	0x05D0, r15
    1290:	df 91       	pop	r29
    1292:	cf 91       	pop	r28
    1294:	1f 91       	pop	r17
    1296:	0f 91       	pop	r16
    1298:	ff 90       	pop	r15
    129a:	ef 90       	pop	r14
    129c:	df 90       	pop	r13
    129e:	cf 90       	pop	r12
    12a0:	08 95       	ret

000012a2 <update_step_led_mask>:
    12a2:	2f 92       	push	r2
    12a4:	3f 92       	push	r3
    12a6:	4f 92       	push	r4
    12a8:	5f 92       	push	r5
    12aa:	6f 92       	push	r6
    12ac:	7f 92       	push	r7
    12ae:	8f 92       	push	r8
    12b0:	9f 92       	push	r9
    12b2:	af 92       	push	r10
    12b4:	bf 92       	push	r11
    12b6:	cf 92       	push	r12
    12b8:	df 92       	push	r13
    12ba:	ef 92       	push	r14
    12bc:	ff 92       	push	r15
    12be:	0f 93       	push	r16
    12c0:	1f 93       	push	r17
    12c2:	cf 93       	push	r28
    12c4:	df 93       	push	r29
    12c6:	24 e4       	ldi	r18, 0x44	; 68
    12c8:	e9 e8       	ldi	r30, 0x89	; 137
    12ca:	f5 e0       	ldi	r31, 0x05	; 5
    12cc:	df 01       	movw	r26, r30
    12ce:	1d 92       	st	X+, r1
    12d0:	2a 95       	dec	r18
    12d2:	e9 f7       	brne	.-6      	; 0x12ce <update_step_led_mask+0x2c>
    12d4:	2c 9a       	sbi	0x05, 4	; 5
    12d6:	20 91 d6 05 	lds	r18, 0x05D6
    12da:	22 fb       	bst	r18, 2
    12dc:	88 27       	eor	r24, r24
    12de:	80 f9       	bld	r24, 0
    12e0:	90 e0       	ldi	r25, 0x00	; 0
    12e2:	00 e0       	ldi	r16, 0x00	; 0
    12e4:	10 e0       	ldi	r17, 0x00	; 0
    12e6:	6c 01       	movw	r12, r24
    12e8:	cc 0c       	add	r12, r12
    12ea:	dd 1c       	adc	r13, r13
    12ec:	cc 0c       	add	r12, r12
    12ee:	dd 1c       	adc	r13, r13
    12f0:	cc 0c       	add	r12, r12
    12f2:	dd 1c       	adc	r13, r13
    12f4:	cc 0c       	add	r12, r12
    12f6:	dd 1c       	adc	r13, r13
    12f8:	ee 24       	eor	r14, r14
    12fa:	e3 94       	inc	r14
    12fc:	f1 2c       	mov	r15, r1
    12fe:	5c 01       	movw	r10, r24
    1300:	b3 e0       	ldi	r27, 0x03	; 3
    1302:	ab 0e       	add	r10, r27
    1304:	b1 1c       	adc	r11, r1
    1306:	95 01       	movw	r18, r10
    1308:	22 0f       	add	r18, r18
    130a:	33 1f       	adc	r19, r19
    130c:	f9 01       	movw	r30, r18
    130e:	e6 50       	subi	r30, 0x06	; 6
    1310:	fb 4f       	sbci	r31, 0xFB	; 251
    1312:	5f 01       	movw	r10, r30
    1314:	0f 2e       	mov	r0, r31
    1316:	f9 ea       	ldi	r31, 0xA9	; 169
    1318:	8f 2e       	mov	r8, r31
    131a:	f5 e0       	ldi	r31, 0x05	; 5
    131c:	9f 2e       	mov	r9, r31
    131e:	f0 2d       	mov	r31, r0
    1320:	3c 01       	movw	r6, r24
    1322:	f5 e2       	ldi	r31, 0x25	; 37
    1324:	6f 0e       	add	r6, r31
    1326:	71 1c       	adc	r7, r1
    1328:	93 01       	movw	r18, r6
    132a:	22 0f       	add	r18, r18
    132c:	33 1f       	adc	r19, r19
    132e:	a9 01       	movw	r20, r18
    1330:	46 50       	subi	r20, 0x06	; 6
    1332:	5b 4f       	sbci	r21, 0xFB	; 251
    1334:	3a 01       	movw	r6, r20
    1336:	0f 2e       	mov	r0, r31
    1338:	fb ec       	ldi	r31, 0xCB	; 203
    133a:	4f 2e       	mov	r4, r31
    133c:	f5 e0       	ldi	r31, 0x05	; 5
    133e:	5f 2e       	mov	r5, r31
    1340:	f0 2d       	mov	r31, r0
    1342:	86 50       	subi	r24, 0x06	; 6
    1344:	9b 4f       	sbci	r25, 0xFB	; 251
    1346:	1c 01       	movw	r2, r24
    1348:	59 ed       	ldi	r21, 0xD9	; 217
    134a:	25 0e       	add	r2, r21
    134c:	31 1c       	adc	r3, r1
    134e:	52 c0       	rjmp	.+164    	; 0x13f4 <update_step_led_mask+0x152>
    1350:	9e 01       	movw	r18, r28
    1352:	08 2e       	mov	r0, r24
    1354:	02 c0       	rjmp	.+4      	; 0x135a <update_step_led_mask+0xb8>
    1356:	36 95       	lsr	r19
    1358:	27 95       	ror	r18
    135a:	0a 94       	dec	r0
    135c:	e2 f7       	brpl	.-8      	; 0x1356 <update_step_led_mask+0xb4>
    135e:	20 ff       	sbrs	r18, 0
    1360:	06 c0       	rjmp	.+12     	; 0x136e <update_step_led_mask+0xcc>
    1362:	20 81       	ld	r18, Z
    1364:	31 81       	ldd	r19, Z+1	; 0x01
    1366:	24 2b       	or	r18, r20
    1368:	35 2b       	or	r19, r21
    136a:	31 83       	std	Z+1, r19	; 0x01
    136c:	20 83       	st	Z, r18
    136e:	9b 01       	movw	r18, r22
    1370:	08 2e       	mov	r0, r24
    1372:	02 c0       	rjmp	.+4      	; 0x1378 <update_step_led_mask+0xd6>
    1374:	36 95       	lsr	r19
    1376:	27 95       	ror	r18
    1378:	0a 94       	dec	r0
    137a:	e2 f7       	brpl	.-8      	; 0x1374 <update_step_led_mask+0xd2>
    137c:	20 ff       	sbrs	r18, 0
    137e:	08 c0       	rjmp	.+16     	; 0x1390 <update_step_led_mask+0xee>
    1380:	2d 91       	ld	r18, X+
    1382:	3c 91       	ld	r19, X
    1384:	11 97       	sbiw	r26, 0x01	; 1
    1386:	24 2b       	or	r18, r20
    1388:	35 2b       	or	r19, r21
    138a:	11 96       	adiw	r26, 0x01	; 1
    138c:	3c 93       	st	X, r19
    138e:	2e 93       	st	-X, r18
    1390:	01 96       	adiw	r24, 0x01	; 1
    1392:	12 96       	adiw	r26, 0x02	; 2
    1394:	32 96       	adiw	r30, 0x02	; 2
    1396:	80 31       	cpi	r24, 0x10	; 16
    1398:	91 05       	cpc	r25, r1
    139a:	d1 f6       	brne	.-76     	; 0x1350 <update_step_led_mask+0xae>
    139c:	d5 01       	movw	r26, r10
    139e:	8d 91       	ld	r24, X+
    13a0:	9c 91       	ld	r25, X
    13a2:	00 2e       	mov	r0, r16
    13a4:	02 c0       	rjmp	.+4      	; 0x13aa <update_step_led_mask+0x108>
    13a6:	96 95       	lsr	r25
    13a8:	87 95       	ror	r24
    13aa:	0a 94       	dec	r0
    13ac:	e2 f7       	brpl	.-8      	; 0x13a6 <update_step_led_mask+0x104>
    13ae:	80 ff       	sbrs	r24, 0
    13b0:	07 c0       	rjmp	.+14     	; 0x13c0 <update_step_led_mask+0x11e>
    13b2:	f4 01       	movw	r30, r8
    13b4:	80 81       	ld	r24, Z
    13b6:	91 81       	ldd	r25, Z+1	; 0x01
    13b8:	84 2b       	or	r24, r20
    13ba:	95 2b       	or	r25, r21
    13bc:	91 83       	std	Z+1, r25	; 0x01
    13be:	80 83       	st	Z, r24
    13c0:	d3 01       	movw	r26, r6
    13c2:	8d 91       	ld	r24, X+
    13c4:	9c 91       	ld	r25, X
    13c6:	00 2e       	mov	r0, r16
    13c8:	02 c0       	rjmp	.+4      	; 0x13ce <update_step_led_mask+0x12c>
    13ca:	96 95       	lsr	r25
    13cc:	87 95       	ror	r24
    13ce:	0a 94       	dec	r0
    13d0:	e2 f7       	brpl	.-8      	; 0x13ca <update_step_led_mask+0x128>
    13d2:	80 ff       	sbrs	r24, 0
    13d4:	07 c0       	rjmp	.+14     	; 0x13e4 <update_step_led_mask+0x142>
    13d6:	f2 01       	movw	r30, r4
    13d8:	80 81       	ld	r24, Z
    13da:	91 81       	ldd	r25, Z+1	; 0x01
    13dc:	48 2b       	or	r20, r24
    13de:	59 2b       	or	r21, r25
    13e0:	51 83       	std	Z+1, r21	; 0x01
    13e2:	40 83       	st	Z, r20
    13e4:	0f 5f       	subi	r16, 0xFF	; 255
    13e6:	1f 4f       	sbci	r17, 0xFF	; 255
    13e8:	d1 01       	movw	r26, r2
    13ea:	8c 91       	ld	r24, X
    13ec:	90 e0       	ldi	r25, 0x00	; 0
    13ee:	80 17       	cp	r24, r16
    13f0:	91 07       	cpc	r25, r17
    13f2:	fc f0       	brlt	.+62     	; 0x1432 <update_step_led_mask+0x190>
    13f4:	c6 01       	movw	r24, r12
    13f6:	80 0f       	add	r24, r16
    13f8:	91 1f       	adc	r25, r17
    13fa:	fc 01       	movw	r30, r24
    13fc:	ee 0f       	add	r30, r30
    13fe:	ff 1f       	adc	r31, r31
    1400:	ec 5f       	subi	r30, 0xFC	; 252
    1402:	fa 4f       	sbci	r31, 0xFA	; 250
    1404:	c0 81       	ld	r28, Z
    1406:	d1 81       	ldd	r29, Z+1	; 0x01
    1408:	a7 01       	movw	r20, r14
    140a:	00 2e       	mov	r0, r16
    140c:	02 c0       	rjmp	.+4      	; 0x1412 <update_step_led_mask+0x170>
    140e:	44 0f       	add	r20, r20
    1410:	55 1f       	adc	r21, r21
    1412:	0a 94       	dec	r0
    1414:	e2 f7       	brpl	.-8      	; 0x140e <update_step_led_mask+0x16c>
    1416:	88 0f       	add	r24, r24
    1418:	99 1f       	adc	r25, r25
    141a:	fc 01       	movw	r30, r24
    141c:	e8 5b       	subi	r30, 0xB8	; 184
    141e:	fa 4f       	sbci	r31, 0xFA	; 250
    1420:	60 81       	ld	r22, Z
    1422:	71 81       	ldd	r23, Z+1	; 0x01
    1424:	ab ea       	ldi	r26, 0xAB	; 171
    1426:	b5 e0       	ldi	r27, 0x05	; 5
    1428:	e9 e8       	ldi	r30, 0x89	; 137
    142a:	f5 e0       	ldi	r31, 0x05	; 5
    142c:	80 e0       	ldi	r24, 0x00	; 0
    142e:	90 e0       	ldi	r25, 0x00	; 0
    1430:	8f cf       	rjmp	.-226    	; 0x1350 <update_step_led_mask+0xae>
    1432:	2c 98       	cbi	0x05, 4	; 5
    1434:	df 91       	pop	r29
    1436:	cf 91       	pop	r28
    1438:	1f 91       	pop	r17
    143a:	0f 91       	pop	r16
    143c:	ff 90       	pop	r15
    143e:	ef 90       	pop	r14
    1440:	df 90       	pop	r13
    1442:	cf 90       	pop	r12
    1444:	bf 90       	pop	r11
    1446:	af 90       	pop	r10
    1448:	9f 90       	pop	r9
    144a:	8f 90       	pop	r8
    144c:	7f 90       	pop	r7
    144e:	6f 90       	pop	r6
    1450:	5f 90       	pop	r5
    1452:	4f 90       	pop	r4
    1454:	3f 90       	pop	r3
    1456:	2f 90       	pop	r2
    1458:	08 95       	ret

0000145a <update_prescale_leds>:
    145a:	80 91 46 02 	lds	r24, 0x0246
    145e:	48 2f       	mov	r20, r24
    1460:	43 7c       	andi	r20, 0xC3	; 195
    1462:	80 91 fc 04 	lds	r24, 0x04FC
    1466:	88 23       	and	r24, r24
    1468:	6c f5       	brge	.+90     	; 0x14c4 <update_prescale_leds+0x6a>
    146a:	80 91 fa 04 	lds	r24, 0x04FA
    146e:	84 50       	subi	r24, 0x04	; 4
    1470:	82 30       	cpi	r24, 0x02	; 2
    1472:	40 f5       	brcc	.+80     	; 0x14c4 <update_prescale_leds+0x6a>
    1474:	80 91 d8 05 	lds	r24, 0x05D8
    1478:	98 2f       	mov	r25, r24
    147a:	99 1f       	adc	r25, r25
    147c:	99 27       	eor	r25, r25
    147e:	99 1f       	adc	r25, r25
    1480:	80 91 d9 05 	lds	r24, 0x05D9
    1484:	8f 73       	andi	r24, 0x3F	; 63
    1486:	88 0f       	add	r24, r24
    1488:	89 2b       	or	r24, r25
    148a:	90 e0       	ldi	r25, 0x00	; 0
    148c:	80 31       	cpi	r24, 0x10	; 16
    148e:	91 05       	cpc	r25, r1
    1490:	2c f4       	brge	.+10     	; 0x149c <update_prescale_leds+0x42>
    1492:	84 2f       	mov	r24, r20
    1494:	80 62       	ori	r24, 0x20	; 32
    1496:	80 93 46 02 	sts	0x0246, r24
    149a:	08 95       	ret
    149c:	80 32       	cpi	r24, 0x20	; 32
    149e:	91 05       	cpc	r25, r1
    14a0:	2c f4       	brge	.+10     	; 0x14ac <update_prescale_leds+0x52>
    14a2:	84 2f       	mov	r24, r20
    14a4:	80 61       	ori	r24, 0x10	; 16
    14a6:	80 93 46 02 	sts	0x0246, r24
    14aa:	08 95       	ret
    14ac:	c0 97       	sbiw	r24, 0x30	; 48
    14ae:	2c f4       	brge	.+10     	; 0x14ba <update_prescale_leds+0x60>
    14b0:	84 2f       	mov	r24, r20
    14b2:	88 60       	ori	r24, 0x08	; 8
    14b4:	80 93 46 02 	sts	0x0246, r24
    14b8:	08 95       	ret
    14ba:	84 2f       	mov	r24, r20
    14bc:	84 60       	ori	r24, 0x04	; 4
    14be:	80 93 46 02 	sts	0x0246, r24
    14c2:	08 95       	ret
    14c4:	80 91 d6 05 	lds	r24, 0x05D6
    14c8:	86 95       	lsr	r24
    14ca:	86 95       	lsr	r24
    14cc:	86 95       	lsr	r24
    14ce:	83 70       	andi	r24, 0x03	; 3
    14d0:	8e 5f       	subi	r24, 0xFE	; 254
    14d2:	21 e0       	ldi	r18, 0x01	; 1
    14d4:	30 e0       	ldi	r19, 0x00	; 0
    14d6:	b9 01       	movw	r22, r18
    14d8:	02 c0       	rjmp	.+4      	; 0x14de <update_prescale_leds+0x84>
    14da:	66 0f       	add	r22, r22
    14dc:	77 1f       	adc	r23, r23
    14de:	8a 95       	dec	r24
    14e0:	e2 f7       	brpl	.-8      	; 0x14da <update_prescale_leds+0x80>
    14e2:	cb 01       	movw	r24, r22
    14e4:	84 2b       	or	r24, r20
    14e6:	80 93 46 02 	sts	0x0246, r24
    14ea:	08 95       	ret

000014ec <refresh_step_leds>:
    14ec:	e1 e4       	ldi	r30, 0x41	; 65
    14ee:	f2 e0       	ldi	r31, 0x02	; 2
    14f0:	11 82       	std	Z+1, r1	; 0x01
    14f2:	10 82       	st	Z, r1
    14f4:	08 95       	ret

000014f6 <refresh>:
    14f6:	80 91 06 03 	lds	r24, 0x0306
    14fa:	81 11       	cpse	r24, r1
    14fc:	02 c0       	rjmp	.+4      	; 0x1502 <refresh+0xc>
    14fe:	0e 94 8f 0d 	call	0x1b1e	; 0x1b1e <update_tempo>
    1502:	0e 94 c3 1c 	call	0x3986	; 0x3986 <check_start_stop_tap>
    1506:	0e 94 fe 1b 	call	0x37fc	; 0x37fc <read_switches>
    150a:	0e 94 55 1c 	call	0x38aa	; 0x38aa <parse_switch_data>
    150e:	80 91 fa 04 	lds	r24, 0x04FA
    1512:	83 30       	cpi	r24, 0x03	; 3
    1514:	29 f4       	brne	.+10     	; 0x1520 <refresh+0x2a>
    1516:	80 91 fc 04 	lds	r24, 0x04FC
    151a:	84 ff       	sbrs	r24, 4
    151c:	0e 94 33 05 	call	0xa66	; 0xa66 <live_hits>
    1520:	0e 94 e3 0b 	call	0x17c6	; 0x17c6 <update_mode>
    1524:	0e 94 aa 0c 	call	0x1954	; 0x1954 <update_fill_mode>
    1528:	0e 94 2e 1d 	call	0x3a5c	; 0x3a5c <check_clear_switch>
    152c:	0e 94 3a 1e 	call	0x3c74	; 0x3c74 <check_intro_fill_variation_switch>
    1530:	0e 94 00 1d 	call	0x3a00	; 0x3a00 <check_variation_switches>
    1534:	0e 94 4c 10 	call	0x2098	; 0x2098 <update_prescale>
    1538:	0e 94 20 20 	call	0x4040	; 0x4040 <check_inst_switches>
    153c:	0e 94 55 08 	call	0x10aa	; 0x10aa <update_inst_leds>
    1540:	0e 94 7a 1c 	call	0x38f4	; 0x38f4 <check_write_sw>
    1544:	0e 94 fa 17 	call	0x2ff4	; 0x2ff4 <update_step_board>
    1548:	0e 94 ba 14 	call	0x2974	; 0x2974 <process_step>
    154c:	0e 94 da 1b 	call	0x37b4	; 0x37b4 <update_spi>
    1550:	5d 98       	cbi	0x0b, 5	; 11
    1552:	08 95       	ret

00001554 <main>:
    1554:	55 9a       	sbi	0x0a, 5	; 10
    1556:	8d b1       	in	r24, 0x0d	; 13
    1558:	8f 60       	ori	r24, 0x0F	; 15
    155a:	8d b9       	out	0x0d, r24	; 13
    155c:	39 9a       	sbi	0x07, 1	; 7
    155e:	20 9a       	sbi	0x04, 0	; 4
    1560:	73 98       	cbi	0x0e, 3	; 14
    1562:	41 98       	cbi	0x08, 1	; 8
    1564:	28 98       	cbi	0x05, 0	; 5
    1566:	71 9a       	sbi	0x0e, 1	; 14
    1568:	80 e5       	ldi	r24, 0x50	; 80
    156a:	80 93 ac 00 	sts	0x00AC, r24
    156e:	ed ea       	ldi	r30, 0xAD	; 173
    1570:	f0 e0       	ldi	r31, 0x00	; 0
    1572:	80 81       	ld	r24, Z
    1574:	81 60       	ori	r24, 0x01	; 1
    1576:	80 83       	st	Z, r24
    1578:	6a 9a       	sbi	0x0d, 2	; 13
    157a:	3a 9a       	sbi	0x07, 2	; 7
    157c:	23 9a       	sbi	0x04, 3	; 4
    157e:	24 9a       	sbi	0x04, 4	; 4
    1580:	e9 e6       	ldi	r30, 0x69	; 105
    1582:	f0 e0       	ldi	r31, 0x00	; 0
    1584:	80 81       	ld	r24, Z
    1586:	8e 60       	ori	r24, 0x0E	; 14
    1588:	80 83       	st	Z, r24
    158a:	ed e6       	ldi	r30, 0x6D	; 109
    158c:	f0 e0       	ldi	r31, 0x00	; 0
    158e:	80 81       	ld	r24, Z
    1590:	80 61       	ori	r24, 0x10	; 16
    1592:	80 83       	st	Z, r24
    1594:	05 ed       	ldi	r16, 0xD5	; 213
    1596:	15 e0       	ldi	r17, 0x05	; 5
    1598:	f8 01       	movw	r30, r16
    159a:	82 81       	ldd	r24, Z+2	; 0x02
    159c:	91 81       	ldd	r25, Z+1	; 0x01
    159e:	9f 71       	andi	r25, 0x1F	; 31
    15a0:	91 83       	std	Z+1, r25	; 0x01
    15a2:	80 7e       	andi	r24, 0xE0	; 224
    15a4:	82 83       	std	Z+2, r24	; 0x02
    15a6:	80 e0       	ldi	r24, 0x00	; 0
    15a8:	0e 94 d6 07 	call	0xfac	; 0xfac <turn_on>
    15ac:	8d e1       	ldi	r24, 0x1D	; 29
    15ae:	0e 94 d6 07 	call	0xfac	; 0xfac <turn_on>
    15b2:	82 e2       	ldi	r24, 0x22	; 34
    15b4:	0e 94 d6 07 	call	0xfac	; 0xfac <turn_on>
    15b8:	0e 94 da 1b 	call	0x37b4	; 0x37b4 <update_spi>
    15bc:	84 b5       	in	r24, 0x24	; 36
    15be:	82 60       	ori	r24, 0x02	; 2
    15c0:	84 bd       	out	0x24, r24	; 36
    15c2:	80 e1       	ldi	r24, 0x10	; 16
    15c4:	87 bd       	out	0x27, r24	; 39
    15c6:	87 e0       	ldi	r24, 0x07	; 7
    15c8:	93 e0       	ldi	r25, 0x03	; 3
    15ca:	0e 94 54 24 	call	0x48a8	; 0x48a8 <midi_device_init>
    15ce:	6b ea       	ldi	r22, 0xAB	; 171
    15d0:	7b e0       	ldi	r23, 0x0B	; 11
    15d2:	87 e0       	ldi	r24, 0x07	; 7
    15d4:	93 e0       	ldi	r25, 0x03	; 3
    15d6:	0e 94 48 24 	call	0x4890	; 0x4890 <midi_register_noteon_callback>
    15da:	65 ec       	ldi	r22, 0xC5	; 197
    15dc:	7b e0       	ldi	r23, 0x0B	; 11
    15de:	87 e0       	ldi	r24, 0x07	; 7
    15e0:	93 e0       	ldi	r25, 0x03	; 3
    15e2:	0e 94 4c 24 	call	0x4898	; 0x4898 <midi_register_noteoff_callback>
    15e6:	66 ec       	ldi	r22, 0xC6	; 198
    15e8:	7b e0       	ldi	r23, 0x0B	; 11
    15ea:	87 e0       	ldi	r24, 0x07	; 7
    15ec:	93 e0       	ldi	r25, 0x03	; 3
    15ee:	0e 94 50 24 	call	0x48a0	; 0x48a0 <midi_register_realtime_callback>
    15f2:	0e 94 94 0b 	call	0x1728	; 0x1728 <setup_midi_usart>
    15f6:	0f 2e       	mov	r0, r31
    15f8:	fd ed       	ldi	r31, 0xDD	; 221
    15fa:	ef 2e       	mov	r14, r31
    15fc:	f5 e0       	ldi	r31, 0x05	; 5
    15fe:	ff 2e       	mov	r15, r31
    1600:	f0 2d       	mov	r31, r0
    1602:	f7 01       	movw	r30, r14
    1604:	81 81       	ldd	r24, Z+1	; 0x01
    1606:	83 7c       	andi	r24, 0xC3	; 195
    1608:	81 83       	std	Z+1, r24	; 0x01
    160a:	0e 94 81 02 	call	0x502	; 0x502 <setup_clock>
    160e:	eb ef       	ldi	r30, 0xFB	; 251
    1610:	f2 e0       	ldi	r31, 0x02	; 2
    1612:	88 e1       	ldi	r24, 0x18	; 24
    1614:	80 83       	st	Z, r24
    1616:	dd 24       	eor	r13, r13
    1618:	d3 94       	inc	r13
    161a:	d1 82       	std	Z+1, r13	; 0x01
    161c:	13 86       	std	Z+11, r1	; 0x0b
    161e:	0e 94 5e 02 	call	0x4bc	; 0x4bc <setup_adc>
    1622:	e1 ee       	ldi	r30, 0xE1	; 225
    1624:	f2 e0       	ldi	r31, 0x02	; 2
    1626:	80 81       	ld	r24, Z
    1628:	88 60       	ori	r24, 0x08	; 8
    162a:	80 83       	st	Z, r24
    162c:	e2 ee       	ldi	r30, 0xE2	; 226
    162e:	f2 e0       	ldi	r31, 0x02	; 2
    1630:	80 81       	ld	r24, Z
    1632:	8e 7f       	andi	r24, 0xFE	; 254
    1634:	80 83       	st	Z, r24
    1636:	cc ef       	ldi	r28, 0xFC	; 252
    1638:	d4 e0       	ldi	r29, 0x04	; 4
    163a:	88 81       	ld	r24, Y
    163c:	8f 7d       	andi	r24, 0xDF	; 223
    163e:	88 83       	st	Y, r24
    1640:	0f 2e       	mov	r0, r31
    1642:	fa ef       	ldi	r31, 0xFA	; 250
    1644:	af 2e       	mov	r10, r31
    1646:	f4 e0       	ldi	r31, 0x04	; 4
    1648:	bf 2e       	mov	r11, r31
    164a:	f0 2d       	mov	r31, r0
    164c:	10 92 d2 05 	sts	0x05D2, r1
    1650:	84 e2       	ldi	r24, 0x24	; 36
    1652:	0e 94 d6 07 	call	0xfac	; 0xfac <turn_on>
    1656:	e1 ed       	ldi	r30, 0xD1	; 209
    1658:	f5 e0       	ldi	r31, 0x05	; 5
    165a:	80 81       	ld	r24, Z
    165c:	8b 7f       	andi	r24, 0xFB	; 251
    165e:	80 83       	st	Z, r24
    1660:	8e e2       	ldi	r24, 0x2E	; 46
    1662:	0e 94 d6 07 	call	0xfac	; 0xfac <turn_on>
    1666:	f5 01       	movw	r30, r10
    1668:	d0 82       	st	Z, r13
    166a:	d1 82       	std	Z+1, r13	; 0x01
    166c:	f8 01       	movw	r30, r16
    166e:	81 81       	ldd	r24, Z+1	; 0x01
    1670:	8d 7f       	andi	r24, 0xFD	; 253
    1672:	8b 7f       	andi	r24, 0xFB	; 251
    1674:	81 83       	std	Z+1, r24	; 0x01
    1676:	8a e2       	ldi	r24, 0x2A	; 42
    1678:	0e 94 d6 07 	call	0xfac	; 0xfac <turn_on>
    167c:	87 e2       	ldi	r24, 0x27	; 39
    167e:	0e 94 d6 07 	call	0xfac	; 0xfac <turn_on>
    1682:	f8 01       	movw	r30, r16
    1684:	82 81       	ldd	r24, Z+2	; 0x02
    1686:	8f 71       	andi	r24, 0x1F	; 31
    1688:	80 68       	ori	r24, 0x80	; 128
    168a:	82 83       	std	Z+2, r24	; 0x02
    168c:	83 81       	ldd	r24, Z+3	; 0x03
    168e:	81 60       	ori	r24, 0x01	; 1
    1690:	83 83       	std	Z+3, r24	; 0x03
    1692:	88 81       	ld	r24, Y
    1694:	80 7f       	andi	r24, 0xF0	; 240
    1696:	88 83       	st	Y, r24
    1698:	e8 e8       	ldi	r30, 0x88	; 136
    169a:	f5 e0       	ldi	r31, 0x05	; 5
    169c:	80 81       	ld	r24, Z
    169e:	80 7f       	andi	r24, 0xF0	; 240
    16a0:	80 83       	st	Z, r24
    16a2:	8a 81       	ldd	r24, Y+2	; 0x02
    16a4:	8f 73       	andi	r24, 0x3F	; 63
    16a6:	8a 83       	std	Y+2, r24	; 0x02
    16a8:	8b 81       	ldd	r24, Y+3	; 0x03
    16aa:	8e 7f       	andi	r24, 0xFE	; 254
    16ac:	8b 83       	std	Y+3, r24	; 0x03
    16ae:	0e 94 4a 01 	call	0x294	; 0x294 <eeprom_init>
    16b2:	78 94       	sei
    16b4:	60 e0       	ldi	r22, 0x00	; 0
    16b6:	80 e0       	ldi	r24, 0x00	; 0
    16b8:	0e 94 ab 10 	call	0x2156	; 0x2156 <read_next_pattern>
    16bc:	89 81       	ldd	r24, Y+1	; 0x01
    16be:	81 78       	andi	r24, 0x81	; 129
    16c0:	80 62       	ori	r24, 0x20	; 32
    16c2:	89 83       	std	Y+1, r24	; 0x01
    16c4:	85 ee       	ldi	r24, 0xE5	; 229
    16c6:	f7 01       	movw	r30, r14
    16c8:	80 83       	st	Z, r24
    16ca:	81 81       	ldd	r24, Z+1	; 0x01
    16cc:	8c 7f       	andi	r24, 0xFC	; 252
    16ce:	81 60       	ori	r24, 0x01	; 1
    16d0:	81 83       	std	Z+1, r24	; 0x01
    16d2:	87 e0       	ldi	r24, 0x07	; 7
    16d4:	93 e0       	ldi	r25, 0x03	; 3
    16d6:	0e 94 82 26 	call	0x4d04	; 0x4d04 <midi_device_process>
    16da:	0e 94 7b 0a 	call	0x14f6	; 0x14f6 <refresh>
    16de:	f9 cf       	rjmp	.-14     	; 0x16d2 <main+0x17e>

000016e0 <midi_send>:
    16e0:	0f 93       	push	r16
    16e2:	1f 93       	push	r17
    16e4:	cf 93       	push	r28
    16e6:	df 93       	push	r29
    16e8:	eb 01       	movw	r28, r22
    16ea:	12 2f       	mov	r17, r18
    16ec:	64 2f       	mov	r22, r20
    16ee:	84 eb       	ldi	r24, 0xB4	; 180
    16f0:	94 e0       	ldi	r25, 0x04	; 4
    16f2:	0e 94 69 23 	call	0x46d2	; 0x46d2 <bytequeue_enqueue>
    16f6:	c2 30       	cpi	r28, 0x02	; 2
    16f8:	d1 05       	cpc	r29, r1
    16fa:	28 f0       	brcs	.+10     	; 0x1706 <midi_send+0x26>
    16fc:	61 2f       	mov	r22, r17
    16fe:	84 eb       	ldi	r24, 0xB4	; 180
    1700:	94 e0       	ldi	r25, 0x04	; 4
    1702:	0e 94 69 23 	call	0x46d2	; 0x46d2 <bytequeue_enqueue>
    1706:	23 97       	sbiw	r28, 0x03	; 3
    1708:	29 f4       	brne	.+10     	; 0x1714 <midi_send+0x34>
    170a:	60 2f       	mov	r22, r16
    170c:	84 eb       	ldi	r24, 0xB4	; 180
    170e:	94 e0       	ldi	r25, 0x04	; 4
    1710:	0e 94 69 23 	call	0x46d2	; 0x46d2 <bytequeue_enqueue>
    1714:	e1 ec       	ldi	r30, 0xC1	; 193
    1716:	f0 e0       	ldi	r31, 0x00	; 0
    1718:	80 81       	ld	r24, Z
    171a:	80 62       	ori	r24, 0x20	; 32
    171c:	80 83       	st	Z, r24
    171e:	df 91       	pop	r29
    1720:	cf 91       	pop	r28
    1722:	1f 91       	pop	r17
    1724:	0f 91       	pop	r16
    1726:	08 95       	ret

00001728 <setup_midi_usart>:
    1728:	8f e1       	ldi	r24, 0x1F	; 31
    172a:	80 93 c4 00 	sts	0x00C4, r24
    172e:	10 92 c5 00 	sts	0x00C5, r1
    1732:	88 e9       	ldi	r24, 0x98	; 152
    1734:	80 93 c1 00 	sts	0x00C1, r24
    1738:	51 9a       	sbi	0x0a, 1	; 10
    173a:	40 ec       	ldi	r20, 0xC0	; 192
    173c:	64 ef       	ldi	r22, 0xF4	; 244
    173e:	73 e0       	ldi	r23, 0x03	; 3
    1740:	84 eb       	ldi	r24, 0xB4	; 180
    1742:	94 e0       	ldi	r25, 0x04	; 4
    1744:	0e 94 62 23 	call	0x46c4	; 0x46c4 <bytequeue_init>
    1748:	60 e7       	ldi	r22, 0x70	; 112
    174a:	7b e0       	ldi	r23, 0x0B	; 11
    174c:	87 e0       	ldi	r24, 0x07	; 7
    174e:	93 e0       	ldi	r25, 0x03	; 3
    1750:	0e 94 a7 24 	call	0x494e	; 0x494e <midi_device_set_send_func>
    1754:	08 95       	ret

00001756 <note_on_event>:
    1756:	e0 91 de 05 	lds	r30, 0x05DE
    175a:	e6 95       	lsr	r30
    175c:	e6 95       	lsr	r30
    175e:	ef 70       	andi	r30, 0x0F	; 15
    1760:	f0 e0       	ldi	r31, 0x00	; 0
    1762:	6f 70       	andi	r22, 0x0F	; 15
    1764:	70 e0       	ldi	r23, 0x00	; 0
    1766:	e6 17       	cp	r30, r22
    1768:	f7 07       	cpc	r31, r23
    176a:	71 f4       	brne	.+28     	; 0x1788 <note_on_event+0x32>
    176c:	80 91 fb 04 	lds	r24, 0x04FB
    1770:	81 11       	cpse	r24, r1
    1772:	0a c0       	rjmp	.+20     	; 0x1788 <note_on_event+0x32>
    1774:	80 91 fc 04 	lds	r24, 0x04FC
    1778:	85 fd       	sbrc	r24, 5
    177a:	06 c0       	rjmp	.+12     	; 0x1788 <note_on_event+0x32>
    177c:	40 31       	cpi	r20, 0x10	; 16
    177e:	20 f4       	brcc	.+8      	; 0x1788 <note_on_event+0x32>
    1780:	62 2f       	mov	r22, r18
    1782:	84 2f       	mov	r24, r20
    1784:	0e 94 06 03 	call	0x60c	; 0x60c <trigger_drum>
    1788:	08 95       	ret

0000178a <note_off_event>:
    178a:	08 95       	ret

0000178c <real_time_event>:
    178c:	80 91 06 03 	lds	r24, 0x0306
    1790:	88 23       	and	r24, r24
    1792:	c1 f0       	breq	.+48     	; 0x17c4 <real_time_event+0x38>
    1794:	6a 3f       	cpi	r22, 0xFA	; 250
    1796:	39 f0       	breq	.+14     	; 0x17a6 <real_time_event+0x1a>
    1798:	6c 3f       	cpi	r22, 0xFC	; 252
    179a:	69 f0       	breq	.+26     	; 0x17b6 <real_time_event+0x2a>
    179c:	68 3f       	cpi	r22, 0xF8	; 248
    179e:	91 f4       	brne	.+36     	; 0x17c4 <real_time_event+0x38>
    17a0:	0e 94 a6 02 	call	0x54c	; 0x54c <process_external_clock_event>
    17a4:	08 95       	ret
    17a6:	ec ef       	ldi	r30, 0xFC	; 252
    17a8:	f4 e0       	ldi	r31, 0x04	; 4
    17aa:	80 81       	ld	r24, Z
    17ac:	80 62       	ori	r24, 0x20	; 32
    17ae:	80 83       	st	Z, r24
    17b0:	0e 94 fe 0e 	call	0x1dfc	; 0x1dfc <process_start>
    17b4:	08 95       	ret
    17b6:	ec ef       	ldi	r30, 0xFC	; 252
    17b8:	f4 e0       	ldi	r31, 0x04	; 4
    17ba:	80 81       	ld	r24, Z
    17bc:	8f 7d       	andi	r24, 0xDF	; 223
    17be:	80 83       	st	Z, r24
    17c0:	0e 94 98 0f 	call	0x1f30	; 0x1f30 <process_stop>
    17c4:	08 95       	ret

000017c6 <update_mode>:
    17c6:	cf 93       	push	r28
    17c8:	df 93       	push	r29
    17ca:	00 d0       	rcall	.+0      	; 0x17cc <update_mode+0x6>
    17cc:	00 d0       	rcall	.+0      	; 0x17ce <update_mode+0x8>
    17ce:	00 d0       	rcall	.+0      	; 0x17d0 <update_mode+0xa>
    17d0:	cd b7       	in	r28, 0x3d	; 61
    17d2:	de b7       	in	r29, 0x3e	; 62
    17d4:	86 e0       	ldi	r24, 0x06	; 6
    17d6:	e3 e2       	ldi	r30, 0x23	; 35
    17d8:	f2 e0       	ldi	r31, 0x02	; 2
    17da:	de 01       	movw	r26, r28
    17dc:	11 96       	adiw	r26, 0x01	; 1
    17de:	01 90       	ld	r0, Z+
    17e0:	0d 92       	st	X+, r0
    17e2:	8a 95       	dec	r24
    17e4:	e1 f7       	brne	.-8      	; 0x17de <update_mode+0x18>
    17e6:	80 91 16 02 	lds	r24, 0x0216
    17ea:	86 ff       	sbrs	r24, 6
    17ec:	aa c0       	rjmp	.+340    	; 0x1942 <update_mode+0x17c>
    17ee:	e6 e1       	ldi	r30, 0x16	; 22
    17f0:	f2 e0       	ldi	r31, 0x02	; 2
    17f2:	8f 7b       	andi	r24, 0xBF	; 191
    17f4:	80 83       	st	Z, r24
    17f6:	80 91 fc 04 	lds	r24, 0x04FC
    17fa:	84 ff       	sbrs	r24, 4
    17fc:	0c c0       	rjmp	.+24     	; 0x1816 <update_mode+0x50>
    17fe:	80 91 f1 01 	lds	r24, 0x01F1
    1802:	88 23       	and	r24, r24
    1804:	21 f0       	breq	.+8      	; 0x180e <update_mode+0x48>
    1806:	81 50       	subi	r24, 0x01	; 1
    1808:	80 93 f1 01 	sts	0x01F1, r24
    180c:	0e c0       	rjmp	.+28     	; 0x182a <update_mode+0x64>
    180e:	85 e0       	ldi	r24, 0x05	; 5
    1810:	80 93 f1 01 	sts	0x01F1, r24
    1814:	0a c0       	rjmp	.+20     	; 0x182a <update_mode+0x64>
    1816:	80 91 f1 01 	lds	r24, 0x01F1
    181a:	8f 5f       	subi	r24, 0xFF	; 255
    181c:	86 30       	cpi	r24, 0x06	; 6
    181e:	19 f0       	breq	.+6      	; 0x1826 <update_mode+0x60>
    1820:	80 93 f1 01 	sts	0x01F1, r24
    1824:	02 c0       	rjmp	.+4      	; 0x182a <update_mode+0x64>
    1826:	10 92 f1 01 	sts	0x01F1, r1
    182a:	30 91 f1 01 	lds	r19, 0x01F1
    182e:	fe 01       	movw	r30, r28
    1830:	e3 0f       	add	r30, r19
    1832:	f1 1d       	adc	r31, r1
    1834:	21 81       	ldd	r18, Z+1	; 0x01
    1836:	20 93 fa 04 	sts	0x04FA, r18
    183a:	e1 e4       	ldi	r30, 0x41	; 65
    183c:	f2 e0       	ldi	r31, 0x02	; 2
    183e:	81 e0       	ldi	r24, 0x01	; 1
    1840:	90 e0       	ldi	r25, 0x00	; 0
    1842:	02 c0       	rjmp	.+4      	; 0x1848 <update_mode+0x82>
    1844:	88 0f       	add	r24, r24
    1846:	99 1f       	adc	r25, r25
    1848:	3a 95       	dec	r19
    184a:	e2 f7       	brpl	.-8      	; 0x1844 <update_mode+0x7e>
    184c:	94 81       	ldd	r25, Z+4	; 0x04
    184e:	90 7c       	andi	r25, 0xC0	; 192
    1850:	89 2b       	or	r24, r25
    1852:	84 83       	std	Z+4, r24	; 0x04
    1854:	8f ef       	ldi	r24, 0xFF	; 255
    1856:	82 0f       	add	r24, r18
    1858:	82 30       	cpi	r24, 0x02	; 2
    185a:	e8 f4       	brcc	.+58     	; 0x1896 <update_mode+0xd0>
    185c:	e1 e0       	ldi	r30, 0x01	; 1
    185e:	21 30       	cpi	r18, 0x01	; 1
    1860:	09 f4       	brne	.+2      	; 0x1864 <update_mode+0x9e>
    1862:	e0 e0       	ldi	r30, 0x00	; 0
    1864:	a5 ed       	ldi	r26, 0xD5	; 213
    1866:	b5 e0       	ldi	r27, 0x05	; 5
    1868:	11 96       	adiw	r26, 0x01	; 1
    186a:	8c 91       	ld	r24, X
    186c:	11 97       	sbiw	r26, 0x01	; 1
    186e:	e0 fb       	bst	r30, 0
    1870:	82 f9       	bld	r24, 2
    1872:	11 96       	adiw	r26, 0x01	; 1
    1874:	8c 93       	st	X, r24
    1876:	11 97       	sbiw	r26, 0x01	; 1
    1878:	f0 e0       	ldi	r31, 0x00	; 0
    187a:	e6 50       	subi	r30, 0x06	; 6
    187c:	fb 4f       	sbci	r31, 0xFB	; 251
    187e:	e7 52       	subi	r30, 0x27	; 39
    1880:	ff 4f       	sbci	r31, 0xFF	; 255
    1882:	80 81       	ld	r24, Z
    1884:	98 2f       	mov	r25, r24
    1886:	9f 71       	andi	r25, 0x1F	; 31
    1888:	8c 91       	ld	r24, X
    188a:	80 7e       	andi	r24, 0xE0	; 224
    188c:	89 2b       	or	r24, r25
    188e:	8c 93       	st	X, r24
    1890:	0e 94 ec 08 	call	0x11d8	; 0x11d8 <update_inst_led_mask>
    1894:	56 c0       	rjmp	.+172    	; 0x1942 <update_mode+0x17c>
    1896:	23 30       	cpi	r18, 0x03	; 3
    1898:	e9 f4       	brne	.+58     	; 0x18d4 <update_mode+0x10e>
    189a:	80 91 d6 05 	lds	r24, 0x05D6
    189e:	98 2f       	mov	r25, r24
    18a0:	92 95       	swap	r25
    18a2:	96 95       	lsr	r25
    18a4:	97 70       	andi	r25, 0x07	; 7
    18a6:	80 91 d7 05 	lds	r24, 0x05D7
    18aa:	81 70       	andi	r24, 0x01	; 1
    18ac:	88 0f       	add	r24, r24
    18ae:	88 0f       	add	r24, r24
    18b0:	88 0f       	add	r24, r24
    18b2:	89 2b       	or	r24, r25
    18b4:	90 e0       	ldi	r25, 0x00	; 0
    18b6:	0c 97       	sbiw	r24, 0x0c	; 12
    18b8:	0c f4       	brge	.+2      	; 0x18bc <update_mode+0xf6>
    18ba:	43 c0       	rjmp	.+134    	; 0x1942 <update_mode+0x17c>
    18bc:	e5 ed       	ldi	r30, 0xD5	; 213
    18be:	f5 e0       	ldi	r31, 0x05	; 5
    18c0:	82 81       	ldd	r24, Z+2	; 0x02
    18c2:	81 7e       	andi	r24, 0xE1	; 225
    18c4:	86 61       	ori	r24, 0x16	; 22
    18c6:	82 83       	std	Z+2, r24	; 0x02
    18c8:	e1 ee       	ldi	r30, 0xE1	; 225
    18ca:	f2 e0       	ldi	r31, 0x02	; 2
    18cc:	80 81       	ld	r24, Z
    18ce:	80 62       	ori	r24, 0x20	; 32
    18d0:	80 83       	st	Z, r24
    18d2:	37 c0       	rjmp	.+110    	; 0x1942 <update_mode+0x17c>
    18d4:	24 30       	cpi	r18, 0x04	; 4
    18d6:	a9 f5       	brne	.+106    	; 0x1942 <update_mode+0x17c>
    18d8:	0e 94 4c 1b 	call	0x3698	; 0x3698 <read_rhythm_track>
    18dc:	e5 ed       	ldi	r30, 0xD5	; 213
    18de:	f5 e0       	ldi	r31, 0x05	; 5
    18e0:	83 81       	ldd	r24, Z+3	; 0x03
    18e2:	8f 77       	andi	r24, 0x7F	; 127
    18e4:	83 83       	std	Z+3, r24	; 0x03
    18e6:	84 81       	ldd	r24, Z+4	; 0x04
    18e8:	80 7c       	andi	r24, 0xC0	; 192
    18ea:	84 83       	std	Z+4, r24	; 0x04
    18ec:	60 91 b9 04 	lds	r22, 0x04B9
    18f0:	86 2f       	mov	r24, r22
    18f2:	8f 70       	andi	r24, 0x0F	; 15
    18f4:	38 2f       	mov	r19, r24
    18f6:	33 0f       	add	r19, r19
    18f8:	92 81       	ldd	r25, Z+2	; 0x02
    18fa:	90 7e       	andi	r25, 0xE0	; 224
    18fc:	46 2f       	mov	r20, r22
    18fe:	42 95       	swap	r20
    1900:	44 0f       	add	r20, r20
    1902:	40 7e       	andi	r20, 0xE0	; 224
    1904:	21 81       	ldd	r18, Z+1	; 0x01
    1906:	2f 71       	andi	r18, 0x1F	; 31
    1908:	24 2b       	or	r18, r20
    190a:	21 83       	std	Z+1, r18	; 0x01
    190c:	28 2f       	mov	r18, r24
    190e:	26 95       	lsr	r18
    1910:	26 95       	lsr	r18
    1912:	26 95       	lsr	r18
    1914:	93 2b       	or	r25, r19
    1916:	92 2b       	or	r25, r18
    1918:	92 83       	std	Z+2, r25	; 0x02
    191a:	62 95       	swap	r22
    191c:	6f 70       	andi	r22, 0x0F	; 15
    191e:	e8 e8       	ldi	r30, 0x88	; 136
    1920:	f5 e0       	ldi	r31, 0x05	; 5
    1922:	90 81       	ld	r25, Z
    1924:	90 7f       	andi	r25, 0xF0	; 240
    1926:	96 2b       	or	r25, r22
    1928:	90 83       	st	Z, r25
    192a:	90 91 fc 04 	lds	r25, 0x04FC
    192e:	95 ff       	sbrs	r25, 5
    1930:	06 c0       	rjmp	.+12     	; 0x193e <update_mode+0x178>
    1932:	e1 ee       	ldi	r30, 0xE1	; 225
    1934:	f2 e0       	ldi	r31, 0x02	; 2
    1936:	80 81       	ld	r24, Z
    1938:	80 62       	ori	r24, 0x20	; 32
    193a:	80 83       	st	Z, r24
    193c:	02 c0       	rjmp	.+4      	; 0x1942 <update_mode+0x17c>
    193e:	0e 94 ab 10 	call	0x2156	; 0x2156 <read_next_pattern>
    1942:	26 96       	adiw	r28, 0x06	; 6
    1944:	0f b6       	in	r0, 0x3f	; 63
    1946:	f8 94       	cli
    1948:	de bf       	out	0x3e, r29	; 62
    194a:	0f be       	out	0x3f, r0	; 63
    194c:	cd bf       	out	0x3d, r28	; 61
    194e:	df 91       	pop	r29
    1950:	cf 91       	pop	r28
    1952:	08 95       	ret

00001954 <update_fill_mode>:
    1954:	cf 93       	push	r28
    1956:	df 93       	push	r29
    1958:	cd b7       	in	r28, 0x3d	; 61
    195a:	de b7       	in	r29, 0x3e	; 62
    195c:	2a 97       	sbiw	r28, 0x0a	; 10
    195e:	0f b6       	in	r0, 0x3f	; 63
    1960:	f8 94       	cli
    1962:	de bf       	out	0x3e, r29	; 62
    1964:	0f be       	out	0x3f, r0	; 63
    1966:	cd bf       	out	0x3d, r28	; 61
    1968:	86 e0       	ldi	r24, 0x06	; 6
    196a:	e9 e2       	ldi	r30, 0x29	; 41
    196c:	f2 e0       	ldi	r31, 0x02	; 2
    196e:	de 01       	movw	r26, r28
    1970:	11 96       	adiw	r26, 0x01	; 1
    1972:	01 90       	ld	r0, Z+
    1974:	0d 92       	st	X+, r0
    1976:	8a 95       	dec	r24
    1978:	e1 f7       	brne	.-8      	; 0x1972 <update_fill_mode+0x1e>
    197a:	81 e0       	ldi	r24, 0x01	; 1
    197c:	8f 83       	std	Y+7, r24	; 0x07
    197e:	18 86       	std	Y+8, r1	; 0x08
    1980:	83 e0       	ldi	r24, 0x03	; 3
    1982:	89 87       	std	Y+9, r24	; 0x09
    1984:	82 e0       	ldi	r24, 0x02	; 2
    1986:	8a 87       	std	Y+10, r24	; 0x0a
    1988:	e1 e4       	ldi	r30, 0x41	; 65
    198a:	f2 e0       	ldi	r31, 0x02	; 2
    198c:	24 81       	ldd	r18, Z+4	; 0x04
    198e:	2f 73       	andi	r18, 0x3F	; 63
    1990:	24 83       	std	Z+4, r18	; 0x04
    1992:	82 81       	ldd	r24, Z+2	; 0x02
    1994:	80 7f       	andi	r24, 0xF0	; 240
    1996:	82 83       	std	Z+2, r24	; 0x02
    1998:	90 91 fc 04 	lds	r25, 0x04FC
    199c:	94 ff       	sbrs	r25, 4
    199e:	74 c0       	rjmp	.+232    	; 0x1a88 <update_fill_mode+0x134>
    19a0:	80 91 17 02 	lds	r24, 0x0217
    19a4:	86 ff       	sbrs	r24, 6
    19a6:	61 c0       	rjmp	.+194    	; 0x1a6a <update_fill_mode+0x116>
    19a8:	e7 e1       	ldi	r30, 0x17	; 23
    19aa:	f2 e0       	ldi	r31, 0x02	; 2
    19ac:	8f 7b       	andi	r24, 0xBF	; 191
    19ae:	80 83       	st	Z, r24
    19b0:	80 91 31 02 	lds	r24, 0x0231
    19b4:	8f 5f       	subi	r24, 0xFF	; 255
    19b6:	84 30       	cpi	r24, 0x04	; 4
    19b8:	19 f0       	breq	.+6      	; 0x19c0 <update_fill_mode+0x6c>
    19ba:	80 93 31 02 	sts	0x0231, r24
    19be:	02 c0       	rjmp	.+4      	; 0x19c4 <update_fill_mode+0x70>
    19c0:	10 92 31 02 	sts	0x0231, r1
    19c4:	80 91 31 02 	lds	r24, 0x0231
    19c8:	fe 01       	movw	r30, r28
    19ca:	e8 0f       	add	r30, r24
    19cc:	f1 1d       	adc	r31, r1
    19ce:	87 81       	ldd	r24, Z+7	; 0x07
    19d0:	80 93 fb 04 	sts	0x04FB, r24
    19d4:	10 92 b1 00 	sts	0x00B1, r1
    19d8:	1d ba       	out	0x1d, r1	; 29
    19da:	10 92 68 00 	sts	0x0068, r1
    19de:	81 30       	cpi	r24, 0x01	; 1
    19e0:	31 f0       	breq	.+12     	; 0x19ee <update_fill_mode+0x9a>
    19e2:	78 f0       	brcs	.+30     	; 0x1a02 <update_fill_mode+0xae>
    19e4:	82 30       	cpi	r24, 0x02	; 2
    19e6:	71 f1       	breq	.+92     	; 0x1a44 <update_fill_mode+0xf0>
    19e8:	83 30       	cpi	r24, 0x03	; 3
    19ea:	a1 f0       	breq	.+40     	; 0x1a14 <update_fill_mode+0xc0>
    19ec:	3e c0       	rjmp	.+124    	; 0x1a6a <update_fill_mode+0x116>
    19ee:	10 92 06 03 	sts	0x0306, r1
    19f2:	e1 e8       	ldi	r30, 0x81	; 129
    19f4:	f0 e0       	ldi	r31, 0x00	; 0
    19f6:	80 81       	ld	r24, Z
    19f8:	84 60       	ori	r24, 0x04	; 4
    19fa:	80 83       	st	Z, r24
    19fc:	42 98       	cbi	0x08, 2	; 8
    19fe:	72 98       	cbi	0x0e, 2	; 14
    1a00:	34 c0       	rjmp	.+104    	; 0x1a6a <update_fill_mode+0x116>
    1a02:	81 e0       	ldi	r24, 0x01	; 1
    1a04:	80 93 06 03 	sts	0x0306, r24
    1a08:	10 92 95 00 	sts	0x0095, r1
    1a0c:	10 92 94 00 	sts	0x0094, r1
    1a10:	72 9a       	sbi	0x0e, 2	; 14
    1a12:	2b c0       	rjmp	.+86     	; 0x1a6a <update_fill_mode+0x116>
    1a14:	10 92 06 03 	sts	0x0306, r1
    1a18:	e1 e8       	ldi	r30, 0x81	; 129
    1a1a:	f0 e0       	ldi	r31, 0x00	; 0
    1a1c:	80 81       	ld	r24, Z
    1a1e:	84 60       	ori	r24, 0x04	; 4
    1a20:	80 83       	st	Z, r24
    1a22:	5a 9a       	sbi	0x0b, 2	; 11
    1a24:	8a b1       	in	r24, 0x0a	; 10
    1a26:	88 6d       	ori	r24, 0xD8	; 216
    1a28:	8a b9       	out	0x0a, r24	; 10
    1a2a:	e0 eb       	ldi	r30, 0xB0	; 176
    1a2c:	f0 e0       	ldi	r31, 0x00	; 0
    1a2e:	80 81       	ld	r24, Z
    1a30:	82 60       	ori	r24, 0x02	; 2
    1a32:	80 83       	st	Z, r24
    1a34:	e1 eb       	ldi	r30, 0xB1	; 177
    1a36:	f0 e0       	ldi	r31, 0x00	; 0
    1a38:	80 81       	ld	r24, Z
    1a3a:	87 60       	ori	r24, 0x07	; 7
    1a3c:	80 83       	st	Z, r24
    1a3e:	10 92 b2 00 	sts	0x00B2, r1
    1a42:	13 c0       	rjmp	.+38     	; 0x1a6a <update_fill_mode+0x116>
    1a44:	81 e0       	ldi	r24, 0x01	; 1
    1a46:	80 93 06 03 	sts	0x0306, r24
    1a4a:	10 92 95 00 	sts	0x0095, r1
    1a4e:	10 92 94 00 	sts	0x0094, r1
    1a52:	72 98       	cbi	0x0e, 2	; 14
    1a54:	8a b1       	in	r24, 0x0a	; 10
    1a56:	87 72       	andi	r24, 0x27	; 39
    1a58:	8a b9       	out	0x0a, r24	; 10
    1a5a:	8d b3       	in	r24, 0x1d	; 29
    1a5c:	83 60       	ori	r24, 0x03	; 3
    1a5e:	8d bb       	out	0x1d, r24	; 29
    1a60:	e8 e6       	ldi	r30, 0x68	; 104
    1a62:	f0 e0       	ldi	r31, 0x00	; 0
    1a64:	80 81       	ld	r24, Z
    1a66:	84 60       	ori	r24, 0x04	; 4
    1a68:	80 83       	st	Z, r24
    1a6a:	e1 e4       	ldi	r30, 0x41	; 65
    1a6c:	f2 e0       	ldi	r31, 0x02	; 2
    1a6e:	81 e0       	ldi	r24, 0x01	; 1
    1a70:	90 e0       	ldi	r25, 0x00	; 0
    1a72:	00 90 31 02 	lds	r0, 0x0231
    1a76:	02 c0       	rjmp	.+4      	; 0x1a7c <update_fill_mode+0x128>
    1a78:	88 0f       	add	r24, r24
    1a7a:	99 1f       	adc	r25, r25
    1a7c:	0a 94       	dec	r0
    1a7e:	e2 f7       	brpl	.-8      	; 0x1a78 <update_fill_mode+0x124>
    1a80:	92 81       	ldd	r25, Z+2	; 0x02
    1a82:	89 2b       	or	r24, r25
    1a84:	82 83       	std	Z+2, r24	; 0x02
    1a86:	42 c0       	rjmp	.+132    	; 0x1b0c <update_fill_mode+0x1b8>
    1a88:	90 91 17 02 	lds	r25, 0x0217
    1a8c:	96 ff       	sbrs	r25, 6
    1a8e:	22 c0       	rjmp	.+68     	; 0x1ad4 <update_fill_mode+0x180>
    1a90:	e7 e1       	ldi	r30, 0x17	; 23
    1a92:	f2 e0       	ldi	r31, 0x02	; 2
    1a94:	9f 7b       	andi	r25, 0xBF	; 191
    1a96:	90 83       	st	Z, r25
    1a98:	90 91 32 02 	lds	r25, 0x0232
    1a9c:	9f 5f       	subi	r25, 0xFF	; 255
    1a9e:	96 30       	cpi	r25, 0x06	; 6
    1aa0:	19 f0       	breq	.+6      	; 0x1aa8 <update_fill_mode+0x154>
    1aa2:	90 93 32 02 	sts	0x0232, r25
    1aa6:	02 c0       	rjmp	.+4      	; 0x1aac <update_fill_mode+0x158>
    1aa8:	10 92 32 02 	sts	0x0232, r1
    1aac:	90 91 32 02 	lds	r25, 0x0232
    1ab0:	de 01       	movw	r26, r28
    1ab2:	a9 0f       	add	r26, r25
    1ab4:	b1 1d       	adc	r27, r1
    1ab6:	ec ef       	ldi	r30, 0xFC	; 252
    1ab8:	f4 e0       	ldi	r31, 0x04	; 4
    1aba:	11 96       	adiw	r26, 0x01	; 1
    1abc:	9c 91       	ld	r25, X
    1abe:	39 2f       	mov	r19, r25
    1ac0:	3f 70       	andi	r19, 0x0F	; 15
    1ac2:	90 81       	ld	r25, Z
    1ac4:	90 7f       	andi	r25, 0xF0	; 240
    1ac6:	93 2b       	or	r25, r19
    1ac8:	90 83       	st	Z, r25
    1aca:	e5 ed       	ldi	r30, 0xD5	; 213
    1acc:	f5 e0       	ldi	r31, 0x05	; 5
    1ace:	93 81       	ldd	r25, Z+3	; 0x03
    1ad0:	91 78       	andi	r25, 0x81	; 129
    1ad2:	93 83       	std	Z+3, r25	; 0x03
    1ad4:	90 91 32 02 	lds	r25, 0x0232
    1ad8:	92 30       	cpi	r25, 0x02	; 2
    1ada:	68 f4       	brcc	.+26     	; 0x1af6 <update_fill_mode+0x1a2>
    1adc:	9a 5f       	subi	r25, 0xFA	; 250
    1ade:	41 e0       	ldi	r20, 0x01	; 1
    1ae0:	50 e0       	ldi	r21, 0x00	; 0
    1ae2:	ba 01       	movw	r22, r20
    1ae4:	02 c0       	rjmp	.+4      	; 0x1aea <update_fill_mode+0x196>
    1ae6:	66 0f       	add	r22, r22
    1ae8:	77 1f       	adc	r23, r23
    1aea:	9a 95       	dec	r25
    1aec:	e2 f7       	brpl	.-8      	; 0x1ae6 <update_fill_mode+0x192>
    1aee:	26 2b       	or	r18, r22
    1af0:	20 93 45 02 	sts	0x0245, r18
    1af4:	0b c0       	rjmp	.+22     	; 0x1b0c <update_fill_mode+0x1b8>
    1af6:	92 50       	subi	r25, 0x02	; 2
    1af8:	21 e0       	ldi	r18, 0x01	; 1
    1afa:	30 e0       	ldi	r19, 0x00	; 0
    1afc:	02 c0       	rjmp	.+4      	; 0x1b02 <update_fill_mode+0x1ae>
    1afe:	22 0f       	add	r18, r18
    1b00:	33 1f       	adc	r19, r19
    1b02:	9a 95       	dec	r25
    1b04:	e2 f7       	brpl	.-8      	; 0x1afe <update_fill_mode+0x1aa>
    1b06:	82 2b       	or	r24, r18
    1b08:	80 93 43 02 	sts	0x0243, r24
    1b0c:	2a 96       	adiw	r28, 0x0a	; 10
    1b0e:	0f b6       	in	r0, 0x3f	; 63
    1b10:	f8 94       	cli
    1b12:	de bf       	out	0x3e, r29	; 62
    1b14:	0f be       	out	0x3f, r0	; 63
    1b16:	cd bf       	out	0x3d, r28	; 61
    1b18:	df 91       	pop	r29
    1b1a:	cf 91       	pop	r28
    1b1c:	08 95       	ret

00001b1e <update_tempo>:
    1b1e:	cf 93       	push	r28
    1b20:	df 93       	push	r29
    1b22:	0e 94 74 02 	call	0x4e8	; 0x4e8 <read_tempo_pot>
    1b26:	90 93 36 02 	sts	0x0236, r25
    1b2a:	80 93 35 02 	sts	0x0235, r24
    1b2e:	20 91 33 02 	lds	r18, 0x0233
    1b32:	30 91 34 02 	lds	r19, 0x0234
    1b36:	82 1b       	sub	r24, r18
    1b38:	93 0b       	sbc	r25, r19
    1b3a:	95 95       	asr	r25
    1b3c:	87 95       	ror	r24
    1b3e:	95 95       	asr	r25
    1b40:	87 95       	ror	r24
    1b42:	82 0f       	add	r24, r18
    1b44:	93 1f       	adc	r25, r19
    1b46:	90 93 34 02 	sts	0x0234, r25
    1b4a:	80 93 33 02 	sts	0x0233, r24
    1b4e:	2b e8       	ldi	r18, 0x8B	; 139
    1b50:	34 e0       	ldi	r19, 0x04	; 4
    1b52:	a9 01       	movw	r20, r18
    1b54:	48 1b       	sub	r20, r24
    1b56:	59 0b       	sbc	r21, r25
    1b58:	cb ef       	ldi	r28, 0xFB	; 251
    1b5a:	d2 e0       	ldi	r29, 0x02	; 2
    1b5c:	5d 83       	std	Y+5, r21	; 0x05
    1b5e:	4c 83       	std	Y+4, r20	; 0x04
    1b60:	8c 81       	ldd	r24, Y+4	; 0x04
    1b62:	9d 81       	ldd	r25, Y+5	; 0x05
    1b64:	0e 94 95 02 	call	0x52a	; 0x52a <update_clock_rate>
    1b68:	8c 81       	ldd	r24, Y+4	; 0x04
    1b6a:	9d 81       	ldd	r25, Y+5	; 0x05
    1b6c:	9f 83       	std	Y+7, r25	; 0x07
    1b6e:	8e 83       	std	Y+6, r24	; 0x06
    1b70:	df 91       	pop	r29
    1b72:	cf 91       	pop	r28
    1b74:	08 95       	ret

00001b76 <show_current_measure>:
    1b76:	80 91 d8 05 	lds	r24, 0x05D8
    1b7a:	98 2f       	mov	r25, r24
    1b7c:	99 1f       	adc	r25, r25
    1b7e:	99 27       	eor	r25, r25
    1b80:	99 1f       	adc	r25, r25
    1b82:	80 91 d9 05 	lds	r24, 0x05D9
    1b86:	8f 73       	andi	r24, 0x3F	; 63
    1b88:	88 0f       	add	r24, r24
    1b8a:	89 2b       	or	r24, r25
    1b8c:	28 2f       	mov	r18, r24
    1b8e:	30 e0       	ldi	r19, 0x00	; 0
    1b90:	20 31       	cpi	r18, 0x10	; 16
    1b92:	31 05       	cpc	r19, r1
    1b94:	1c f4       	brge	.+6      	; 0x1b9c <show_current_measure+0x26>
    1b96:	0e 94 d6 07 	call	0xfac	; 0xfac <turn_on>
    1b9a:	08 95       	ret
    1b9c:	20 32       	cpi	r18, 0x20	; 32
    1b9e:	31 05       	cpc	r19, r1
    1ba0:	24 f4       	brge	.+8      	; 0x1baa <show_current_measure+0x34>
    1ba2:	80 51       	subi	r24, 0x10	; 16
    1ba4:	0e 94 d6 07 	call	0xfac	; 0xfac <turn_on>
    1ba8:	08 95       	ret
    1baa:	20 33       	cpi	r18, 0x30	; 48
    1bac:	31 05       	cpc	r19, r1
    1bae:	24 f4       	brge	.+8      	; 0x1bb8 <show_current_measure+0x42>
    1bb0:	80 52       	subi	r24, 0x20	; 32
    1bb2:	0e 94 d6 07 	call	0xfac	; 0xfac <turn_on>
    1bb6:	08 95       	ret
    1bb8:	80 53       	subi	r24, 0x30	; 48
    1bba:	0e 94 d6 07 	call	0xfac	; 0xfac <turn_on>
    1bbe:	08 95       	ret

00001bc0 <process_tick>:
    1bc0:	80 91 e2 02 	lds	r24, 0x02E2
    1bc4:	86 ff       	sbrs	r24, 6
    1bc6:	28 c0       	rjmp	.+80     	; 0x1c18 <process_tick+0x58>
    1bc8:	80 91 fe 04 	lds	r24, 0x04FE
    1bcc:	86 95       	lsr	r24
    1bce:	86 95       	lsr	r24
    1bd0:	8f 5f       	subi	r24, 0xFF	; 255
    1bd2:	8f 70       	andi	r24, 0x0F	; 15
    1bd4:	ec ef       	ldi	r30, 0xFC	; 252
    1bd6:	f4 e0       	ldi	r31, 0x04	; 4
    1bd8:	28 2f       	mov	r18, r24
    1bda:	22 0f       	add	r18, r18
    1bdc:	22 0f       	add	r18, r18
    1bde:	92 81       	ldd	r25, Z+2	; 0x02
    1be0:	93 7c       	andi	r25, 0xC3	; 195
    1be2:	92 2b       	or	r25, r18
    1be4:	92 83       	std	Z+2, r25	; 0x02
    1be6:	90 e0       	ldi	r25, 0x00	; 0
    1be8:	20 91 fd 04 	lds	r18, 0x04FD
    1bec:	32 2f       	mov	r19, r18
    1bee:	36 95       	lsr	r19
    1bf0:	37 70       	andi	r19, 0x07	; 7
    1bf2:	22 95       	swap	r18
    1bf4:	2f 70       	andi	r18, 0x0F	; 15
    1bf6:	27 70       	andi	r18, 0x07	; 7
    1bf8:	32 9f       	mul	r19, r18
    1bfa:	90 01       	movw	r18, r0
    1bfc:	11 24       	eor	r1, r1
    1bfe:	82 17       	cp	r24, r18
    1c00:	93 07       	cpc	r25, r19
    1c02:	51 f4       	brne	.+20     	; 0x1c18 <process_tick+0x58>
    1c04:	e1 ee       	ldi	r30, 0xE1	; 225
    1c06:	f2 e0       	ldi	r31, 0x02	; 2
    1c08:	80 81       	ld	r24, Z
    1c0a:	81 60       	ori	r24, 0x01	; 1
    1c0c:	80 83       	st	Z, r24
    1c0e:	e2 ee       	ldi	r30, 0xE2	; 226
    1c10:	f2 e0       	ldi	r31, 0x02	; 2
    1c12:	80 81       	ld	r24, Z
    1c14:	8f 7b       	andi	r24, 0xBF	; 191
    1c16:	80 83       	st	Z, r24
    1c18:	90 91 d5 05 	lds	r25, 0x05D5
    1c1c:	92 95       	swap	r25
    1c1e:	96 95       	lsr	r25
    1c20:	97 70       	andi	r25, 0x07	; 7
    1c22:	80 91 d6 05 	lds	r24, 0x05D6
    1c26:	81 70       	andi	r24, 0x01	; 1
    1c28:	88 0f       	add	r24, r24
    1c2a:	88 0f       	add	r24, r24
    1c2c:	88 0f       	add	r24, r24
    1c2e:	89 2b       	or	r24, r25
    1c30:	38 2f       	mov	r19, r24
    1c32:	31 70       	andi	r19, 0x01	; 1
    1c34:	eb ef       	ldi	r30, 0xFB	; 251
    1c36:	f2 e0       	ldi	r31, 0x02	; 2
    1c38:	91 81       	ldd	r25, Z+1	; 0x01
    1c3a:	9f 5f       	subi	r25, 0xFF	; 255
    1c3c:	91 83       	std	Z+1, r25	; 0x01
    1c3e:	20 81       	ld	r18, Z
    1c40:	92 13       	cpse	r25, r18
    1c42:	84 c0       	rjmp	.+264    	; 0x1d4c <process_tick+0x18c>
    1c44:	90 91 e2 02 	lds	r25, 0x02E2
    1c48:	90 ff       	sbrs	r25, 0
    1c4a:	0c c0       	rjmp	.+24     	; 0x1c64 <process_tick+0xa4>
    1c4c:	e0 91 d6 05 	lds	r30, 0x05D6
    1c50:	e6 95       	lsr	r30
    1c52:	e6 95       	lsr	r30
    1c54:	e6 95       	lsr	r30
    1c56:	e3 70       	andi	r30, 0x03	; 3
    1c58:	f0 e0       	ldi	r31, 0x00	; 0
    1c5a:	ee 50       	subi	r30, 0x0E	; 14
    1c5c:	fe 4f       	sbci	r31, 0xFE	; 254
    1c5e:	90 81       	ld	r25, Z
    1c60:	90 93 fb 02 	sts	0x02FB, r25
    1c64:	90 91 e2 02 	lds	r25, 0x02E2
    1c68:	99 23       	and	r25, r25
    1c6a:	c4 f4       	brge	.+48     	; 0x1c9c <process_tick+0xdc>
    1c6c:	90 91 fd 04 	lds	r25, 0x04FD
    1c70:	69 2f       	mov	r22, r25
    1c72:	66 1f       	adc	r22, r22
    1c74:	66 27       	eor	r22, r22
    1c76:	66 1f       	adc	r22, r22
    1c78:	90 91 fe 04 	lds	r25, 0x04FE
    1c7c:	93 70       	andi	r25, 0x03	; 3
    1c7e:	99 0f       	add	r25, r25
    1c80:	ec ef       	ldi	r30, 0xFC	; 252
    1c82:	f4 e0       	ldi	r31, 0x04	; 4
    1c84:	96 2b       	or	r25, r22
    1c86:	29 2f       	mov	r18, r25
    1c88:	22 0f       	add	r18, r18
    1c8a:	91 81       	ldd	r25, Z+1	; 0x01
    1c8c:	91 7f       	andi	r25, 0xF1	; 241
    1c8e:	92 2b       	or	r25, r18
    1c90:	91 83       	std	Z+1, r25	; 0x01
    1c92:	e2 ee       	ldi	r30, 0xE2	; 226
    1c94:	f2 e0       	ldi	r31, 0x02	; 2
    1c96:	90 81       	ld	r25, Z
    1c98:	9f 77       	andi	r25, 0x7F	; 127
    1c9a:	90 83       	st	Z, r25
    1c9c:	90 91 fd 04 	lds	r25, 0x04FD
    1ca0:	9e 70       	andi	r25, 0x0E	; 14
    1ca2:	81 f0       	breq	.+32     	; 0x1cc4 <process_tick+0x104>
    1ca4:	31 11       	cpse	r19, r1
    1ca6:	0e c0       	rjmp	.+28     	; 0x1cc4 <process_tick+0x104>
    1ca8:	90 91 e2 02 	lds	r25, 0x02E2
    1cac:	99 23       	and	r25, r25
    1cae:	54 f0       	brlt	.+20     	; 0x1cc4 <process_tick+0x104>
    1cb0:	ec ef       	ldi	r30, 0xFC	; 252
    1cb2:	f4 e0       	ldi	r31, 0x04	; 4
    1cb4:	92 81       	ldd	r25, Z+2	; 0x02
    1cb6:	93 7c       	andi	r25, 0xC3	; 195
    1cb8:	92 83       	std	Z+2, r25	; 0x02
    1cba:	e2 ee       	ldi	r30, 0xE2	; 226
    1cbc:	f2 e0       	ldi	r31, 0x02	; 2
    1cbe:	90 81       	ld	r25, Z
    1cc0:	90 64       	ori	r25, 0x40	; 64
    1cc2:	90 83       	st	Z, r25
    1cc4:	90 91 e2 02 	lds	r25, 0x02E2
    1cc8:	96 fd       	sbrc	r25, 6
    1cca:	05 c0       	rjmp	.+10     	; 0x1cd6 <process_tick+0x116>
    1ccc:	e1 ee       	ldi	r30, 0xE1	; 225
    1cce:	f2 e0       	ldi	r31, 0x02	; 2
    1cd0:	90 81       	ld	r25, Z
    1cd2:	91 60       	ori	r25, 0x01	; 1
    1cd4:	90 83       	st	Z, r25
    1cd6:	21 e0       	ldi	r18, 0x01	; 1
    1cd8:	28 0f       	add	r18, r24
    1cda:	e5 ed       	ldi	r30, 0xD5	; 213
    1cdc:	f5 e0       	ldi	r31, 0x05	; 5
    1cde:	32 2f       	mov	r19, r18
    1ce0:	32 95       	swap	r19
    1ce2:	33 0f       	add	r19, r19
    1ce4:	30 7e       	andi	r19, 0xE0	; 224
    1ce6:	90 81       	ld	r25, Z
    1ce8:	9f 71       	andi	r25, 0x1F	; 31
    1cea:	93 2b       	or	r25, r19
    1cec:	90 83       	st	Z, r25
    1cee:	23 fb       	bst	r18, 3
    1cf0:	99 27       	eor	r25, r25
    1cf2:	90 f9       	bld	r25, 0
    1cf4:	21 81       	ldd	r18, Z+1	; 0x01
    1cf6:	2e 7f       	andi	r18, 0xFE	; 254
    1cf8:	29 2b       	or	r18, r25
    1cfa:	21 83       	std	Z+1, r18	; 0x01
    1cfc:	90 e0       	ldi	r25, 0x00	; 0
    1cfe:	21 fb       	bst	r18, 1
    1d00:	44 27       	eor	r20, r20
    1d02:	40 f9       	bld	r20, 0
    1d04:	50 e0       	ldi	r21, 0x00	; 0
    1d06:	46 50       	subi	r20, 0x06	; 6
    1d08:	5b 4f       	sbci	r21, 0xFB	; 251
    1d0a:	fa 01       	movw	r30, r20
    1d0c:	e7 52       	subi	r30, 0x27	; 39
    1d0e:	ff 4f       	sbci	r31, 0xFF	; 255
    1d10:	20 81       	ld	r18, Z
    1d12:	30 e0       	ldi	r19, 0x00	; 0
    1d14:	82 17       	cp	r24, r18
    1d16:	93 07       	cpc	r25, r19
    1d18:	49 f4       	brne	.+18     	; 0x1d2c <process_tick+0x16c>
    1d1a:	80 91 fc 04 	lds	r24, 0x04FC
    1d1e:	85 ff       	sbrs	r24, 5
    1d20:	05 c0       	rjmp	.+10     	; 0x1d2c <process_tick+0x16c>
    1d22:	e1 ee       	ldi	r30, 0xE1	; 225
    1d24:	f2 e0       	ldi	r31, 0x02	; 2
    1d26:	80 81       	ld	r24, Z
    1d28:	80 68       	ori	r24, 0x80	; 128
    1d2a:	80 83       	st	Z, r24
    1d2c:	80 91 fe 02 	lds	r24, 0x02FE
    1d30:	86 95       	lsr	r24
    1d32:	8f 5f       	subi	r24, 0xFF	; 255
    1d34:	ed ef       	ldi	r30, 0xFD	; 253
    1d36:	f2 e0       	ldi	r31, 0x02	; 2
    1d38:	83 70       	andi	r24, 0x03	; 3
    1d3a:	98 2f       	mov	r25, r24
    1d3c:	99 0f       	add	r25, r25
    1d3e:	81 81       	ldd	r24, Z+1	; 0x01
    1d40:	89 7f       	andi	r24, 0xF9	; 249
    1d42:	89 2b       	or	r24, r25
    1d44:	81 83       	std	Z+1, r24	; 0x01
    1d46:	10 92 fc 02 	sts	0x02FC, r1
    1d4a:	21 c0       	rjmp	.+66     	; 0x1d8e <process_tick+0x1ce>
    1d4c:	eb ef       	ldi	r30, 0xFB	; 251
    1d4e:	f2 e0       	ldi	r31, 0x02	; 2
    1d50:	91 81       	ldd	r25, Z+1	; 0x01
    1d52:	80 81       	ld	r24, Z
    1d54:	86 95       	lsr	r24
    1d56:	98 13       	cpse	r25, r24
    1d58:	03 c0       	rjmp	.+6      	; 0x1d60 <process_tick+0x1a0>
    1d5a:	33 23       	and	r19, r19
    1d5c:	99 f0       	breq	.+38     	; 0x1d84 <process_tick+0x1c4>
    1d5e:	02 c0       	rjmp	.+4      	; 0x1d64 <process_tick+0x1a4>
    1d60:	33 23       	and	r19, r19
    1d62:	a9 f0       	breq	.+42     	; 0x1d8e <process_tick+0x1ce>
    1d64:	eb ef       	ldi	r30, 0xFB	; 251
    1d66:	f2 e0       	ldi	r31, 0x02	; 2
    1d68:	21 81       	ldd	r18, Z+1	; 0x01
    1d6a:	40 81       	ld	r20, Z
    1d6c:	30 e0       	ldi	r19, 0x00	; 0
    1d6e:	46 95       	lsr	r20
    1d70:	80 91 fd 04 	lds	r24, 0x04FD
    1d74:	86 95       	lsr	r24
    1d76:	87 70       	andi	r24, 0x07	; 7
    1d78:	90 e0       	ldi	r25, 0x00	; 0
    1d7a:	84 0f       	add	r24, r20
    1d7c:	91 1d       	adc	r25, r1
    1d7e:	28 17       	cp	r18, r24
    1d80:	39 07       	cpc	r19, r25
    1d82:	29 f4       	brne	.+10     	; 0x1d8e <process_tick+0x1ce>
    1d84:	e1 ee       	ldi	r30, 0xE1	; 225
    1d86:	f2 e0       	ldi	r31, 0x02	; 2
    1d88:	80 81       	ld	r24, Z
    1d8a:	82 60       	ori	r24, 0x02	; 2
    1d8c:	80 83       	st	Z, r24
    1d8e:	80 91 06 03 	lds	r24, 0x0306
    1d92:	81 30       	cpi	r24, 0x01	; 1
    1d94:	91 f5       	brne	.+100    	; 0x1dfa <process_tick+0x23a>
    1d96:	ed ef       	ldi	r30, 0xFD	; 253
    1d98:	f2 e0       	ldi	r31, 0x02	; 2
    1d9a:	80 81       	ld	r24, Z
    1d9c:	98 2f       	mov	r25, r24
    1d9e:	92 95       	swap	r25
    1da0:	96 95       	lsr	r25
    1da2:	96 95       	lsr	r25
    1da4:	93 70       	andi	r25, 0x03	; 3
    1da6:	80 91 fe 02 	lds	r24, 0x02FE
    1daa:	81 70       	andi	r24, 0x01	; 1
    1dac:	88 0f       	add	r24, r24
    1dae:	88 0f       	add	r24, r24
    1db0:	89 2b       	or	r24, r25
    1db2:	8f 5f       	subi	r24, 0xFF	; 255
    1db4:	87 70       	andi	r24, 0x07	; 7
    1db6:	28 2f       	mov	r18, r24
    1db8:	22 95       	swap	r18
    1dba:	22 0f       	add	r18, r18
    1dbc:	22 0f       	add	r18, r18
    1dbe:	20 7c       	andi	r18, 0xC0	; 192
    1dc0:	90 81       	ld	r25, Z
    1dc2:	9f 73       	andi	r25, 0x3F	; 63
    1dc4:	92 2b       	or	r25, r18
    1dc6:	90 83       	st	Z, r25
    1dc8:	28 2f       	mov	r18, r24
    1dca:	26 95       	lsr	r18
    1dcc:	26 95       	lsr	r18
    1dce:	91 81       	ldd	r25, Z+1	; 0x01
    1dd0:	9e 7f       	andi	r25, 0xFE	; 254
    1dd2:	92 2b       	or	r25, r18
    1dd4:	91 83       	std	Z+1, r25	; 0x01
    1dd6:	84 30       	cpi	r24, 0x04	; 4
    1dd8:	81 f4       	brne	.+32     	; 0x1dfa <process_tick+0x23a>
    1dda:	80 81       	ld	r24, Z
    1ddc:	8f 73       	andi	r24, 0x3F	; 63
    1dde:	80 83       	st	Z, r24
    1de0:	81 81       	ldd	r24, Z+1	; 0x01
    1de2:	8e 7f       	andi	r24, 0xFE	; 254
    1de4:	81 83       	std	Z+1, r24	; 0x01
    1de6:	e2 ee       	ldi	r30, 0xE2	; 226
    1de8:	f2 e0       	ldi	r31, 0x02	; 2
    1dea:	80 81       	ld	r24, Z
    1dec:	80 62       	ori	r24, 0x20	; 32
    1dee:	80 83       	st	Z, r24
    1df0:	e1 e8       	ldi	r30, 0x81	; 129
    1df2:	f0 e0       	ldi	r31, 0x00	; 0
    1df4:	80 81       	ld	r24, Z
    1df6:	8b 7f       	andi	r24, 0xFB	; 251
    1df8:	80 83       	st	Z, r24
    1dfa:	08 95       	ret

00001dfc <process_start>:
    1dfc:	e5 ed       	ldi	r30, 0xD5	; 213
    1dfe:	f5 e0       	ldi	r31, 0x05	; 5
    1e00:	83 81       	ldd	r24, Z+3	; 0x03
    1e02:	8f 77       	andi	r24, 0x7F	; 127
    1e04:	83 83       	std	Z+3, r24	; 0x03
    1e06:	84 81       	ldd	r24, Z+4	; 0x04
    1e08:	80 7c       	andi	r24, 0xC0	; 192
    1e0a:	84 83       	std	Z+4, r24	; 0x04
    1e0c:	ed ef       	ldi	r30, 0xFD	; 253
    1e0e:	f2 e0       	ldi	r31, 0x02	; 2
    1e10:	80 81       	ld	r24, Z
    1e12:	88 7f       	andi	r24, 0xF8	; 248
    1e14:	80 83       	st	Z, r24
    1e16:	80 91 06 03 	lds	r24, 0x0306
    1e1a:	81 30       	cpi	r24, 0x01	; 1
    1e1c:	d9 f4       	brne	.+54     	; 0x1e54 <process_start+0x58>
    1e1e:	e5 ed       	ldi	r30, 0xD5	; 213
    1e20:	f5 e0       	ldi	r31, 0x05	; 5
    1e22:	80 81       	ld	r24, Z
    1e24:	80 6e       	ori	r24, 0xE0	; 224
    1e26:	80 83       	st	Z, r24
    1e28:	81 81       	ldd	r24, Z+1	; 0x01
    1e2a:	81 60       	ori	r24, 0x01	; 1
    1e2c:	81 83       	std	Z+1, r24	; 0x01
    1e2e:	eb ef       	ldi	r30, 0xFB	; 251
    1e30:	f2 e0       	ldi	r31, 0x02	; 2
    1e32:	80 81       	ld	r24, Z
    1e34:	81 50       	subi	r24, 0x01	; 1
    1e36:	81 83       	std	Z+1, r24	; 0x01
    1e38:	e2 ee       	ldi	r30, 0xE2	; 226
    1e3a:	f2 e0       	ldi	r31, 0x02	; 2
    1e3c:	80 81       	ld	r24, Z
    1e3e:	80 61       	ori	r24, 0x10	; 16
    1e40:	80 83       	st	Z, r24
    1e42:	ed ef       	ldi	r30, 0xFD	; 253
    1e44:	f2 e0       	ldi	r31, 0x02	; 2
    1e46:	80 81       	ld	r24, Z
    1e48:	8f 73       	andi	r24, 0x3F	; 63
    1e4a:	80 83       	st	Z, r24
    1e4c:	81 81       	ldd	r24, Z+1	; 0x01
    1e4e:	8e 7f       	andi	r24, 0xFE	; 254
    1e50:	81 83       	std	Z+1, r24	; 0x01
    1e52:	0f c0       	rjmp	.+30     	; 0x1e72 <process_start+0x76>
    1e54:	e5 ed       	ldi	r30, 0xD5	; 213
    1e56:	f5 e0       	ldi	r31, 0x05	; 5
    1e58:	80 81       	ld	r24, Z
    1e5a:	8f 71       	andi	r24, 0x1F	; 31
    1e5c:	80 83       	st	Z, r24
    1e5e:	81 81       	ldd	r24, Z+1	; 0x01
    1e60:	8e 7f       	andi	r24, 0xFE	; 254
    1e62:	81 83       	std	Z+1, r24	; 0x01
    1e64:	10 92 fc 02 	sts	0x02FC, r1
    1e68:	e2 ee       	ldi	r30, 0xE2	; 226
    1e6a:	f2 e0       	ldi	r31, 0x02	; 2
    1e6c:	80 81       	ld	r24, Z
    1e6e:	8f 7e       	andi	r24, 0xEF	; 239
    1e70:	80 83       	st	Z, r24
    1e72:	e1 ee       	ldi	r30, 0xE1	; 225
    1e74:	f2 e0       	ldi	r31, 0x02	; 2
    1e76:	80 81       	ld	r24, Z
    1e78:	8b 7f       	andi	r24, 0xFB	; 251
    1e7a:	80 83       	st	Z, r24
    1e7c:	80 91 d2 05 	lds	r24, 0x05D2
    1e80:	8d 7f       	andi	r24, 0xFD	; 253
    1e82:	31 f4       	brne	.+12     	; 0x1e90 <process_start+0x94>
    1e84:	e1 ed       	ldi	r30, 0xD1	; 209
    1e86:	f5 e0       	ldi	r31, 0x05	; 5
    1e88:	80 81       	ld	r24, Z
    1e8a:	8d 7f       	andi	r24, 0xFD	; 253
    1e8c:	80 83       	st	Z, r24
    1e8e:	05 c0       	rjmp	.+10     	; 0x1e9a <process_start+0x9e>
    1e90:	e1 ed       	ldi	r30, 0xD1	; 209
    1e92:	f5 e0       	ldi	r31, 0x05	; 5
    1e94:	80 81       	ld	r24, Z
    1e96:	82 60       	ori	r24, 0x02	; 2
    1e98:	80 83       	st	Z, r24
    1e9a:	80 91 fb 04 	lds	r24, 0x04FB
    1e9e:	9e ef       	ldi	r25, 0xFE	; 254
    1ea0:	98 0f       	add	r25, r24
    1ea2:	92 30       	cpi	r25, 0x02	; 2
    1ea4:	58 f4       	brcc	.+22     	; 0x1ebc <process_start+0xc0>
    1ea6:	e3 ee       	ldi	r30, 0xE3	; 227
    1ea8:	f2 e0       	ldi	r31, 0x02	; 2
    1eaa:	80 81       	ld	r24, Z
    1eac:	82 60       	ori	r24, 0x02	; 2
    1eae:	80 83       	st	Z, r24
    1eb0:	ed ef       	ldi	r30, 0xFD	; 253
    1eb2:	f2 e0       	ldi	r31, 0x02	; 2
    1eb4:	80 81       	ld	r24, Z
    1eb6:	87 7c       	andi	r24, 0xC7	; 199
    1eb8:	80 83       	st	Z, r24
    1eba:	0f c0       	rjmp	.+30     	; 0x1eda <process_start+0xde>
    1ebc:	e1 ee       	ldi	r30, 0xE1	; 225
    1ebe:	f2 e0       	ldi	r31, 0x02	; 2
    1ec0:	90 81       	ld	r25, Z
    1ec2:	91 60       	ori	r25, 0x01	; 1
    1ec4:	90 83       	st	Z, r25
    1ec6:	81 30       	cpi	r24, 0x01	; 1
    1ec8:	41 f4       	brne	.+16     	; 0x1eda <process_start+0xde>
    1eca:	87 e0       	ldi	r24, 0x07	; 7
    1ecc:	93 e0       	ldi	r25, 0x03	; 3
    1ece:	0e 94 30 24 	call	0x4860	; 0x4860 <midi_send_start>
    1ed2:	87 e0       	ldi	r24, 0x07	; 7
    1ed4:	93 e0       	ldi	r25, 0x03	; 3
    1ed6:	0e 94 24 24 	call	0x4848	; 0x4848 <midi_send_clock>
    1eda:	80 91 fa 04 	lds	r24, 0x04FA
    1ede:	83 30       	cpi	r24, 0x03	; 3
    1ee0:	b9 f4       	brne	.+46     	; 0x1f10 <process_start+0x114>
    1ee2:	80 91 e2 02 	lds	r24, 0x02E2
    1ee6:	82 ff       	sbrs	r24, 2
    1ee8:	13 c0       	rjmp	.+38     	; 0x1f10 <process_start+0x114>
    1eea:	e2 ee       	ldi	r30, 0xE2	; 226
    1eec:	f2 e0       	ldi	r31, 0x02	; 2
    1eee:	80 81       	ld	r24, Z
    1ef0:	8b 7f       	andi	r24, 0xFB	; 251
    1ef2:	80 83       	st	Z, r24
    1ef4:	e1 ed       	ldi	r30, 0xD1	; 209
    1ef6:	f5 e0       	ldi	r31, 0x05	; 5
    1ef8:	80 81       	ld	r24, Z
    1efa:	82 fb       	bst	r24, 2
    1efc:	99 27       	eor	r25, r25
    1efe:	90 f9       	bld	r25, 0
    1f00:	90 fb       	bst	r25, 0
    1f02:	81 f9       	bld	r24, 1
    1f04:	80 83       	st	Z, r24
    1f06:	e1 ee       	ldi	r30, 0xE1	; 225
    1f08:	f2 e0       	ldi	r31, 0x02	; 2
    1f0a:	80 81       	ld	r24, Z
    1f0c:	80 62       	ori	r24, 0x20	; 32
    1f0e:	80 83       	st	Z, r24
    1f10:	8b ee       	ldi	r24, 0xEB	; 235
    1f12:	87 bd       	out	0x27, r24	; 39
    1f14:	10 92 85 00 	sts	0x0085, r1
    1f18:	10 92 84 00 	sts	0x0084, r1
    1f1c:	10 92 95 00 	sts	0x0095, r1
    1f20:	10 92 94 00 	sts	0x0094, r1
    1f24:	e1 e8       	ldi	r30, 0x81	; 129
    1f26:	f0 e0       	ldi	r31, 0x00	; 0
    1f28:	80 81       	ld	r24, Z
    1f2a:	84 60       	ori	r24, 0x04	; 4
    1f2c:	80 83       	st	Z, r24
    1f2e:	08 95       	ret

00001f30 <process_stop>:
    1f30:	80 91 d6 05 	lds	r24, 0x05D6
    1f34:	81 ff       	sbrs	r24, 1
    1f36:	0b c0       	rjmp	.+22     	; 0x1f4e <process_stop+0x1e>
    1f38:	e5 ed       	ldi	r30, 0xD5	; 213
    1f3a:	f5 e0       	ldi	r31, 0x05	; 5
    1f3c:	81 81       	ldd	r24, Z+1	; 0x01
    1f3e:	8d 7f       	andi	r24, 0xFD	; 253
    1f40:	81 83       	std	Z+1, r24	; 0x01
    1f42:	8b e2       	ldi	r24, 0x2B	; 43
    1f44:	0e 94 f1 07 	call	0xfe2	; 0xfe2 <turn_off>
    1f48:	8a e2       	ldi	r24, 0x2A	; 42
    1f4a:	0e 94 d6 07 	call	0xfac	; 0xfac <turn_on>
    1f4e:	0e 94 1c 08 	call	0x1038	; 0x1038 <turn_off_all_inst_leds>
    1f52:	e0 91 db 05 	lds	r30, 0x05DB
    1f56:	87 e0       	ldi	r24, 0x07	; 7
    1f58:	e8 9f       	mul	r30, r24
    1f5a:	f0 01       	movw	r30, r0
    1f5c:	11 24       	eor	r1, r1
    1f5e:	e0 50       	subi	r30, 0x00	; 0
    1f60:	ff 4f       	sbci	r31, 0xFF	; 255
    1f62:	85 81       	ldd	r24, Z+5	; 0x05
    1f64:	0e 94 d6 07 	call	0xfac	; 0xfac <turn_on>
    1f68:	80 91 d7 05 	lds	r24, 0x05D7
    1f6c:	86 95       	lsr	r24
    1f6e:	8f 70       	andi	r24, 0x0F	; 15
    1f70:	e5 ed       	ldi	r30, 0xD5	; 213
    1f72:	f5 e0       	ldi	r31, 0x05	; 5
    1f74:	28 2f       	mov	r18, r24
    1f76:	22 95       	swap	r18
    1f78:	22 0f       	add	r18, r18
    1f7a:	20 7e       	andi	r18, 0xE0	; 224
    1f7c:	91 81       	ldd	r25, Z+1	; 0x01
    1f7e:	9f 71       	andi	r25, 0x1F	; 31
    1f80:	92 2b       	or	r25, r18
    1f82:	91 83       	std	Z+1, r25	; 0x01
    1f84:	28 2f       	mov	r18, r24
    1f86:	26 95       	lsr	r18
    1f88:	26 95       	lsr	r18
    1f8a:	26 95       	lsr	r18
    1f8c:	92 81       	ldd	r25, Z+2	; 0x02
    1f8e:	9e 7f       	andi	r25, 0xFE	; 254
    1f90:	92 2b       	or	r25, r18
    1f92:	92 83       	std	Z+2, r25	; 0x02
    1f94:	93 81       	ldd	r25, Z+3	; 0x03
    1f96:	91 78       	andi	r25, 0x81	; 129
    1f98:	93 83       	std	Z+3, r25	; 0x03
    1f9a:	e1 ee       	ldi	r30, 0xE1	; 225
    1f9c:	f2 e0       	ldi	r31, 0x02	; 2
    1f9e:	90 81       	ld	r25, Z
    1fa0:	9f 7d       	andi	r25, 0xDF	; 223
    1fa2:	90 83       	st	Z, r25
    1fa4:	e2 ee       	ldi	r30, 0xE2	; 226
    1fa6:	f2 e0       	ldi	r31, 0x02	; 2
    1fa8:	90 81       	ld	r25, Z
    1faa:	97 7f       	andi	r25, 0xF7	; 247
    1fac:	90 83       	st	Z, r25
    1fae:	e1 e4       	ldi	r30, 0x41	; 65
    1fb0:	f2 e0       	ldi	r31, 0x02	; 2
    1fb2:	11 82       	std	Z+1, r1	; 0x01
    1fb4:	10 82       	st	Z, r1
    1fb6:	0e 94 d6 07 	call	0xfac	; 0xfac <turn_on>
    1fba:	80 91 fa 04 	lds	r24, 0x04FA
    1fbe:	83 30       	cpi	r24, 0x03	; 3
    1fc0:	71 f4       	brne	.+28     	; 0x1fde <process_stop+0xae>
    1fc2:	90 91 d7 05 	lds	r25, 0x05D7
    1fc6:	92 95       	swap	r25
    1fc8:	96 95       	lsr	r25
    1fca:	97 70       	andi	r25, 0x07	; 7
    1fcc:	80 91 d8 05 	lds	r24, 0x05D8
    1fd0:	81 70       	andi	r24, 0x01	; 1
    1fd2:	88 0f       	add	r24, r24
    1fd4:	88 0f       	add	r24, r24
    1fd6:	88 0f       	add	r24, r24
    1fd8:	89 2b       	or	r24, r25
    1fda:	0e 94 d6 07 	call	0xfac	; 0xfac <turn_on>
    1fde:	80 91 06 03 	lds	r24, 0x0306
    1fe2:	81 11       	cpse	r24, r1
    1fe4:	0c c0       	rjmp	.+24     	; 0x1ffe <process_stop+0xce>
    1fe6:	80 91 fb 04 	lds	r24, 0x04FB
    1fea:	81 30       	cpi	r24, 0x01	; 1
    1fec:	39 f4       	brne	.+14     	; 0x1ffc <process_stop+0xcc>
    1fee:	42 98       	cbi	0x08, 2	; 8
    1ff0:	72 98       	cbi	0x0e, 2	; 14
    1ff2:	87 e0       	ldi	r24, 0x07	; 7
    1ff4:	93 e0       	ldi	r25, 0x03	; 3
    1ff6:	0e 94 3c 24 	call	0x4878	; 0x4878 <midi_send_stop>
    1ffa:	01 c0       	rjmp	.+2      	; 0x1ffe <process_stop+0xce>
    1ffc:	5c 98       	cbi	0x0b, 4	; 11
    1ffe:	80 e1       	ldi	r24, 0x10	; 16
    2000:	87 bd       	out	0x27, r24	; 39
    2002:	08 95       	ret

00002004 <update_shuffle>:
    2004:	cf 93       	push	r28
    2006:	df 93       	push	r29
    2008:	86 30       	cpi	r24, 0x06	; 6
    200a:	90 f4       	brcc	.+36     	; 0x2030 <update_shuffle+0x2c>
    200c:	ec ef       	ldi	r30, 0xFC	; 252
    200e:	f4 e0       	ldi	r31, 0x04	; 4
    2010:	91 81       	ldd	r25, Z+1	; 0x01
    2012:	80 fb       	bst	r24, 0
    2014:	97 f9       	bld	r25, 7
    2016:	91 83       	std	Z+1, r25	; 0x01
    2018:	86 95       	lsr	r24
    201a:	83 70       	andi	r24, 0x03	; 3
    201c:	92 81       	ldd	r25, Z+2	; 0x02
    201e:	9c 7f       	andi	r25, 0xFC	; 252
    2020:	89 2b       	or	r24, r25
    2022:	82 83       	std	Z+2, r24	; 0x02
    2024:	e2 ee       	ldi	r30, 0xE2	; 226
    2026:	f2 e0       	ldi	r31, 0x02	; 2
    2028:	80 81       	ld	r24, Z
    202a:	80 68       	ori	r24, 0x80	; 128
    202c:	80 83       	st	Z, r24
    202e:	15 c0       	rjmp	.+42     	; 0x205a <update_shuffle+0x56>
    2030:	88 50       	subi	r24, 0x08	; 8
    2032:	86 30       	cpi	r24, 0x06	; 6
    2034:	90 f4       	brcc	.+36     	; 0x205a <update_shuffle+0x56>
    2036:	ec ef       	ldi	r30, 0xFC	; 252
    2038:	f4 e0       	ldi	r31, 0x04	; 4
    203a:	28 2f       	mov	r18, r24
    203c:	22 95       	swap	r18
    203e:	22 0f       	add	r18, r18
    2040:	22 0f       	add	r18, r18
    2042:	20 7c       	andi	r18, 0xC0	; 192
    2044:	92 81       	ldd	r25, Z+2	; 0x02
    2046:	9f 73       	andi	r25, 0x3F	; 63
    2048:	92 2b       	or	r25, r18
    204a:	92 83       	std	Z+2, r25	; 0x02
    204c:	82 fb       	bst	r24, 2
    204e:	99 27       	eor	r25, r25
    2050:	90 f9       	bld	r25, 0
    2052:	83 81       	ldd	r24, Z+3	; 0x03
    2054:	8e 7f       	andi	r24, 0xFE	; 254
    2056:	89 2b       	or	r24, r25
    2058:	83 83       	std	Z+3, r24	; 0x03
    205a:	90 91 fd 04 	lds	r25, 0x04FD
    205e:	99 1f       	adc	r25, r25
    2060:	99 27       	eor	r25, r25
    2062:	99 1f       	adc	r25, r25
    2064:	ce ef       	ldi	r28, 0xFE	; 254
    2066:	d4 e0       	ldi	r29, 0x04	; 4
    2068:	88 81       	ld	r24, Y
    206a:	83 70       	andi	r24, 0x03	; 3
    206c:	88 0f       	add	r24, r24
    206e:	89 2b       	or	r24, r25
    2070:	0e 94 d6 07 	call	0xfac	; 0xfac <turn_on>
    2074:	88 81       	ld	r24, Y
    2076:	98 2f       	mov	r25, r24
    2078:	92 95       	swap	r25
    207a:	96 95       	lsr	r25
    207c:	96 95       	lsr	r25
    207e:	93 70       	andi	r25, 0x03	; 3
    2080:	80 91 ff 04 	lds	r24, 0x04FF
    2084:	81 70       	andi	r24, 0x01	; 1
    2086:	88 0f       	add	r24, r24
    2088:	88 0f       	add	r24, r24
    208a:	89 2b       	or	r24, r25
    208c:	88 5f       	subi	r24, 0xF8	; 248
    208e:	0e 94 d6 07 	call	0xfac	; 0xfac <turn_on>
    2092:	df 91       	pop	r29
    2094:	cf 91       	pop	r28
    2096:	08 95       	ret

00002098 <update_prescale>:
    2098:	80 91 18 02 	lds	r24, 0x0218
    209c:	86 ff       	sbrs	r24, 6
    209e:	2c c0       	rjmp	.+88     	; 0x20f8 <update_prescale+0x60>
    20a0:	80 91 fc 04 	lds	r24, 0x04FC
    20a4:	84 ff       	sbrs	r24, 4
    20a6:	28 c0       	rjmp	.+80     	; 0x20f8 <update_prescale+0x60>
    20a8:	e8 e1       	ldi	r30, 0x18	; 24
    20aa:	f2 e0       	ldi	r31, 0x02	; 2
    20ac:	80 81       	ld	r24, Z
    20ae:	8f 7b       	andi	r24, 0xBF	; 191
    20b0:	80 83       	st	Z, r24
    20b2:	80 91 d6 05 	lds	r24, 0x05D6
    20b6:	86 95       	lsr	r24
    20b8:	86 95       	lsr	r24
    20ba:	86 95       	lsr	r24
    20bc:	83 70       	andi	r24, 0x03	; 3
    20be:	69 f0       	breq	.+26     	; 0x20da <update_prescale+0x42>
    20c0:	8d 5f       	subi	r24, 0xFD	; 253
    20c2:	83 70       	andi	r24, 0x03	; 3
    20c4:	e5 ed       	ldi	r30, 0xD5	; 213
    20c6:	f5 e0       	ldi	r31, 0x05	; 5
    20c8:	98 2f       	mov	r25, r24
    20ca:	99 0f       	add	r25, r25
    20cc:	99 0f       	add	r25, r25
    20ce:	99 0f       	add	r25, r25
    20d0:	81 81       	ldd	r24, Z+1	; 0x01
    20d2:	87 7e       	andi	r24, 0xE7	; 231
    20d4:	89 2b       	or	r24, r25
    20d6:	81 83       	std	Z+1, r24	; 0x01
    20d8:	05 c0       	rjmp	.+10     	; 0x20e4 <update_prescale+0x4c>
    20da:	e5 ed       	ldi	r30, 0xD5	; 213
    20dc:	f5 e0       	ldi	r31, 0x05	; 5
    20de:	81 81       	ldd	r24, Z+1	; 0x01
    20e0:	88 61       	ori	r24, 0x18	; 24
    20e2:	81 83       	std	Z+1, r24	; 0x01
    20e4:	e1 ee       	ldi	r30, 0xE1	; 225
    20e6:	f2 e0       	ldi	r31, 0x02	; 2
    20e8:	80 81       	ld	r24, Z
    20ea:	80 61       	ori	r24, 0x10	; 16
    20ec:	80 83       	st	Z, r24
    20ee:	e2 ee       	ldi	r30, 0xE2	; 226
    20f0:	f2 e0       	ldi	r31, 0x02	; 2
    20f2:	80 81       	ld	r24, Z
    20f4:	81 60       	ori	r24, 0x01	; 1
    20f6:	80 83       	st	Z, r24
    20f8:	0e 94 2d 0a 	call	0x145a	; 0x145a <update_prescale_leds>
    20fc:	08 95       	ret

000020fe <toggle_variation>:
    20fe:	80 91 e1 02 	lds	r24, 0x02E1
    2102:	82 ff       	sbrs	r24, 2
    2104:	18 c0       	rjmp	.+48     	; 0x2136 <toggle_variation+0x38>
    2106:	e1 ee       	ldi	r30, 0xE1	; 225
    2108:	f2 e0       	ldi	r31, 0x02	; 2
    210a:	80 81       	ld	r24, Z
    210c:	8b 7f       	andi	r24, 0xFB	; 251
    210e:	80 83       	st	Z, r24
    2110:	80 91 d2 05 	lds	r24, 0x05D2
    2114:	81 30       	cpi	r24, 0x01	; 1
    2116:	49 f0       	breq	.+18     	; 0x212a <toggle_variation+0x2c>
    2118:	10 f0       	brcs	.+4      	; 0x211e <toggle_variation+0x20>
    211a:	82 30       	cpi	r24, 0x02	; 2
    211c:	d9 f4       	brne	.+54     	; 0x2154 <toggle_variation+0x56>
    211e:	e1 ed       	ldi	r30, 0xD1	; 209
    2120:	f5 e0       	ldi	r31, 0x05	; 5
    2122:	80 81       	ld	r24, Z
    2124:	8d 7f       	andi	r24, 0xFD	; 253
    2126:	80 83       	st	Z, r24
    2128:	08 95       	ret
    212a:	e1 ed       	ldi	r30, 0xD1	; 209
    212c:	f5 e0       	ldi	r31, 0x05	; 5
    212e:	80 81       	ld	r24, Z
    2130:	82 60       	ori	r24, 0x02	; 2
    2132:	80 83       	st	Z, r24
    2134:	08 95       	ret
    2136:	80 91 d2 05 	lds	r24, 0x05D2
    213a:	82 30       	cpi	r24, 0x02	; 2
    213c:	59 f4       	brne	.+22     	; 0x2154 <toggle_variation+0x56>
    213e:	e1 ed       	ldi	r30, 0xD1	; 209
    2140:	f5 e0       	ldi	r31, 0x05	; 5
    2142:	80 81       	ld	r24, Z
    2144:	81 fb       	bst	r24, 1
    2146:	22 27       	eor	r18, r18
    2148:	20 f9       	bld	r18, 0
    214a:	91 e0       	ldi	r25, 0x01	; 1
    214c:	92 27       	eor	r25, r18
    214e:	90 fb       	bst	r25, 0
    2150:	81 f9       	bld	r24, 1
    2152:	80 83       	st	Z, r24
    2154:	08 95       	ret

00002156 <read_next_pattern>:
    2156:	ef 92       	push	r14
    2158:	ff 92       	push	r15
    215a:	0f 93       	push	r16
    215c:	1f 93       	push	r17
    215e:	cf 93       	push	r28
    2160:	df 93       	push	r29
    2162:	cd b7       	in	r28, 0x3d	; 61
    2164:	de b7       	in	r29, 0x3e	; 62
    2166:	cb 58       	subi	r28, 0x8B	; 139
    2168:	d1 09       	sbc	r29, r1
    216a:	0f b6       	in	r0, 0x3f	; 63
    216c:	f8 94       	cli
    216e:	de bf       	out	0x3e, r29	; 62
    2170:	0f be       	out	0x3f, r0	; 63
    2172:	cd bf       	out	0x3d, r28	; 61
    2174:	46 2f       	mov	r20, r22
    2176:	60 e0       	ldi	r22, 0x00	; 0
    2178:	78 2f       	mov	r23, r24
    217a:	ce 01       	movw	r24, r28
    217c:	01 96       	adiw	r24, 0x01	; 1
    217e:	0e 94 82 01 	call	0x304	; 0x304 <read_pattern>
    2182:	84 e4       	ldi	r24, 0x44	; 68
    2184:	fe 01       	movw	r30, r28
    2186:	31 96       	adiw	r30, 0x01	; 1
    2188:	a0 e0       	ldi	r26, 0x00	; 0
    218a:	b5 e0       	ldi	r27, 0x05	; 5
    218c:	01 90       	ld	r0, Z+
    218e:	0d 92       	st	X+, r0
    2190:	8a 95       	dec	r24
    2192:	e1 f7       	brne	.-8      	; 0x218c <read_next_pattern+0x36>
    2194:	84 e4       	ldi	r24, 0x44	; 68
    2196:	fe 01       	movw	r30, r28
    2198:	eb 5b       	subi	r30, 0xBB	; 187
    219a:	ff 4f       	sbci	r31, 0xFF	; 255
    219c:	a4 e4       	ldi	r26, 0x44	; 68
    219e:	b5 e0       	ldi	r27, 0x05	; 5
    21a0:	01 90       	ld	r0, Z+
    21a2:	0d 92       	st	X+, r0
    21a4:	8a 95       	dec	r24
    21a6:	e1 f7       	brne	.-8      	; 0x21a0 <read_next_pattern+0x4a>
    21a8:	c6 57       	subi	r28, 0x76	; 118
    21aa:	df 4f       	sbci	r29, 0xFF	; 255
    21ac:	88 81       	ld	r24, Y
    21ae:	ca 58       	subi	r28, 0x8A	; 138
    21b0:	d0 40       	sbci	r29, 0x00	; 0
    21b2:	80 93 d3 05 	sts	0x05D3, r24
    21b6:	c5 57       	subi	r28, 0x75	; 117
    21b8:	df 4f       	sbci	r29, 0xFF	; 255
    21ba:	88 81       	ld	r24, Y
    21bc:	cb 58       	subi	r28, 0x8B	; 139
    21be:	d0 40       	sbci	r29, 0x00	; 0
    21c0:	80 93 d4 05 	sts	0x05D4, r24
    21c4:	c7 57       	subi	r28, 0x77	; 119
    21c6:	df 4f       	sbci	r29, 0xFF	; 255
    21c8:	e8 81       	ld	r30, Y
    21ca:	c9 58       	subi	r28, 0x89	; 137
    21cc:	d0 40       	sbci	r29, 0x00	; 0
    21ce:	e3 70       	andi	r30, 0x03	; 3
    21d0:	0f 2e       	mov	r0, r31
    21d2:	f5 ed       	ldi	r31, 0xD5	; 213
    21d4:	ef 2e       	mov	r14, r31
    21d6:	f5 e0       	ldi	r31, 0x05	; 5
    21d8:	ff 2e       	mov	r15, r31
    21da:	f0 2d       	mov	r31, r0
    21dc:	9e 2f       	mov	r25, r30
    21de:	99 0f       	add	r25, r25
    21e0:	99 0f       	add	r25, r25
    21e2:	99 0f       	add	r25, r25
    21e4:	d7 01       	movw	r26, r14
    21e6:	11 96       	adiw	r26, 0x01	; 1
    21e8:	8c 91       	ld	r24, X
    21ea:	11 97       	sbiw	r26, 0x01	; 1
    21ec:	87 7e       	andi	r24, 0xE7	; 231
    21ee:	89 2b       	or	r24, r25
    21f0:	11 96       	adiw	r26, 0x01	; 1
    21f2:	8c 93       	st	X, r24
    21f4:	f0 e0       	ldi	r31, 0x00	; 0
    21f6:	ee 50       	subi	r30, 0x0E	; 14
    21f8:	fe 4f       	sbci	r31, 0xFE	; 254
    21fa:	80 81       	ld	r24, Z
    21fc:	80 93 fb 02 	sts	0x02FB, r24
    2200:	0e 94 51 09 	call	0x12a2	; 0x12a2 <update_step_led_mask>
    2204:	0e 94 2d 0a 	call	0x145a	; 0x145a <update_prescale_leds>
    2208:	80 91 d6 05 	lds	r24, 0x05D6
    220c:	82 fb       	bst	r24, 2
    220e:	00 27       	eor	r16, r16
    2210:	00 f9       	bld	r16, 0
    2212:	10 e0       	ldi	r17, 0x00	; 0
    2214:	06 50       	subi	r16, 0x06	; 6
    2216:	1b 4f       	sbci	r17, 0xFB	; 251
    2218:	f8 01       	movw	r30, r16
    221a:	e7 52       	subi	r30, 0x27	; 39
    221c:	ff 4f       	sbci	r31, 0xFF	; 255
    221e:	80 81       	ld	r24, Z
    2220:	98 2f       	mov	r25, r24
    2222:	9f 71       	andi	r25, 0x1F	; 31
    2224:	f7 01       	movw	r30, r14
    2226:	80 81       	ld	r24, Z
    2228:	80 7e       	andi	r24, 0xE0	; 224
    222a:	89 2b       	or	r24, r25
    222c:	80 83       	st	Z, r24
    222e:	c5 57       	subi	r28, 0x75	; 117
    2230:	df 4f       	sbci	r29, 0xFF	; 255
    2232:	0f b6       	in	r0, 0x3f	; 63
    2234:	f8 94       	cli
    2236:	de bf       	out	0x3e, r29	; 62
    2238:	0f be       	out	0x3f, r0	; 63
    223a:	cd bf       	out	0x3d, r28	; 61
    223c:	df 91       	pop	r29
    223e:	cf 91       	pop	r28
    2240:	1f 91       	pop	r17
    2242:	0f 91       	pop	r16
    2244:	ff 90       	pop	r15
    2246:	ef 90       	pop	r14
    2248:	08 95       	ret

0000224a <update_fill>:
    224a:	ef 92       	push	r14
    224c:	ff 92       	push	r15
    224e:	0f 93       	push	r16
    2250:	1f 93       	push	r17
    2252:	cf 93       	push	r28
    2254:	df 93       	push	r29
    2256:	80 91 fc 04 	lds	r24, 0x04FC
    225a:	8f 70       	andi	r24, 0x0F	; 15
    225c:	b9 f0       	breq	.+46     	; 0x228c <update_fill+0x42>
    225e:	80 91 d8 05 	lds	r24, 0x05D8
    2262:	86 95       	lsr	r24
    2264:	8f 5f       	subi	r24, 0xFF	; 255
    2266:	8f 73       	andi	r24, 0x3F	; 63
    2268:	e5 ed       	ldi	r30, 0xD5	; 213
    226a:	f5 e0       	ldi	r31, 0x05	; 5
    226c:	28 2f       	mov	r18, r24
    226e:	22 0f       	add	r18, r18
    2270:	93 81       	ldd	r25, Z+3	; 0x03
    2272:	91 78       	andi	r25, 0x81	; 129
    2274:	92 2b       	or	r25, r18
    2276:	93 83       	std	Z+3, r25	; 0x03
    2278:	90 91 fc 04 	lds	r25, 0x04FC
    227c:	9f 70       	andi	r25, 0x0F	; 15
    227e:	89 13       	cpse	r24, r25
    2280:	05 c0       	rjmp	.+10     	; 0x228c <update_fill+0x42>
    2282:	e2 ee       	ldi	r30, 0xE2	; 226
    2284:	f2 e0       	ldi	r31, 0x02	; 2
    2286:	80 81       	ld	r24, Z
    2288:	88 60       	ori	r24, 0x08	; 8
    228a:	80 83       	st	Z, r24
    228c:	80 91 e2 02 	lds	r24, 0x02E2
    2290:	83 ff       	sbrs	r24, 3
    2292:	68 c0       	rjmp	.+208    	; 0x2364 <update_fill+0x11a>
    2294:	c5 ed       	ldi	r28, 0xD5	; 213
    2296:	d5 e0       	ldi	r29, 0x05	; 5
    2298:	8b 81       	ldd	r24, Y+3	; 0x03
    229a:	81 78       	andi	r24, 0x81	; 129
    229c:	8b 83       	std	Y+3, r24	; 0x03
    229e:	e2 ee       	ldi	r30, 0xE2	; 226
    22a0:	f2 e0       	ldi	r31, 0x02	; 2
    22a2:	80 81       	ld	r24, Z
    22a4:	87 7f       	andi	r24, 0xF7	; 247
    22a6:	80 83       	st	Z, r24
    22a8:	80 81       	ld	r24, Z
    22aa:	81 60       	ori	r24, 0x01	; 1
    22ac:	80 83       	st	Z, r24
    22ae:	60 91 88 05 	lds	r22, 0x0588
    22b2:	6f 70       	andi	r22, 0x0F	; 15
    22b4:	0f 2e       	mov	r0, r31
    22b6:	f7 ed       	ldi	r31, 0xD7	; 215
    22b8:	ef 2e       	mov	r14, r31
    22ba:	f5 e0       	ldi	r31, 0x05	; 5
    22bc:	ff 2e       	mov	r15, r31
    22be:	f0 2d       	mov	r31, r0
    22c0:	f7 01       	movw	r30, r14
    22c2:	90 81       	ld	r25, Z
    22c4:	92 95       	swap	r25
    22c6:	96 95       	lsr	r25
    22c8:	97 70       	andi	r25, 0x07	; 7
    22ca:	08 ed       	ldi	r16, 0xD8	; 216
    22cc:	15 e0       	ldi	r17, 0x05	; 5
    22ce:	f8 01       	movw	r30, r16
    22d0:	80 81       	ld	r24, Z
    22d2:	81 70       	andi	r24, 0x01	; 1
    22d4:	88 0f       	add	r24, r24
    22d6:	88 0f       	add	r24, r24
    22d8:	88 0f       	add	r24, r24
    22da:	89 2b       	or	r24, r25
    22dc:	0e 94 ab 10 	call	0x2156	; 0x2156 <read_next_pattern>
    22e0:	89 81       	ldd	r24, Y+1	; 0x01
    22e2:	8d 7f       	andi	r24, 0xFD	; 253
    22e4:	89 83       	std	Y+1, r24	; 0x01
    22e6:	8b e2       	ldi	r24, 0x2B	; 43
    22e8:	0e 94 f1 07 	call	0xfe2	; 0xfe2 <turn_off>
    22ec:	8a e2       	ldi	r24, 0x2A	; 42
    22ee:	0e 94 d6 07 	call	0xfac	; 0xfac <turn_on>
    22f2:	80 91 d6 05 	lds	r24, 0x05D6
    22f6:	28 2f       	mov	r18, r24
    22f8:	22 95       	swap	r18
    22fa:	26 95       	lsr	r18
    22fc:	27 70       	andi	r18, 0x07	; 7
    22fe:	f7 01       	movw	r30, r14
    2300:	80 81       	ld	r24, Z
    2302:	81 70       	andi	r24, 0x01	; 1
    2304:	88 0f       	add	r24, r24
    2306:	88 0f       	add	r24, r24
    2308:	88 0f       	add	r24, r24
    230a:	82 2b       	or	r24, r18
    230c:	98 2f       	mov	r25, r24
    230e:	99 0f       	add	r25, r25
    2310:	8a 81       	ldd	r24, Y+2	; 0x02
    2312:	81 7e       	andi	r24, 0xE1	; 225
    2314:	89 2b       	or	r24, r25
    2316:	28 2f       	mov	r18, r24
    2318:	22 95       	swap	r18
    231a:	26 95       	lsr	r18
    231c:	27 70       	andi	r18, 0x07	; 7
    231e:	f8 01       	movw	r30, r16
    2320:	90 81       	ld	r25, Z
    2322:	91 70       	andi	r25, 0x01	; 1
    2324:	99 0f       	add	r25, r25
    2326:	99 0f       	add	r25, r25
    2328:	99 0f       	add	r25, r25
    232a:	92 2b       	or	r25, r18
    232c:	39 2f       	mov	r19, r25
    232e:	32 95       	swap	r19
    2330:	33 0f       	add	r19, r19
    2332:	30 7e       	andi	r19, 0xE0	; 224
    2334:	29 81       	ldd	r18, Y+1	; 0x01
    2336:	2f 71       	andi	r18, 0x1F	; 31
    2338:	23 2b       	or	r18, r19
    233a:	29 83       	std	Y+1, r18	; 0x01
    233c:	96 95       	lsr	r25
    233e:	96 95       	lsr	r25
    2340:	96 95       	lsr	r25
    2342:	8e 7f       	andi	r24, 0xFE	; 254
    2344:	89 2b       	or	r24, r25
    2346:	8a 83       	std	Y+2, r24	; 0x02
    2348:	e1 ed       	ldi	r30, 0xD1	; 209
    234a:	f5 e0       	ldi	r31, 0x05	; 5
    234c:	80 81       	ld	r24, Z
    234e:	82 fb       	bst	r24, 2
    2350:	99 27       	eor	r25, r25
    2352:	90 f9       	bld	r25, 0
    2354:	90 fb       	bst	r25, 0
    2356:	81 f9       	bld	r24, 1
    2358:	80 83       	st	Z, r24
    235a:	e1 ee       	ldi	r30, 0xE1	; 225
    235c:	f2 e0       	ldi	r31, 0x02	; 2
    235e:	80 81       	ld	r24, Z
    2360:	80 62       	ori	r24, 0x20	; 32
    2362:	80 83       	st	Z, r24
    2364:	df 91       	pop	r29
    2366:	cf 91       	pop	r28
    2368:	1f 91       	pop	r17
    236a:	0f 91       	pop	r16
    236c:	ff 90       	pop	r15
    236e:	ef 90       	pop	r14
    2370:	08 95       	ret

00002372 <check_tap>:
    2372:	0f 93       	push	r16
    2374:	1f 93       	push	r17
    2376:	cf 93       	push	r28
    2378:	df 93       	push	r29
    237a:	80 91 e2 02 	lds	r24, 0x02E2
    237e:	81 ff       	sbrs	r24, 1
    2380:	22 c1       	rjmp	.+580    	; 0x25c6 <check_tap+0x254>
    2382:	e2 ee       	ldi	r30, 0xE2	; 226
    2384:	f2 e0       	ldi	r31, 0x02	; 2
    2386:	80 81       	ld	r24, Z
    2388:	8d 7f       	andi	r24, 0xFD	; 253
    238a:	80 83       	st	Z, r24
    238c:	80 91 fa 04 	lds	r24, 0x04FA
    2390:	9f ef       	ldi	r25, 0xFF	; 255
    2392:	98 0f       	add	r25, r24
    2394:	92 30       	cpi	r25, 0x02	; 2
    2396:	08 f0       	brcs	.+2      	; 0x239a <check_tap+0x28>
    2398:	9b c0       	rjmp	.+310    	; 0x24d0 <check_tap+0x15e>
    239a:	60 91 db 05 	lds	r22, 0x05DB
    239e:	60 31       	cpi	r22, 0x10	; 16
    23a0:	71 f5       	brne	.+92     	; 0x23fe <check_tap+0x8c>
    23a2:	90 91 d1 05 	lds	r25, 0x05D1
    23a6:	80 91 d6 05 	lds	r24, 0x05D6
    23aa:	82 fb       	bst	r24, 2
    23ac:	aa 27       	eor	r26, r26
    23ae:	a0 f9       	bld	r26, 0
    23b0:	b0 e0       	ldi	r27, 0x00	; 0
    23b2:	96 95       	lsr	r25
    23b4:	91 70       	andi	r25, 0x01	; 1
    23b6:	fd 01       	movw	r30, r26
    23b8:	22 e2       	ldi	r18, 0x22	; 34
    23ba:	92 9f       	mul	r25, r18
    23bc:	e0 0d       	add	r30, r0
    23be:	f1 1d       	adc	r31, r1
    23c0:	11 24       	eor	r1, r1
    23c2:	ee 0f       	add	r30, r30
    23c4:	ff 1f       	adc	r31, r31
    23c6:	e0 50       	subi	r30, 0x00	; 0
    23c8:	fb 4f       	sbci	r31, 0xFB	; 251
    23ca:	90 91 d5 05 	lds	r25, 0x05D5
    23ce:	92 95       	swap	r25
    23d0:	96 95       	lsr	r25
    23d2:	97 70       	andi	r25, 0x07	; 7
    23d4:	81 70       	andi	r24, 0x01	; 1
    23d6:	88 0f       	add	r24, r24
    23d8:	88 0f       	add	r24, r24
    23da:	88 0f       	add	r24, r24
    23dc:	89 2b       	or	r24, r25
    23de:	21 e0       	ldi	r18, 0x01	; 1
    23e0:	30 e0       	ldi	r19, 0x00	; 0
    23e2:	d9 01       	movw	r26, r18
    23e4:	02 c0       	rjmp	.+4      	; 0x23ea <check_tap+0x78>
    23e6:	aa 0f       	add	r26, r26
    23e8:	bb 1f       	adc	r27, r27
    23ea:	8a 95       	dec	r24
    23ec:	e2 f7       	brpl	.-8      	; 0x23e6 <check_tap+0x74>
    23ee:	cd 01       	movw	r24, r26
    23f0:	20 81       	ld	r18, Z
    23f2:	31 81       	ldd	r19, Z+1	; 0x01
    23f4:	82 2b       	or	r24, r18
    23f6:	93 2b       	or	r25, r19
    23f8:	91 83       	std	Z+1, r25	; 0x01
    23fa:	80 83       	st	Z, r24
    23fc:	35 c0       	rjmp	.+106    	; 0x2468 <check_tap+0xf6>
    23fe:	70 91 d1 05 	lds	r23, 0x05D1
    2402:	80 91 d6 05 	lds	r24, 0x05D6
    2406:	82 fb       	bst	r24, 2
    2408:	22 27       	eor	r18, r18
    240a:	20 f9       	bld	r18, 0
    240c:	30 e0       	ldi	r19, 0x00	; 0
    240e:	90 91 d5 05 	lds	r25, 0x05D5
    2412:	92 95       	swap	r25
    2414:	96 95       	lsr	r25
    2416:	97 70       	andi	r25, 0x07	; 7
    2418:	81 70       	andi	r24, 0x01	; 1
    241a:	88 0f       	add	r24, r24
    241c:	88 0f       	add	r24, r24
    241e:	88 0f       	add	r24, r24
    2420:	89 2b       	or	r24, r25
    2422:	f9 01       	movw	r30, r18
    2424:	e2 95       	swap	r30
    2426:	f2 95       	swap	r31
    2428:	f0 7f       	andi	r31, 0xF0	; 240
    242a:	fe 27       	eor	r31, r30
    242c:	e0 7f       	andi	r30, 0xF0	; 240
    242e:	fe 27       	eor	r31, r30
    2430:	71 fb       	bst	r23, 1
    2432:	99 27       	eor	r25, r25
    2434:	90 f9       	bld	r25, 0
    2436:	b2 e2       	ldi	r27, 0x22	; 34
    2438:	9b 9f       	mul	r25, r27
    243a:	e0 0d       	add	r30, r0
    243c:	f1 1d       	adc	r31, r1
    243e:	11 24       	eor	r1, r1
    2440:	e8 0f       	add	r30, r24
    2442:	f1 1d       	adc	r31, r1
    2444:	ee 0f       	add	r30, r30
    2446:	ff 1f       	adc	r31, r31
    2448:	ec 5f       	subi	r30, 0xFC	; 252
    244a:	fa 4f       	sbci	r31, 0xFA	; 250
    244c:	81 e0       	ldi	r24, 0x01	; 1
    244e:	90 e0       	ldi	r25, 0x00	; 0
    2450:	06 2e       	mov	r0, r22
    2452:	02 c0       	rjmp	.+4      	; 0x2458 <check_tap+0xe6>
    2454:	88 0f       	add	r24, r24
    2456:	99 1f       	adc	r25, r25
    2458:	0a 94       	dec	r0
    245a:	e2 f7       	brpl	.-8      	; 0x2454 <check_tap+0xe2>
    245c:	20 81       	ld	r18, Z
    245e:	31 81       	ldd	r19, Z+1	; 0x01
    2460:	82 2b       	or	r24, r18
    2462:	93 2b       	or	r25, r19
    2464:	91 83       	std	Z+1, r25	; 0x01
    2466:	80 83       	st	Z, r24
    2468:	80 91 d1 05 	lds	r24, 0x05D1
    246c:	81 fb       	bst	r24, 1
    246e:	44 27       	eor	r20, r20
    2470:	40 f9       	bld	r20, 0
    2472:	50 e0       	ldi	r21, 0x00	; 0
    2474:	81 e1       	ldi	r24, 0x11	; 17
    2476:	84 9f       	mul	r24, r20
    2478:	f0 01       	movw	r30, r0
    247a:	85 9f       	mul	r24, r21
    247c:	f0 0d       	add	r31, r0
    247e:	11 24       	eor	r1, r1
    2480:	e6 0f       	add	r30, r22
    2482:	f1 1d       	adc	r31, r1
    2484:	ee 0f       	add	r30, r30
    2486:	ff 1f       	adc	r31, r31
    2488:	e7 57       	subi	r30, 0x77	; 119
    248a:	fa 4f       	sbci	r31, 0xFA	; 250
    248c:	80 91 d5 05 	lds	r24, 0x05D5
    2490:	98 2f       	mov	r25, r24
    2492:	92 95       	swap	r25
    2494:	96 95       	lsr	r25
    2496:	97 70       	andi	r25, 0x07	; 7
    2498:	80 91 d6 05 	lds	r24, 0x05D6
    249c:	81 70       	andi	r24, 0x01	; 1
    249e:	88 0f       	add	r24, r24
    24a0:	88 0f       	add	r24, r24
    24a2:	88 0f       	add	r24, r24
    24a4:	89 2b       	or	r24, r25
    24a6:	21 e0       	ldi	r18, 0x01	; 1
    24a8:	30 e0       	ldi	r19, 0x00	; 0
    24aa:	a9 01       	movw	r20, r18
    24ac:	02 c0       	rjmp	.+4      	; 0x24b2 <check_tap+0x140>
    24ae:	44 0f       	add	r20, r20
    24b0:	55 1f       	adc	r21, r21
    24b2:	8a 95       	dec	r24
    24b4:	e2 f7       	brpl	.-8      	; 0x24ae <check_tap+0x13c>
    24b6:	ca 01       	movw	r24, r20
    24b8:	20 81       	ld	r18, Z
    24ba:	31 81       	ldd	r19, Z+1	; 0x01
    24bc:	82 2b       	or	r24, r18
    24be:	93 2b       	or	r25, r19
    24c0:	91 83       	std	Z+1, r25	; 0x01
    24c2:	80 83       	st	Z, r24
    24c4:	e1 ee       	ldi	r30, 0xE1	; 225
    24c6:	f2 e0       	ldi	r31, 0x02	; 2
    24c8:	80 81       	ld	r24, Z
    24ca:	80 61       	ori	r24, 0x10	; 16
    24cc:	80 83       	st	Z, r24
    24ce:	7b c0       	rjmp	.+246    	; 0x25c6 <check_tap+0x254>
    24d0:	83 30       	cpi	r24, 0x03	; 3
    24d2:	09 f0       	breq	.+2      	; 0x24d6 <check_tap+0x164>
    24d4:	78 c0       	rjmp	.+240    	; 0x25c6 <check_tap+0x254>
    24d6:	80 91 fc 04 	lds	r24, 0x04FC
    24da:	85 ff       	sbrs	r24, 5
    24dc:	09 c0       	rjmp	.+18     	; 0x24f0 <check_tap+0x17e>
    24de:	8f 70       	andi	r24, 0x0F	; 15
    24e0:	09 f0       	breq	.+2      	; 0x24e4 <check_tap+0x172>
    24e2:	71 c0       	rjmp	.+226    	; 0x25c6 <check_tap+0x254>
    24e4:	e2 ee       	ldi	r30, 0xE2	; 226
    24e6:	f2 e0       	ldi	r31, 0x02	; 2
    24e8:	80 81       	ld	r24, Z
    24ea:	88 60       	ori	r24, 0x08	; 8
    24ec:	80 83       	st	Z, r24
    24ee:	6b c0       	rjmp	.+214    	; 0x25c6 <check_tap+0x254>
    24f0:	e2 ee       	ldi	r30, 0xE2	; 226
    24f2:	f2 e0       	ldi	r31, 0x02	; 2
    24f4:	80 81       	ld	r24, Z
    24f6:	82 fb       	bst	r24, 2
    24f8:	99 27       	eor	r25, r25
    24fa:	90 f9       	bld	r25, 0
    24fc:	81 e0       	ldi	r24, 0x01	; 1
    24fe:	89 27       	eor	r24, r25
    2500:	90 81       	ld	r25, Z
    2502:	80 fb       	bst	r24, 0
    2504:	92 f9       	bld	r25, 2
    2506:	90 83       	st	Z, r25
    2508:	80 81       	ld	r24, Z
    250a:	82 ff       	sbrs	r24, 2
    250c:	41 c0       	rjmp	.+130    	; 0x2590 <check_tap+0x21e>
    250e:	60 91 88 05 	lds	r22, 0x0588
    2512:	6f 70       	andi	r22, 0x0F	; 15
    2514:	07 ed       	ldi	r16, 0xD7	; 215
    2516:	15 e0       	ldi	r17, 0x05	; 5
    2518:	d8 01       	movw	r26, r16
    251a:	9c 91       	ld	r25, X
    251c:	92 95       	swap	r25
    251e:	96 95       	lsr	r25
    2520:	97 70       	andi	r25, 0x07	; 7
    2522:	c8 ed       	ldi	r28, 0xD8	; 216
    2524:	d5 e0       	ldi	r29, 0x05	; 5
    2526:	88 81       	ld	r24, Y
    2528:	81 70       	andi	r24, 0x01	; 1
    252a:	88 0f       	add	r24, r24
    252c:	88 0f       	add	r24, r24
    252e:	88 0f       	add	r24, r24
    2530:	89 2b       	or	r24, r25
    2532:	0e 94 ab 10 	call	0x2156	; 0x2156 <read_next_pattern>
    2536:	80 91 d6 05 	lds	r24, 0x05D6
    253a:	28 2f       	mov	r18, r24
    253c:	22 95       	swap	r18
    253e:	26 95       	lsr	r18
    2540:	27 70       	andi	r18, 0x07	; 7
    2542:	f8 01       	movw	r30, r16
    2544:	80 81       	ld	r24, Z
    2546:	81 70       	andi	r24, 0x01	; 1
    2548:	88 0f       	add	r24, r24
    254a:	88 0f       	add	r24, r24
    254c:	88 0f       	add	r24, r24
    254e:	e5 ed       	ldi	r30, 0xD5	; 213
    2550:	f5 e0       	ldi	r31, 0x05	; 5
    2552:	82 2b       	or	r24, r18
    2554:	98 2f       	mov	r25, r24
    2556:	99 0f       	add	r25, r25
    2558:	82 81       	ldd	r24, Z+2	; 0x02
    255a:	81 7e       	andi	r24, 0xE1	; 225
    255c:	89 2b       	or	r24, r25
    255e:	28 2f       	mov	r18, r24
    2560:	22 95       	swap	r18
    2562:	26 95       	lsr	r18
    2564:	27 70       	andi	r18, 0x07	; 7
    2566:	98 81       	ld	r25, Y
    2568:	91 70       	andi	r25, 0x01	; 1
    256a:	99 0f       	add	r25, r25
    256c:	99 0f       	add	r25, r25
    256e:	99 0f       	add	r25, r25
    2570:	92 2b       	or	r25, r18
    2572:	39 2f       	mov	r19, r25
    2574:	32 95       	swap	r19
    2576:	33 0f       	add	r19, r19
    2578:	30 7e       	andi	r19, 0xE0	; 224
    257a:	21 81       	ldd	r18, Z+1	; 0x01
    257c:	2f 71       	andi	r18, 0x1F	; 31
    257e:	23 2b       	or	r18, r19
    2580:	21 83       	std	Z+1, r18	; 0x01
    2582:	96 95       	lsr	r25
    2584:	96 95       	lsr	r25
    2586:	96 95       	lsr	r25
    2588:	8e 7f       	andi	r24, 0xFE	; 254
    258a:	89 2b       	or	r24, r25
    258c:	82 83       	std	Z+2, r24	; 0x02
    258e:	1b c0       	rjmp	.+54     	; 0x25c6 <check_tap+0x254>
    2590:	80 91 d7 05 	lds	r24, 0x05D7
    2594:	86 95       	lsr	r24
    2596:	8f 70       	andi	r24, 0x0F	; 15
    2598:	e5 ed       	ldi	r30, 0xD5	; 213
    259a:	f5 e0       	ldi	r31, 0x05	; 5
    259c:	28 2f       	mov	r18, r24
    259e:	22 95       	swap	r18
    25a0:	22 0f       	add	r18, r18
    25a2:	20 7e       	andi	r18, 0xE0	; 224
    25a4:	91 81       	ldd	r25, Z+1	; 0x01
    25a6:	9f 71       	andi	r25, 0x1F	; 31
    25a8:	92 2b       	or	r25, r18
    25aa:	91 83       	std	Z+1, r25	; 0x01
    25ac:	28 2f       	mov	r18, r24
    25ae:	26 95       	lsr	r18
    25b0:	26 95       	lsr	r18
    25b2:	26 95       	lsr	r18
    25b4:	92 81       	ldd	r25, Z+2	; 0x02
    25b6:	9e 7f       	andi	r25, 0xFE	; 254
    25b8:	92 2b       	or	r25, r18
    25ba:	92 83       	std	Z+2, r25	; 0x02
    25bc:	60 91 88 05 	lds	r22, 0x0588
    25c0:	6f 70       	andi	r22, 0x0F	; 15
    25c2:	0e 94 ab 10 	call	0x2156	; 0x2156 <read_next_pattern>
    25c6:	df 91       	pop	r29
    25c8:	cf 91       	pop	r28
    25ca:	1f 91       	pop	r17
    25cc:	0f 91       	pop	r16
    25ce:	08 95       	ret

000025d0 <write_current_pattern>:
    25d0:	cf 93       	push	r28
    25d2:	df 93       	push	r29
    25d4:	cd b7       	in	r28, 0x3d	; 61
    25d6:	de b7       	in	r29, 0x3e	; 62
    25d8:	cb 58       	subi	r28, 0x8B	; 139
    25da:	d1 09       	sbc	r29, r1
    25dc:	0f b6       	in	r0, 0x3f	; 63
    25de:	f8 94       	cli
    25e0:	de bf       	out	0x3e, r29	; 62
    25e2:	0f be       	out	0x3f, r0	; 63
    25e4:	cd bf       	out	0x3d, r28	; 61
    25e6:	98 2f       	mov	r25, r24
    25e8:	24 e4       	ldi	r18, 0x44	; 68
    25ea:	e0 e0       	ldi	r30, 0x00	; 0
    25ec:	f5 e0       	ldi	r31, 0x05	; 5
    25ee:	de 01       	movw	r26, r28
    25f0:	11 96       	adiw	r26, 0x01	; 1
    25f2:	01 90       	ld	r0, Z+
    25f4:	0d 92       	st	X+, r0
    25f6:	2a 95       	dec	r18
    25f8:	e1 f7       	brne	.-8      	; 0x25f2 <write_current_pattern+0x22>
    25fa:	24 e4       	ldi	r18, 0x44	; 68
    25fc:	e4 e4       	ldi	r30, 0x44	; 68
    25fe:	f5 e0       	ldi	r31, 0x05	; 5
    2600:	de 01       	movw	r26, r28
    2602:	ab 5b       	subi	r26, 0xBB	; 187
    2604:	bf 4f       	sbci	r27, 0xFF	; 255
    2606:	01 90       	ld	r0, Z+
    2608:	0d 92       	st	X+, r0
    260a:	2a 95       	dec	r18
    260c:	e1 f7       	brne	.-8      	; 0x2606 <write_current_pattern+0x36>
    260e:	80 91 d3 05 	lds	r24, 0x05D3
    2612:	c6 57       	subi	r28, 0x76	; 118
    2614:	df 4f       	sbci	r29, 0xFF	; 255
    2616:	88 83       	st	Y, r24
    2618:	ca 58       	subi	r28, 0x8A	; 138
    261a:	d0 40       	sbci	r29, 0x00	; 0
    261c:	80 91 d4 05 	lds	r24, 0x05D4
    2620:	c5 57       	subi	r28, 0x75	; 117
    2622:	df 4f       	sbci	r29, 0xFF	; 255
    2624:	88 83       	st	Y, r24
    2626:	cb 58       	subi	r28, 0x8B	; 139
    2628:	d0 40       	sbci	r29, 0x00	; 0
    262a:	20 91 d6 05 	lds	r18, 0x05D6
    262e:	26 95       	lsr	r18
    2630:	26 95       	lsr	r18
    2632:	26 95       	lsr	r18
    2634:	23 70       	andi	r18, 0x03	; 3
    2636:	c7 57       	subi	r28, 0x77	; 119
    2638:	df 4f       	sbci	r29, 0xFF	; 255
    263a:	28 83       	st	Y, r18
    263c:	c9 58       	subi	r28, 0x89	; 137
    263e:	d0 40       	sbci	r29, 0x00	; 0
    2640:	ae 01       	movw	r20, r28
    2642:	4f 5f       	subi	r20, 0xFF	; 255
    2644:	5f 4f       	sbci	r21, 0xFF	; 255
    2646:	80 e0       	ldi	r24, 0x00	; 0
    2648:	0e 94 b3 01 	call	0x366	; 0x366 <write_pattern>
    264c:	c5 57       	subi	r28, 0x75	; 117
    264e:	df 4f       	sbci	r29, 0xFF	; 255
    2650:	0f b6       	in	r0, 0x3f	; 63
    2652:	f8 94       	cli
    2654:	de bf       	out	0x3e, r29	; 62
    2656:	0f be       	out	0x3f, r0	; 63
    2658:	cd bf       	out	0x3d, r28	; 61
    265a:	df 91       	pop	r29
    265c:	cf 91       	pop	r28
    265e:	08 95       	ret

00002660 <process_new_measure>:
    2660:	cf 93       	push	r28
    2662:	df 93       	push	r29
    2664:	e5 ed       	ldi	r30, 0xD5	; 213
    2666:	f5 e0       	ldi	r31, 0x05	; 5
    2668:	80 81       	ld	r24, Z
    266a:	8f 71       	andi	r24, 0x1F	; 31
    266c:	80 83       	st	Z, r24
    266e:	81 81       	ldd	r24, Z+1	; 0x01
    2670:	8e 7f       	andi	r24, 0xFE	; 254
    2672:	81 83       	std	Z+1, r24	; 0x01
    2674:	80 91 e1 02 	lds	r24, 0x02E1
    2678:	84 ff       	sbrs	r24, 4
    267a:	16 c0       	rjmp	.+44     	; 0x26a8 <process_new_measure+0x48>
    267c:	e1 ee       	ldi	r30, 0xE1	; 225
    267e:	f2 e0       	ldi	r31, 0x02	; 2
    2680:	80 81       	ld	r24, Z
    2682:	8f 7e       	andi	r24, 0xEF	; 239
    2684:	80 83       	st	Z, r24
    2686:	60 91 88 05 	lds	r22, 0x0588
    268a:	6f 70       	andi	r22, 0x0F	; 15
    268c:	90 91 d6 05 	lds	r25, 0x05D6
    2690:	92 95       	swap	r25
    2692:	96 95       	lsr	r25
    2694:	97 70       	andi	r25, 0x07	; 7
    2696:	80 91 d7 05 	lds	r24, 0x05D7
    269a:	81 70       	andi	r24, 0x01	; 1
    269c:	88 0f       	add	r24, r24
    269e:	88 0f       	add	r24, r24
    26a0:	88 0f       	add	r24, r24
    26a2:	89 2b       	or	r24, r25
    26a4:	0e 94 e8 12 	call	0x25d0	; 0x25d0 <write_current_pattern>
    26a8:	80 91 fa 04 	lds	r24, 0x04FA
    26ac:	84 30       	cpi	r24, 0x04	; 4
    26ae:	09 f0       	breq	.+2      	; 0x26b2 <process_new_measure+0x52>
    26b0:	6b c0       	rjmp	.+214    	; 0x2788 <process_new_measure+0x128>
    26b2:	80 91 d8 05 	lds	r24, 0x05D8
    26b6:	98 2f       	mov	r25, r24
    26b8:	99 1f       	adc	r25, r25
    26ba:	99 27       	eor	r25, r25
    26bc:	99 1f       	adc	r25, r25
    26be:	80 91 d9 05 	lds	r24, 0x05D9
    26c2:	8f 73       	andi	r24, 0x3F	; 63
    26c4:	88 0f       	add	r24, r24
    26c6:	89 2b       	or	r24, r25
    26c8:	e1 e0       	ldi	r30, 0x01	; 1
    26ca:	e8 0f       	add	r30, r24
    26cc:	ef 77       	andi	r30, 0x7F	; 127
    26ce:	a5 ed       	ldi	r26, 0xD5	; 213
    26d0:	b5 e0       	ldi	r27, 0x05	; 5
    26d2:	13 96       	adiw	r26, 0x03	; 3
    26d4:	9c 91       	ld	r25, X
    26d6:	13 97       	sbiw	r26, 0x03	; 3
    26d8:	e0 fb       	bst	r30, 0
    26da:	97 f9       	bld	r25, 7
    26dc:	13 96       	adiw	r26, 0x03	; 3
    26de:	9c 93       	st	X, r25
    26e0:	13 97       	sbiw	r26, 0x03	; 3
    26e2:	2e 2f       	mov	r18, r30
    26e4:	26 95       	lsr	r18
    26e6:	14 96       	adiw	r26, 0x04	; 4
    26e8:	9c 91       	ld	r25, X
    26ea:	14 97       	sbiw	r26, 0x04	; 4
    26ec:	90 7c       	andi	r25, 0xC0	; 192
    26ee:	92 2b       	or	r25, r18
    26f0:	14 96       	adiw	r26, 0x04	; 4
    26f2:	9c 93       	st	X, r25
    26f4:	90 e0       	ldi	r25, 0x00	; 0
    26f6:	20 91 f9 04 	lds	r18, 0x04F9
    26fa:	30 e0       	ldi	r19, 0x00	; 0
    26fc:	82 17       	cp	r24, r18
    26fe:	93 07       	cpc	r25, r19
    2700:	44 f1       	brlt	.+80     	; 0x2752 <process_new_measure+0xf2>
    2702:	ec ef       	ldi	r30, 0xFC	; 252
    2704:	f4 e0       	ldi	r31, 0x04	; 4
    2706:	80 81       	ld	r24, Z
    2708:	8f 7d       	andi	r24, 0xDF	; 223
    270a:	80 83       	st	Z, r24
    270c:	0e 94 98 0f 	call	0x1f30	; 0x1f30 <process_stop>
    2710:	60 91 b9 04 	lds	r22, 0x04B9
    2714:	96 2f       	mov	r25, r22
    2716:	9f 70       	andi	r25, 0x0F	; 15
    2718:	e5 ed       	ldi	r30, 0xD5	; 213
    271a:	f5 e0       	ldi	r31, 0x05	; 5
    271c:	29 2f       	mov	r18, r25
    271e:	22 0f       	add	r18, r18
    2720:	92 81       	ldd	r25, Z+2	; 0x02
    2722:	91 7e       	andi	r25, 0xE1	; 225
    2724:	92 2b       	or	r25, r18
    2726:	92 83       	std	Z+2, r25	; 0x02
    2728:	62 95       	swap	r22
    272a:	6f 70       	andi	r22, 0x0F	; 15
    272c:	e8 e8       	ldi	r30, 0x88	; 136
    272e:	f5 e0       	ldi	r31, 0x05	; 5
    2730:	80 81       	ld	r24, Z
    2732:	80 7f       	andi	r24, 0xF0	; 240
    2734:	86 2b       	or	r24, r22
    2736:	80 83       	st	Z, r24
    2738:	80 91 d6 05 	lds	r24, 0x05D6
    273c:	82 95       	swap	r24
    273e:	86 95       	lsr	r24
    2740:	87 70       	andi	r24, 0x07	; 7
    2742:	91 70       	andi	r25, 0x01	; 1
    2744:	99 0f       	add	r25, r25
    2746:	99 0f       	add	r25, r25
    2748:	99 0f       	add	r25, r25
    274a:	89 2b       	or	r24, r25
    274c:	0e 94 ab 10 	call	0x2156	; 0x2156 <read_next_pattern>
    2750:	0e c1       	rjmp	.+540    	; 0x296e <process_new_measure+0x30e>
    2752:	f0 e0       	ldi	r31, 0x00	; 0
    2754:	e7 54       	subi	r30, 0x47	; 71
    2756:	fb 4f       	sbci	r31, 0xFB	; 251
    2758:	80 81       	ld	r24, Z
    275a:	98 2f       	mov	r25, r24
    275c:	9f 70       	andi	r25, 0x0F	; 15
    275e:	e5 ed       	ldi	r30, 0xD5	; 213
    2760:	f5 e0       	ldi	r31, 0x05	; 5
    2762:	29 2f       	mov	r18, r25
    2764:	22 0f       	add	r18, r18
    2766:	92 81       	ldd	r25, Z+2	; 0x02
    2768:	91 7e       	andi	r25, 0xE1	; 225
    276a:	92 2b       	or	r25, r18
    276c:	92 83       	std	Z+2, r25	; 0x02
    276e:	e8 e8       	ldi	r30, 0x88	; 136
    2770:	f5 e0       	ldi	r31, 0x05	; 5
    2772:	82 95       	swap	r24
    2774:	8f 70       	andi	r24, 0x0F	; 15
    2776:	90 81       	ld	r25, Z
    2778:	90 7f       	andi	r25, 0xF0	; 240
    277a:	89 2b       	or	r24, r25
    277c:	80 83       	st	Z, r24
    277e:	e1 ee       	ldi	r30, 0xE1	; 225
    2780:	f2 e0       	ldi	r31, 0x02	; 2
    2782:	80 81       	ld	r24, Z
    2784:	80 62       	ori	r24, 0x20	; 32
    2786:	80 83       	st	Z, r24
    2788:	80 91 d4 05 	lds	r24, 0x05D4
    278c:	80 31       	cpi	r24, 0x10	; 16
    278e:	09 f4       	brne	.+2      	; 0x2792 <process_new_measure+0x132>
    2790:	74 c0       	rjmp	.+232    	; 0x287a <process_new_measure+0x21a>
    2792:	80 91 d6 05 	lds	r24, 0x05D6
    2796:	81 ff       	sbrs	r24, 1
    2798:	5c c0       	rjmp	.+184    	; 0x2852 <process_new_measure+0x1f2>
    279a:	81 fb       	bst	r24, 1
    279c:	99 27       	eor	r25, r25
    279e:	90 f9       	bld	r25, 0
    27a0:	81 e0       	ldi	r24, 0x01	; 1
    27a2:	89 27       	eor	r24, r25
    27a4:	e5 ed       	ldi	r30, 0xD5	; 213
    27a6:	f5 e0       	ldi	r31, 0x05	; 5
    27a8:	91 81       	ldd	r25, Z+1	; 0x01
    27aa:	80 fb       	bst	r24, 0
    27ac:	91 f9       	bld	r25, 1
    27ae:	91 83       	std	Z+1, r25	; 0x01
    27b0:	8b e2       	ldi	r24, 0x2B	; 43
    27b2:	0e 94 f1 07 	call	0xfe2	; 0xfe2 <turn_off>
    27b6:	8a e2       	ldi	r24, 0x2A	; 42
    27b8:	0e 94 d6 07 	call	0xfac	; 0xfac <turn_on>
    27bc:	0e 94 7f 10 	call	0x20fe	; 0x20fe <toggle_variation>
    27c0:	80 91 e1 02 	lds	r24, 0x02E1
    27c4:	85 ff       	sbrs	r24, 5
    27c6:	3d c0       	rjmp	.+122    	; 0x2842 <process_new_measure+0x1e2>
    27c8:	e1 ee       	ldi	r30, 0xE1	; 225
    27ca:	f2 e0       	ldi	r31, 0x02	; 2
    27cc:	80 81       	ld	r24, Z
    27ce:	8f 7d       	andi	r24, 0xDF	; 223
    27d0:	80 83       	st	Z, r24
    27d2:	e2 ee       	ldi	r30, 0xE2	; 226
    27d4:	f2 e0       	ldi	r31, 0x02	; 2
    27d6:	80 81       	ld	r24, Z
    27d8:	81 60       	ori	r24, 0x01	; 1
    27da:	80 83       	st	Z, r24
    27dc:	80 91 d7 05 	lds	r24, 0x05D7
    27e0:	86 95       	lsr	r24
    27e2:	8f 70       	andi	r24, 0x0F	; 15
    27e4:	e5 ed       	ldi	r30, 0xD5	; 213
    27e6:	f5 e0       	ldi	r31, 0x05	; 5
    27e8:	28 2f       	mov	r18, r24
    27ea:	22 95       	swap	r18
    27ec:	22 0f       	add	r18, r18
    27ee:	20 7e       	andi	r18, 0xE0	; 224
    27f0:	91 81       	ldd	r25, Z+1	; 0x01
    27f2:	9f 71       	andi	r25, 0x1F	; 31
    27f4:	92 2b       	or	r25, r18
    27f6:	91 83       	std	Z+1, r25	; 0x01
    27f8:	28 2f       	mov	r18, r24
    27fa:	26 95       	lsr	r18
    27fc:	26 95       	lsr	r18
    27fe:	26 95       	lsr	r18
    2800:	92 81       	ldd	r25, Z+2	; 0x02
    2802:	9e 7f       	andi	r25, 0xFE	; 254
    2804:	92 2b       	or	r25, r18
    2806:	92 83       	std	Z+2, r25	; 0x02
    2808:	60 91 88 05 	lds	r22, 0x0588
    280c:	6f 70       	andi	r22, 0x0F	; 15
    280e:	0e 94 ab 10 	call	0x2156	; 0x2156 <read_next_pattern>
    2812:	e1 ed       	ldi	r30, 0xD1	; 209
    2814:	f5 e0       	ldi	r31, 0x05	; 5
    2816:	80 81       	ld	r24, Z
    2818:	8d 7f       	andi	r24, 0xFD	; 253
    281a:	80 83       	st	Z, r24
    281c:	80 91 d2 05 	lds	r24, 0x05D2
    2820:	81 30       	cpi	r24, 0x01	; 1
    2822:	19 f4       	brne	.+6      	; 0x282a <process_new_measure+0x1ca>
    2824:	80 81       	ld	r24, Z
    2826:	82 60       	ori	r24, 0x02	; 2
    2828:	80 83       	st	Z, r24
    282a:	e5 ed       	ldi	r30, 0xD5	; 213
    282c:	f5 e0       	ldi	r31, 0x05	; 5
    282e:	81 81       	ldd	r24, Z+1	; 0x01
    2830:	8d 7f       	andi	r24, 0xFD	; 253
    2832:	81 83       	std	Z+1, r24	; 0x01
    2834:	8b e2       	ldi	r24, 0x2B	; 43
    2836:	0e 94 f1 07 	call	0xfe2	; 0xfe2 <turn_off>
    283a:	8a e2       	ldi	r24, 0x2A	; 42
    283c:	0e 94 d6 07 	call	0xfac	; 0xfac <turn_on>
    2840:	65 c0       	rjmp	.+202    	; 0x290c <process_new_measure+0x2ac>
    2842:	80 91 fa 04 	lds	r24, 0x04FA
    2846:	83 30       	cpi	r24, 0x03	; 3
    2848:	09 f0       	breq	.+2      	; 0x284c <process_new_measure+0x1ec>
    284a:	60 c0       	rjmp	.+192    	; 0x290c <process_new_measure+0x2ac>
    284c:	0e 94 25 11 	call	0x224a	; 0x224a <update_fill>
    2850:	5d c0       	rjmp	.+186    	; 0x290c <process_new_measure+0x2ac>
    2852:	8a e2       	ldi	r24, 0x2A	; 42
    2854:	0e 94 f1 07 	call	0xfe2	; 0xfe2 <turn_off>
    2858:	8b e2       	ldi	r24, 0x2B	; 43
    285a:	0e 94 d6 07 	call	0xfac	; 0xfac <turn_on>
    285e:	80 91 d6 05 	lds	r24, 0x05D6
    2862:	81 fb       	bst	r24, 1
    2864:	99 27       	eor	r25, r25
    2866:	90 f9       	bld	r25, 0
    2868:	81 e0       	ldi	r24, 0x01	; 1
    286a:	89 27       	eor	r24, r25
    286c:	e5 ed       	ldi	r30, 0xD5	; 213
    286e:	f5 e0       	ldi	r31, 0x05	; 5
    2870:	91 81       	ldd	r25, Z+1	; 0x01
    2872:	80 fb       	bst	r24, 0
    2874:	91 f9       	bld	r25, 1
    2876:	91 83       	std	Z+1, r25	; 0x01
    2878:	49 c0       	rjmp	.+146    	; 0x290c <process_new_measure+0x2ac>
    287a:	0e 94 7f 10 	call	0x20fe	; 0x20fe <toggle_variation>
    287e:	80 91 e1 02 	lds	r24, 0x02E1
    2882:	85 ff       	sbrs	r24, 5
    2884:	3d c0       	rjmp	.+122    	; 0x2900 <process_new_measure+0x2a0>
    2886:	e1 ee       	ldi	r30, 0xE1	; 225
    2888:	f2 e0       	ldi	r31, 0x02	; 2
    288a:	80 81       	ld	r24, Z
    288c:	8f 7d       	andi	r24, 0xDF	; 223
    288e:	80 83       	st	Z, r24
    2890:	e2 ee       	ldi	r30, 0xE2	; 226
    2892:	f2 e0       	ldi	r31, 0x02	; 2
    2894:	80 81       	ld	r24, Z
    2896:	81 60       	ori	r24, 0x01	; 1
    2898:	80 83       	st	Z, r24
    289a:	80 91 d7 05 	lds	r24, 0x05D7
    289e:	86 95       	lsr	r24
    28a0:	8f 70       	andi	r24, 0x0F	; 15
    28a2:	e5 ed       	ldi	r30, 0xD5	; 213
    28a4:	f5 e0       	ldi	r31, 0x05	; 5
    28a6:	28 2f       	mov	r18, r24
    28a8:	22 95       	swap	r18
    28aa:	22 0f       	add	r18, r18
    28ac:	20 7e       	andi	r18, 0xE0	; 224
    28ae:	91 81       	ldd	r25, Z+1	; 0x01
    28b0:	9f 71       	andi	r25, 0x1F	; 31
    28b2:	92 2b       	or	r25, r18
    28b4:	91 83       	std	Z+1, r25	; 0x01
    28b6:	28 2f       	mov	r18, r24
    28b8:	26 95       	lsr	r18
    28ba:	26 95       	lsr	r18
    28bc:	26 95       	lsr	r18
    28be:	92 81       	ldd	r25, Z+2	; 0x02
    28c0:	9e 7f       	andi	r25, 0xFE	; 254
    28c2:	92 2b       	or	r25, r18
    28c4:	92 83       	std	Z+2, r25	; 0x02
    28c6:	60 91 88 05 	lds	r22, 0x0588
    28ca:	6f 70       	andi	r22, 0x0F	; 15
    28cc:	0e 94 ab 10 	call	0x2156	; 0x2156 <read_next_pattern>
    28d0:	e1 ed       	ldi	r30, 0xD1	; 209
    28d2:	f5 e0       	ldi	r31, 0x05	; 5
    28d4:	80 81       	ld	r24, Z
    28d6:	8d 7f       	andi	r24, 0xFD	; 253
    28d8:	80 83       	st	Z, r24
    28da:	80 91 d2 05 	lds	r24, 0x05D2
    28de:	81 30       	cpi	r24, 0x01	; 1
    28e0:	19 f4       	brne	.+6      	; 0x28e8 <process_new_measure+0x288>
    28e2:	80 81       	ld	r24, Z
    28e4:	82 60       	ori	r24, 0x02	; 2
    28e6:	80 83       	st	Z, r24
    28e8:	e5 ed       	ldi	r30, 0xD5	; 213
    28ea:	f5 e0       	ldi	r31, 0x05	; 5
    28ec:	81 81       	ldd	r24, Z+1	; 0x01
    28ee:	8d 7f       	andi	r24, 0xFD	; 253
    28f0:	81 83       	std	Z+1, r24	; 0x01
    28f2:	8b e2       	ldi	r24, 0x2B	; 43
    28f4:	0e 94 f1 07 	call	0xfe2	; 0xfe2 <turn_off>
    28f8:	8a e2       	ldi	r24, 0x2A	; 42
    28fa:	0e 94 d6 07 	call	0xfac	; 0xfac <turn_on>
    28fe:	06 c0       	rjmp	.+12     	; 0x290c <process_new_measure+0x2ac>
    2900:	80 91 fa 04 	lds	r24, 0x04FA
    2904:	83 30       	cpi	r24, 0x03	; 3
    2906:	11 f4       	brne	.+4      	; 0x290c <process_new_measure+0x2ac>
    2908:	0e 94 25 11 	call	0x224a	; 0x224a <update_fill>
    290c:	80 91 fa 04 	lds	r24, 0x04FA
    2910:	81 50       	subi	r24, 0x01	; 1
    2912:	82 30       	cpi	r24, 0x02	; 2
    2914:	90 f4       	brcc	.+36     	; 0x293a <process_new_measure+0x2da>
    2916:	80 91 d6 05 	lds	r24, 0x05D6
    291a:	82 fb       	bst	r24, 2
    291c:	88 27       	eor	r24, r24
    291e:	80 f9       	bld	r24, 0
    2920:	c8 2f       	mov	r28, r24
    2922:	80 e0       	ldi	r24, 0x00	; 0
    2924:	d8 2f       	mov	r29, r24
    2926:	c6 50       	subi	r28, 0x06	; 6
    2928:	db 4f       	sbci	r29, 0xFB	; 251
    292a:	c7 52       	subi	r28, 0x27	; 39
    292c:	df 4f       	sbci	r29, 0xFF	; 255
    292e:	80 91 d5 05 	lds	r24, 0x05D5
    2932:	8f 71       	andi	r24, 0x1F	; 31
    2934:	88 83       	st	Y, r24
    2936:	0e 94 ec 08 	call	0x11d8	; 0x11d8 <update_inst_led_mask>
    293a:	80 91 e2 02 	lds	r24, 0x02E2
    293e:	80 ff       	sbrs	r24, 0
    2940:	16 c0       	rjmp	.+44     	; 0x296e <process_new_measure+0x30e>
    2942:	e2 ee       	ldi	r30, 0xE2	; 226
    2944:	f2 e0       	ldi	r31, 0x02	; 2
    2946:	80 81       	ld	r24, Z
    2948:	8e 7f       	andi	r24, 0xFE	; 254
    294a:	80 83       	st	Z, r24
    294c:	ec ef       	ldi	r30, 0xFC	; 252
    294e:	f4 e0       	ldi	r31, 0x04	; 4
    2950:	81 81       	ldd	r24, Z+1	; 0x01
    2952:	81 7f       	andi	r24, 0xF1	; 241
    2954:	81 83       	std	Z+1, r24	; 0x01
    2956:	e0 91 d6 05 	lds	r30, 0x05D6
    295a:	e6 95       	lsr	r30
    295c:	e6 95       	lsr	r30
    295e:	e6 95       	lsr	r30
    2960:	e3 70       	andi	r30, 0x03	; 3
    2962:	f0 e0       	ldi	r31, 0x00	; 0
    2964:	ee 50       	subi	r30, 0x0E	; 14
    2966:	fe 4f       	sbci	r31, 0xFE	; 254
    2968:	80 81       	ld	r24, Z
    296a:	80 93 fb 02 	sts	0x02FB, r24
    296e:	df 91       	pop	r29
    2970:	cf 91       	pop	r28
    2972:	08 95       	ret

00002974 <process_step>:
    2974:	cf 92       	push	r12
    2976:	df 92       	push	r13
    2978:	ef 92       	push	r14
    297a:	ff 92       	push	r15
    297c:	0f 93       	push	r16
    297e:	1f 93       	push	r17
    2980:	cf 93       	push	r28
    2982:	df 93       	push	r29
    2984:	80 91 e1 02 	lds	r24, 0x02E1
    2988:	80 ff       	sbrs	r24, 0
    298a:	eb c0       	rjmp	.+470    	; 0x2b62 <process_step+0x1ee>
    298c:	e1 ee       	ldi	r30, 0xE1	; 225
    298e:	f2 e0       	ldi	r31, 0x02	; 2
    2990:	80 81       	ld	r24, Z
    2992:	8e 7f       	andi	r24, 0xFE	; 254
    2994:	80 83       	st	Z, r24
    2996:	80 91 fc 04 	lds	r24, 0x04FC
    299a:	85 ff       	sbrs	r24, 5
    299c:	1b c3       	rjmp	.+1590   	; 0x2fd4 <process_step+0x660>
    299e:	80 91 e1 02 	lds	r24, 0x02E1
    29a2:	88 23       	and	r24, r24
    29a4:	4c f4       	brge	.+18     	; 0x29b8 <process_step+0x44>
    29a6:	80 81       	ld	r24, Z
    29a8:	8f 77       	andi	r24, 0x7F	; 127
    29aa:	80 83       	st	Z, r24
    29ac:	0e 94 30 13 	call	0x2660	; 0x2660 <process_new_measure>
    29b0:	80 91 fc 04 	lds	r24, 0x04FC
    29b4:	85 ff       	sbrs	r24, 5
    29b6:	15 c3       	rjmp	.+1578   	; 0x2fe2 <process_step+0x66e>
    29b8:	80 91 fa 04 	lds	r24, 0x04FA
    29bc:	83 30       	cpi	r24, 0x03	; 3
    29be:	09 f4       	brne	.+2      	; 0x29c2 <process_step+0x4e>
    29c0:	4d c0       	rjmp	.+154    	; 0x2a5c <process_step+0xe8>
    29c2:	20 f0       	brcs	.+8      	; 0x29cc <process_step+0x58>
    29c4:	86 30       	cpi	r24, 0x06	; 6
    29c6:	08 f0       	brcs	.+2      	; 0x29ca <process_step+0x56>
    29c8:	c9 c0       	rjmp	.+402    	; 0x2b5c <process_step+0x1e8>
    29ca:	92 c0       	rjmp	.+292    	; 0x2af0 <process_step+0x17c>
    29cc:	0e 94 b9 11 	call	0x2372	; 0x2372 <check_tap>
    29d0:	80 91 fc 04 	lds	r24, 0x04FC
    29d4:	84 fd       	sbrc	r24, 4
    29d6:	c2 c0       	rjmp	.+388    	; 0x2b5c <process_step+0x1e8>
    29d8:	80 91 d6 05 	lds	r24, 0x05D6
    29dc:	82 fb       	bst	r24, 2
    29de:	99 27       	eor	r25, r25
    29e0:	90 f9       	bld	r25, 0
    29e2:	86 95       	lsr	r24
    29e4:	81 70       	andi	r24, 0x01	; 1
    29e6:	98 13       	cpse	r25, r24
    29e8:	b9 c0       	rjmp	.+370    	; 0x2b5c <process_step+0x1e8>
    29ea:	80 91 d5 05 	lds	r24, 0x05D5
    29ee:	98 2f       	mov	r25, r24
    29f0:	92 95       	swap	r25
    29f2:	96 95       	lsr	r25
    29f4:	97 70       	andi	r25, 0x07	; 7
    29f6:	80 91 d6 05 	lds	r24, 0x05D6
    29fa:	81 70       	andi	r24, 0x01	; 1
    29fc:	88 0f       	add	r24, r24
    29fe:	88 0f       	add	r24, r24
    2a00:	88 0f       	add	r24, r24
    2a02:	89 2b       	or	r24, r25
    2a04:	21 e0       	ldi	r18, 0x01	; 1
    2a06:	30 e0       	ldi	r19, 0x00	; 0
    2a08:	02 c0       	rjmp	.+4      	; 0x2a0e <process_step+0x9a>
    2a0a:	22 0f       	add	r18, r18
    2a0c:	33 1f       	adc	r19, r19
    2a0e:	8a 95       	dec	r24
    2a10:	e2 f7       	brpl	.-8      	; 0x2a0a <process_step+0x96>
    2a12:	80 91 d1 05 	lds	r24, 0x05D1
    2a16:	81 fb       	bst	r24, 1
    2a18:	00 27       	eor	r16, r16
    2a1a:	00 f9       	bld	r16, 0
    2a1c:	10 e0       	ldi	r17, 0x00	; 0
    2a1e:	80 91 db 05 	lds	r24, 0x05DB
    2a22:	91 e1       	ldi	r25, 0x11	; 17
    2a24:	90 9f       	mul	r25, r16
    2a26:	f0 01       	movw	r30, r0
    2a28:	91 9f       	mul	r25, r17
    2a2a:	f0 0d       	add	r31, r0
    2a2c:	11 24       	eor	r1, r1
    2a2e:	e8 0f       	add	r30, r24
    2a30:	f1 1d       	adc	r31, r1
    2a32:	ee 0f       	add	r30, r30
    2a34:	ff 1f       	adc	r31, r31
    2a36:	e7 57       	subi	r30, 0x77	; 119
    2a38:	fa 4f       	sbci	r31, 0xFA	; 250
    2a3a:	90 81       	ld	r25, Z
    2a3c:	81 81       	ldd	r24, Z+1	; 0x01
    2a3e:	e1 e4       	ldi	r30, 0x41	; 65
    2a40:	f2 e0       	ldi	r31, 0x02	; 2
    2a42:	49 2f       	mov	r20, r25
    2a44:	42 23       	and	r20, r18
    2a46:	40 95       	com	r20
    2a48:	92 2b       	or	r25, r18
    2a4a:	94 23       	and	r25, r20
    2a4c:	91 83       	std	Z+1, r25	; 0x01
    2a4e:	98 2f       	mov	r25, r24
    2a50:	93 23       	and	r25, r19
    2a52:	90 95       	com	r25
    2a54:	83 2b       	or	r24, r19
    2a56:	89 23       	and	r24, r25
    2a58:	80 83       	st	Z, r24
    2a5a:	80 c0       	rjmp	.+256    	; 0x2b5c <process_step+0x1e8>
    2a5c:	0e 94 b9 11 	call	0x2372	; 0x2372 <check_tap>
    2a60:	80 91 fc 04 	lds	r24, 0x04FC
    2a64:	84 fd       	sbrc	r24, 4
    2a66:	7a c0       	rjmp	.+244    	; 0x2b5c <process_step+0x1e8>
    2a68:	20 91 d5 05 	lds	r18, 0x05D5
    2a6c:	82 2f       	mov	r24, r18
    2a6e:	82 95       	swap	r24
    2a70:	86 95       	lsr	r24
    2a72:	87 70       	andi	r24, 0x07	; 7
    2a74:	20 91 d6 05 	lds	r18, 0x05D6
    2a78:	21 70       	andi	r18, 0x01	; 1
    2a7a:	22 0f       	add	r18, r18
    2a7c:	22 0f       	add	r18, r18
    2a7e:	22 0f       	add	r18, r18
    2a80:	28 2b       	or	r18, r24
    2a82:	81 e0       	ldi	r24, 0x01	; 1
    2a84:	90 e0       	ldi	r25, 0x00	; 0
    2a86:	ac 01       	movw	r20, r24
    2a88:	02 c0       	rjmp	.+4      	; 0x2a8e <process_step+0x11a>
    2a8a:	44 0f       	add	r20, r20
    2a8c:	55 1f       	adc	r21, r21
    2a8e:	2a 95       	dec	r18
    2a90:	e2 f7       	brpl	.-8      	; 0x2a8a <process_step+0x116>
    2a92:	20 91 d7 05 	lds	r18, 0x05D7
    2a96:	32 2f       	mov	r19, r18
    2a98:	36 95       	lsr	r19
    2a9a:	3f 70       	andi	r19, 0x0F	; 15
    2a9c:	bc 01       	movw	r22, r24
    2a9e:	02 c0       	rjmp	.+4      	; 0x2aa4 <process_step+0x130>
    2aa0:	66 0f       	add	r22, r22
    2aa2:	77 1f       	adc	r23, r23
    2aa4:	3a 95       	dec	r19
    2aa6:	e2 f7       	brpl	.-8      	; 0x2aa0 <process_step+0x12c>
    2aa8:	e1 e4       	ldi	r30, 0x41	; 65
    2aaa:	f2 e0       	ldi	r31, 0x02	; 2
    2aac:	36 2f       	mov	r19, r22
    2aae:	34 23       	and	r19, r20
    2ab0:	30 95       	com	r19
    2ab2:	46 2b       	or	r20, r22
    2ab4:	34 23       	and	r19, r20
    2ab6:	31 83       	std	Z+1, r19	; 0x01
    2ab8:	22 95       	swap	r18
    2aba:	26 95       	lsr	r18
    2abc:	27 70       	andi	r18, 0x07	; 7
    2abe:	30 91 d8 05 	lds	r19, 0x05D8
    2ac2:	31 70       	andi	r19, 0x01	; 1
    2ac4:	33 0f       	add	r19, r19
    2ac6:	33 0f       	add	r19, r19
    2ac8:	33 0f       	add	r19, r19
    2aca:	23 2b       	or	r18, r19
    2acc:	02 c0       	rjmp	.+4      	; 0x2ad2 <process_step+0x15e>
    2ace:	88 0f       	add	r24, r24
    2ad0:	99 1f       	adc	r25, r25
    2ad2:	2a 95       	dec	r18
    2ad4:	e2 f7       	brpl	.-8      	; 0x2ace <process_step+0x15a>
    2ad6:	9c 01       	movw	r18, r24
    2ad8:	26 2b       	or	r18, r22
    2ada:	37 2b       	or	r19, r23
    2adc:	83 2f       	mov	r24, r19
    2ade:	85 23       	and	r24, r21
    2ae0:	28 2f       	mov	r18, r24
    2ae2:	20 95       	com	r18
    2ae4:	87 2f       	mov	r24, r23
    2ae6:	85 2b       	or	r24, r21
    2ae8:	89 2b       	or	r24, r25
    2aea:	82 23       	and	r24, r18
    2aec:	80 83       	st	Z, r24
    2aee:	36 c0       	rjmp	.+108    	; 0x2b5c <process_step+0x1e8>
    2af0:	80 91 fd 04 	lds	r24, 0x04FD
    2af4:	80 fd       	sbrc	r24, 0
    2af6:	32 c0       	rjmp	.+100    	; 0x2b5c <process_step+0x1e8>
    2af8:	80 91 fc 04 	lds	r24, 0x04FC
    2afc:	88 23       	and	r24, r24
    2afe:	74 f1       	brlt	.+92     	; 0x2b5c <process_step+0x1e8>
    2b00:	20 91 d5 05 	lds	r18, 0x05D5
    2b04:	82 2f       	mov	r24, r18
    2b06:	82 95       	swap	r24
    2b08:	86 95       	lsr	r24
    2b0a:	87 70       	andi	r24, 0x07	; 7
    2b0c:	20 91 d6 05 	lds	r18, 0x05D6
    2b10:	21 70       	andi	r18, 0x01	; 1
    2b12:	22 0f       	add	r18, r18
    2b14:	22 0f       	add	r18, r18
    2b16:	22 0f       	add	r18, r18
    2b18:	28 2b       	or	r18, r24
    2b1a:	81 e0       	ldi	r24, 0x01	; 1
    2b1c:	90 e0       	ldi	r25, 0x00	; 0
    2b1e:	ac 01       	movw	r20, r24
    2b20:	02 c0       	rjmp	.+4      	; 0x2b26 <process_step+0x1b2>
    2b22:	44 0f       	add	r20, r20
    2b24:	55 1f       	adc	r21, r21
    2b26:	2a 95       	dec	r18
    2b28:	e2 f7       	brpl	.-8      	; 0x2b22 <process_step+0x1ae>
    2b2a:	20 91 d7 05 	lds	r18, 0x05D7
    2b2e:	26 95       	lsr	r18
    2b30:	2f 70       	andi	r18, 0x0F	; 15
    2b32:	02 c0       	rjmp	.+4      	; 0x2b38 <process_step+0x1c4>
    2b34:	88 0f       	add	r24, r24
    2b36:	99 1f       	adc	r25, r25
    2b38:	2a 95       	dec	r18
    2b3a:	e2 f7       	brpl	.-8      	; 0x2b34 <process_step+0x1c0>
    2b3c:	e1 e4       	ldi	r30, 0x41	; 65
    2b3e:	f2 e0       	ldi	r31, 0x02	; 2
    2b40:	28 2f       	mov	r18, r24
    2b42:	24 23       	and	r18, r20
    2b44:	20 95       	com	r18
    2b46:	84 2b       	or	r24, r20
    2b48:	82 23       	and	r24, r18
    2b4a:	81 83       	std	Z+1, r24	; 0x01
    2b4c:	89 2f       	mov	r24, r25
    2b4e:	85 23       	and	r24, r21
    2b50:	28 2f       	mov	r18, r24
    2b52:	20 95       	com	r18
    2b54:	89 2f       	mov	r24, r25
    2b56:	85 2b       	or	r24, r21
    2b58:	82 23       	and	r24, r18
    2b5a:	80 83       	st	Z, r24
    2b5c:	0e 94 d3 03 	call	0x7a6	; 0x7a6 <trigger_step>
    2b60:	39 c2       	rjmp	.+1138   	; 0x2fd4 <process_step+0x660>
    2b62:	80 91 e1 02 	lds	r24, 0x02E1
    2b66:	81 ff       	sbrs	r24, 1
    2b68:	10 c2       	rjmp	.+1056   	; 0x2f8a <process_step+0x616>
    2b6a:	e1 ee       	ldi	r30, 0xE1	; 225
    2b6c:	f2 e0       	ldi	r31, 0x02	; 2
    2b6e:	80 81       	ld	r24, Z
    2b70:	8d 7f       	andi	r24, 0xFD	; 253
    2b72:	80 83       	st	Z, r24
    2b74:	0e 94 1c 08 	call	0x1038	; 0x1038 <turn_off_all_inst_leds>
    2b78:	30 91 cb 01 	lds	r19, 0x01CB
    2b7c:	20 91 cd 01 	lds	r18, 0x01CD
    2b80:	e1 e4       	ldi	r30, 0x41	; 65
    2b82:	f2 e0       	ldi	r31, 0x02	; 2
    2b84:	82 2f       	mov	r24, r18
    2b86:	83 2b       	or	r24, r19
    2b88:	80 95       	com	r24
    2b8a:	95 81       	ldd	r25, Z+5	; 0x05
    2b8c:	89 23       	and	r24, r25
    2b8e:	85 83       	std	Z+5, r24	; 0x05
    2b90:	80 91 fc 04 	lds	r24, 0x04FC
    2b94:	85 ff       	sbrs	r24, 5
    2b96:	61 c1       	rjmp	.+706    	; 0x2e5a <process_step+0x4e6>
    2b98:	11 82       	std	Z+1, r1	; 0x01
    2b9a:	10 82       	st	Z, r1
    2b9c:	80 91 fe 04 	lds	r24, 0x04FE
    2ba0:	98 2f       	mov	r25, r24
    2ba2:	92 95       	swap	r25
    2ba4:	96 95       	lsr	r25
    2ba6:	96 95       	lsr	r25
    2ba8:	93 70       	andi	r25, 0x03	; 3
    2baa:	80 91 ff 04 	lds	r24, 0x04FF
    2bae:	81 70       	andi	r24, 0x01	; 1
    2bb0:	88 0f       	add	r24, r24
    2bb2:	88 0f       	add	r24, r24
    2bb4:	89 2b       	or	r24, r25
    2bb6:	85 30       	cpi	r24, 0x05	; 5
    2bb8:	29 f4       	brne	.+10     	; 0x2bc4 <process_step+0x250>
    2bba:	60 e0       	ldi	r22, 0x00	; 0
    2bbc:	80 91 db 05 	lds	r24, 0x05DB
    2bc0:	0e 94 06 03 	call	0x60c	; 0x60c <trigger_drum>
    2bc4:	80 91 fa 04 	lds	r24, 0x04FA
    2bc8:	83 30       	cpi	r24, 0x03	; 3
    2bca:	09 f4       	brne	.+2      	; 0x2bce <process_step+0x25a>
    2bcc:	53 c0       	rjmp	.+166    	; 0x2c74 <process_step+0x300>
    2bce:	20 f0       	brcs	.+8      	; 0x2bd8 <process_step+0x264>
    2bd0:	86 30       	cpi	r24, 0x06	; 6
    2bd2:	08 f0       	brcs	.+2      	; 0x2bd6 <process_step+0x262>
    2bd4:	c5 c0       	rjmp	.+394    	; 0x2d60 <process_step+0x3ec>
    2bd6:	9e c0       	rjmp	.+316    	; 0x2d14 <process_step+0x3a0>
    2bd8:	80 91 fc 04 	lds	r24, 0x04FC
    2bdc:	84 ff       	sbrs	r24, 4
    2bde:	22 c0       	rjmp	.+68     	; 0x2c24 <process_step+0x2b0>
    2be0:	80 91 fd 04 	lds	r24, 0x04FD
    2be4:	80 fd       	sbrc	r24, 0
    2be6:	bc c0       	rjmp	.+376    	; 0x2d60 <process_step+0x3ec>
    2be8:	98 2f       	mov	r25, r24
    2bea:	99 1f       	adc	r25, r25
    2bec:	99 27       	eor	r25, r25
    2bee:	99 1f       	adc	r25, r25
    2bf0:	0e ef       	ldi	r16, 0xFE	; 254
    2bf2:	14 e0       	ldi	r17, 0x04	; 4
    2bf4:	d8 01       	movw	r26, r16
    2bf6:	8c 91       	ld	r24, X
    2bf8:	83 70       	andi	r24, 0x03	; 3
    2bfa:	88 0f       	add	r24, r24
    2bfc:	89 2b       	or	r24, r25
    2bfe:	0e 94 d6 07 	call	0xfac	; 0xfac <turn_on>
    2c02:	f8 01       	movw	r30, r16
    2c04:	80 81       	ld	r24, Z
    2c06:	98 2f       	mov	r25, r24
    2c08:	92 95       	swap	r25
    2c0a:	96 95       	lsr	r25
    2c0c:	96 95       	lsr	r25
    2c0e:	93 70       	andi	r25, 0x03	; 3
    2c10:	80 91 ff 04 	lds	r24, 0x04FF
    2c14:	81 70       	andi	r24, 0x01	; 1
    2c16:	88 0f       	add	r24, r24
    2c18:	88 0f       	add	r24, r24
    2c1a:	89 2b       	or	r24, r25
    2c1c:	88 5f       	subi	r24, 0xF8	; 248
    2c1e:	0e 94 d6 07 	call	0xfac	; 0xfac <turn_on>
    2c22:	9e c0       	rjmp	.+316    	; 0x2d60 <process_step+0x3ec>
    2c24:	0b ed       	ldi	r16, 0xDB	; 219
    2c26:	15 e0       	ldi	r17, 0x05	; 5
    2c28:	d8 01       	movw	r26, r16
    2c2a:	ec 91       	ld	r30, X
    2c2c:	b7 e0       	ldi	r27, 0x07	; 7
    2c2e:	eb 9f       	mul	r30, r27
    2c30:	f0 01       	movw	r30, r0
    2c32:	11 24       	eor	r1, r1
    2c34:	e0 50       	subi	r30, 0x00	; 0
    2c36:	ff 4f       	sbci	r31, 0xFF	; 255
    2c38:	85 81       	ldd	r24, Z+5	; 0x05
    2c3a:	0e 94 d6 07 	call	0xfac	; 0xfac <turn_on>
    2c3e:	80 91 d1 05 	lds	r24, 0x05D1
    2c42:	81 fb       	bst	r24, 1
    2c44:	cc 24       	eor	r12, r12
    2c46:	c0 f8       	bld	r12, 0
    2c48:	d1 2c       	mov	r13, r1
    2c4a:	f8 01       	movw	r30, r16
    2c4c:	80 81       	ld	r24, Z
    2c4e:	91 e1       	ldi	r25, 0x11	; 17
    2c50:	9c 9d       	mul	r25, r12
    2c52:	f0 01       	movw	r30, r0
    2c54:	9d 9d       	mul	r25, r13
    2c56:	f0 0d       	add	r31, r0
    2c58:	11 24       	eor	r1, r1
    2c5a:	e8 0f       	add	r30, r24
    2c5c:	f1 1d       	adc	r31, r1
    2c5e:	ee 0f       	add	r30, r30
    2c60:	ff 1f       	adc	r31, r31
    2c62:	e7 57       	subi	r30, 0x77	; 119
    2c64:	fa 4f       	sbci	r31, 0xFA	; 250
    2c66:	90 81       	ld	r25, Z
    2c68:	81 81       	ldd	r24, Z+1	; 0x01
    2c6a:	e1 e4       	ldi	r30, 0x41	; 65
    2c6c:	f2 e0       	ldi	r31, 0x02	; 2
    2c6e:	91 83       	std	Z+1, r25	; 0x01
    2c70:	80 83       	st	Z, r24
    2c72:	76 c0       	rjmp	.+236    	; 0x2d60 <process_step+0x3ec>
    2c74:	80 91 fc 04 	lds	r24, 0x04FC
    2c78:	84 ff       	sbrs	r24, 4
    2c7a:	29 c0       	rjmp	.+82     	; 0x2cce <process_step+0x35a>
    2c7c:	80 91 fd 04 	lds	r24, 0x04FD
    2c80:	80 ff       	sbrs	r24, 0
    2c82:	06 c0       	rjmp	.+12     	; 0x2c90 <process_step+0x31c>
    2c84:	80 91 88 05 	lds	r24, 0x0588
    2c88:	8f 70       	andi	r24, 0x0F	; 15
    2c8a:	0e 94 d6 07 	call	0xfac	; 0xfac <turn_on>
    2c8e:	68 c0       	rjmp	.+208    	; 0x2d60 <process_step+0x3ec>
    2c90:	90 91 fd 04 	lds	r25, 0x04FD
    2c94:	99 1f       	adc	r25, r25
    2c96:	99 27       	eor	r25, r25
    2c98:	99 1f       	adc	r25, r25
    2c9a:	0e ef       	ldi	r16, 0xFE	; 254
    2c9c:	14 e0       	ldi	r17, 0x04	; 4
    2c9e:	d8 01       	movw	r26, r16
    2ca0:	8c 91       	ld	r24, X
    2ca2:	83 70       	andi	r24, 0x03	; 3
    2ca4:	88 0f       	add	r24, r24
    2ca6:	89 2b       	or	r24, r25
    2ca8:	0e 94 d6 07 	call	0xfac	; 0xfac <turn_on>
    2cac:	f8 01       	movw	r30, r16
    2cae:	80 81       	ld	r24, Z
    2cb0:	98 2f       	mov	r25, r24
    2cb2:	92 95       	swap	r25
    2cb4:	96 95       	lsr	r25
    2cb6:	96 95       	lsr	r25
    2cb8:	93 70       	andi	r25, 0x03	; 3
    2cba:	80 91 ff 04 	lds	r24, 0x04FF
    2cbe:	81 70       	andi	r24, 0x01	; 1
    2cc0:	88 0f       	add	r24, r24
    2cc2:	88 0f       	add	r24, r24
    2cc4:	89 2b       	or	r24, r25
    2cc6:	88 5f       	subi	r24, 0xF8	; 248
    2cc8:	0e 94 d6 07 	call	0xfac	; 0xfac <turn_on>
    2ccc:	49 c0       	rjmp	.+146    	; 0x2d60 <process_step+0x3ec>
    2cce:	80 91 d7 05 	lds	r24, 0x05D7
    2cd2:	98 2f       	mov	r25, r24
    2cd4:	96 95       	lsr	r25
    2cd6:	9f 70       	andi	r25, 0x0F	; 15
    2cd8:	21 e0       	ldi	r18, 0x01	; 1
    2cda:	30 e0       	ldi	r19, 0x00	; 0
    2cdc:	a9 01       	movw	r20, r18
    2cde:	02 c0       	rjmp	.+4      	; 0x2ce4 <process_step+0x370>
    2ce0:	44 0f       	add	r20, r20
    2ce2:	55 1f       	adc	r21, r21
    2ce4:	9a 95       	dec	r25
    2ce6:	e2 f7       	brpl	.-8      	; 0x2ce0 <process_step+0x36c>
    2ce8:	e1 e4       	ldi	r30, 0x41	; 65
    2cea:	f2 e0       	ldi	r31, 0x02	; 2
    2cec:	41 83       	std	Z+1, r20	; 0x01
    2cee:	82 95       	swap	r24
    2cf0:	86 95       	lsr	r24
    2cf2:	87 70       	andi	r24, 0x07	; 7
    2cf4:	90 91 d8 05 	lds	r25, 0x05D8
    2cf8:	91 70       	andi	r25, 0x01	; 1
    2cfa:	99 0f       	add	r25, r25
    2cfc:	99 0f       	add	r25, r25
    2cfe:	99 0f       	add	r25, r25
    2d00:	89 2b       	or	r24, r25
    2d02:	02 c0       	rjmp	.+4      	; 0x2d08 <process_step+0x394>
    2d04:	22 0f       	add	r18, r18
    2d06:	33 1f       	adc	r19, r19
    2d08:	8a 95       	dec	r24
    2d0a:	e2 f7       	brpl	.-8      	; 0x2d04 <process_step+0x390>
    2d0c:	85 2f       	mov	r24, r21
    2d0e:	83 2b       	or	r24, r19
    2d10:	80 83       	st	Z, r24
    2d12:	26 c0       	rjmp	.+76     	; 0x2d60 <process_step+0x3ec>
    2d14:	80 91 fd 04 	lds	r24, 0x04FD
    2d18:	80 ff       	sbrs	r24, 0
    2d1a:	0a c0       	rjmp	.+20     	; 0x2d30 <process_step+0x3bc>
    2d1c:	80 91 fc 04 	lds	r24, 0x04FC
    2d20:	84 fd       	sbrc	r24, 4
    2d22:	06 c0       	rjmp	.+12     	; 0x2d30 <process_step+0x3bc>
    2d24:	80 91 88 05 	lds	r24, 0x0588
    2d28:	8f 70       	andi	r24, 0x0F	; 15
    2d2a:	0e 94 d6 07 	call	0xfac	; 0xfac <turn_on>
    2d2e:	18 c0       	rjmp	.+48     	; 0x2d60 <process_step+0x3ec>
    2d30:	80 91 fc 04 	lds	r24, 0x04FC
    2d34:	88 23       	and	r24, r24
    2d36:	1c f4       	brge	.+6      	; 0x2d3e <process_step+0x3ca>
    2d38:	0e 94 bb 0d 	call	0x1b76	; 0x1b76 <show_current_measure>
    2d3c:	11 c0       	rjmp	.+34     	; 0x2d60 <process_step+0x3ec>
    2d3e:	80 91 d7 05 	lds	r24, 0x05D7
    2d42:	86 95       	lsr	r24
    2d44:	8f 70       	andi	r24, 0x0F	; 15
    2d46:	21 e0       	ldi	r18, 0x01	; 1
    2d48:	30 e0       	ldi	r19, 0x00	; 0
    2d4a:	a9 01       	movw	r20, r18
    2d4c:	02 c0       	rjmp	.+4      	; 0x2d52 <process_step+0x3de>
    2d4e:	44 0f       	add	r20, r20
    2d50:	55 1f       	adc	r21, r21
    2d52:	8a 95       	dec	r24
    2d54:	e2 f7       	brpl	.-8      	; 0x2d4e <process_step+0x3da>
    2d56:	ca 01       	movw	r24, r20
    2d58:	e1 e4       	ldi	r30, 0x41	; 65
    2d5a:	f2 e0       	ldi	r31, 0x02	; 2
    2d5c:	41 83       	std	Z+1, r20	; 0x01
    2d5e:	90 83       	st	Z, r25
    2d60:	80 91 cb 01 	lds	r24, 0x01CB
    2d64:	80 93 dc 05 	sts	0x05DC, r24
    2d68:	80 91 d1 05 	lds	r24, 0x05D1
    2d6c:	86 95       	lsr	r24
    2d6e:	81 70       	andi	r24, 0x01	; 1
    2d70:	c8 2f       	mov	r28, r24
    2d72:	50 e0       	ldi	r21, 0x00	; 0
    2d74:	d5 2f       	mov	r29, r21
    2d76:	80 91 d2 05 	lds	r24, 0x05D2
    2d7a:	90 e0       	ldi	r25, 0x00	; 0
    2d7c:	c8 17       	cp	r28, r24
    2d7e:	d9 07       	cpc	r29, r25
    2d80:	69 f4       	brne	.+26     	; 0x2d9c <process_step+0x428>
    2d82:	80 91 d1 05 	lds	r24, 0x05D1
    2d86:	81 ff       	sbrs	r24, 1
    2d88:	11 c0       	rjmp	.+34     	; 0x2dac <process_step+0x438>
    2d8a:	80 91 e1 02 	lds	r24, 0x02E1
    2d8e:	82 fd       	sbrc	r24, 2
    2d90:	0d c0       	rjmp	.+26     	; 0x2dac <process_step+0x438>
    2d92:	80 91 cd 01 	lds	r24, 0x01CD
    2d96:	80 93 dc 05 	sts	0x05DC, r24
    2d9a:	08 c0       	rjmp	.+16     	; 0x2dac <process_step+0x438>
    2d9c:	80 91 d1 05 	lds	r24, 0x05D1
    2da0:	81 ff       	sbrs	r24, 1
    2da2:	04 c0       	rjmp	.+8      	; 0x2dac <process_step+0x438>
    2da4:	80 91 cd 01 	lds	r24, 0x01CD
    2da8:	80 93 dc 05 	sts	0x05DC, r24
    2dac:	80 91 fe 02 	lds	r24, 0x02FE
    2db0:	86 95       	lsr	r24
    2db2:	83 70       	andi	r24, 0x03	; 3
    2db4:	90 e0       	ldi	r25, 0x00	; 0
    2db6:	02 97       	sbiw	r24, 0x02	; 2
    2db8:	0c f0       	brlt	.+2      	; 0x2dbc <process_step+0x448>
    2dba:	0c c1       	rjmp	.+536    	; 0x2fd4 <process_step+0x660>
    2dbc:	80 91 fa 04 	lds	r24, 0x04FA
    2dc0:	83 30       	cpi	r24, 0x03	; 3
    2dc2:	d8 f4       	brcc	.+54     	; 0x2dfa <process_step+0x486>
    2dc4:	80 91 fc 04 	lds	r24, 0x04FC
    2dc8:	84 ff       	sbrs	r24, 4
    2dca:	17 c0       	rjmp	.+46     	; 0x2dfa <process_step+0x486>
    2dcc:	80 91 fd 04 	lds	r24, 0x04FD
    2dd0:	80 ff       	sbrs	r24, 0
    2dd2:	07 c0       	rjmp	.+14     	; 0x2de2 <process_step+0x46e>
    2dd4:	80 91 d7 05 	lds	r24, 0x05D7
    2dd8:	86 95       	lsr	r24
    2dda:	8f 70       	andi	r24, 0x0F	; 15
    2ddc:	0e 94 d6 07 	call	0xfac	; 0xfac <turn_on>
    2de0:	0c c0       	rjmp	.+24     	; 0x2dfa <process_step+0x486>
    2de2:	90 91 fd 04 	lds	r25, 0x04FD
    2de6:	99 1f       	adc	r25, r25
    2de8:	99 27       	eor	r25, r25
    2dea:	99 1f       	adc	r25, r25
    2dec:	80 91 fe 04 	lds	r24, 0x04FE
    2df0:	83 70       	andi	r24, 0x03	; 3
    2df2:	88 0f       	add	r24, r24
    2df4:	89 2b       	or	r24, r25
    2df6:	0e 94 d6 07 	call	0xfac	; 0xfac <turn_on>
    2dfa:	80 91 d1 05 	lds	r24, 0x05D1
    2dfe:	81 fb       	bst	r24, 1
    2e00:	ee 24       	eor	r14, r14
    2e02:	e0 f8       	bld	r14, 0
    2e04:	f1 2c       	mov	r15, r1
    2e06:	80 91 d2 05 	lds	r24, 0x05D2
    2e0a:	90 e0       	ldi	r25, 0x00	; 0
    2e0c:	e8 16       	cp	r14, r24
    2e0e:	f9 06       	cpc	r15, r25
    2e10:	a1 f0       	breq	.+40     	; 0x2e3a <process_step+0x4c6>
    2e12:	80 91 d1 05 	lds	r24, 0x05D1
    2e16:	81 fd       	sbrc	r24, 1
    2e18:	08 c0       	rjmp	.+16     	; 0x2e2a <process_step+0x4b6>
    2e1a:	ec ed       	ldi	r30, 0xDC	; 220
    2e1c:	f5 e0       	ldi	r31, 0x05	; 5
    2e1e:	90 91 cd 01 	lds	r25, 0x01CD
    2e22:	80 81       	ld	r24, Z
    2e24:	89 2b       	or	r24, r25
    2e26:	80 83       	st	Z, r24
    2e28:	d5 c0       	rjmp	.+426    	; 0x2fd4 <process_step+0x660>
    2e2a:	ec ed       	ldi	r30, 0xDC	; 220
    2e2c:	f5 e0       	ldi	r31, 0x05	; 5
    2e2e:	90 91 cb 01 	lds	r25, 0x01CB
    2e32:	80 81       	ld	r24, Z
    2e34:	89 2b       	or	r24, r25
    2e36:	80 83       	st	Z, r24
    2e38:	cd c0       	rjmp	.+410    	; 0x2fd4 <process_step+0x660>
    2e3a:	80 91 d1 05 	lds	r24, 0x05D1
    2e3e:	81 fd       	sbrc	r24, 1
    2e40:	c9 c0       	rjmp	.+402    	; 0x2fd4 <process_step+0x660>
    2e42:	80 91 e1 02 	lds	r24, 0x02E1
    2e46:	82 ff       	sbrs	r24, 2
    2e48:	c5 c0       	rjmp	.+394    	; 0x2fd4 <process_step+0x660>
    2e4a:	ec ed       	ldi	r30, 0xDC	; 220
    2e4c:	f5 e0       	ldi	r31, 0x05	; 5
    2e4e:	90 91 cd 01 	lds	r25, 0x01CD
    2e52:	80 81       	ld	r24, Z
    2e54:	89 2b       	or	r24, r25
    2e56:	80 83       	st	Z, r24
    2e58:	bd c0       	rjmp	.+378    	; 0x2fd4 <process_step+0x660>
    2e5a:	e1 e4       	ldi	r30, 0x41	; 65
    2e5c:	f2 e0       	ldi	r31, 0x02	; 2
    2e5e:	11 82       	std	Z+1, r1	; 0x01
    2e60:	10 82       	st	Z, r1
    2e62:	90 91 d2 05 	lds	r25, 0x05D2
    2e66:	91 30       	cpi	r25, 0x01	; 1
    2e68:	31 f0       	breq	.+12     	; 0x2e76 <process_step+0x502>
    2e6a:	10 f0       	brcs	.+4      	; 0x2e70 <process_step+0x4fc>
    2e6c:	92 30       	cpi	r25, 0x02	; 2
    2e6e:	29 f4       	brne	.+10     	; 0x2e7a <process_step+0x506>
    2e70:	30 93 dc 05 	sts	0x05DC, r19
    2e74:	02 c0       	rjmp	.+4      	; 0x2e7a <process_step+0x506>
    2e76:	20 93 dc 05 	sts	0x05DC, r18
    2e7a:	90 91 fa 04 	lds	r25, 0x04FA
    2e7e:	93 30       	cpi	r25, 0x03	; 3
    2e80:	29 f0       	breq	.+10     	; 0x2e8c <process_step+0x518>
    2e82:	50 f1       	brcs	.+84     	; 0x2ed8 <process_step+0x564>
    2e84:	96 30       	cpi	r25, 0x06	; 6
    2e86:	08 f0       	brcs	.+2      	; 0x2e8a <process_step+0x516>
    2e88:	4b c0       	rjmp	.+150    	; 0x2f20 <process_step+0x5ac>
    2e8a:	3a c0       	rjmp	.+116    	; 0x2f00 <process_step+0x58c>
    2e8c:	84 ff       	sbrs	r24, 4
    2e8e:	0a c0       	rjmp	.+20     	; 0x2ea4 <process_step+0x530>
    2e90:	80 91 fd 04 	lds	r24, 0x04FD
    2e94:	80 ff       	sbrs	r24, 0
    2e96:	44 c0       	rjmp	.+136    	; 0x2f20 <process_step+0x5ac>
    2e98:	80 91 88 05 	lds	r24, 0x0588
    2e9c:	8f 70       	andi	r24, 0x0F	; 15
    2e9e:	0e 94 d6 07 	call	0xfac	; 0xfac <turn_on>
    2ea2:	3e c0       	rjmp	.+124    	; 0x2f20 <process_step+0x5ac>
    2ea4:	80 91 e2 02 	lds	r24, 0x02E2
    2ea8:	82 ff       	sbrs	r24, 2
    2eaa:	07 c0       	rjmp	.+14     	; 0x2eba <process_step+0x546>
    2eac:	80 91 d7 05 	lds	r24, 0x05D7
    2eb0:	86 95       	lsr	r24
    2eb2:	8f 70       	andi	r24, 0x0F	; 15
    2eb4:	0e 94 d6 07 	call	0xfac	; 0xfac <turn_on>
    2eb8:	33 c0       	rjmp	.+102    	; 0x2f20 <process_step+0x5ac>
    2eba:	90 91 d7 05 	lds	r25, 0x05D7
    2ebe:	92 95       	swap	r25
    2ec0:	96 95       	lsr	r25
    2ec2:	97 70       	andi	r25, 0x07	; 7
    2ec4:	80 91 d8 05 	lds	r24, 0x05D8
    2ec8:	81 70       	andi	r24, 0x01	; 1
    2eca:	88 0f       	add	r24, r24
    2ecc:	88 0f       	add	r24, r24
    2ece:	88 0f       	add	r24, r24
    2ed0:	89 2b       	or	r24, r25
    2ed2:	0e 94 d6 07 	call	0xfac	; 0xfac <turn_on>
    2ed6:	24 c0       	rjmp	.+72     	; 0x2f20 <process_step+0x5ac>
    2ed8:	84 ff       	sbrs	r24, 4
    2eda:	22 c0       	rjmp	.+68     	; 0x2f20 <process_step+0x5ac>
    2edc:	80 91 fd 04 	lds	r24, 0x04FD
    2ee0:	80 ff       	sbrs	r24, 0
    2ee2:	08 c0       	rjmp	.+16     	; 0x2ef4 <process_step+0x580>
    2ee4:	80 91 de 05 	lds	r24, 0x05DE
    2ee8:	86 95       	lsr	r24
    2eea:	86 95       	lsr	r24
    2eec:	8f 70       	andi	r24, 0x0F	; 15
    2eee:	0e 94 d6 07 	call	0xfac	; 0xfac <turn_on>
    2ef2:	16 c0       	rjmp	.+44     	; 0x2f20 <process_step+0x5ac>
    2ef4:	80 91 88 05 	lds	r24, 0x0588
    2ef8:	8f 70       	andi	r24, 0x0F	; 15
    2efa:	0e 94 d6 07 	call	0xfac	; 0xfac <turn_on>
    2efe:	10 c0       	rjmp	.+32     	; 0x2f20 <process_step+0x5ac>
    2f00:	90 91 fd 04 	lds	r25, 0x04FD
    2f04:	90 ff       	sbrs	r25, 0
    2f06:	08 c0       	rjmp	.+16     	; 0x2f18 <process_step+0x5a4>
    2f08:	84 fd       	sbrc	r24, 4
    2f0a:	06 c0       	rjmp	.+12     	; 0x2f18 <process_step+0x5a4>
    2f0c:	80 91 88 05 	lds	r24, 0x0588
    2f10:	8f 70       	andi	r24, 0x0F	; 15
    2f12:	0e 94 d6 07 	call	0xfac	; 0xfac <turn_on>
    2f16:	04 c0       	rjmp	.+8      	; 0x2f20 <process_step+0x5ac>
    2f18:	88 23       	and	r24, r24
    2f1a:	14 f4       	brge	.+4      	; 0x2f20 <process_step+0x5ac>
    2f1c:	0e 94 bb 0d 	call	0x1b76	; 0x1b76 <show_current_measure>
    2f20:	80 91 fe 02 	lds	r24, 0x02FE
    2f24:	86 95       	lsr	r24
    2f26:	83 70       	andi	r24, 0x03	; 3
    2f28:	90 e0       	ldi	r25, 0x00	; 0
    2f2a:	02 97       	sbiw	r24, 0x02	; 2
    2f2c:	0c f0       	brlt	.+2      	; 0x2f30 <process_step+0x5bc>
    2f2e:	52 c0       	rjmp	.+164    	; 0x2fd4 <process_step+0x660>
    2f30:	80 91 fc 04 	lds	r24, 0x04FC
    2f34:	80 79       	andi	r24, 0x90	; 144
    2f36:	09 f0       	breq	.+2      	; 0x2f3a <process_step+0x5c6>
    2f38:	4d c0       	rjmp	.+154    	; 0x2fd4 <process_step+0x660>
    2f3a:	80 91 fd 04 	lds	r24, 0x04FD
    2f3e:	80 fd       	sbrc	r24, 0
    2f40:	49 c0       	rjmp	.+146    	; 0x2fd4 <process_step+0x660>
    2f42:	80 91 d2 05 	lds	r24, 0x05D2
    2f46:	82 30       	cpi	r24, 0x02	; 2
    2f48:	39 f4       	brne	.+14     	; 0x2f58 <process_step+0x5e4>
    2f4a:	ec ed       	ldi	r30, 0xDC	; 220
    2f4c:	f5 e0       	ldi	r31, 0x05	; 5
    2f4e:	90 91 cd 01 	lds	r25, 0x01CD
    2f52:	80 81       	ld	r24, Z
    2f54:	89 2b       	or	r24, r25
    2f56:	80 83       	st	Z, r24
    2f58:	80 91 d7 05 	lds	r24, 0x05D7
    2f5c:	86 95       	lsr	r24
    2f5e:	8f 70       	andi	r24, 0x0F	; 15
    2f60:	0e 94 d6 07 	call	0xfac	; 0xfac <turn_on>
    2f64:	80 91 fa 04 	lds	r24, 0x04FA
    2f68:	83 30       	cpi	r24, 0x03	; 3
    2f6a:	a1 f5       	brne	.+104    	; 0x2fd4 <process_step+0x660>
    2f6c:	90 91 d7 05 	lds	r25, 0x05D7
    2f70:	92 95       	swap	r25
    2f72:	96 95       	lsr	r25
    2f74:	97 70       	andi	r25, 0x07	; 7
    2f76:	80 91 d8 05 	lds	r24, 0x05D8
    2f7a:	81 70       	andi	r24, 0x01	; 1
    2f7c:	88 0f       	add	r24, r24
    2f7e:	88 0f       	add	r24, r24
    2f80:	88 0f       	add	r24, r24
    2f82:	89 2b       	or	r24, r25
    2f84:	0e 94 d6 07 	call	0xfac	; 0xfac <turn_on>
    2f88:	25 c0       	rjmp	.+74     	; 0x2fd4 <process_step+0x660>
    2f8a:	80 91 06 03 	lds	r24, 0x0306
    2f8e:	81 30       	cpi	r24, 0x01	; 1
    2f90:	09 f5       	brne	.+66     	; 0x2fd4 <process_step+0x660>
    2f92:	80 91 fc 04 	lds	r24, 0x04FC
    2f96:	85 fd       	sbrc	r24, 5
    2f98:	1d c0       	rjmp	.+58     	; 0x2fd4 <process_step+0x660>
    2f9a:	30 91 cb 01 	lds	r19, 0x01CB
    2f9e:	20 91 cd 01 	lds	r18, 0x01CD
    2fa2:	92 2f       	mov	r25, r18
    2fa4:	93 2b       	or	r25, r19
    2fa6:	e1 e4       	ldi	r30, 0x41	; 65
    2fa8:	f2 e0       	ldi	r31, 0x02	; 2
    2faa:	49 2f       	mov	r20, r25
    2fac:	40 95       	com	r20
    2fae:	85 81       	ldd	r24, Z+5	; 0x05
    2fb0:	84 23       	and	r24, r20
    2fb2:	85 83       	std	Z+5, r24	; 0x05
    2fb4:	80 91 d2 05 	lds	r24, 0x05D2
    2fb8:	81 30       	cpi	r24, 0x01	; 1
    2fba:	39 f0       	breq	.+14     	; 0x2fca <process_step+0x656>
    2fbc:	18 f0       	brcs	.+6      	; 0x2fc4 <process_step+0x650>
    2fbe:	82 30       	cpi	r24, 0x02	; 2
    2fc0:	39 f0       	breq	.+14     	; 0x2fd0 <process_step+0x65c>
    2fc2:	08 c0       	rjmp	.+16     	; 0x2fd4 <process_step+0x660>
    2fc4:	30 93 dc 05 	sts	0x05DC, r19
    2fc8:	05 c0       	rjmp	.+10     	; 0x2fd4 <process_step+0x660>
    2fca:	20 93 dc 05 	sts	0x05DC, r18
    2fce:	02 c0       	rjmp	.+4      	; 0x2fd4 <process_step+0x660>
    2fd0:	90 93 dc 05 	sts	0x05DC, r25
    2fd4:	e1 e4       	ldi	r30, 0x41	; 65
    2fd6:	f2 e0       	ldi	r31, 0x02	; 2
    2fd8:	90 91 dc 05 	lds	r25, 0x05DC
    2fdc:	85 81       	ldd	r24, Z+5	; 0x05
    2fde:	89 2b       	or	r24, r25
    2fe0:	85 83       	std	Z+5, r24	; 0x05
    2fe2:	df 91       	pop	r29
    2fe4:	cf 91       	pop	r28
    2fe6:	1f 91       	pop	r17
    2fe8:	0f 91       	pop	r16
    2fea:	ff 90       	pop	r15
    2fec:	ef 90       	pop	r14
    2fee:	df 90       	pop	r13
    2ff0:	cf 90       	pop	r12
    2ff2:	08 95       	ret

00002ff4 <update_step_board>:
    2ff4:	6f 92       	push	r6
    2ff6:	7f 92       	push	r7
    2ff8:	8f 92       	push	r8
    2ffa:	9f 92       	push	r9
    2ffc:	af 92       	push	r10
    2ffe:	bf 92       	push	r11
    3000:	cf 92       	push	r12
    3002:	df 92       	push	r13
    3004:	ef 92       	push	r14
    3006:	ff 92       	push	r15
    3008:	0f 93       	push	r16
    300a:	1f 93       	push	r17
    300c:	cf 93       	push	r28
    300e:	df 93       	push	r29
    3010:	80 91 fc 04 	lds	r24, 0x04FC
    3014:	85 ff       	sbrs	r24, 5
    3016:	b1 c1       	rjmp	.+866    	; 0x337a <update_step_board+0x386>
    3018:	0e 94 1e 1e 	call	0x3c3c	; 0x3c3c <check_step_press>
    301c:	18 2f       	mov	r17, r24
    301e:	8f 3f       	cpi	r24, 0xFF	; 255
    3020:	09 f4       	brne	.+2      	; 0x3024 <update_step_board+0x30>
    3022:	2b c3       	rjmp	.+1622   	; 0x367a <update_step_board+0x686>
    3024:	80 91 fa 04 	lds	r24, 0x04FA
    3028:	83 30       	cpi	r24, 0x03	; 3
    302a:	09 f4       	brne	.+2      	; 0x302e <update_step_board+0x3a>
    302c:	0d c1       	rjmp	.+538    	; 0x3248 <update_step_board+0x254>
    302e:	18 f4       	brcc	.+6      	; 0x3036 <update_step_board+0x42>
    3030:	81 30       	cpi	r24, 0x01	; 1
    3032:	28 f4       	brcc	.+10     	; 0x303e <update_step_board+0x4a>
    3034:	22 c3       	rjmp	.+1604   	; 0x367a <update_step_board+0x686>
    3036:	85 30       	cpi	r24, 0x05	; 5
    3038:	09 f4       	brne	.+2      	; 0x303c <update_step_board+0x48>
    303a:	5f c1       	rjmp	.+702    	; 0x32fa <update_step_board+0x306>
    303c:	1e c3       	rjmp	.+1596   	; 0x367a <update_step_board+0x686>
    303e:	80 91 fc 04 	lds	r24, 0x04FC
    3042:	84 ff       	sbrs	r24, 4
    3044:	37 c0       	rjmp	.+110    	; 0x30b4 <update_step_board+0xc0>
    3046:	0e 94 76 0a 	call	0x14ec	; 0x14ec <refresh_step_leds>
    304a:	80 91 fd 04 	lds	r24, 0x04FD
    304e:	80 ff       	sbrs	r24, 0
    3050:	2d c0       	rjmp	.+90     	; 0x30ac <update_step_board+0xb8>
    3052:	80 91 d6 05 	lds	r24, 0x05D6
    3056:	98 2f       	mov	r25, r24
    3058:	92 95       	swap	r25
    305a:	96 95       	lsr	r25
    305c:	97 70       	andi	r25, 0x07	; 7
    305e:	80 91 d7 05 	lds	r24, 0x05D7
    3062:	81 70       	andi	r24, 0x01	; 1
    3064:	88 0f       	add	r24, r24
    3066:	88 0f       	add	r24, r24
    3068:	88 0f       	add	r24, r24
    306a:	89 2b       	or	r24, r25
    306c:	48 2f       	mov	r20, r24
    306e:	50 e0       	ldi	r21, 0x00	; 0
    3070:	21 2f       	mov	r18, r17
    3072:	30 e0       	ldi	r19, 0x00	; 0
    3074:	42 17       	cp	r20, r18
    3076:	53 07       	cpc	r21, r19
    3078:	09 f4       	brne	.+2      	; 0x307c <update_step_board+0x88>
    307a:	ff c2       	rjmp	.+1534   	; 0x367a <update_step_board+0x686>
    307c:	e1 ee       	ldi	r30, 0xE1	; 225
    307e:	f2 e0       	ldi	r31, 0x02	; 2
    3080:	90 81       	ld	r25, Z
    3082:	90 62       	ori	r25, 0x20	; 32
    3084:	90 83       	st	Z, r25
    3086:	e5 ed       	ldi	r30, 0xD5	; 213
    3088:	f5 e0       	ldi	r31, 0x05	; 5
    308a:	91 2f       	mov	r25, r17
    308c:	9f 70       	andi	r25, 0x0F	; 15
    308e:	79 2e       	mov	r7, r25
    3090:	77 0c       	add	r7, r7
    3092:	92 81       	ldd	r25, Z+2	; 0x02
    3094:	91 7e       	andi	r25, 0xE1	; 225
    3096:	97 29       	or	r25, r7
    3098:	92 83       	std	Z+2, r25	; 0x02
    309a:	0e 94 f1 07 	call	0xfe2	; 0xfe2 <turn_off>
    309e:	80 91 d7 05 	lds	r24, 0x05D7
    30a2:	86 95       	lsr	r24
    30a4:	8f 70       	andi	r24, 0x0F	; 15
    30a6:	0e 94 d6 07 	call	0xfac	; 0xfac <turn_on>
    30aa:	e7 c2       	rjmp	.+1486   	; 0x367a <update_step_board+0x686>
    30ac:	81 2f       	mov	r24, r17
    30ae:	0e 94 02 10 	call	0x2004	; 0x2004 <update_shuffle>
    30b2:	e3 c2       	rjmp	.+1478   	; 0x367a <update_step_board+0x686>
    30b4:	86 ff       	sbrs	r24, 6
    30b6:	0f c0       	rjmp	.+30     	; 0x30d6 <update_step_board+0xe2>
    30b8:	e8 e1       	ldi	r30, 0x18	; 24
    30ba:	f2 e0       	ldi	r31, 0x02	; 2
    30bc:	80 81       	ld	r24, Z
    30be:	8f 7b       	andi	r24, 0xBF	; 191
    30c0:	80 83       	st	Z, r24
    30c2:	e5 ed       	ldi	r30, 0xD5	; 213
    30c4:	f5 e0       	ldi	r31, 0x05	; 5
    30c6:	81 2f       	mov	r24, r17
    30c8:	8f 71       	andi	r24, 0x1F	; 31
    30ca:	90 81       	ld	r25, Z
    30cc:	90 7e       	andi	r25, 0xE0	; 224
    30ce:	79 2e       	mov	r7, r25
    30d0:	78 2a       	or	r7, r24
    30d2:	70 82       	st	Z, r7
    30d4:	d2 c2       	rjmp	.+1444   	; 0x367a <update_step_board+0x686>
    30d6:	80 91 db 05 	lds	r24, 0x05DB
    30da:	80 31       	cpi	r24, 0x10	; 16
    30dc:	09 f0       	breq	.+2      	; 0x30e0 <update_step_board+0xec>
    30de:	52 c0       	rjmp	.+164    	; 0x3184 <update_step_board+0x190>
    30e0:	80 91 d6 05 	lds	r24, 0x05D6
    30e4:	82 fb       	bst	r24, 2
    30e6:	66 24       	eor	r6, r6
    30e8:	60 f8       	bld	r6, 0
    30ea:	71 2c       	mov	r7, r1
    30ec:	c3 01       	movw	r24, r6
    30ee:	86 50       	subi	r24, 0x06	; 6
    30f0:	9b 4f       	sbci	r25, 0xFB	; 251
    30f2:	fc 01       	movw	r30, r24
    30f4:	e7 52       	subi	r30, 0x27	; 39
    30f6:	ff 4f       	sbci	r31, 0xFF	; 255
    30f8:	80 81       	ld	r24, Z
    30fa:	81 17       	cp	r24, r17
    30fc:	08 f4       	brcc	.+2      	; 0x3100 <update_step_board+0x10c>
    30fe:	bd c2       	rjmp	.+1402   	; 0x367a <update_step_board+0x686>
    3100:	81 2f       	mov	r24, r17
    3102:	0e 94 0d 08 	call	0x101a	; 0x101a <toggle>
    3106:	80 91 d1 05 	lds	r24, 0x05D1
    310a:	81 fb       	bst	r24, 1
    310c:	aa 24       	eor	r10, r10
    310e:	a0 f8       	bld	r10, 0
    3110:	b1 2c       	mov	r11, r1
    3112:	80 91 d6 05 	lds	r24, 0x05D6
    3116:	82 fb       	bst	r24, 2
    3118:	88 24       	eor	r8, r8
    311a:	80 f8       	bld	r8, 0
    311c:	91 2c       	mov	r9, r1
    311e:	81 e0       	ldi	r24, 0x01	; 1
    3120:	90 e0       	ldi	r25, 0x00	; 0
    3122:	02 c0       	rjmp	.+4      	; 0x3128 <update_step_board+0x134>
    3124:	88 0f       	add	r24, r24
    3126:	99 1f       	adc	r25, r25
    3128:	1a 95       	dec	r17
    312a:	e2 f7       	brpl	.-8      	; 0x3124 <update_step_board+0x130>
    312c:	22 e2       	ldi	r18, 0x22	; 34
    312e:	2a 9d       	mul	r18, r10
    3130:	f0 01       	movw	r30, r0
    3132:	2b 9d       	mul	r18, r11
    3134:	f0 0d       	add	r31, r0
    3136:	11 24       	eor	r1, r1
    3138:	e8 0d       	add	r30, r8
    313a:	f9 1d       	adc	r31, r9
    313c:	ee 0f       	add	r30, r30
    313e:	ff 1f       	adc	r31, r31
    3140:	e0 50       	subi	r30, 0x00	; 0
    3142:	fb 4f       	sbci	r31, 0xFB	; 251
    3144:	20 81       	ld	r18, Z
    3146:	31 81       	ldd	r19, Z+1	; 0x01
    3148:	28 27       	eor	r18, r24
    314a:	39 27       	eor	r19, r25
    314c:	31 83       	std	Z+1, r19	; 0x01
    314e:	20 83       	st	Z, r18
    3150:	20 91 db 05 	lds	r18, 0x05DB
    3154:	31 e1       	ldi	r19, 0x11	; 17
    3156:	3a 9d       	mul	r19, r10
    3158:	f0 01       	movw	r30, r0
    315a:	3b 9d       	mul	r19, r11
    315c:	f0 0d       	add	r31, r0
    315e:	11 24       	eor	r1, r1
    3160:	e2 0f       	add	r30, r18
    3162:	f1 1d       	adc	r31, r1
    3164:	ee 0f       	add	r30, r30
    3166:	ff 1f       	adc	r31, r31
    3168:	e7 57       	subi	r30, 0x77	; 119
    316a:	fa 4f       	sbci	r31, 0xFA	; 250
    316c:	20 81       	ld	r18, Z
    316e:	31 81       	ldd	r19, Z+1	; 0x01
    3170:	82 27       	eor	r24, r18
    3172:	93 27       	eor	r25, r19
    3174:	91 83       	std	Z+1, r25	; 0x01
    3176:	80 83       	st	Z, r24
    3178:	e1 ee       	ldi	r30, 0xE1	; 225
    317a:	f2 e0       	ldi	r31, 0x02	; 2
    317c:	80 81       	ld	r24, Z
    317e:	80 61       	ori	r24, 0x10	; 16
    3180:	80 83       	st	Z, r24
    3182:	7b c2       	rjmp	.+1270   	; 0x367a <update_step_board+0x686>
    3184:	80 91 d6 05 	lds	r24, 0x05D6
    3188:	82 fb       	bst	r24, 2
    318a:	88 27       	eor	r24, r24
    318c:	80 f9       	bld	r24, 0
    318e:	c8 2f       	mov	r28, r24
    3190:	80 e0       	ldi	r24, 0x00	; 0
    3192:	d8 2f       	mov	r29, r24
    3194:	c6 50       	subi	r28, 0x06	; 6
    3196:	db 4f       	sbci	r29, 0xFB	; 251
    3198:	c7 52       	subi	r28, 0x27	; 39
    319a:	df 4f       	sbci	r29, 0xFF	; 255
    319c:	88 81       	ld	r24, Y
    319e:	81 17       	cp	r24, r17
    31a0:	08 f4       	brcc	.+2      	; 0x31a4 <update_step_board+0x1b0>
    31a2:	6b c2       	rjmp	.+1238   	; 0x367a <update_step_board+0x686>
    31a4:	81 2f       	mov	r24, r17
    31a6:	0e 94 0d 08 	call	0x101a	; 0x101a <toggle>
    31aa:	80 91 d1 05 	lds	r24, 0x05D1
    31ae:	81 fb       	bst	r24, 1
    31b0:	cc 24       	eor	r12, r12
    31b2:	c0 f8       	bld	r12, 0
    31b4:	d1 2c       	mov	r13, r1
    31b6:	80 91 d6 05 	lds	r24, 0x05D6
    31ba:	82 fb       	bst	r24, 2
    31bc:	ee 24       	eor	r14, r14
    31be:	e0 f8       	bld	r14, 0
    31c0:	f1 2c       	mov	r15, r1
    31c2:	40 91 db 05 	lds	r20, 0x05DB
    31c6:	f7 01       	movw	r30, r14
    31c8:	e2 95       	swap	r30
    31ca:	f2 95       	swap	r31
    31cc:	f0 7f       	andi	r31, 0xF0	; 240
    31ce:	fe 27       	eor	r31, r30
    31d0:	e0 7f       	andi	r30, 0xF0	; 240
    31d2:	fe 27       	eor	r31, r30
    31d4:	22 e2       	ldi	r18, 0x22	; 34
    31d6:	2c 9d       	mul	r18, r12
    31d8:	c0 01       	movw	r24, r0
    31da:	2d 9d       	mul	r18, r13
    31dc:	90 0d       	add	r25, r0
    31de:	11 24       	eor	r1, r1
    31e0:	e8 0f       	add	r30, r24
    31e2:	f9 1f       	adc	r31, r25
    31e4:	e1 0f       	add	r30, r17
    31e6:	f1 1d       	adc	r31, r1
    31e8:	ee 0f       	add	r30, r30
    31ea:	ff 1f       	adc	r31, r31
    31ec:	ec 5f       	subi	r30, 0xFC	; 252
    31ee:	fa 4f       	sbci	r31, 0xFA	; 250
    31f0:	81 e0       	ldi	r24, 0x01	; 1
    31f2:	90 e0       	ldi	r25, 0x00	; 0
    31f4:	9c 01       	movw	r18, r24
    31f6:	04 2e       	mov	r0, r20
    31f8:	02 c0       	rjmp	.+4      	; 0x31fe <update_step_board+0x20a>
    31fa:	22 0f       	add	r18, r18
    31fc:	33 1f       	adc	r19, r19
    31fe:	0a 94       	dec	r0
    3200:	e2 f7       	brpl	.-8      	; 0x31fa <update_step_board+0x206>
    3202:	60 81       	ld	r22, Z
    3204:	71 81       	ldd	r23, Z+1	; 0x01
    3206:	26 27       	eor	r18, r22
    3208:	37 27       	eor	r19, r23
    320a:	31 83       	std	Z+1, r19	; 0x01
    320c:	20 83       	st	Z, r18
    320e:	21 e1       	ldi	r18, 0x11	; 17
    3210:	2c 9d       	mul	r18, r12
    3212:	f0 01       	movw	r30, r0
    3214:	2d 9d       	mul	r18, r13
    3216:	f0 0d       	add	r31, r0
    3218:	11 24       	eor	r1, r1
    321a:	e4 0f       	add	r30, r20
    321c:	f1 1d       	adc	r31, r1
    321e:	ee 0f       	add	r30, r30
    3220:	ff 1f       	adc	r31, r31
    3222:	e7 57       	subi	r30, 0x77	; 119
    3224:	fa 4f       	sbci	r31, 0xFA	; 250
    3226:	02 c0       	rjmp	.+4      	; 0x322c <update_step_board+0x238>
    3228:	88 0f       	add	r24, r24
    322a:	99 1f       	adc	r25, r25
    322c:	1a 95       	dec	r17
    322e:	e2 f7       	brpl	.-8      	; 0x3228 <update_step_board+0x234>
    3230:	20 81       	ld	r18, Z
    3232:	31 81       	ldd	r19, Z+1	; 0x01
    3234:	82 27       	eor	r24, r18
    3236:	93 27       	eor	r25, r19
    3238:	91 83       	std	Z+1, r25	; 0x01
    323a:	80 83       	st	Z, r24
    323c:	e1 ee       	ldi	r30, 0xE1	; 225
    323e:	f2 e0       	ldi	r31, 0x02	; 2
    3240:	80 81       	ld	r24, Z
    3242:	80 61       	ori	r24, 0x10	; 16
    3244:	80 83       	st	Z, r24
    3246:	19 c2       	rjmp	.+1074   	; 0x367a <update_step_board+0x686>
    3248:	80 91 fc 04 	lds	r24, 0x04FC
    324c:	84 ff       	sbrs	r24, 4
    324e:	23 c0       	rjmp	.+70     	; 0x3296 <update_step_board+0x2a2>
    3250:	80 91 fd 04 	lds	r24, 0x04FD
    3254:	80 ff       	sbrs	r24, 0
    3256:	1b c0       	rjmp	.+54     	; 0x328e <update_step_board+0x29a>
    3258:	1c 30       	cpi	r17, 0x0C	; 12
    325a:	08 f0       	brcs	.+2      	; 0x325e <update_step_board+0x26a>
    325c:	0e c2       	rjmp	.+1052   	; 0x367a <update_step_board+0x686>
    325e:	80 91 88 05 	lds	r24, 0x0588
    3262:	8f 70       	andi	r24, 0x0F	; 15
    3264:	81 17       	cp	r24, r17
    3266:	09 f4       	brne	.+2      	; 0x326a <update_step_board+0x276>
    3268:	08 c2       	rjmp	.+1040   	; 0x367a <update_step_board+0x686>
    326a:	0e 94 f1 07 	call	0xfe2	; 0xfe2 <turn_off>
    326e:	e8 e8       	ldi	r30, 0x88	; 136
    3270:	f5 e0       	ldi	r31, 0x05	; 5
    3272:	81 2f       	mov	r24, r17
    3274:	8f 70       	andi	r24, 0x0F	; 15
    3276:	90 81       	ld	r25, Z
    3278:	90 7f       	andi	r25, 0xF0	; 240
    327a:	98 2b       	or	r25, r24
    327c:	90 83       	st	Z, r25
    327e:	0e 94 d6 07 	call	0xfac	; 0xfac <turn_on>
    3282:	e1 ee       	ldi	r30, 0xE1	; 225
    3284:	f2 e0       	ldi	r31, 0x02	; 2
    3286:	80 81       	ld	r24, Z
    3288:	80 62       	ori	r24, 0x20	; 32
    328a:	80 83       	st	Z, r24
    328c:	f6 c1       	rjmp	.+1004   	; 0x367a <update_step_board+0x686>
    328e:	81 2f       	mov	r24, r17
    3290:	0e 94 02 10 	call	0x2004	; 0x2004 <update_shuffle>
    3294:	f2 c1       	rjmp	.+996    	; 0x367a <update_step_board+0x686>
    3296:	1c 30       	cpi	r17, 0x0C	; 12
    3298:	e8 f4       	brcc	.+58     	; 0x32d4 <update_step_board+0x2e0>
    329a:	81 2f       	mov	r24, r17
    329c:	8f 70       	andi	r24, 0x0F	; 15
    329e:	e5 ed       	ldi	r30, 0xD5	; 213
    32a0:	f5 e0       	ldi	r31, 0x05	; 5
    32a2:	28 2f       	mov	r18, r24
    32a4:	22 0f       	add	r18, r18
    32a6:	92 81       	ldd	r25, Z+2	; 0x02
    32a8:	91 7e       	andi	r25, 0xE1	; 225
    32aa:	92 2b       	or	r25, r18
    32ac:	92 83       	std	Z+2, r25	; 0x02
    32ae:	20 91 d6 05 	lds	r18, 0x05D6
    32b2:	22 95       	swap	r18
    32b4:	26 95       	lsr	r18
    32b6:	27 70       	andi	r18, 0x07	; 7
    32b8:	91 70       	andi	r25, 0x01	; 1
    32ba:	99 0f       	add	r25, r25
    32bc:	99 0f       	add	r25, r25
    32be:	99 0f       	add	r25, r25
    32c0:	92 2b       	or	r25, r18
    32c2:	89 17       	cp	r24, r25
    32c4:	09 f4       	brne	.+2      	; 0x32c8 <update_step_board+0x2d4>
    32c6:	d9 c1       	rjmp	.+946    	; 0x367a <update_step_board+0x686>
    32c8:	e1 ee       	ldi	r30, 0xE1	; 225
    32ca:	f2 e0       	ldi	r31, 0x02	; 2
    32cc:	80 81       	ld	r24, Z
    32ce:	80 62       	ori	r24, 0x20	; 32
    32d0:	80 83       	st	Z, r24
    32d2:	d3 c1       	rjmp	.+934    	; 0x367a <update_step_board+0x686>
    32d4:	e5 ed       	ldi	r30, 0xD5	; 213
    32d6:	f5 e0       	ldi	r31, 0x05	; 5
    32d8:	91 2f       	mov	r25, r17
    32da:	92 95       	swap	r25
    32dc:	99 0f       	add	r25, r25
    32de:	90 7e       	andi	r25, 0xE0	; 224
    32e0:	82 81       	ldd	r24, Z+2	; 0x02
    32e2:	8f 71       	andi	r24, 0x1F	; 31
    32e4:	89 2b       	or	r24, r25
    32e6:	82 83       	std	Z+2, r24	; 0x02
    32e8:	13 fb       	bst	r17, 3
    32ea:	88 27       	eor	r24, r24
    32ec:	80 f9       	bld	r24, 0
    32ee:	93 81       	ldd	r25, Z+3	; 0x03
    32f0:	9e 7f       	andi	r25, 0xFE	; 254
    32f2:	79 2e       	mov	r7, r25
    32f4:	78 2a       	or	r7, r24
    32f6:	73 82       	std	Z+3, r7	; 0x03
    32f8:	c0 c1       	rjmp	.+896    	; 0x367a <update_step_board+0x686>
    32fa:	80 91 fd 04 	lds	r24, 0x04FD
    32fe:	80 ff       	sbrs	r24, 0
    3300:	1f c0       	rjmp	.+62     	; 0x3340 <update_step_board+0x34c>
    3302:	80 91 fc 04 	lds	r24, 0x04FC
    3306:	84 fd       	sbrc	r24, 4
    3308:	1b c0       	rjmp	.+54     	; 0x3340 <update_step_board+0x34c>
    330a:	1c 30       	cpi	r17, 0x0C	; 12
    330c:	08 f0       	brcs	.+2      	; 0x3310 <update_step_board+0x31c>
    330e:	b5 c1       	rjmp	.+874    	; 0x367a <update_step_board+0x686>
    3310:	80 91 88 05 	lds	r24, 0x0588
    3314:	8f 70       	andi	r24, 0x0F	; 15
    3316:	81 17       	cp	r24, r17
    3318:	09 f4       	brne	.+2      	; 0x331c <update_step_board+0x328>
    331a:	af c1       	rjmp	.+862    	; 0x367a <update_step_board+0x686>
    331c:	0e 94 f1 07 	call	0xfe2	; 0xfe2 <turn_off>
    3320:	e8 e8       	ldi	r30, 0x88	; 136
    3322:	f5 e0       	ldi	r31, 0x05	; 5
    3324:	81 2f       	mov	r24, r17
    3326:	8f 70       	andi	r24, 0x0F	; 15
    3328:	90 81       	ld	r25, Z
    332a:	90 7f       	andi	r25, 0xF0	; 240
    332c:	98 2b       	or	r25, r24
    332e:	90 83       	st	Z, r25
    3330:	0e 94 d6 07 	call	0xfac	; 0xfac <turn_on>
    3334:	e1 ee       	ldi	r30, 0xE1	; 225
    3336:	f2 e0       	ldi	r31, 0x02	; 2
    3338:	80 81       	ld	r24, Z
    333a:	80 62       	ori	r24, 0x20	; 32
    333c:	80 83       	st	Z, r24
    333e:	9d c1       	rjmp	.+826    	; 0x367a <update_step_board+0x686>
    3340:	81 2f       	mov	r24, r17
    3342:	8f 70       	andi	r24, 0x0F	; 15
    3344:	e5 ed       	ldi	r30, 0xD5	; 213
    3346:	f5 e0       	ldi	r31, 0x05	; 5
    3348:	28 2f       	mov	r18, r24
    334a:	22 0f       	add	r18, r18
    334c:	92 81       	ldd	r25, Z+2	; 0x02
    334e:	91 7e       	andi	r25, 0xE1	; 225
    3350:	92 2b       	or	r25, r18
    3352:	92 83       	std	Z+2, r25	; 0x02
    3354:	20 91 d6 05 	lds	r18, 0x05D6
    3358:	22 95       	swap	r18
    335a:	26 95       	lsr	r18
    335c:	27 70       	andi	r18, 0x07	; 7
    335e:	91 70       	andi	r25, 0x01	; 1
    3360:	99 0f       	add	r25, r25
    3362:	99 0f       	add	r25, r25
    3364:	99 0f       	add	r25, r25
    3366:	92 2b       	or	r25, r18
    3368:	89 17       	cp	r24, r25
    336a:	09 f4       	brne	.+2      	; 0x336e <update_step_board+0x37a>
    336c:	86 c1       	rjmp	.+780    	; 0x367a <update_step_board+0x686>
    336e:	e1 ee       	ldi	r30, 0xE1	; 225
    3370:	f2 e0       	ldi	r31, 0x02	; 2
    3372:	80 81       	ld	r24, Z
    3374:	80 62       	ori	r24, 0x20	; 32
    3376:	80 83       	st	Z, r24
    3378:	80 c1       	rjmp	.+768    	; 0x367a <update_step_board+0x686>
    337a:	80 91 fa 04 	lds	r24, 0x04FA
    337e:	83 30       	cpi	r24, 0x03	; 3
    3380:	11 f4       	brne	.+4      	; 0x3386 <update_step_board+0x392>
    3382:	0e 94 b9 11 	call	0x2372	; 0x2372 <check_tap>
    3386:	0e 94 1e 1e 	call	0x3c3c	; 0x3c3c <check_step_press>
    338a:	c8 2f       	mov	r28, r24
    338c:	8f 3f       	cpi	r24, 0xFF	; 255
    338e:	09 f4       	brne	.+2      	; 0x3392 <update_step_board+0x39e>
    3390:	74 c1       	rjmp	.+744    	; 0x367a <update_step_board+0x686>
    3392:	80 91 fa 04 	lds	r24, 0x04FA
    3396:	83 30       	cpi	r24, 0x03	; 3
    3398:	09 f4       	brne	.+2      	; 0x339c <update_step_board+0x3a8>
    339a:	a6 c0       	rjmp	.+332    	; 0x34e8 <update_step_board+0x4f4>
    339c:	20 f0       	brcs	.+8      	; 0x33a6 <update_step_board+0x3b2>
    339e:	85 30       	cpi	r24, 0x05	; 5
    33a0:	09 f4       	brne	.+2      	; 0x33a4 <update_step_board+0x3b0>
    33a2:	11 c1       	rjmp	.+546    	; 0x35c6 <update_step_board+0x5d2>
    33a4:	6a c1       	rjmp	.+724    	; 0x367a <update_step_board+0x686>
    33a6:	80 91 fc 04 	lds	r24, 0x04FC
    33aa:	84 ff       	sbrs	r24, 4
    33ac:	58 c0       	rjmp	.+176    	; 0x345e <update_step_board+0x46a>
    33ae:	80 91 fd 04 	lds	r24, 0x04FD
    33b2:	80 ff       	sbrs	r24, 0
    33b4:	15 c0       	rjmp	.+42     	; 0x33e0 <update_step_board+0x3ec>
    33b6:	80 91 de 05 	lds	r24, 0x05DE
    33ba:	86 95       	lsr	r24
    33bc:	86 95       	lsr	r24
    33be:	8f 70       	andi	r24, 0x0F	; 15
    33c0:	0e 94 f1 07 	call	0xfe2	; 0xfe2 <turn_off>
    33c4:	ed ed       	ldi	r30, 0xDD	; 221
    33c6:	f5 e0       	ldi	r31, 0x05	; 5
    33c8:	8c 2f       	mov	r24, r28
    33ca:	8f 70       	andi	r24, 0x0F	; 15
    33cc:	28 2f       	mov	r18, r24
    33ce:	22 0f       	add	r18, r18
    33d0:	22 0f       	add	r18, r18
    33d2:	91 81       	ldd	r25, Z+1	; 0x01
    33d4:	93 7c       	andi	r25, 0xC3	; 195
    33d6:	92 2b       	or	r25, r18
    33d8:	91 83       	std	Z+1, r25	; 0x01
    33da:	0e 94 d6 07 	call	0xfac	; 0xfac <turn_on>
    33de:	4d c1       	rjmp	.+666    	; 0x367a <update_step_board+0x686>
    33e0:	cc 30       	cpi	r28, 0x0C	; 12
    33e2:	08 f0       	brcs	.+2      	; 0x33e6 <update_step_board+0x3f2>
    33e4:	4a c1       	rjmp	.+660    	; 0x367a <update_step_board+0x686>
    33e6:	80 91 e1 02 	lds	r24, 0x02E1
    33ea:	84 ff       	sbrs	r24, 4
    33ec:	16 c0       	rjmp	.+44     	; 0x341a <update_step_board+0x426>
    33ee:	e1 ee       	ldi	r30, 0xE1	; 225
    33f0:	f2 e0       	ldi	r31, 0x02	; 2
    33f2:	80 81       	ld	r24, Z
    33f4:	8f 7e       	andi	r24, 0xEF	; 239
    33f6:	80 83       	st	Z, r24
    33f8:	60 91 88 05 	lds	r22, 0x0588
    33fc:	6f 70       	andi	r22, 0x0F	; 15
    33fe:	90 91 d6 05 	lds	r25, 0x05D6
    3402:	92 95       	swap	r25
    3404:	96 95       	lsr	r25
    3406:	97 70       	andi	r25, 0x07	; 7
    3408:	80 91 d7 05 	lds	r24, 0x05D7
    340c:	81 70       	andi	r24, 0x01	; 1
    340e:	88 0f       	add	r24, r24
    3410:	88 0f       	add	r24, r24
    3412:	88 0f       	add	r24, r24
    3414:	89 2b       	or	r24, r25
    3416:	0e 94 e8 12 	call	0x25d0	; 0x25d0 <write_current_pattern>
    341a:	08 e8       	ldi	r16, 0x88	; 136
    341c:	15 e0       	ldi	r17, 0x05	; 5
    341e:	f8 01       	movw	r30, r16
    3420:	80 81       	ld	r24, Z
    3422:	8f 70       	andi	r24, 0x0F	; 15
    3424:	0e 94 f1 07 	call	0xfe2	; 0xfe2 <turn_off>
    3428:	8c 2f       	mov	r24, r28
    342a:	8f 70       	andi	r24, 0x0F	; 15
    342c:	f8 01       	movw	r30, r16
    342e:	90 81       	ld	r25, Z
    3430:	90 7f       	andi	r25, 0xF0	; 240
    3432:	98 2b       	or	r25, r24
    3434:	90 83       	st	Z, r25
    3436:	0e 94 d6 07 	call	0xfac	; 0xfac <turn_on>
    343a:	f8 01       	movw	r30, r16
    343c:	60 81       	ld	r22, Z
    343e:	6f 70       	andi	r22, 0x0F	; 15
    3440:	90 91 d6 05 	lds	r25, 0x05D6
    3444:	92 95       	swap	r25
    3446:	96 95       	lsr	r25
    3448:	97 70       	andi	r25, 0x07	; 7
    344a:	80 91 d7 05 	lds	r24, 0x05D7
    344e:	81 70       	andi	r24, 0x01	; 1
    3450:	88 0f       	add	r24, r24
    3452:	88 0f       	add	r24, r24
    3454:	88 0f       	add	r24, r24
    3456:	89 2b       	or	r24, r25
    3458:	0e 94 ab 10 	call	0x2156	; 0x2156 <read_next_pattern>
    345c:	0e c1       	rjmp	.+540    	; 0x367a <update_step_board+0x686>
    345e:	86 ff       	sbrs	r24, 6
    3460:	1a c0       	rjmp	.+52     	; 0x3496 <update_step_board+0x4a2>
    3462:	80 91 d6 05 	lds	r24, 0x05D6
    3466:	98 2f       	mov	r25, r24
    3468:	92 95       	swap	r25
    346a:	96 95       	lsr	r25
    346c:	97 70       	andi	r25, 0x07	; 7
    346e:	80 91 d7 05 	lds	r24, 0x05D7
    3472:	81 70       	andi	r24, 0x01	; 1
    3474:	88 0f       	add	r24, r24
    3476:	88 0f       	add	r24, r24
    3478:	88 0f       	add	r24, r24
    347a:	89 2b       	or	r24, r25
    347c:	90 e0       	ldi	r25, 0x00	; 0
    347e:	2c 2f       	mov	r18, r28
    3480:	30 e0       	ldi	r19, 0x00	; 0
    3482:	82 17       	cp	r24, r18
    3484:	93 07       	cpc	r25, r19
    3486:	69 f0       	breq	.+26     	; 0x34a2 <update_step_board+0x4ae>
    3488:	60 91 88 05 	lds	r22, 0x0588
    348c:	6f 70       	andi	r22, 0x0F	; 15
    348e:	8c 2f       	mov	r24, r28
    3490:	0e 94 e8 12 	call	0x25d0	; 0x25d0 <write_current_pattern>
    3494:	06 c0       	rjmp	.+12     	; 0x34a2 <update_step_board+0x4ae>
    3496:	60 91 88 05 	lds	r22, 0x0588
    349a:	6f 70       	andi	r22, 0x0F	; 15
    349c:	8c 2f       	mov	r24, r28
    349e:	0e 94 ab 10 	call	0x2156	; 0x2156 <read_next_pattern>
    34a2:	9c 2f       	mov	r25, r28
    34a4:	9f 70       	andi	r25, 0x0F	; 15
    34a6:	e5 ed       	ldi	r30, 0xD5	; 213
    34a8:	f5 e0       	ldi	r31, 0x05	; 5
    34aa:	39 2f       	mov	r19, r25
    34ac:	33 0f       	add	r19, r19
    34ae:	42 81       	ldd	r20, Z+2	; 0x02
    34b0:	40 7e       	andi	r20, 0xE0	; 224
    34b2:	8c 2f       	mov	r24, r28
    34b4:	82 95       	swap	r24
    34b6:	88 0f       	add	r24, r24
    34b8:	80 7e       	andi	r24, 0xE0	; 224
    34ba:	c1 81       	ldd	r28, Z+1	; 0x01
    34bc:	29 2f       	mov	r18, r25
    34be:	26 95       	lsr	r18
    34c0:	26 95       	lsr	r18
    34c2:	26 95       	lsr	r18
    34c4:	94 2f       	mov	r25, r20
    34c6:	93 2b       	or	r25, r19
    34c8:	92 2b       	or	r25, r18
    34ca:	92 83       	std	Z+2, r25	; 0x02
    34cc:	cc 71       	andi	r28, 0x1C	; 28
    34ce:	90 81       	ld	r25, Z
    34d0:	9f 71       	andi	r25, 0x1F	; 31
    34d2:	90 83       	st	Z, r25
    34d4:	c8 2b       	or	r28, r24
    34d6:	c1 83       	std	Z+1, r28	; 0x01
    34d8:	10 92 fc 02 	sts	0x02FC, r1
    34dc:	ed ef       	ldi	r30, 0xFD	; 253
    34de:	f2 e0       	ldi	r31, 0x02	; 2
    34e0:	81 81       	ldd	r24, Z+1	; 0x01
    34e2:	89 7f       	andi	r24, 0xF9	; 249
    34e4:	81 83       	std	Z+1, r24	; 0x01
    34e6:	c9 c0       	rjmp	.+402    	; 0x367a <update_step_board+0x686>
    34e8:	80 91 fc 04 	lds	r24, 0x04FC
    34ec:	84 ff       	sbrs	r24, 4
    34ee:	2c c0       	rjmp	.+88     	; 0x3548 <update_step_board+0x554>
    34f0:	80 91 fd 04 	lds	r24, 0x04FD
    34f4:	80 ff       	sbrs	r24, 0
    34f6:	c1 c0       	rjmp	.+386    	; 0x367a <update_step_board+0x686>
    34f8:	cc 30       	cpi	r28, 0x0C	; 12
    34fa:	08 f0       	brcs	.+2      	; 0x34fe <update_step_board+0x50a>
    34fc:	be c0       	rjmp	.+380    	; 0x367a <update_step_board+0x686>
    34fe:	80 91 88 05 	lds	r24, 0x0588
    3502:	8f 70       	andi	r24, 0x0F	; 15
    3504:	8c 17       	cp	r24, r28
    3506:	09 f4       	brne	.+2      	; 0x350a <update_step_board+0x516>
    3508:	b8 c0       	rjmp	.+368    	; 0x367a <update_step_board+0x686>
    350a:	0e 94 f1 07 	call	0xfe2	; 0xfe2 <turn_off>
    350e:	08 e8       	ldi	r16, 0x88	; 136
    3510:	15 e0       	ldi	r17, 0x05	; 5
    3512:	8c 2f       	mov	r24, r28
    3514:	8f 70       	andi	r24, 0x0F	; 15
    3516:	f8 01       	movw	r30, r16
    3518:	90 81       	ld	r25, Z
    351a:	90 7f       	andi	r25, 0xF0	; 240
    351c:	98 2b       	or	r25, r24
    351e:	90 83       	st	Z, r25
    3520:	0e 94 d6 07 	call	0xfac	; 0xfac <turn_on>
    3524:	f8 01       	movw	r30, r16
    3526:	60 81       	ld	r22, Z
    3528:	6f 70       	andi	r22, 0x0F	; 15
    352a:	90 91 d6 05 	lds	r25, 0x05D6
    352e:	92 95       	swap	r25
    3530:	96 95       	lsr	r25
    3532:	97 70       	andi	r25, 0x07	; 7
    3534:	80 91 d7 05 	lds	r24, 0x05D7
    3538:	81 70       	andi	r24, 0x01	; 1
    353a:	88 0f       	add	r24, r24
    353c:	88 0f       	add	r24, r24
    353e:	88 0f       	add	r24, r24
    3540:	89 2b       	or	r24, r25
    3542:	0e 94 ab 10 	call	0x2156	; 0x2156 <read_next_pattern>
    3546:	99 c0       	rjmp	.+306    	; 0x367a <update_step_board+0x686>
    3548:	cc 30       	cpi	r28, 0x0C	; 12
    354a:	58 f5       	brcc	.+86     	; 0x35a2 <update_step_board+0x5ae>
    354c:	8c 2f       	mov	r24, r28
    354e:	8f 70       	andi	r24, 0x0F	; 15
    3550:	05 ed       	ldi	r16, 0xD5	; 213
    3552:	15 e0       	ldi	r17, 0x05	; 5
    3554:	38 2f       	mov	r19, r24
    3556:	33 0f       	add	r19, r19
    3558:	f8 01       	movw	r30, r16
    355a:	92 81       	ldd	r25, Z+2	; 0x02
    355c:	90 7e       	andi	r25, 0xE0	; 224
    355e:	c2 95       	swap	r28
    3560:	cc 0f       	add	r28, r28
    3562:	c0 7e       	andi	r28, 0xE0	; 224
    3564:	21 81       	ldd	r18, Z+1	; 0x01
    3566:	2f 71       	andi	r18, 0x1F	; 31
    3568:	c2 2b       	or	r28, r18
    356a:	c1 83       	std	Z+1, r28	; 0x01
    356c:	28 2f       	mov	r18, r24
    356e:	26 95       	lsr	r18
    3570:	26 95       	lsr	r18
    3572:	26 95       	lsr	r18
    3574:	93 2b       	or	r25, r19
    3576:	92 2b       	or	r25, r18
    3578:	92 83       	std	Z+2, r25	; 0x02
    357a:	60 91 88 05 	lds	r22, 0x0588
    357e:	6f 70       	andi	r22, 0x0F	; 15
    3580:	0e 94 ab 10 	call	0x2156	; 0x2156 <read_next_pattern>
    3584:	f8 01       	movw	r30, r16
    3586:	81 81       	ldd	r24, Z+1	; 0x01
    3588:	90 81       	ld	r25, Z
    358a:	9f 71       	andi	r25, 0x1F	; 31
    358c:	90 83       	st	Z, r25
    358e:	8c 7f       	andi	r24, 0xFC	; 252
    3590:	81 83       	std	Z+1, r24	; 0x01
    3592:	10 92 fc 02 	sts	0x02FC, r1
    3596:	ed ef       	ldi	r30, 0xFD	; 253
    3598:	f2 e0       	ldi	r31, 0x02	; 2
    359a:	81 81       	ldd	r24, Z+1	; 0x01
    359c:	89 7f       	andi	r24, 0xF9	; 249
    359e:	81 83       	std	Z+1, r24	; 0x01
    35a0:	6c c0       	rjmp	.+216    	; 0x367a <update_step_board+0x686>
    35a2:	e5 ed       	ldi	r30, 0xD5	; 213
    35a4:	f5 e0       	ldi	r31, 0x05	; 5
    35a6:	9c 2f       	mov	r25, r28
    35a8:	92 95       	swap	r25
    35aa:	99 0f       	add	r25, r25
    35ac:	90 7e       	andi	r25, 0xE0	; 224
    35ae:	82 81       	ldd	r24, Z+2	; 0x02
    35b0:	8f 71       	andi	r24, 0x1F	; 31
    35b2:	89 2b       	or	r24, r25
    35b4:	82 83       	std	Z+2, r24	; 0x02
    35b6:	c3 fb       	bst	r28, 3
    35b8:	88 27       	eor	r24, r24
    35ba:	80 f9       	bld	r24, 0
    35bc:	c3 81       	ldd	r28, Z+3	; 0x03
    35be:	ce 7f       	andi	r28, 0xFE	; 254
    35c0:	c8 2b       	or	r28, r24
    35c2:	c3 83       	std	Z+3, r28	; 0x03
    35c4:	5a c0       	rjmp	.+180    	; 0x367a <update_step_board+0x686>
    35c6:	80 91 fd 04 	lds	r24, 0x04FD
    35ca:	80 ff       	sbrs	r24, 0
    35cc:	2c c0       	rjmp	.+88     	; 0x3626 <update_step_board+0x632>
    35ce:	80 91 fc 04 	lds	r24, 0x04FC
    35d2:	84 fd       	sbrc	r24, 4
    35d4:	28 c0       	rjmp	.+80     	; 0x3626 <update_step_board+0x632>
    35d6:	cc 30       	cpi	r28, 0x0C	; 12
    35d8:	08 f0       	brcs	.+2      	; 0x35dc <update_step_board+0x5e8>
    35da:	4f c0       	rjmp	.+158    	; 0x367a <update_step_board+0x686>
    35dc:	80 91 88 05 	lds	r24, 0x0588
    35e0:	8f 70       	andi	r24, 0x0F	; 15
    35e2:	8c 17       	cp	r24, r28
    35e4:	09 f4       	brne	.+2      	; 0x35e8 <update_step_board+0x5f4>
    35e6:	49 c0       	rjmp	.+146    	; 0x367a <update_step_board+0x686>
    35e8:	0e 94 f1 07 	call	0xfe2	; 0xfe2 <turn_off>
    35ec:	08 e8       	ldi	r16, 0x88	; 136
    35ee:	15 e0       	ldi	r17, 0x05	; 5
    35f0:	8c 2f       	mov	r24, r28
    35f2:	8f 70       	andi	r24, 0x0F	; 15
    35f4:	f8 01       	movw	r30, r16
    35f6:	90 81       	ld	r25, Z
    35f8:	90 7f       	andi	r25, 0xF0	; 240
    35fa:	98 2b       	or	r25, r24
    35fc:	90 83       	st	Z, r25
    35fe:	0e 94 d6 07 	call	0xfac	; 0xfac <turn_on>
    3602:	f8 01       	movw	r30, r16
    3604:	60 81       	ld	r22, Z
    3606:	6f 70       	andi	r22, 0x0F	; 15
    3608:	90 91 d6 05 	lds	r25, 0x05D6
    360c:	92 95       	swap	r25
    360e:	96 95       	lsr	r25
    3610:	97 70       	andi	r25, 0x07	; 7
    3612:	80 91 d7 05 	lds	r24, 0x05D7
    3616:	81 70       	andi	r24, 0x01	; 1
    3618:	88 0f       	add	r24, r24
    361a:	88 0f       	add	r24, r24
    361c:	88 0f       	add	r24, r24
    361e:	89 2b       	or	r24, r25
    3620:	0e 94 ab 10 	call	0x2156	; 0x2156 <read_next_pattern>
    3624:	2a c0       	rjmp	.+84     	; 0x367a <update_step_board+0x686>
    3626:	8c 2f       	mov	r24, r28
    3628:	8f 70       	andi	r24, 0x0F	; 15
    362a:	05 ed       	ldi	r16, 0xD5	; 213
    362c:	15 e0       	ldi	r17, 0x05	; 5
    362e:	38 2f       	mov	r19, r24
    3630:	33 0f       	add	r19, r19
    3632:	f8 01       	movw	r30, r16
    3634:	92 81       	ldd	r25, Z+2	; 0x02
    3636:	90 7e       	andi	r25, 0xE0	; 224
    3638:	c2 95       	swap	r28
    363a:	cc 0f       	add	r28, r28
    363c:	c0 7e       	andi	r28, 0xE0	; 224
    363e:	21 81       	ldd	r18, Z+1	; 0x01
    3640:	2f 71       	andi	r18, 0x1F	; 31
    3642:	c2 2b       	or	r28, r18
    3644:	c1 83       	std	Z+1, r28	; 0x01
    3646:	28 2f       	mov	r18, r24
    3648:	26 95       	lsr	r18
    364a:	26 95       	lsr	r18
    364c:	26 95       	lsr	r18
    364e:	93 2b       	or	r25, r19
    3650:	92 2b       	or	r25, r18
    3652:	92 83       	std	Z+2, r25	; 0x02
    3654:	60 91 88 05 	lds	r22, 0x0588
    3658:	6f 70       	andi	r22, 0x0F	; 15
    365a:	0e 94 ab 10 	call	0x2156	; 0x2156 <read_next_pattern>
    365e:	f8 01       	movw	r30, r16
    3660:	81 81       	ldd	r24, Z+1	; 0x01
    3662:	90 81       	ld	r25, Z
    3664:	9f 71       	andi	r25, 0x1F	; 31
    3666:	90 83       	st	Z, r25
    3668:	8c 7f       	andi	r24, 0xFC	; 252
    366a:	81 83       	std	Z+1, r24	; 0x01
    366c:	10 92 fc 02 	sts	0x02FC, r1
    3670:	ed ef       	ldi	r30, 0xFD	; 253
    3672:	f2 e0       	ldi	r31, 0x02	; 2
    3674:	81 81       	ldd	r24, Z+1	; 0x01
    3676:	89 7f       	andi	r24, 0xF9	; 249
    3678:	81 83       	std	Z+1, r24	; 0x01
    367a:	df 91       	pop	r29
    367c:	cf 91       	pop	r28
    367e:	1f 91       	pop	r17
    3680:	0f 91       	pop	r16
    3682:	ff 90       	pop	r15
    3684:	ef 90       	pop	r14
    3686:	df 90       	pop	r13
    3688:	cf 90       	pop	r12
    368a:	bf 90       	pop	r11
    368c:	af 90       	pop	r10
    368e:	9f 90       	pop	r9
    3690:	8f 90       	pop	r8
    3692:	7f 90       	pop	r7
    3694:	6f 90       	pop	r6
    3696:	08 95       	ret

00003698 <read_rhythm_track>:
    3698:	cf 93       	push	r28
    369a:	df 93       	push	r29
    369c:	cd b7       	in	r28, 0x3d	; 61
    369e:	de b7       	in	r29, 0x3e	; 62
    36a0:	c1 54       	subi	r28, 0x41	; 65
    36a2:	d1 09       	sbc	r29, r1
    36a4:	0f b6       	in	r0, 0x3f	; 63
    36a6:	f8 94       	cli
    36a8:	de bf       	out	0x3e, r29	; 62
    36aa:	0f be       	out	0x3f, r0	; 63
    36ac:	cd bf       	out	0x3d, r28	; 61
    36ae:	60 91 d9 05 	lds	r22, 0x05D9
    36b2:	86 2f       	mov	r24, r22
    36b4:	82 95       	swap	r24
    36b6:	86 95       	lsr	r24
    36b8:	86 95       	lsr	r24
    36ba:	83 70       	andi	r24, 0x03	; 3
    36bc:	60 91 da 05 	lds	r22, 0x05DA
    36c0:	63 70       	andi	r22, 0x03	; 3
    36c2:	66 0f       	add	r22, r22
    36c4:	66 0f       	add	r22, r22
    36c6:	68 2b       	or	r22, r24
    36c8:	70 e0       	ldi	r23, 0x00	; 0
    36ca:	ce 01       	movw	r24, r28
    36cc:	01 96       	adiw	r24, 0x01	; 1
    36ce:	0e 94 04 02 	call	0x408	; 0x408 <eeprom_read_rhythm_track>
    36d2:	81 e4       	ldi	r24, 0x41	; 65
    36d4:	fe 01       	movw	r30, r28
    36d6:	31 96       	adiw	r30, 0x01	; 1
    36d8:	a9 eb       	ldi	r26, 0xB9	; 185
    36da:	b4 e0       	ldi	r27, 0x04	; 4
    36dc:	01 90       	ld	r0, Z+
    36de:	0d 92       	st	X+, r0
    36e0:	8a 95       	dec	r24
    36e2:	e1 f7       	brne	.-8      	; 0x36dc <read_rhythm_track+0x44>
    36e4:	e1 ee       	ldi	r30, 0xE1	; 225
    36e6:	f2 e0       	ldi	r31, 0x02	; 2
    36e8:	80 81       	ld	r24, Z
    36ea:	80 62       	ori	r24, 0x20	; 32
    36ec:	80 83       	st	Z, r24
    36ee:	cf 5b       	subi	r28, 0xBF	; 191
    36f0:	df 4f       	sbci	r29, 0xFF	; 255
    36f2:	0f b6       	in	r0, 0x3f	; 63
    36f4:	f8 94       	cli
    36f6:	de bf       	out	0x3e, r29	; 62
    36f8:	0f be       	out	0x3f, r0	; 63
    36fa:	cd bf       	out	0x3d, r28	; 61
    36fc:	df 91       	pop	r29
    36fe:	cf 91       	pop	r28
    3700:	08 95       	ret

00003702 <write_rhythm_track>:
    3702:	cf 93       	push	r28
    3704:	df 93       	push	r29
    3706:	cd b7       	in	r28, 0x3d	; 61
    3708:	de b7       	in	r29, 0x3e	; 62
    370a:	c1 54       	subi	r28, 0x41	; 65
    370c:	d1 09       	sbc	r29, r1
    370e:	0f b6       	in	r0, 0x3f	; 63
    3710:	f8 94       	cli
    3712:	de bf       	out	0x3e, r29	; 62
    3714:	0f be       	out	0x3f, r0	; 63
    3716:	cd bf       	out	0x3d, r28	; 61
    3718:	40 91 d8 05 	lds	r20, 0x05D8
    371c:	84 2f       	mov	r24, r20
    371e:	88 1f       	adc	r24, r24
    3720:	88 27       	eor	r24, r24
    3722:	88 1f       	adc	r24, r24
    3724:	40 91 d9 05 	lds	r20, 0x05D9
    3728:	4f 73       	andi	r20, 0x3F	; 63
    372a:	44 0f       	add	r20, r20
    372c:	48 2b       	or	r20, r24
    372e:	50 e0       	ldi	r21, 0x00	; 0
    3730:	20 e0       	ldi	r18, 0x00	; 0
    3732:	30 e0       	ldi	r19, 0x00	; 0
    3734:	a1 e0       	ldi	r26, 0x01	; 1
    3736:	b0 e0       	ldi	r27, 0x00	; 0
    3738:	ac 0f       	add	r26, r28
    373a:	bd 1f       	adc	r27, r29
    373c:	a2 0f       	add	r26, r18
    373e:	b3 1f       	adc	r27, r19
    3740:	f9 01       	movw	r30, r18
    3742:	e7 54       	subi	r30, 0x47	; 71
    3744:	fb 4f       	sbci	r31, 0xFB	; 251
    3746:	80 81       	ld	r24, Z
    3748:	98 2f       	mov	r25, r24
    374a:	9f 70       	andi	r25, 0x0F	; 15
    374c:	80 7f       	andi	r24, 0xF0	; 240
    374e:	89 2b       	or	r24, r25
    3750:	8c 93       	st	X, r24
    3752:	2f 5f       	subi	r18, 0xFF	; 255
    3754:	3f 4f       	sbci	r19, 0xFF	; 255
    3756:	42 17       	cp	r20, r18
    3758:	53 07       	cpc	r21, r19
    375a:	64 f7       	brge	.-40     	; 0x3734 <write_rhythm_track+0x32>
    375c:	80 91 f9 04 	lds	r24, 0x04F9
    3760:	22 96       	adiw	r28, 0x02	; 2
    3762:	8f af       	std	Y+63, r24	; 0x3f
    3764:	22 97       	sbiw	r28, 0x02	; 2
    3766:	80 91 d9 05 	lds	r24, 0x05D9
    376a:	98 2f       	mov	r25, r24
    376c:	92 95       	swap	r25
    376e:	96 95       	lsr	r25
    3770:	96 95       	lsr	r25
    3772:	93 70       	andi	r25, 0x03	; 3
    3774:	80 91 da 05 	lds	r24, 0x05DA
    3778:	83 70       	andi	r24, 0x03	; 3
    377a:	88 0f       	add	r24, r24
    377c:	88 0f       	add	r24, r24
    377e:	89 2b       	or	r24, r25
    3780:	be 01       	movw	r22, r28
    3782:	6f 5f       	subi	r22, 0xFF	; 255
    3784:	7f 4f       	sbci	r23, 0xFF	; 255
    3786:	90 e0       	ldi	r25, 0x00	; 0
    3788:	0e 94 35 02 	call	0x46a	; 0x46a <eeprom_write_rhythm_track>
    378c:	cf 5b       	subi	r28, 0xBF	; 191
    378e:	df 4f       	sbci	r29, 0xFF	; 255
    3790:	0f b6       	in	r0, 0x3f	; 63
    3792:	f8 94       	cli
    3794:	de bf       	out	0x3e, r29	; 62
    3796:	0f be       	out	0x3f, r0	; 63
    3798:	cd bf       	out	0x3d, r28	; 61
    379a:	df 91       	pop	r29
    379c:	cf 91       	pop	r28
    379e:	08 95       	ret

000037a0 <spi_shift_byte>:
    37a0:	80 93 ae 00 	sts	0x00AE, r24
    37a4:	ed ea       	ldi	r30, 0xAD	; 173
    37a6:	f0 e0       	ldi	r31, 0x00	; 0
    37a8:	80 81       	ld	r24, Z
    37aa:	88 23       	and	r24, r24
    37ac:	ec f7       	brge	.-6      	; 0x37a8 <spi_shift_byte+0x8>
    37ae:	80 91 ae 00 	lds	r24, 0x00AE
    37b2:	08 95       	ret

000037b4 <update_spi>:
    37b4:	cf 93       	push	r28
    37b6:	df 93       	push	r29
    37b8:	c1 e4       	ldi	r28, 0x41	; 65
    37ba:	d2 e0       	ldi	r29, 0x02	; 2
    37bc:	88 81       	ld	r24, Y
    37be:	0e 94 d0 1b 	call	0x37a0	; 0x37a0 <spi_shift_byte>
    37c2:	89 81       	ldd	r24, Y+1	; 0x01
    37c4:	0e 94 d0 1b 	call	0x37a0	; 0x37a0 <spi_shift_byte>
    37c8:	8a 81       	ldd	r24, Y+2	; 0x02
    37ca:	0e 94 d0 1b 	call	0x37a0	; 0x37a0 <spi_shift_byte>
    37ce:	8b 81       	ldd	r24, Y+3	; 0x03
    37d0:	0e 94 d0 1b 	call	0x37a0	; 0x37a0 <spi_shift_byte>
    37d4:	8c 81       	ldd	r24, Y+4	; 0x04
    37d6:	0e 94 d0 1b 	call	0x37a0	; 0x37a0 <spi_shift_byte>
    37da:	8d 81       	ldd	r24, Y+5	; 0x05
    37dc:	0e 94 d0 1b 	call	0x37a0	; 0x37a0 <spi_shift_byte>
    37e0:	8e 81       	ldd	r24, Y+6	; 0x06
    37e2:	0e 94 d0 1b 	call	0x37a0	; 0x37a0 <spi_shift_byte>
    37e6:	8f 81       	ldd	r24, Y+7	; 0x07
    37e8:	0e 94 d0 1b 	call	0x37a0	; 0x37a0 <spi_shift_byte>
    37ec:	88 85       	ldd	r24, Y+8	; 0x08
    37ee:	0e 94 d0 1b 	call	0x37a0	; 0x37a0 <spi_shift_byte>
    37f2:	71 98       	cbi	0x0e, 1	; 14
    37f4:	71 9a       	sbi	0x0e, 1	; 14
    37f6:	df 91       	pop	r29
    37f8:	cf 91       	pop	r28
    37fa:	08 95       	ret

000037fc <read_switches>:
    37fc:	cf 93       	push	r28
    37fe:	df 93       	push	r29
    3800:	70 9a       	sbi	0x0e, 0	; 14
    3802:	80 e0       	ldi	r24, 0x00	; 0
    3804:	0e 94 d0 1b 	call	0x37a0	; 0x37a0 <spi_shift_byte>
    3808:	cc e3       	ldi	r28, 0x3C	; 60
    380a:	d2 e0       	ldi	r29, 0x02	; 2
    380c:	88 83       	st	Y, r24
    380e:	80 e0       	ldi	r24, 0x00	; 0
    3810:	0e 94 d0 1b 	call	0x37a0	; 0x37a0 <spi_shift_byte>
    3814:	89 83       	std	Y+1, r24	; 0x01
    3816:	80 e0       	ldi	r24, 0x00	; 0
    3818:	0e 94 d0 1b 	call	0x37a0	; 0x37a0 <spi_shift_byte>
    381c:	8a 83       	std	Y+2, r24	; 0x02
    381e:	80 e0       	ldi	r24, 0x00	; 0
    3820:	0e 94 d0 1b 	call	0x37a0	; 0x37a0 <spi_shift_byte>
    3824:	8b 83       	std	Y+3, r24	; 0x03
    3826:	80 e0       	ldi	r24, 0x00	; 0
    3828:	0e 94 d0 1b 	call	0x37a0	; 0x37a0 <spi_shift_byte>
    382c:	8c 83       	std	Y+4, r24	; 0x04
    382e:	70 98       	cbi	0x0e, 0	; 14
    3830:	98 81       	ld	r25, Y
    3832:	29 2f       	mov	r18, r25
    3834:	26 95       	lsr	r18
    3836:	ec ef       	ldi	r30, 0xFC	; 252
    3838:	f4 e0       	ldi	r31, 0x04	; 4
    383a:	30 81       	ld	r19, Z
    383c:	20 fb       	bst	r18, 0
    383e:	34 f9       	bld	r19, 4
    3840:	49 2f       	mov	r20, r25
    3842:	46 95       	lsr	r20
    3844:	46 95       	lsr	r20
    3846:	21 81       	ldd	r18, Z+1	; 0x01
    3848:	40 fb       	bst	r20, 0
    384a:	20 f9       	bld	r18, 0
    384c:	21 83       	std	Z+1, r18	; 0x01
    384e:	2a 81       	ldd	r18, Y+2	; 0x02
    3850:	42 2f       	mov	r20, r18
    3852:	42 95       	swap	r20
    3854:	4f 70       	andi	r20, 0x0F	; 15
    3856:	40 fb       	bst	r20, 0
    3858:	36 f9       	bld	r19, 6
    385a:	30 83       	st	Z, r19
    385c:	e7 e3       	ldi	r30, 0x37	; 55
    385e:	f2 e0       	ldi	r31, 0x02	; 2
    3860:	30 81       	ld	r19, Z
    3862:	93 27       	eor	r25, r19
    3864:	39 27       	eor	r19, r25
    3866:	30 83       	st	Z, r19
    3868:	93 23       	and	r25, r19
    386a:	98 83       	st	Y, r25
    386c:	31 81       	ldd	r19, Z+1	; 0x01
    386e:	99 81       	ldd	r25, Y+1	; 0x01
    3870:	93 27       	eor	r25, r19
    3872:	39 27       	eor	r19, r25
    3874:	31 83       	std	Z+1, r19	; 0x01
    3876:	93 23       	and	r25, r19
    3878:	99 83       	std	Y+1, r25	; 0x01
    387a:	32 81       	ldd	r19, Z+2	; 0x02
    387c:	93 2f       	mov	r25, r19
    387e:	92 27       	eor	r25, r18
    3880:	29 2f       	mov	r18, r25
    3882:	23 27       	eor	r18, r19
    3884:	22 83       	std	Z+2, r18	; 0x02
    3886:	92 23       	and	r25, r18
    3888:	9a 83       	std	Y+2, r25	; 0x02
    388a:	23 81       	ldd	r18, Z+3	; 0x03
    388c:	9b 81       	ldd	r25, Y+3	; 0x03
    388e:	92 27       	eor	r25, r18
    3890:	29 27       	eor	r18, r25
    3892:	23 83       	std	Z+3, r18	; 0x03
    3894:	92 23       	and	r25, r18
    3896:	9b 83       	std	Y+3, r25	; 0x03
    3898:	94 81       	ldd	r25, Z+4	; 0x04
    389a:	89 27       	eor	r24, r25
    389c:	98 27       	eor	r25, r24
    389e:	94 83       	std	Z+4, r25	; 0x04
    38a0:	89 23       	and	r24, r25
    38a2:	8c 83       	std	Y+4, r24	; 0x04
    38a4:	df 91       	pop	r29
    38a6:	cf 91       	pop	r28
    38a8:	08 95       	ret

000038aa <parse_switch_data>:
    38aa:	40 e0       	ldi	r20, 0x00	; 0
    38ac:	50 e0       	ldi	r21, 0x00	; 0
    38ae:	da 01       	movw	r26, r20
    38b0:	aa 50       	subi	r26, 0x0A	; 10
    38b2:	be 4f       	sbci	r27, 0xFE	; 254
    38b4:	8c 91       	ld	r24, X
    38b6:	e8 2f       	mov	r30, r24
    38b8:	e6 95       	lsr	r30
    38ba:	e6 95       	lsr	r30
    38bc:	e6 95       	lsr	r30
    38be:	e7 70       	andi	r30, 0x07	; 7
    38c0:	f0 e0       	ldi	r31, 0x00	; 0
    38c2:	e4 5c       	subi	r30, 0xC4	; 196
    38c4:	fd 4f       	sbci	r31, 0xFD	; 253
    38c6:	20 81       	ld	r18, Z
    38c8:	30 e0       	ldi	r19, 0x00	; 0
    38ca:	98 2f       	mov	r25, r24
    38cc:	97 70       	andi	r25, 0x07	; 7
    38ce:	02 c0       	rjmp	.+4      	; 0x38d4 <parse_switch_data+0x2a>
    38d0:	35 95       	asr	r19
    38d2:	27 95       	ror	r18
    38d4:	9a 95       	dec	r25
    38d6:	e2 f7       	brpl	.-8      	; 0x38d0 <parse_switch_data+0x26>
    38d8:	21 70       	andi	r18, 0x01	; 1
    38da:	86 fb       	bst	r24, 6
    38dc:	99 27       	eor	r25, r25
    38de:	90 f9       	bld	r25, 0
    38e0:	29 27       	eor	r18, r25
    38e2:	20 fb       	bst	r18, 0
    38e4:	86 f9       	bld	r24, 6
    38e6:	8c 93       	st	X, r24
    38e8:	4f 5f       	subi	r20, 0xFF	; 255
    38ea:	5f 4f       	sbci	r21, 0xFF	; 255
    38ec:	43 32       	cpi	r20, 0x23	; 35
    38ee:	51 05       	cpc	r21, r1
    38f0:	f1 f6       	brne	.-68     	; 0x38ae <parse_switch_data+0x4>
    38f2:	08 95       	ret

000038f4 <check_write_sw>:
    38f4:	80 91 12 02 	lds	r24, 0x0212
    38f8:	86 ff       	sbrs	r24, 6
    38fa:	44 c0       	rjmp	.+136    	; 0x3984 <check_write_sw+0x90>
    38fc:	80 91 fa 04 	lds	r24, 0x04FA
    3900:	85 30       	cpi	r24, 0x05	; 5
    3902:	09 f0       	breq	.+2      	; 0x3906 <check_write_sw+0x12>
    3904:	3f c0       	rjmp	.+126    	; 0x3984 <check_write_sw+0x90>
    3906:	e2 e1       	ldi	r30, 0x12	; 18
    3908:	f2 e0       	ldi	r31, 0x02	; 2
    390a:	80 81       	ld	r24, Z
    390c:	8f 7b       	andi	r24, 0xBF	; 191
    390e:	80 83       	st	Z, r24
    3910:	80 91 fd 04 	lds	r24, 0x04FD
    3914:	80 fd       	sbrc	r24, 0
    3916:	36 c0       	rjmp	.+108    	; 0x3984 <check_write_sw+0x90>
    3918:	80 91 d8 05 	lds	r24, 0x05D8
    391c:	98 2f       	mov	r25, r24
    391e:	99 1f       	adc	r25, r25
    3920:	99 27       	eor	r25, r25
    3922:	99 1f       	adc	r25, r25
    3924:	80 91 d9 05 	lds	r24, 0x05D9
    3928:	8f 73       	andi	r24, 0x3F	; 63
    392a:	88 0f       	add	r24, r24
    392c:	89 2b       	or	r24, r25
    392e:	e8 2f       	mov	r30, r24
    3930:	f0 e0       	ldi	r31, 0x00	; 0
    3932:	e7 54       	subi	r30, 0x47	; 71
    3934:	fb 4f       	sbci	r31, 0xFB	; 251
    3936:	90 91 88 05 	lds	r25, 0x0588
    393a:	20 91 d7 05 	lds	r18, 0x05D7
    393e:	26 95       	lsr	r18
    3940:	2f 70       	andi	r18, 0x0F	; 15
    3942:	92 95       	swap	r25
    3944:	90 7f       	andi	r25, 0xF0	; 240
    3946:	92 2b       	or	r25, r18
    3948:	90 83       	st	Z, r25
    394a:	80 93 f9 04 	sts	0x04F9, r24
    394e:	8f 5f       	subi	r24, 0xFF	; 255
    3950:	8f 77       	andi	r24, 0x7F	; 127
    3952:	80 34       	cpi	r24, 0x40	; 64
    3954:	61 f0       	breq	.+24     	; 0x396e <check_write_sw+0x7a>
    3956:	e5 ed       	ldi	r30, 0xD5	; 213
    3958:	f5 e0       	ldi	r31, 0x05	; 5
    395a:	93 81       	ldd	r25, Z+3	; 0x03
    395c:	80 fb       	bst	r24, 0
    395e:	97 f9       	bld	r25, 7
    3960:	93 83       	std	Z+3, r25	; 0x03
    3962:	86 95       	lsr	r24
    3964:	94 81       	ldd	r25, Z+4	; 0x04
    3966:	90 7c       	andi	r25, 0xC0	; 192
    3968:	89 2b       	or	r24, r25
    396a:	84 83       	std	Z+4, r24	; 0x04
    396c:	09 c0       	rjmp	.+18     	; 0x3980 <check_write_sw+0x8c>
    396e:	e5 ed       	ldi	r30, 0xD5	; 213
    3970:	f5 e0       	ldi	r31, 0x05	; 5
    3972:	83 81       	ldd	r24, Z+3	; 0x03
    3974:	80 68       	ori	r24, 0x80	; 128
    3976:	83 83       	std	Z+3, r24	; 0x03
    3978:	84 81       	ldd	r24, Z+4	; 0x04
    397a:	80 7c       	andi	r24, 0xC0	; 192
    397c:	8f 61       	ori	r24, 0x1F	; 31
    397e:	84 83       	std	Z+4, r24	; 0x04
    3980:	0e 94 81 1b 	call	0x3702	; 0x3702 <write_rhythm_track>
    3984:	08 95       	ret

00003986 <check_start_stop_tap>:
    3986:	93 b1       	in	r25, 0x03	; 3
    3988:	29 2f       	mov	r18, r25
    398a:	26 95       	lsr	r18
    398c:	26 95       	lsr	r18
    398e:	ec ef       	ldi	r30, 0xFC	; 252
    3990:	f4 e0       	ldi	r31, 0x04	; 4
    3992:	80 81       	ld	r24, Z
    3994:	20 fb       	bst	r18, 0
    3996:	87 f9       	bld	r24, 7
    3998:	80 83       	st	Z, r24
    399a:	80 91 4a 02 	lds	r24, 0x024A
    399e:	98 27       	eor	r25, r24
    39a0:	89 27       	eor	r24, r25
    39a2:	80 93 4a 02 	sts	0x024A, r24
    39a6:	89 23       	and	r24, r25
    39a8:	82 fd       	sbrc	r24, 2
    39aa:	03 c0       	rjmp	.+6      	; 0x39b2 <check_start_stop_tap+0x2c>
    39ac:	80 93 4b 02 	sts	0x024B, r24
    39b0:	09 c0       	rjmp	.+18     	; 0x39c4 <check_start_stop_tap+0x3e>
    39b2:	94 e0       	ldi	r25, 0x04	; 4
    39b4:	89 27       	eor	r24, r25
    39b6:	80 93 4b 02 	sts	0x024B, r24
    39ba:	e2 ee       	ldi	r30, 0xE2	; 226
    39bc:	f2 e0       	ldi	r31, 0x02	; 2
    39be:	80 81       	ld	r24, Z
    39c0:	82 60       	ori	r24, 0x02	; 2
    39c2:	80 83       	st	Z, r24
    39c4:	80 91 06 03 	lds	r24, 0x0306
    39c8:	81 30       	cpi	r24, 0x01	; 1
    39ca:	c9 f0       	breq	.+50     	; 0x39fe <check_start_stop_tap+0x78>
    39cc:	ec ef       	ldi	r30, 0xFC	; 252
    39ce:	f4 e0       	ldi	r31, 0x04	; 4
    39d0:	80 81       	ld	r24, Z
    39d2:	85 fb       	bst	r24, 5
    39d4:	22 27       	eor	r18, r18
    39d6:	20 f9       	bld	r18, 0
    39d8:	90 91 4b 02 	lds	r25, 0x024B
    39dc:	96 95       	lsr	r25
    39de:	92 27       	eor	r25, r18
    39e0:	90 fb       	bst	r25, 0
    39e2:	85 f9       	bld	r24, 5
    39e4:	80 83       	st	Z, r24
    39e6:	85 ff       	sbrs	r24, 5
    39e8:	08 c0       	rjmp	.+16     	; 0x39fa <check_start_stop_tap+0x74>
    39ea:	21 11       	cpse	r18, r1
    39ec:	08 c0       	rjmp	.+16     	; 0x39fe <check_start_stop_tap+0x78>
    39ee:	0e 94 fe 0e 	call	0x1dfc	; 0x1dfc <process_start>
    39f2:	08 95       	ret
    39f4:	0e 94 98 0f 	call	0x1f30	; 0x1f30 <process_stop>
    39f8:	08 95       	ret
    39fa:	21 30       	cpi	r18, 0x01	; 1
    39fc:	d9 f3       	breq	.-10     	; 0x39f4 <check_start_stop_tap+0x6e>
    39fe:	08 95       	ret

00003a00 <check_variation_switches>:
    3a00:	80 91 14 02 	lds	r24, 0x0214
    3a04:	86 ff       	sbrs	r24, 6
    3a06:	29 c0       	rjmp	.+82     	; 0x3a5a <check_variation_switches+0x5a>
    3a08:	90 91 fc 04 	lds	r25, 0x04FC
    3a0c:	94 fd       	sbrc	r25, 4
    3a0e:	25 c0       	rjmp	.+74     	; 0x3a5a <check_variation_switches+0x5a>
    3a10:	e4 e1       	ldi	r30, 0x14	; 20
    3a12:	f2 e0       	ldi	r31, 0x02	; 2
    3a14:	8f 7b       	andi	r24, 0xBF	; 191
    3a16:	80 83       	st	Z, r24
    3a18:	e2 ed       	ldi	r30, 0xD2	; 210
    3a1a:	f5 e0       	ldi	r31, 0x05	; 5
    3a1c:	80 81       	ld	r24, Z
    3a1e:	8f 5f       	subi	r24, 0xFF	; 255
    3a20:	80 83       	st	Z, r24
    3a22:	83 30       	cpi	r24, 0x03	; 3
    3a24:	29 f4       	brne	.+10     	; 0x3a30 <check_variation_switches+0x30>
    3a26:	10 92 d2 05 	sts	0x05D2, r1
    3a2a:	95 ff       	sbrs	r25, 5
    3a2c:	0b c0       	rjmp	.+22     	; 0x3a44 <check_variation_switches+0x44>
    3a2e:	02 c0       	rjmp	.+4      	; 0x3a34 <check_variation_switches+0x34>
    3a30:	95 ff       	sbrs	r25, 5
    3a32:	06 c0       	rjmp	.+12     	; 0x3a40 <check_variation_switches+0x40>
    3a34:	e1 ee       	ldi	r30, 0xE1	; 225
    3a36:	f2 e0       	ldi	r31, 0x02	; 2
    3a38:	80 81       	ld	r24, Z
    3a3a:	84 60       	ori	r24, 0x04	; 4
    3a3c:	80 83       	st	Z, r24
    3a3e:	08 95       	ret
    3a40:	8d 7f       	andi	r24, 0xFD	; 253
    3a42:	31 f4       	brne	.+12     	; 0x3a50 <check_variation_switches+0x50>
    3a44:	e1 ed       	ldi	r30, 0xD1	; 209
    3a46:	f5 e0       	ldi	r31, 0x05	; 5
    3a48:	80 81       	ld	r24, Z
    3a4a:	8d 7f       	andi	r24, 0xFD	; 253
    3a4c:	80 83       	st	Z, r24
    3a4e:	08 95       	ret
    3a50:	e1 ed       	ldi	r30, 0xD1	; 209
    3a52:	f5 e0       	ldi	r31, 0x05	; 5
    3a54:	80 81       	ld	r24, Z
    3a56:	82 60       	ori	r24, 0x02	; 2
    3a58:	80 83       	st	Z, r24
    3a5a:	08 95       	ret

00003a5c <check_clear_switch>:
    3a5c:	cf 92       	push	r12
    3a5e:	df 92       	push	r13
    3a60:	ef 92       	push	r14
    3a62:	ff 92       	push	r15
    3a64:	0f 93       	push	r16
    3a66:	1f 93       	push	r17
    3a68:	cf 93       	push	r28
    3a6a:	df 93       	push	r29
    3a6c:	80 91 fc 04 	lds	r24, 0x04FC
    3a70:	84 fd       	sbrc	r24, 4
    3a72:	db c0       	rjmp	.+438    	; 0x3c2a <check_clear_switch+0x1ce>
    3a74:	86 ff       	sbrs	r24, 6
    3a76:	b8 c0       	rjmp	.+368    	; 0x3be8 <check_clear_switch+0x18c>
    3a78:	e8 e1       	ldi	r30, 0x18	; 24
    3a7a:	f2 e0       	ldi	r31, 0x02	; 2
    3a7c:	80 81       	ld	r24, Z
    3a7e:	8f 7b       	andi	r24, 0xBF	; 191
    3a80:	80 83       	st	Z, r24
    3a82:	80 91 fa 04 	lds	r24, 0x04FA
    3a86:	88 23       	and	r24, r24
    3a88:	21 f0       	breq	.+8      	; 0x3a92 <check_clear_switch+0x36>
    3a8a:	85 30       	cpi	r24, 0x05	; 5
    3a8c:	09 f4       	brne	.+2      	; 0x3a90 <check_clear_switch+0x34>
    3a8e:	7d c0       	rjmp	.+250    	; 0x3b8a <check_clear_switch+0x12e>
    3a90:	cc c0       	rjmp	.+408    	; 0x3c2a <check_clear_switch+0x1ce>
    3a92:	e1 eb       	ldi	r30, 0xB1	; 177
    3a94:	f0 e0       	ldi	r31, 0x00	; 0
    3a96:	80 81       	ld	r24, Z
    3a98:	87 60       	ori	r24, 0x07	; 7
    3a9a:	80 83       	st	Z, r24
    3a9c:	a0 eb       	ldi	r26, 0xB0	; 176
    3a9e:	b0 e0       	ldi	r27, 0x00	; 0
    3aa0:	8c 91       	ld	r24, X
    3aa2:	8c 93       	st	X, r24
    3aa4:	20 e7       	ldi	r18, 0x70	; 112
    3aa6:	30 e0       	ldi	r19, 0x00	; 0
    3aa8:	e9 01       	movw	r28, r18
    3aaa:	88 81       	ld	r24, Y
    3aac:	82 60       	ori	r24, 0x02	; 2
    3aae:	88 83       	st	Y, r24
    3ab0:	8c 91       	ld	r24, X
    3ab2:	81 60       	ori	r24, 0x01	; 1
    3ab4:	8c 93       	st	X, r24
    3ab6:	80 81       	ld	r24, Z
    3ab8:	88 60       	ori	r24, 0x08	; 8
    3aba:	80 83       	st	Z, r24
    3abc:	8c e8       	ldi	r24, 0x8C	; 140
    3abe:	80 93 b3 00 	sts	0x00B3, r24
    3ac2:	80 91 e3 02 	lds	r24, 0x02E3
    3ac6:	80 ff       	sbrs	r24, 0
    3ac8:	08 c0       	rjmp	.+16     	; 0x3ada <check_clear_switch+0x7e>
    3aca:	e3 ee       	ldi	r30, 0xE3	; 227
    3acc:	f2 e0       	ldi	r31, 0x02	; 2
    3ace:	80 81       	ld	r24, Z
    3ad0:	8e 7f       	andi	r24, 0xFE	; 254
    3ad2:	80 83       	st	Z, r24
    3ad4:	8c e1       	ldi	r24, 0x1C	; 28
    3ad6:	0e 94 0d 08 	call	0x101a	; 0x101a <toggle>
    3ada:	e1 ed       	ldi	r30, 0xD1	; 209
    3adc:	f5 e0       	ldi	r31, 0x05	; 5
    3ade:	80 81       	ld	r24, Z
    3ae0:	81 fb       	bst	r24, 1
    3ae2:	ee 24       	eor	r14, r14
    3ae4:	e0 f8       	bld	r14, 0
    3ae6:	f1 2c       	mov	r15, r1
    3ae8:	84 e4       	ldi	r24, 0x44	; 68
    3aea:	8e 9d       	mul	r24, r14
    3aec:	d0 01       	movw	r26, r0
    3aee:	8f 9d       	mul	r24, r15
    3af0:	b0 0d       	add	r27, r0
    3af2:	11 24       	eor	r1, r1
    3af4:	ac 5f       	subi	r26, 0xFC	; 252
    3af6:	ba 4f       	sbci	r27, 0xFA	; 250
    3af8:	90 e4       	ldi	r25, 0x40	; 64
    3afa:	ed 01       	movw	r28, r26
    3afc:	19 92       	st	Y+, r1
    3afe:	9a 95       	dec	r25
    3b00:	e9 f7       	brne	.-6      	; 0x3afc <check_clear_switch+0xa0>
    3b02:	90 81       	ld	r25, Z
    3b04:	91 fb       	bst	r25, 1
    3b06:	00 27       	eor	r16, r16
    3b08:	00 f9       	bld	r16, 0
    3b0a:	10 e0       	ldi	r17, 0x00	; 0
    3b0c:	92 e2       	ldi	r25, 0x22	; 34
    3b0e:	90 9f       	mul	r25, r16
    3b10:	d0 01       	movw	r26, r0
    3b12:	91 9f       	mul	r25, r17
    3b14:	b0 0d       	add	r27, r0
    3b16:	11 24       	eor	r1, r1
    3b18:	a7 57       	subi	r26, 0x77	; 119
    3b1a:	ba 4f       	sbci	r27, 0xFA	; 250
    3b1c:	ed 01       	movw	r28, r26
    3b1e:	19 92       	st	Y+, r1
    3b20:	9a 95       	dec	r25
    3b22:	e9 f7       	brne	.-6      	; 0x3b1e <check_clear_switch+0xc2>
    3b24:	90 81       	ld	r25, Z
    3b26:	91 fb       	bst	r25, 1
    3b28:	cc 24       	eor	r12, r12
    3b2a:	c0 f8       	bld	r12, 0
    3b2c:	d1 2c       	mov	r13, r1
    3b2e:	8c 9d       	mul	r24, r12
    3b30:	f0 01       	movw	r30, r0
    3b32:	8d 9d       	mul	r24, r13
    3b34:	f0 0d       	add	r31, r0
    3b36:	11 24       	eor	r1, r1
    3b38:	e6 50       	subi	r30, 0x06	; 6
    3b3a:	fb 4f       	sbci	r31, 0xFB	; 251
    3b3c:	17 82       	std	Z+7, r1	; 0x07
    3b3e:	16 82       	std	Z+6, r1	; 0x06
    3b40:	11 86       	std	Z+9, r1	; 0x09
    3b42:	10 86       	std	Z+8, r1	; 0x08
    3b44:	8f e0       	ldi	r24, 0x0F	; 15
    3b46:	80 93 d3 05 	sts	0x05D3, r24
    3b4a:	80 e1       	ldi	r24, 0x10	; 16
    3b4c:	80 93 d4 05 	sts	0x05D4, r24
    3b50:	e5 ed       	ldi	r30, 0xD5	; 213
    3b52:	f5 e0       	ldi	r31, 0x05	; 5
    3b54:	81 81       	ldd	r24, Z+1	; 0x01
    3b56:	87 7e       	andi	r24, 0xE7	; 231
    3b58:	88 60       	ori	r24, 0x08	; 8
    3b5a:	81 83       	std	Z+1, r24	; 0x01
    3b5c:	88 e1       	ldi	r24, 0x18	; 24
    3b5e:	80 93 fb 02 	sts	0x02FB, r24
    3b62:	0e 94 2d 0a 	call	0x145a	; 0x145a <update_prescale_leds>
    3b66:	60 91 88 05 	lds	r22, 0x0588
    3b6a:	6f 70       	andi	r22, 0x0F	; 15
    3b6c:	90 91 d6 05 	lds	r25, 0x05D6
    3b70:	92 95       	swap	r25
    3b72:	96 95       	lsr	r25
    3b74:	97 70       	andi	r25, 0x07	; 7
    3b76:	80 91 d7 05 	lds	r24, 0x05D7
    3b7a:	81 70       	andi	r24, 0x01	; 1
    3b7c:	88 0f       	add	r24, r24
    3b7e:	88 0f       	add	r24, r24
    3b80:	88 0f       	add	r24, r24
    3b82:	89 2b       	or	r24, r25
    3b84:	0e 94 e8 12 	call	0x25d0	; 0x25d0 <write_current_pattern>
    3b88:	50 c0       	rjmp	.+160    	; 0x3c2a <check_clear_switch+0x1ce>
    3b8a:	e1 eb       	ldi	r30, 0xB1	; 177
    3b8c:	f0 e0       	ldi	r31, 0x00	; 0
    3b8e:	80 81       	ld	r24, Z
    3b90:	87 60       	ori	r24, 0x07	; 7
    3b92:	80 83       	st	Z, r24
    3b94:	a0 eb       	ldi	r26, 0xB0	; 176
    3b96:	b0 e0       	ldi	r27, 0x00	; 0
    3b98:	8c 91       	ld	r24, X
    3b9a:	8c 93       	st	X, r24
    3b9c:	c0 e7       	ldi	r28, 0x70	; 112
    3b9e:	d0 e0       	ldi	r29, 0x00	; 0
    3ba0:	88 81       	ld	r24, Y
    3ba2:	82 60       	ori	r24, 0x02	; 2
    3ba4:	88 83       	st	Y, r24
    3ba6:	8c 91       	ld	r24, X
    3ba8:	81 60       	ori	r24, 0x01	; 1
    3baa:	8c 93       	st	X, r24
    3bac:	80 81       	ld	r24, Z
    3bae:	88 60       	ori	r24, 0x08	; 8
    3bb0:	80 83       	st	Z, r24
    3bb2:	8c e8       	ldi	r24, 0x8C	; 140
    3bb4:	80 93 b3 00 	sts	0x00B3, r24
    3bb8:	80 91 e3 02 	lds	r24, 0x02E3
    3bbc:	80 ff       	sbrs	r24, 0
    3bbe:	08 c0       	rjmp	.+16     	; 0x3bd0 <check_clear_switch+0x174>
    3bc0:	e3 ee       	ldi	r30, 0xE3	; 227
    3bc2:	f2 e0       	ldi	r31, 0x02	; 2
    3bc4:	80 81       	ld	r24, Z
    3bc6:	8e 7f       	andi	r24, 0xFE	; 254
    3bc8:	80 83       	st	Z, r24
    3bca:	81 e2       	ldi	r24, 0x21	; 33
    3bcc:	0e 94 0d 08 	call	0x101a	; 0x101a <toggle>
    3bd0:	80 e4       	ldi	r24, 0x40	; 64
    3bd2:	e9 eb       	ldi	r30, 0xB9	; 185
    3bd4:	f4 e0       	ldi	r31, 0x04	; 4
    3bd6:	df 01       	movw	r26, r30
    3bd8:	1d 92       	st	X+, r1
    3bda:	8a 95       	dec	r24
    3bdc:	e9 f7       	brne	.-6      	; 0x3bd8 <check_clear_switch+0x17c>
    3bde:	10 92 f9 04 	sts	0x04F9, r1
    3be2:	0e 94 81 1b 	call	0x3702	; 0x3702 <write_rhythm_track>
    3be6:	21 c0       	rjmp	.+66     	; 0x3c2a <check_clear_switch+0x1ce>
    3be8:	80 91 fa 04 	lds	r24, 0x04FA
    3bec:	81 11       	cpse	r24, r1
    3bee:	0e c0       	rjmp	.+28     	; 0x3c0c <check_clear_switch+0x1b0>
    3bf0:	10 92 b0 00 	sts	0x00B0, r1
    3bf4:	e0 e7       	ldi	r30, 0x70	; 112
    3bf6:	f0 e0       	ldi	r31, 0x00	; 0
    3bf8:	80 81       	ld	r24, Z
    3bfa:	8d 7f       	andi	r24, 0xFD	; 253
    3bfc:	80 83       	st	Z, r24
    3bfe:	86 e4       	ldi	r24, 0x46	; 70
    3c00:	80 93 b3 00 	sts	0x00B3, r24
    3c04:	8c e1       	ldi	r24, 0x1C	; 28
    3c06:	0e 94 d6 07 	call	0xfac	; 0xfac <turn_on>
    3c0a:	0f c0       	rjmp	.+30     	; 0x3c2a <check_clear_switch+0x1ce>
    3c0c:	85 30       	cpi	r24, 0x05	; 5
    3c0e:	69 f4       	brne	.+26     	; 0x3c2a <check_clear_switch+0x1ce>
    3c10:	10 92 b0 00 	sts	0x00B0, r1
    3c14:	e0 e7       	ldi	r30, 0x70	; 112
    3c16:	f0 e0       	ldi	r31, 0x00	; 0
    3c18:	80 81       	ld	r24, Z
    3c1a:	8d 7f       	andi	r24, 0xFD	; 253
    3c1c:	80 83       	st	Z, r24
    3c1e:	86 e4       	ldi	r24, 0x46	; 70
    3c20:	80 93 b3 00 	sts	0x00B3, r24
    3c24:	81 e2       	ldi	r24, 0x21	; 33
    3c26:	0e 94 d6 07 	call	0xfac	; 0xfac <turn_on>
    3c2a:	df 91       	pop	r29
    3c2c:	cf 91       	pop	r28
    3c2e:	1f 91       	pop	r17
    3c30:	0f 91       	pop	r16
    3c32:	ff 90       	pop	r15
    3c34:	ef 90       	pop	r14
    3c36:	df 90       	pop	r13
    3c38:	cf 90       	pop	r12
    3c3a:	08 95       	ret

00003c3c <check_step_press>:
    3c3c:	80 91 f6 01 	lds	r24, 0x01F6
    3c40:	86 fd       	sbrc	r24, 6
    3c42:	09 c0       	rjmp	.+18     	; 0x3c56 <check_step_press+0x1a>
    3c44:	81 e0       	ldi	r24, 0x01	; 1
    3c46:	90 e0       	ldi	r25, 0x00	; 0
    3c48:	fc 01       	movw	r30, r24
    3c4a:	ea 50       	subi	r30, 0x0A	; 10
    3c4c:	fe 4f       	sbci	r31, 0xFE	; 254
    3c4e:	20 81       	ld	r18, Z
    3c50:	26 ff       	sbrs	r18, 6
    3c52:	0a c0       	rjmp	.+20     	; 0x3c68 <check_step_press+0x2c>
    3c54:	02 c0       	rjmp	.+4      	; 0x3c5a <check_step_press+0x1e>
    3c56:	80 e0       	ldi	r24, 0x00	; 0
    3c58:	90 e0       	ldi	r25, 0x00	; 0
    3c5a:	fc 01       	movw	r30, r24
    3c5c:	ea 50       	subi	r30, 0x0A	; 10
    3c5e:	fe 4f       	sbci	r31, 0xFE	; 254
    3c60:	90 81       	ld	r25, Z
    3c62:	9f 7b       	andi	r25, 0xBF	; 191
    3c64:	90 83       	st	Z, r25
    3c66:	08 95       	ret
    3c68:	01 96       	adiw	r24, 0x01	; 1
    3c6a:	80 31       	cpi	r24, 0x10	; 16
    3c6c:	91 05       	cpc	r25, r1
    3c6e:	61 f7       	brne	.-40     	; 0x3c48 <check_step_press+0xc>
    3c70:	8f ef       	ldi	r24, 0xFF	; 255
    3c72:	08 95       	ret

00003c74 <check_intro_fill_variation_switch>:
    3c74:	80 91 13 02 	lds	r24, 0x0213
    3c78:	86 ff       	sbrs	r24, 6
    3c7a:	3d c0       	rjmp	.+122    	; 0x3cf6 <check_intro_fill_variation_switch+0x82>
    3c7c:	e3 e1       	ldi	r30, 0x13	; 19
    3c7e:	f2 e0       	ldi	r31, 0x02	; 2
    3c80:	8f 7b       	andi	r24, 0xBF	; 191
    3c82:	80 83       	st	Z, r24
    3c84:	80 91 fc 04 	lds	r24, 0x04FC
    3c88:	84 ff       	sbrs	r24, 4
    3c8a:	24 c0       	rjmp	.+72     	; 0x3cd4 <check_intro_fill_variation_switch+0x60>
    3c8c:	80 91 fa 04 	lds	r24, 0x04FA
    3c90:	85 30       	cpi	r24, 0x05	; 5
    3c92:	01 f5       	brne	.+64     	; 0x3cd4 <check_intro_fill_variation_switch+0x60>
    3c94:	80 91 d8 05 	lds	r24, 0x05D8
    3c98:	98 2f       	mov	r25, r24
    3c9a:	99 1f       	adc	r25, r25
    3c9c:	99 27       	eor	r25, r25
    3c9e:	99 1f       	adc	r25, r25
    3ca0:	80 91 d9 05 	lds	r24, 0x05D9
    3ca4:	8f 73       	andi	r24, 0x3F	; 63
    3ca6:	88 0f       	add	r24, r24
    3ca8:	89 2b       	or	r24, r25
    3caa:	71 f0       	breq	.+28     	; 0x3cc8 <check_intro_fill_variation_switch+0x54>
    3cac:	81 58       	subi	r24, 0x81	; 129
    3cae:	98 2f       	mov	r25, r24
    3cb0:	9f 77       	andi	r25, 0x7F	; 127
    3cb2:	e5 ed       	ldi	r30, 0xD5	; 213
    3cb4:	f5 e0       	ldi	r31, 0x05	; 5
    3cb6:	23 81       	ldd	r18, Z+3	; 0x03
    3cb8:	80 fb       	bst	r24, 0
    3cba:	27 f9       	bld	r18, 7
    3cbc:	23 83       	std	Z+3, r18	; 0x03
    3cbe:	96 95       	lsr	r25
    3cc0:	84 81       	ldd	r24, Z+4	; 0x04
    3cc2:	80 7c       	andi	r24, 0xC0	; 192
    3cc4:	89 2b       	or	r24, r25
    3cc6:	84 83       	std	Z+4, r24	; 0x04
    3cc8:	e1 ee       	ldi	r30, 0xE1	; 225
    3cca:	f2 e0       	ldi	r31, 0x02	; 2
    3ccc:	80 81       	ld	r24, Z
    3cce:	80 62       	ori	r24, 0x20	; 32
    3cd0:	80 83       	st	Z, r24
    3cd2:	08 95       	ret
    3cd4:	8e e2       	ldi	r24, 0x2E	; 46
    3cd6:	0e 94 0d 08 	call	0x101a	; 0x101a <toggle>
    3cda:	8f e2       	ldi	r24, 0x2F	; 47
    3cdc:	0e 94 0d 08 	call	0x101a	; 0x101a <toggle>
    3ce0:	e1 ed       	ldi	r30, 0xD1	; 209
    3ce2:	f5 e0       	ldi	r31, 0x05	; 5
    3ce4:	80 81       	ld	r24, Z
    3ce6:	82 fb       	bst	r24, 2
    3ce8:	22 27       	eor	r18, r18
    3cea:	20 f9       	bld	r18, 0
    3cec:	91 e0       	ldi	r25, 0x01	; 1
    3cee:	92 27       	eor	r25, r18
    3cf0:	90 fb       	bst	r25, 0
    3cf2:	82 f9       	bld	r24, 2
    3cf4:	80 83       	st	Z, r24
    3cf6:	08 95       	ret

00003cf8 <assign_triggers>:
    3cf8:	90 91 d1 05 	lds	r25, 0x05D1
    3cfc:	92 fd       	sbrc	r25, 2
    3cfe:	39 c0       	rjmp	.+114    	; 0x3d72 <assign_triggers+0x7a>
    3d00:	48 2f       	mov	r20, r24
    3d02:	50 e0       	ldi	r21, 0x00	; 0
    3d04:	97 e0       	ldi	r25, 0x07	; 7
    3d06:	89 9f       	mul	r24, r25
    3d08:	f0 01       	movw	r30, r0
    3d0a:	11 24       	eor	r1, r1
    3d0c:	e0 50       	subi	r30, 0x00	; 0
    3d0e:	ff 4f       	sbci	r31, 0xFF	; 255
    3d10:	93 81       	ldd	r25, Z+3	; 0x03
    3d12:	9f 3f       	cpi	r25, 0xFF	; 255
    3d14:	c1 f0       	breq	.+48     	; 0x3d46 <assign_triggers+0x4e>
    3d16:	20 91 dd 05 	lds	r18, 0x05DD
    3d1a:	2f 71       	andi	r18, 0x1F	; 31
    3d1c:	30 e0       	ldi	r19, 0x00	; 0
    3d1e:	42 17       	cp	r20, r18
    3d20:	53 07       	cpc	r21, r19
    3d22:	49 f4       	brne	.+18     	; 0x3d36 <assign_triggers+0x3e>
    3d24:	87 5f       	subi	r24, 0xF7	; 247
    3d26:	ed ed       	ldi	r30, 0xDD	; 221
    3d28:	f5 e0       	ldi	r31, 0x05	; 5
    3d2a:	8f 71       	andi	r24, 0x1F	; 31
    3d2c:	90 81       	ld	r25, Z
    3d2e:	90 7e       	andi	r25, 0xE0	; 224
    3d30:	89 2b       	or	r24, r25
    3d32:	80 83       	st	Z, r24
    3d34:	08 95       	ret
    3d36:	ed ed       	ldi	r30, 0xDD	; 221
    3d38:	f5 e0       	ldi	r31, 0x05	; 5
    3d3a:	8f 71       	andi	r24, 0x1F	; 31
    3d3c:	90 81       	ld	r25, Z
    3d3e:	90 7e       	andi	r25, 0xE0	; 224
    3d40:	89 2b       	or	r24, r25
    3d42:	80 83       	st	Z, r24
    3d44:	08 95       	ret
    3d46:	90 91 dd 05 	lds	r25, 0x05DD
    3d4a:	9f 71       	andi	r25, 0x1F	; 31
    3d4c:	96 30       	cpi	r25, 0x06	; 6
    3d4e:	49 f4       	brne	.+18     	; 0x3d62 <assign_triggers+0x6a>
    3d50:	86 30       	cpi	r24, 0x06	; 6
    3d52:	39 f4       	brne	.+14     	; 0x3d62 <assign_triggers+0x6a>
    3d54:	ed ed       	ldi	r30, 0xDD	; 221
    3d56:	f5 e0       	ldi	r31, 0x05	; 5
    3d58:	80 81       	ld	r24, Z
    3d5a:	80 7e       	andi	r24, 0xE0	; 224
    3d5c:	8f 60       	ori	r24, 0x0F	; 15
    3d5e:	80 83       	st	Z, r24
    3d60:	08 95       	ret
    3d62:	ed ed       	ldi	r30, 0xDD	; 221
    3d64:	f5 e0       	ldi	r31, 0x05	; 5
    3d66:	8f 71       	andi	r24, 0x1F	; 31
    3d68:	90 81       	ld	r25, Z
    3d6a:	90 7e       	andi	r25, 0xE0	; 224
    3d6c:	89 2b       	or	r24, r25
    3d6e:	80 83       	st	Z, r24
    3d70:	08 95       	ret
    3d72:	48 2f       	mov	r20, r24
    3d74:	50 e0       	ldi	r21, 0x00	; 0
    3d76:	97 e0       	ldi	r25, 0x07	; 7
    3d78:	89 9f       	mul	r24, r25
    3d7a:	f0 01       	movw	r30, r0
    3d7c:	11 24       	eor	r1, r1
    3d7e:	e0 50       	subi	r30, 0x00	; 0
    3d80:	ff 4f       	sbci	r31, 0xFF	; 255
    3d82:	93 81       	ldd	r25, Z+3	; 0x03
    3d84:	9f 3f       	cpi	r25, 0xFF	; 255
    3d86:	c1 f1       	breq	.+112    	; 0x3df8 <assign_triggers+0x100>
    3d88:	20 91 dd 05 	lds	r18, 0x05DD
    3d8c:	92 2f       	mov	r25, r18
    3d8e:	92 95       	swap	r25
    3d90:	96 95       	lsr	r25
    3d92:	97 70       	andi	r25, 0x07	; 7
    3d94:	20 91 de 05 	lds	r18, 0x05DE
    3d98:	23 70       	andi	r18, 0x03	; 3
    3d9a:	22 0f       	add	r18, r18
    3d9c:	22 0f       	add	r18, r18
    3d9e:	22 0f       	add	r18, r18
    3da0:	29 2b       	or	r18, r25
    3da2:	30 e0       	ldi	r19, 0x00	; 0
    3da4:	42 17       	cp	r20, r18
    3da6:	53 07       	cpc	r21, r19
    3da8:	a1 f4       	brne	.+40     	; 0x3dd2 <assign_triggers+0xda>
    3daa:	87 5f       	subi	r24, 0xF7	; 247
    3dac:	ed ed       	ldi	r30, 0xDD	; 221
    3dae:	f5 e0       	ldi	r31, 0x05	; 5
    3db0:	28 2f       	mov	r18, r24
    3db2:	22 95       	swap	r18
    3db4:	22 0f       	add	r18, r18
    3db6:	20 7e       	andi	r18, 0xE0	; 224
    3db8:	90 81       	ld	r25, Z
    3dba:	9f 71       	andi	r25, 0x1F	; 31
    3dbc:	92 2b       	or	r25, r18
    3dbe:	90 83       	st	Z, r25
    3dc0:	86 95       	lsr	r24
    3dc2:	86 95       	lsr	r24
    3dc4:	86 95       	lsr	r24
    3dc6:	83 70       	andi	r24, 0x03	; 3
    3dc8:	91 81       	ldd	r25, Z+1	; 0x01
    3dca:	9c 7f       	andi	r25, 0xFC	; 252
    3dcc:	89 2b       	or	r24, r25
    3dce:	81 83       	std	Z+1, r24	; 0x01
    3dd0:	08 95       	ret
    3dd2:	ed ed       	ldi	r30, 0xDD	; 221
    3dd4:	f5 e0       	ldi	r31, 0x05	; 5
    3dd6:	28 2f       	mov	r18, r24
    3dd8:	22 95       	swap	r18
    3dda:	22 0f       	add	r18, r18
    3ddc:	20 7e       	andi	r18, 0xE0	; 224
    3dde:	90 81       	ld	r25, Z
    3de0:	9f 71       	andi	r25, 0x1F	; 31
    3de2:	92 2b       	or	r25, r18
    3de4:	90 83       	st	Z, r25
    3de6:	86 95       	lsr	r24
    3de8:	86 95       	lsr	r24
    3dea:	86 95       	lsr	r24
    3dec:	83 70       	andi	r24, 0x03	; 3
    3dee:	91 81       	ldd	r25, Z+1	; 0x01
    3df0:	9c 7f       	andi	r25, 0xFC	; 252
    3df2:	89 2b       	or	r24, r25
    3df4:	81 83       	std	Z+1, r24	; 0x01
    3df6:	08 95       	ret
    3df8:	90 91 dd 05 	lds	r25, 0x05DD
    3dfc:	29 2f       	mov	r18, r25
    3dfe:	22 95       	swap	r18
    3e00:	26 95       	lsr	r18
    3e02:	27 70       	andi	r18, 0x07	; 7
    3e04:	90 91 de 05 	lds	r25, 0x05DE
    3e08:	93 70       	andi	r25, 0x03	; 3
    3e0a:	99 0f       	add	r25, r25
    3e0c:	99 0f       	add	r25, r25
    3e0e:	99 0f       	add	r25, r25
    3e10:	92 2b       	or	r25, r18
    3e12:	96 30       	cpi	r25, 0x06	; 6
    3e14:	61 f4       	brne	.+24     	; 0x3e2e <assign_triggers+0x136>
    3e16:	86 30       	cpi	r24, 0x06	; 6
    3e18:	51 f4       	brne	.+20     	; 0x3e2e <assign_triggers+0x136>
    3e1a:	ed ed       	ldi	r30, 0xDD	; 221
    3e1c:	f5 e0       	ldi	r31, 0x05	; 5
    3e1e:	80 81       	ld	r24, Z
    3e20:	80 6e       	ori	r24, 0xE0	; 224
    3e22:	80 83       	st	Z, r24
    3e24:	81 81       	ldd	r24, Z+1	; 0x01
    3e26:	8c 7f       	andi	r24, 0xFC	; 252
    3e28:	81 60       	ori	r24, 0x01	; 1
    3e2a:	81 83       	std	Z+1, r24	; 0x01
    3e2c:	08 95       	ret
    3e2e:	ed ed       	ldi	r30, 0xDD	; 221
    3e30:	f5 e0       	ldi	r31, 0x05	; 5
    3e32:	28 2f       	mov	r18, r24
    3e34:	22 95       	swap	r18
    3e36:	22 0f       	add	r18, r18
    3e38:	20 7e       	andi	r18, 0xE0	; 224
    3e3a:	90 81       	ld	r25, Z
    3e3c:	9f 71       	andi	r25, 0x1F	; 31
    3e3e:	92 2b       	or	r25, r18
    3e40:	90 83       	st	Z, r25
    3e42:	86 95       	lsr	r24
    3e44:	86 95       	lsr	r24
    3e46:	86 95       	lsr	r24
    3e48:	83 70       	andi	r24, 0x03	; 3
    3e4a:	91 81       	ldd	r25, Z+1	; 0x01
    3e4c:	9c 7f       	andi	r25, 0xFC	; 252
    3e4e:	89 2b       	or	r24, r25
    3e50:	81 83       	std	Z+1, r24	; 0x01
    3e52:	08 95       	ret

00003e54 <assign_mutes>:
    3e54:	48 2f       	mov	r20, r24
    3e56:	50 e0       	ldi	r21, 0x00	; 0
    3e58:	97 e0       	ldi	r25, 0x07	; 7
    3e5a:	89 9f       	mul	r24, r25
    3e5c:	f0 01       	movw	r30, r0
    3e5e:	11 24       	eor	r1, r1
    3e60:	e0 50       	subi	r30, 0x00	; 0
    3e62:	ff 4f       	sbci	r31, 0xFF	; 255
    3e64:	93 81       	ldd	r25, Z+3	; 0x03
    3e66:	9f 3f       	cpi	r25, 0xFF	; 255
    3e68:	19 f4       	brne	.+6      	; 0x3e70 <assign_mutes+0x1c>
    3e6a:	86 30       	cpi	r24, 0x06	; 6
    3e6c:	09 f0       	breq	.+2      	; 0x3e70 <assign_mutes+0x1c>
    3e6e:	9e c0       	rjmp	.+316    	; 0x3fac <assign_mutes+0x158>
    3e70:	ca 01       	movw	r24, r20
    3e72:	09 96       	adiw	r24, 0x09	; 9
    3e74:	fc 01       	movw	r30, r24
    3e76:	ee 0f       	add	r30, r30
    3e78:	ff 1f       	adc	r31, r31
    3e7a:	ee 0f       	add	r30, r30
    3e7c:	ff 1f       	adc	r31, r31
    3e7e:	ee 0f       	add	r30, r30
    3e80:	ff 1f       	adc	r31, r31
    3e82:	e8 1b       	sub	r30, r24
    3e84:	f9 0b       	sbc	r31, r25
    3e86:	ea 5f       	subi	r30, 0xFA	; 250
    3e88:	fe 4f       	sbci	r31, 0xFE	; 254
    3e8a:	60 81       	ld	r22, Z
    3e8c:	26 2f       	mov	r18, r22
    3e8e:	21 70       	andi	r18, 0x01	; 1
    3e90:	30 e0       	ldi	r19, 0x00	; 0
    3e92:	22 0f       	add	r18, r18
    3e94:	33 1f       	adc	r19, r19
    3e96:	fa 01       	movw	r30, r20
    3e98:	ee 0f       	add	r30, r30
    3e9a:	ff 1f       	adc	r31, r31
    3e9c:	ee 0f       	add	r30, r30
    3e9e:	ff 1f       	adc	r31, r31
    3ea0:	ee 0f       	add	r30, r30
    3ea2:	ff 1f       	adc	r31, r31
    3ea4:	e4 1b       	sub	r30, r20
    3ea6:	f5 0b       	sbc	r31, r21
    3ea8:	ea 5f       	subi	r30, 0xFA	; 250
    3eaa:	fe 4f       	sbci	r31, 0xFE	; 254
    3eac:	30 81       	ld	r19, Z
    3eae:	31 70       	andi	r19, 0x01	; 1
    3eb0:	23 2b       	or	r18, r19
    3eb2:	21 30       	cpi	r18, 0x01	; 1
    3eb4:	21 f1       	breq	.+72     	; 0x3efe <assign_mutes+0xaa>
    3eb6:	30 f0       	brcs	.+12     	; 0x3ec4 <assign_mutes+0x70>
    3eb8:	22 30       	cpi	r18, 0x02	; 2
    3eba:	f1 f1       	breq	.+124    	; 0x3f38 <assign_mutes+0xe4>
    3ebc:	23 30       	cpi	r18, 0x03	; 3
    3ebe:	09 f4       	brne	.+2      	; 0x3ec2 <assign_mutes+0x6e>
    3ec0:	58 c0       	rjmp	.+176    	; 0x3f72 <assign_mutes+0x11e>
    3ec2:	08 95       	ret
    3ec4:	fa 01       	movw	r30, r20
    3ec6:	ee 0f       	add	r30, r30
    3ec8:	ff 1f       	adc	r31, r31
    3eca:	ee 0f       	add	r30, r30
    3ecc:	ff 1f       	adc	r31, r31
    3ece:	ee 0f       	add	r30, r30
    3ed0:	ff 1f       	adc	r31, r31
    3ed2:	e4 1b       	sub	r30, r20
    3ed4:	f5 0b       	sbc	r31, r21
    3ed6:	ea 5f       	subi	r30, 0xFA	; 250
    3ed8:	fe 4f       	sbci	r31, 0xFE	; 254
    3eda:	20 81       	ld	r18, Z
    3edc:	21 60       	ori	r18, 0x01	; 1
    3ede:	20 83       	st	Z, r18
    3ee0:	fc 01       	movw	r30, r24
    3ee2:	ee 0f       	add	r30, r30
    3ee4:	ff 1f       	adc	r31, r31
    3ee6:	ee 0f       	add	r30, r30
    3ee8:	ff 1f       	adc	r31, r31
    3eea:	ee 0f       	add	r30, r30
    3eec:	ff 1f       	adc	r31, r31
    3eee:	e8 1b       	sub	r30, r24
    3ef0:	f9 0b       	sbc	r31, r25
    3ef2:	ea 5f       	subi	r30, 0xFA	; 250
    3ef4:	fe 4f       	sbci	r31, 0xFE	; 254
    3ef6:	80 81       	ld	r24, Z
    3ef8:	8e 7f       	andi	r24, 0xFE	; 254
    3efa:	80 83       	st	Z, r24
    3efc:	08 95       	ret
    3efe:	fa 01       	movw	r30, r20
    3f00:	ee 0f       	add	r30, r30
    3f02:	ff 1f       	adc	r31, r31
    3f04:	ee 0f       	add	r30, r30
    3f06:	ff 1f       	adc	r31, r31
    3f08:	ee 0f       	add	r30, r30
    3f0a:	ff 1f       	adc	r31, r31
    3f0c:	e4 1b       	sub	r30, r20
    3f0e:	f5 0b       	sbc	r31, r21
    3f10:	ea 5f       	subi	r30, 0xFA	; 250
    3f12:	fe 4f       	sbci	r31, 0xFE	; 254
    3f14:	20 81       	ld	r18, Z
    3f16:	2e 7f       	andi	r18, 0xFE	; 254
    3f18:	20 83       	st	Z, r18
    3f1a:	fc 01       	movw	r30, r24
    3f1c:	ee 0f       	add	r30, r30
    3f1e:	ff 1f       	adc	r31, r31
    3f20:	ee 0f       	add	r30, r30
    3f22:	ff 1f       	adc	r31, r31
    3f24:	ee 0f       	add	r30, r30
    3f26:	ff 1f       	adc	r31, r31
    3f28:	e8 1b       	sub	r30, r24
    3f2a:	f9 0b       	sbc	r31, r25
    3f2c:	ea 5f       	subi	r30, 0xFA	; 250
    3f2e:	fe 4f       	sbci	r31, 0xFE	; 254
    3f30:	80 81       	ld	r24, Z
    3f32:	81 60       	ori	r24, 0x01	; 1
    3f34:	80 83       	st	Z, r24
    3f36:	08 95       	ret
    3f38:	fa 01       	movw	r30, r20
    3f3a:	ee 0f       	add	r30, r30
    3f3c:	ff 1f       	adc	r31, r31
    3f3e:	ee 0f       	add	r30, r30
    3f40:	ff 1f       	adc	r31, r31
    3f42:	ee 0f       	add	r30, r30
    3f44:	ff 1f       	adc	r31, r31
    3f46:	e4 1b       	sub	r30, r20
    3f48:	f5 0b       	sbc	r31, r21
    3f4a:	ea 5f       	subi	r30, 0xFA	; 250
    3f4c:	fe 4f       	sbci	r31, 0xFE	; 254
    3f4e:	20 81       	ld	r18, Z
    3f50:	21 60       	ori	r18, 0x01	; 1
    3f52:	20 83       	st	Z, r18
    3f54:	fc 01       	movw	r30, r24
    3f56:	ee 0f       	add	r30, r30
    3f58:	ff 1f       	adc	r31, r31
    3f5a:	ee 0f       	add	r30, r30
    3f5c:	ff 1f       	adc	r31, r31
    3f5e:	ee 0f       	add	r30, r30
    3f60:	ff 1f       	adc	r31, r31
    3f62:	e8 1b       	sub	r30, r24
    3f64:	f9 0b       	sbc	r31, r25
    3f66:	ea 5f       	subi	r30, 0xFA	; 250
    3f68:	fe 4f       	sbci	r31, 0xFE	; 254
    3f6a:	80 81       	ld	r24, Z
    3f6c:	81 60       	ori	r24, 0x01	; 1
    3f6e:	80 83       	st	Z, r24
    3f70:	08 95       	ret
    3f72:	fa 01       	movw	r30, r20
    3f74:	ee 0f       	add	r30, r30
    3f76:	ff 1f       	adc	r31, r31
    3f78:	ee 0f       	add	r30, r30
    3f7a:	ff 1f       	adc	r31, r31
    3f7c:	ee 0f       	add	r30, r30
    3f7e:	ff 1f       	adc	r31, r31
    3f80:	e4 1b       	sub	r30, r20
    3f82:	f5 0b       	sbc	r31, r21
    3f84:	ea 5f       	subi	r30, 0xFA	; 250
    3f86:	fe 4f       	sbci	r31, 0xFE	; 254
    3f88:	20 81       	ld	r18, Z
    3f8a:	2e 7f       	andi	r18, 0xFE	; 254
    3f8c:	20 83       	st	Z, r18
    3f8e:	fc 01       	movw	r30, r24
    3f90:	ee 0f       	add	r30, r30
    3f92:	ff 1f       	adc	r31, r31
    3f94:	ee 0f       	add	r30, r30
    3f96:	ff 1f       	adc	r31, r31
    3f98:	ee 0f       	add	r30, r30
    3f9a:	ff 1f       	adc	r31, r31
    3f9c:	e8 1b       	sub	r30, r24
    3f9e:	f9 0b       	sbc	r31, r25
    3fa0:	ea 5f       	subi	r30, 0xFA	; 250
    3fa2:	fe 4f       	sbci	r31, 0xFE	; 254
    3fa4:	80 81       	ld	r24, Z
    3fa6:	8e 7f       	andi	r24, 0xFE	; 254
    3fa8:	80 83       	st	Z, r24
    3faa:	08 95       	ret
    3fac:	fa 01       	movw	r30, r20
    3fae:	ee 0f       	add	r30, r30
    3fb0:	ff 1f       	adc	r31, r31
    3fb2:	ee 0f       	add	r30, r30
    3fb4:	ff 1f       	adc	r31, r31
    3fb6:	ee 0f       	add	r30, r30
    3fb8:	ff 1f       	adc	r31, r31
    3fba:	e4 1b       	sub	r30, r20
    3fbc:	f5 0b       	sbc	r31, r21
    3fbe:	ea 5f       	subi	r30, 0xFA	; 250
    3fc0:	fe 4f       	sbci	r31, 0xFE	; 254
    3fc2:	80 81       	ld	r24, Z
    3fc4:	98 2f       	mov	r25, r24
    3fc6:	90 95       	com	r25
    3fc8:	90 fb       	bst	r25, 0
    3fca:	80 f9       	bld	r24, 0
    3fcc:	80 83       	st	Z, r24
    3fce:	08 95       	ret

00003fd0 <process_inst_press>:
    3fd0:	cf 93       	push	r28
    3fd2:	c8 2f       	mov	r28, r24
    3fd4:	80 91 fc 04 	lds	r24, 0x04FC
    3fd8:	84 fd       	sbrc	r24, 4
    3fda:	23 c0       	rjmp	.+70     	; 0x4022 <process_inst_press+0x52>
    3fdc:	0e 94 1c 08 	call	0x1038	; 0x1038 <turn_off_all_inst_leds>
    3fe0:	87 e0       	ldi	r24, 0x07	; 7
    3fe2:	c8 9f       	mul	r28, r24
    3fe4:	f0 01       	movw	r30, r0
    3fe6:	11 24       	eor	r1, r1
    3fe8:	e0 50       	subi	r30, 0x00	; 0
    3fea:	ff 4f       	sbci	r31, 0xFF	; 255
    3fec:	83 81       	ldd	r24, Z+3	; 0x03
    3fee:	8f 3f       	cpi	r24, 0xFF	; 255
    3ff0:	59 f0       	breq	.+22     	; 0x4008 <process_inst_press+0x38>
    3ff2:	80 91 db 05 	lds	r24, 0x05DB
    3ff6:	8c 13       	cpse	r24, r28
    3ff8:	04 c0       	rjmp	.+8      	; 0x4002 <process_inst_press+0x32>
    3ffa:	87 5f       	subi	r24, 0xF7	; 247
    3ffc:	80 93 db 05 	sts	0x05DB, r24
    4000:	1d c0       	rjmp	.+58     	; 0x403c <process_inst_press+0x6c>
    4002:	c0 93 db 05 	sts	0x05DB, r28
    4006:	1a c0       	rjmp	.+52     	; 0x403c <process_inst_press+0x6c>
    4008:	80 91 db 05 	lds	r24, 0x05DB
    400c:	86 30       	cpi	r24, 0x06	; 6
    400e:	31 f4       	brne	.+12     	; 0x401c <process_inst_press+0x4c>
    4010:	c6 30       	cpi	r28, 0x06	; 6
    4012:	21 f4       	brne	.+8      	; 0x401c <process_inst_press+0x4c>
    4014:	8f e0       	ldi	r24, 0x0F	; 15
    4016:	80 93 db 05 	sts	0x05DB, r24
    401a:	10 c0       	rjmp	.+32     	; 0x403c <process_inst_press+0x6c>
    401c:	c0 93 db 05 	sts	0x05DB, r28
    4020:	0d c0       	rjmp	.+26     	; 0x403c <process_inst_press+0x6c>
    4022:	80 91 fd 04 	lds	r24, 0x04FD
    4026:	80 ff       	sbrs	r24, 0
    4028:	06 c0       	rjmp	.+12     	; 0x4036 <process_inst_press+0x66>
    402a:	0e 94 1c 08 	call	0x1038	; 0x1038 <turn_off_all_inst_leds>
    402e:	8c 2f       	mov	r24, r28
    4030:	0e 94 7c 1e 	call	0x3cf8	; 0x3cf8 <assign_triggers>
    4034:	03 c0       	rjmp	.+6      	; 0x403c <process_inst_press+0x6c>
    4036:	8c 2f       	mov	r24, r28
    4038:	0e 94 2a 1f 	call	0x3e54	; 0x3e54 <assign_mutes>
    403c:	cf 91       	pop	r28
    403e:	08 95       	ret

00004040 <check_inst_switches>:
    4040:	0f 93       	push	r16
    4042:	1f 93       	push	r17
    4044:	cf 93       	push	r28
    4046:	df 93       	push	r29
    4048:	80 91 06 02 	lds	r24, 0x0206
    404c:	86 fd       	sbrc	r24, 6
    404e:	07 c0       	rjmp	.+14     	; 0x405e <check_inst_switches+0x1e>
    4050:	80 91 07 02 	lds	r24, 0x0207
    4054:	86 fd       	sbrc	r24, 6
    4056:	a2 c0       	rjmp	.+324    	; 0x419c <check_inst_switches+0x15c>
    4058:	22 e1       	ldi	r18, 0x12	; 18
    405a:	30 e0       	ldi	r19, 0x00	; 0
    405c:	96 c0       	rjmp	.+300    	; 0x418a <check_inst_switches+0x14a>
    405e:	e6 e0       	ldi	r30, 0x06	; 6
    4060:	f2 e0       	ldi	r31, 0x02	; 2
    4062:	80 81       	ld	r24, Z
    4064:	8f 7b       	andi	r24, 0xBF	; 191
    4066:	80 83       	st	Z, r24
    4068:	80 91 fa 04 	lds	r24, 0x04FA
    406c:	81 30       	cpi	r24, 0x01	; 1
    406e:	08 f4       	brcc	.+2      	; 0x4072 <check_inst_switches+0x32>
    4070:	39 c1       	rjmp	.+626    	; 0x42e4 <check_inst_switches+0x2a4>
    4072:	83 30       	cpi	r24, 0x03	; 3
    4074:	20 f0       	brcs	.+8      	; 0x407e <check_inst_switches+0x3e>
    4076:	84 50       	subi	r24, 0x04	; 4
    4078:	82 30       	cpi	r24, 0x02	; 2
    407a:	60 f1       	brcs	.+88     	; 0x40d4 <check_inst_switches+0x94>
    407c:	33 c1       	rjmp	.+614    	; 0x42e4 <check_inst_switches+0x2a4>
    407e:	80 91 fc 04 	lds	r24, 0x04FC
    4082:	84 fd       	sbrc	r24, 4
    4084:	09 c0       	rjmp	.+18     	; 0x4098 <check_inst_switches+0x58>
    4086:	0e 94 1c 08 	call	0x1038	; 0x1038 <turn_off_all_inst_leds>
    408a:	84 e1       	ldi	r24, 0x14	; 20
    408c:	0e 94 d6 07 	call	0xfac	; 0xfac <turn_on>
    4090:	80 e1       	ldi	r24, 0x10	; 16
    4092:	80 93 db 05 	sts	0x05DB, r24
    4096:	26 c1       	rjmp	.+588    	; 0x42e4 <check_inst_switches+0x2a4>
    4098:	80 91 fd 04 	lds	r24, 0x04FD
    409c:	80 ff       	sbrs	r24, 0
    409e:	22 c1       	rjmp	.+580    	; 0x42e4 <check_inst_switches+0x2a4>
    40a0:	0e 94 1c 08 	call	0x1038	; 0x1038 <turn_off_all_inst_leds>
    40a4:	84 e1       	ldi	r24, 0x14	; 20
    40a6:	0e 94 d6 07 	call	0xfac	; 0xfac <turn_on>
    40aa:	80 91 d1 05 	lds	r24, 0x05D1
    40ae:	82 fd       	sbrc	r24, 2
    40b0:	07 c0       	rjmp	.+14     	; 0x40c0 <check_inst_switches+0x80>
    40b2:	ed ed       	ldi	r30, 0xDD	; 221
    40b4:	f5 e0       	ldi	r31, 0x05	; 5
    40b6:	80 81       	ld	r24, Z
    40b8:	80 7e       	andi	r24, 0xE0	; 224
    40ba:	80 61       	ori	r24, 0x10	; 16
    40bc:	80 83       	st	Z, r24
    40be:	12 c1       	rjmp	.+548    	; 0x42e4 <check_inst_switches+0x2a4>
    40c0:	ed ed       	ldi	r30, 0xDD	; 221
    40c2:	f5 e0       	ldi	r31, 0x05	; 5
    40c4:	80 81       	ld	r24, Z
    40c6:	8f 71       	andi	r24, 0x1F	; 31
    40c8:	80 83       	st	Z, r24
    40ca:	81 81       	ldd	r24, Z+1	; 0x01
    40cc:	8c 7f       	andi	r24, 0xFC	; 252
    40ce:	82 60       	ori	r24, 0x02	; 2
    40d0:	81 83       	std	Z+1, r24	; 0x01
    40d2:	08 c1       	rjmp	.+528    	; 0x42e4 <check_inst_switches+0x2a4>
    40d4:	80 91 d9 05 	lds	r24, 0x05D9
    40d8:	98 2f       	mov	r25, r24
    40da:	92 95       	swap	r25
    40dc:	96 95       	lsr	r25
    40de:	96 95       	lsr	r25
    40e0:	93 70       	andi	r25, 0x03	; 3
    40e2:	80 91 da 05 	lds	r24, 0x05DA
    40e6:	83 70       	andi	r24, 0x03	; 3
    40e8:	88 0f       	add	r24, r24
    40ea:	88 0f       	add	r24, r24
    40ec:	89 2b       	or	r24, r25
    40ee:	09 f4       	brne	.+2      	; 0x40f2 <check_inst_switches+0xb2>
    40f0:	f9 c0       	rjmp	.+498    	; 0x42e4 <check_inst_switches+0x2a4>
    40f2:	e1 ee       	ldi	r30, 0xE1	; 225
    40f4:	f2 e0       	ldi	r31, 0x02	; 2
    40f6:	80 81       	ld	r24, Z
    40f8:	80 64       	ori	r24, 0x40	; 64
    40fa:	80 83       	st	Z, r24
    40fc:	c5 ed       	ldi	r28, 0xD5	; 213
    40fe:	d5 e0       	ldi	r29, 0x05	; 5
    4100:	8b 81       	ldd	r24, Y+3	; 0x03
    4102:	8f 77       	andi	r24, 0x7F	; 127
    4104:	8b 83       	std	Y+3, r24	; 0x03
    4106:	1c 82       	std	Y+4, r1	; 0x04
    4108:	8d 81       	ldd	r24, Y+5	; 0x05
    410a:	8c 7f       	andi	r24, 0xFC	; 252
    410c:	8d 83       	std	Y+5, r24	; 0x05
    410e:	84 e1       	ldi	r24, 0x14	; 20
    4110:	0e 94 d6 07 	call	0xfac	; 0xfac <turn_on>
    4114:	0e 94 4c 1b 	call	0x3698	; 0x3698 <read_rhythm_track>
    4118:	e0 91 d8 05 	lds	r30, 0x05D8
    411c:	8e 2f       	mov	r24, r30
    411e:	88 1f       	adc	r24, r24
    4120:	88 27       	eor	r24, r24
    4122:	88 1f       	adc	r24, r24
    4124:	e0 91 d9 05 	lds	r30, 0x05D9
    4128:	ef 73       	andi	r30, 0x3F	; 63
    412a:	ee 0f       	add	r30, r30
    412c:	e8 2b       	or	r30, r24
    412e:	f0 e0       	ldi	r31, 0x00	; 0
    4130:	e7 54       	subi	r30, 0x47	; 71
    4132:	fb 4f       	sbci	r31, 0xFB	; 251
    4134:	60 81       	ld	r22, Z
    4136:	86 2f       	mov	r24, r22
    4138:	8f 70       	andi	r24, 0x0F	; 15
    413a:	38 2f       	mov	r19, r24
    413c:	33 0f       	add	r19, r19
    413e:	9a 81       	ldd	r25, Y+2	; 0x02
    4140:	90 7e       	andi	r25, 0xE0	; 224
    4142:	46 2f       	mov	r20, r22
    4144:	42 95       	swap	r20
    4146:	44 0f       	add	r20, r20
    4148:	40 7e       	andi	r20, 0xE0	; 224
    414a:	29 81       	ldd	r18, Y+1	; 0x01
    414c:	2f 71       	andi	r18, 0x1F	; 31
    414e:	24 2b       	or	r18, r20
    4150:	29 83       	std	Y+1, r18	; 0x01
    4152:	28 2f       	mov	r18, r24
    4154:	26 95       	lsr	r18
    4156:	26 95       	lsr	r18
    4158:	26 95       	lsr	r18
    415a:	93 2b       	or	r25, r19
    415c:	92 2b       	or	r25, r18
    415e:	9a 83       	std	Y+2, r25	; 0x02
    4160:	62 95       	swap	r22
    4162:	6f 70       	andi	r22, 0x0F	; 15
    4164:	e8 e8       	ldi	r30, 0x88	; 136
    4166:	f5 e0       	ldi	r31, 0x05	; 5
    4168:	90 81       	ld	r25, Z
    416a:	90 7f       	andi	r25, 0xF0	; 240
    416c:	96 2b       	or	r25, r22
    416e:	90 83       	st	Z, r25
    4170:	90 91 fc 04 	lds	r25, 0x04FC
    4174:	95 ff       	sbrs	r25, 5
    4176:	06 c0       	rjmp	.+12     	; 0x4184 <check_inst_switches+0x144>
    4178:	e1 ee       	ldi	r30, 0xE1	; 225
    417a:	f2 e0       	ldi	r31, 0x02	; 2
    417c:	80 81       	ld	r24, Z
    417e:	80 62       	ori	r24, 0x20	; 32
    4180:	80 83       	st	Z, r24
    4182:	b0 c0       	rjmp	.+352    	; 0x42e4 <check_inst_switches+0x2a4>
    4184:	0e 94 ab 10 	call	0x2156	; 0x2156 <read_next_pattern>
    4188:	ad c0       	rjmp	.+346    	; 0x42e4 <check_inst_switches+0x2a4>
    418a:	f9 01       	movw	r30, r18
    418c:	ea 50       	subi	r30, 0x0A	; 10
    418e:	fe 4f       	sbci	r31, 0xFE	; 254
    4190:	80 81       	ld	r24, Z
    4192:	86 ff       	sbrs	r24, 6
    4194:	a1 c0       	rjmp	.+322    	; 0x42d8 <check_inst_switches+0x298>
    4196:	e9 01       	movw	r28, r18
    4198:	61 97       	sbiw	r28, 0x11	; 17
    419a:	04 c0       	rjmp	.+8      	; 0x41a4 <check_inst_switches+0x164>
    419c:	c0 e0       	ldi	r28, 0x00	; 0
    419e:	d0 e0       	ldi	r29, 0x00	; 0
    41a0:	21 e1       	ldi	r18, 0x11	; 17
    41a2:	30 e0       	ldi	r19, 0x00	; 0
    41a4:	f9 01       	movw	r30, r18
    41a6:	ea 50       	subi	r30, 0x0A	; 10
    41a8:	fe 4f       	sbci	r31, 0xFE	; 254
    41aa:	90 81       	ld	r25, Z
    41ac:	9f 7b       	andi	r25, 0xBF	; 191
    41ae:	90 83       	st	Z, r25
    41b0:	90 91 fa 04 	lds	r25, 0x04FA
    41b4:	91 30       	cpi	r25, 0x01	; 1
    41b6:	08 f4       	brcc	.+2      	; 0x41ba <check_inst_switches+0x17a>
    41b8:	95 c0       	rjmp	.+298    	; 0x42e4 <check_inst_switches+0x2a4>
    41ba:	93 30       	cpi	r25, 0x03	; 3
    41bc:	18 f0       	brcs	.+6      	; 0x41c4 <check_inst_switches+0x184>
    41be:	96 30       	cpi	r25, 0x06	; 6
    41c0:	28 f0       	brcs	.+10     	; 0x41cc <check_inst_switches+0x18c>
    41c2:	90 c0       	rjmp	.+288    	; 0x42e4 <check_inst_switches+0x2a4>
    41c4:	8c 2f       	mov	r24, r28
    41c6:	0e 94 e8 1f 	call	0x3fd0	; 0x3fd0 <process_inst_press>
    41ca:	8c c0       	rjmp	.+280    	; 0x42e4 <check_inst_switches+0x2a4>
    41cc:	80 91 fc 04 	lds	r24, 0x04FC
    41d0:	84 ff       	sbrs	r24, 4
    41d2:	04 c0       	rjmp	.+8      	; 0x41dc <check_inst_switches+0x19c>
    41d4:	8c 2f       	mov	r24, r28
    41d6:	0e 94 2a 1f 	call	0x3e54	; 0x3e54 <assign_mutes>
    41da:	84 c0       	rjmp	.+264    	; 0x42e4 <check_inst_switches+0x2a4>
    41dc:	80 91 d9 05 	lds	r24, 0x05D9
    41e0:	98 2f       	mov	r25, r24
    41e2:	92 95       	swap	r25
    41e4:	96 95       	lsr	r25
    41e6:	96 95       	lsr	r25
    41e8:	93 70       	andi	r25, 0x03	; 3
    41ea:	80 91 da 05 	lds	r24, 0x05DA
    41ee:	83 70       	andi	r24, 0x03	; 3
    41f0:	88 0f       	add	r24, r24
    41f2:	88 0f       	add	r24, r24
    41f4:	89 2b       	or	r24, r25
    41f6:	90 e0       	ldi	r25, 0x00	; 0
    41f8:	20 51       	subi	r18, 0x10	; 16
    41fa:	31 09       	sbc	r19, r1
    41fc:	82 17       	cp	r24, r18
    41fe:	93 07       	cpc	r25, r19
    4200:	09 f4       	brne	.+2      	; 0x4204 <check_inst_switches+0x1c4>
    4202:	70 c0       	rjmp	.+224    	; 0x42e4 <check_inst_switches+0x2a4>
    4204:	e1 ee       	ldi	r30, 0xE1	; 225
    4206:	f2 e0       	ldi	r31, 0x02	; 2
    4208:	20 81       	ld	r18, Z
    420a:	20 64       	ori	r18, 0x40	; 64
    420c:	20 83       	st	Z, r18
    420e:	05 ed       	ldi	r16, 0xD5	; 213
    4210:	15 e0       	ldi	r17, 0x05	; 5
    4212:	f8 01       	movw	r30, r16
    4214:	23 81       	ldd	r18, Z+3	; 0x03
    4216:	2f 77       	andi	r18, 0x7F	; 127
    4218:	23 83       	std	Z+3, r18	; 0x03
    421a:	24 81       	ldd	r18, Z+4	; 0x04
    421c:	20 7c       	andi	r18, 0xC0	; 192
    421e:	24 83       	std	Z+4, r18	; 0x04
    4220:	fc 01       	movw	r30, r24
    4222:	e9 58       	subi	r30, 0x89	; 137
    4224:	fe 4f       	sbci	r31, 0xFE	; 254
    4226:	80 81       	ld	r24, Z
    4228:	0e 94 f1 07 	call	0xfe2	; 0xfe2 <turn_off>
    422c:	cf 5f       	subi	r28, 0xFF	; 255
    422e:	cf 70       	andi	r28, 0x0F	; 15
    4230:	9c 2f       	mov	r25, r28
    4232:	92 95       	swap	r25
    4234:	99 0f       	add	r25, r25
    4236:	99 0f       	add	r25, r25
    4238:	90 7c       	andi	r25, 0xC0	; 192
    423a:	f8 01       	movw	r30, r16
    423c:	84 81       	ldd	r24, Z+4	; 0x04
    423e:	8f 73       	andi	r24, 0x3F	; 63
    4240:	89 2b       	or	r24, r25
    4242:	84 83       	std	Z+4, r24	; 0x04
    4244:	9c 2f       	mov	r25, r28
    4246:	96 95       	lsr	r25
    4248:	96 95       	lsr	r25
    424a:	85 81       	ldd	r24, Z+5	; 0x05
    424c:	8c 7f       	andi	r24, 0xFC	; 252
    424e:	89 2b       	or	r24, r25
    4250:	85 83       	std	Z+5, r24	; 0x05
    4252:	ec 2f       	mov	r30, r28
    4254:	f0 e0       	ldi	r31, 0x00	; 0
    4256:	e9 58       	subi	r30, 0x89	; 137
    4258:	fe 4f       	sbci	r31, 0xFE	; 254
    425a:	80 81       	ld	r24, Z
    425c:	0e 94 d6 07 	call	0xfac	; 0xfac <turn_on>
    4260:	0e 94 4c 1b 	call	0x3698	; 0x3698 <read_rhythm_track>
    4264:	e0 91 d8 05 	lds	r30, 0x05D8
    4268:	8e 2f       	mov	r24, r30
    426a:	88 1f       	adc	r24, r24
    426c:	88 27       	eor	r24, r24
    426e:	88 1f       	adc	r24, r24
    4270:	e0 91 d9 05 	lds	r30, 0x05D9
    4274:	ef 73       	andi	r30, 0x3F	; 63
    4276:	ee 0f       	add	r30, r30
    4278:	e8 2b       	or	r30, r24
    427a:	f0 e0       	ldi	r31, 0x00	; 0
    427c:	e7 54       	subi	r30, 0x47	; 71
    427e:	fb 4f       	sbci	r31, 0xFB	; 251
    4280:	60 81       	ld	r22, Z
    4282:	86 2f       	mov	r24, r22
    4284:	8f 70       	andi	r24, 0x0F	; 15
    4286:	38 2f       	mov	r19, r24
    4288:	33 0f       	add	r19, r19
    428a:	f8 01       	movw	r30, r16
    428c:	92 81       	ldd	r25, Z+2	; 0x02
    428e:	90 7e       	andi	r25, 0xE0	; 224
    4290:	46 2f       	mov	r20, r22
    4292:	42 95       	swap	r20
    4294:	44 0f       	add	r20, r20
    4296:	40 7e       	andi	r20, 0xE0	; 224
    4298:	21 81       	ldd	r18, Z+1	; 0x01
    429a:	2f 71       	andi	r18, 0x1F	; 31
    429c:	24 2b       	or	r18, r20
    429e:	21 83       	std	Z+1, r18	; 0x01
    42a0:	28 2f       	mov	r18, r24
    42a2:	26 95       	lsr	r18
    42a4:	26 95       	lsr	r18
    42a6:	26 95       	lsr	r18
    42a8:	93 2b       	or	r25, r19
    42aa:	92 2b       	or	r25, r18
    42ac:	92 83       	std	Z+2, r25	; 0x02
    42ae:	62 95       	swap	r22
    42b0:	6f 70       	andi	r22, 0x0F	; 15
    42b2:	e8 e8       	ldi	r30, 0x88	; 136
    42b4:	f5 e0       	ldi	r31, 0x05	; 5
    42b6:	90 81       	ld	r25, Z
    42b8:	90 7f       	andi	r25, 0xF0	; 240
    42ba:	96 2b       	or	r25, r22
    42bc:	90 83       	st	Z, r25
    42be:	90 91 fc 04 	lds	r25, 0x04FC
    42c2:	95 ff       	sbrs	r25, 5
    42c4:	06 c0       	rjmp	.+12     	; 0x42d2 <check_inst_switches+0x292>
    42c6:	e1 ee       	ldi	r30, 0xE1	; 225
    42c8:	f2 e0       	ldi	r31, 0x02	; 2
    42ca:	80 81       	ld	r24, Z
    42cc:	80 62       	ori	r24, 0x20	; 32
    42ce:	80 83       	st	Z, r24
    42d0:	09 c0       	rjmp	.+18     	; 0x42e4 <check_inst_switches+0x2a4>
    42d2:	0e 94 ab 10 	call	0x2156	; 0x2156 <read_next_pattern>
    42d6:	06 c0       	rjmp	.+12     	; 0x42e4 <check_inst_switches+0x2a4>
    42d8:	2f 5f       	subi	r18, 0xFF	; 255
    42da:	3f 4f       	sbci	r19, 0xFF	; 255
    42dc:	2c 31       	cpi	r18, 0x1C	; 28
    42de:	31 05       	cpc	r19, r1
    42e0:	09 f0       	breq	.+2      	; 0x42e4 <check_inst_switches+0x2a4>
    42e2:	53 cf       	rjmp	.-346    	; 0x418a <check_inst_switches+0x14a>
    42e4:	df 91       	pop	r29
    42e6:	cf 91       	pop	r28
    42e8:	1f 91       	pop	r17
    42ea:	0f 91       	pop	r16
    42ec:	08 95       	ret

000042ee <TWI_init>:
    42ee:	cf 92       	push	r12
    42f0:	df 92       	push	r13
    42f2:	ef 92       	push	r14
    42f4:	ff 92       	push	r15
    42f6:	0f 93       	push	r16
    42f8:	1f 93       	push	r17
    42fa:	d0 92 ea 02 	sts	0x02EA, r13
    42fe:	c0 92 e9 02 	sts	0x02E9, r12
    4302:	10 93 e5 02 	sts	0x02E5, r17
    4306:	00 93 e4 02 	sts	0x02E4, r16
    430a:	f0 92 4f 02 	sts	0x024F, r15
    430e:	e0 92 4e 02 	sts	0x024E, r14
    4312:	0e 94 cd 26 	call	0x4d9a	; 0x4d9a <__divmodsi4>
    4316:	ba 01       	movw	r22, r20
    4318:	a9 01       	movw	r20, r18
    431a:	40 51       	subi	r20, 0x10	; 16
    431c:	51 09       	sbc	r21, r1
    431e:	61 09       	sbc	r22, r1
    4320:	71 09       	sbc	r23, r1
    4322:	db 01       	movw	r26, r22
    4324:	ca 01       	movw	r24, r20
    4326:	1a f4       	brpl	.+6      	; 0x432e <TWI_init+0x40>
    4328:	01 96       	adiw	r24, 0x01	; 1
    432a:	a1 1d       	adc	r26, r1
    432c:	b1 1d       	adc	r27, r1
    432e:	b5 95       	asr	r27
    4330:	a7 95       	ror	r26
    4332:	97 95       	ror	r25
    4334:	87 95       	ror	r24
    4336:	80 93 b8 00 	sts	0x00B8, r24
    433a:	10 92 b9 00 	sts	0x00B9, r1
    433e:	10 92 ef 02 	sts	0x02EF, r1
    4342:	1f 91       	pop	r17
    4344:	0f 91       	pop	r16
    4346:	ff 90       	pop	r15
    4348:	ef 90       	pop	r14
    434a:	df 90       	pop	r13
    434c:	cf 90       	pop	r12
    434e:	08 95       	ret

00004350 <TWI_master_start_write>:
    4350:	91 e0       	ldi	r25, 0x01	; 1
    4352:	90 93 ef 02 	sts	0x02EF, r25
    4356:	20 91 4e 02 	lds	r18, 0x024E
    435a:	30 91 4f 02 	lds	r19, 0x024F
    435e:	26 17       	cp	r18, r22
    4360:	37 07       	cpc	r19, r23
    4362:	48 f4       	brcc	.+18     	; 0x4376 <TWI_master_start_write+0x26>
    4364:	20 91 4e 02 	lds	r18, 0x024E
    4368:	30 91 4f 02 	lds	r19, 0x024F
    436c:	30 93 4d 02 	sts	0x024D, r19
    4370:	20 93 4c 02 	sts	0x024C, r18
    4374:	04 c0       	rjmp	.+8      	; 0x437e <TWI_master_start_write+0x2e>
    4376:	70 93 4d 02 	sts	0x024D, r23
    437a:	60 93 4c 02 	sts	0x024C, r22
    437e:	91 e0       	ldi	r25, 0x01	; 1
    4380:	90 93 f0 02 	sts	0x02F0, r25
    4384:	90 93 dd 02 	sts	0x02DD, r25
    4388:	80 93 eb 02 	sts	0x02EB, r24
    438c:	85 ea       	ldi	r24, 0xA5	; 165
    438e:	80 93 bc 00 	sts	0x00BC, r24
    4392:	08 95       	ret

00004394 <TWI_master_start_write_then_read>:
    4394:	91 e0       	ldi	r25, 0x01	; 1
    4396:	90 93 ef 02 	sts	0x02EF, r25
    439a:	20 91 4e 02 	lds	r18, 0x024E
    439e:	30 91 4f 02 	lds	r19, 0x024F
    43a2:	26 17       	cp	r18, r22
    43a4:	37 07       	cpc	r19, r23
    43a6:	48 f4       	brcc	.+18     	; 0x43ba <TWI_master_start_write_then_read+0x26>
    43a8:	20 91 4e 02 	lds	r18, 0x024E
    43ac:	30 91 4f 02 	lds	r19, 0x024F
    43b0:	30 93 4d 02 	sts	0x024D, r19
    43b4:	20 93 4c 02 	sts	0x024C, r18
    43b8:	04 c0       	rjmp	.+8      	; 0x43c2 <TWI_master_start_write_then_read+0x2e>
    43ba:	70 93 4d 02 	sts	0x024D, r23
    43be:	60 93 4c 02 	sts	0x024C, r22
    43c2:	20 91 4e 02 	lds	r18, 0x024E
    43c6:	30 91 4f 02 	lds	r19, 0x024F
    43ca:	24 17       	cp	r18, r20
    43cc:	35 07       	cpc	r19, r21
    43ce:	48 f4       	brcc	.+18     	; 0x43e2 <TWI_master_start_write_then_read+0x4e>
    43d0:	20 91 4e 02 	lds	r18, 0x024E
    43d4:	30 91 4f 02 	lds	r19, 0x024F
    43d8:	30 93 e8 02 	sts	0x02E8, r19
    43dc:	20 93 e7 02 	sts	0x02E7, r18
    43e0:	04 c0       	rjmp	.+8      	; 0x43ea <TWI_master_start_write_then_read+0x56>
    43e2:	50 93 e8 02 	sts	0x02E8, r21
    43e6:	40 93 e7 02 	sts	0x02E7, r20
    43ea:	93 e0       	ldi	r25, 0x03	; 3
    43ec:	90 93 f0 02 	sts	0x02F0, r25
    43f0:	91 e0       	ldi	r25, 0x01	; 1
    43f2:	90 93 dd 02 	sts	0x02DD, r25
    43f6:	80 93 eb 02 	sts	0x02EB, r24
    43fa:	85 ea       	ldi	r24, 0xA5	; 165
    43fc:	80 93 bc 00 	sts	0x00BC, r24
    4400:	08 95       	ret

00004402 <__vector_24>:
    4402:	1f 92       	push	r1
    4404:	0f 92       	push	r0
    4406:	0f b6       	in	r0, 0x3f	; 63
    4408:	0f 92       	push	r0
    440a:	11 24       	eor	r1, r1
    440c:	2f 93       	push	r18
    440e:	3f 93       	push	r19
    4410:	4f 93       	push	r20
    4412:	5f 93       	push	r21
    4414:	6f 93       	push	r22
    4416:	7f 93       	push	r23
    4418:	8f 93       	push	r24
    441a:	9f 93       	push	r25
    441c:	af 93       	push	r26
    441e:	bf 93       	push	r27
    4420:	ef 93       	push	r30
    4422:	ff 93       	push	r31
    4424:	80 91 b9 00 	lds	r24, 0x00B9
    4428:	88 7f       	andi	r24, 0xF8	; 248
    442a:	80 93 e0 02 	sts	0x02E0, r24
    442e:	e0 91 e0 02 	lds	r30, 0x02E0
    4432:	8e 2f       	mov	r24, r30
    4434:	90 e0       	ldi	r25, 0x00	; 0
    4436:	fc 01       	movw	r30, r24
    4438:	38 97       	sbiw	r30, 0x08	; 8
    443a:	e1 3c       	cpi	r30, 0xC1	; 193
    443c:	f1 05       	cpc	r31, r1
    443e:	08 f0       	brcs	.+2      	; 0x4442 <__vector_24+0x40>
    4440:	25 c1       	rjmp	.+586    	; 0x468c <__vector_24+0x28a>
    4442:	e6 5a       	subi	r30, 0xA6	; 166
    4444:	ff 4f       	sbci	r31, 0xFF	; 255
    4446:	0c 94 ec 26 	jmp	0x4dd8	; 0x4dd8 <__tablejump2__>
    444a:	80 91 dd 02 	lds	r24, 0x02DD
    444e:	81 30       	cpi	r24, 0x01	; 1
    4450:	19 f0       	breq	.+6      	; 0x4458 <__vector_24+0x56>
    4452:	82 30       	cpi	r24, 0x02	; 2
    4454:	59 f0       	breq	.+22     	; 0x446c <__vector_24+0x6a>
    4456:	14 c0       	rjmp	.+40     	; 0x4480 <__vector_24+0x7e>
    4458:	10 92 f8 02 	sts	0x02F8, r1
    445c:	10 92 f7 02 	sts	0x02F7, r1
    4460:	80 91 eb 02 	lds	r24, 0x02EB
    4464:	88 0f       	add	r24, r24
    4466:	80 93 bb 00 	sts	0x00BB, r24
    446a:	0a c0       	rjmp	.+20     	; 0x4480 <__vector_24+0x7e>
    446c:	10 92 f8 02 	sts	0x02F8, r1
    4470:	10 92 f7 02 	sts	0x02F7, r1
    4474:	80 91 eb 02 	lds	r24, 0x02EB
    4478:	88 0f       	add	r24, r24
    447a:	81 60       	ori	r24, 0x01	; 1
    447c:	80 93 bb 00 	sts	0x00BB, r24
    4480:	85 ec       	ldi	r24, 0xC5	; 197
    4482:	80 93 bc 00 	sts	0x00BC, r24
    4486:	0d c1       	rjmp	.+538    	; 0x46a2 <__vector_24+0x2a0>
    4488:	20 91 f7 02 	lds	r18, 0x02F7
    448c:	30 91 f8 02 	lds	r19, 0x02F8
    4490:	80 91 4c 02 	lds	r24, 0x024C
    4494:	90 91 4d 02 	lds	r25, 0x024D
    4498:	28 17       	cp	r18, r24
    449a:	39 07       	cpc	r19, r25
    449c:	f1 f4       	brne	.+60     	; 0x44da <__vector_24+0xd8>
    449e:	80 91 f0 02 	lds	r24, 0x02F0
    44a2:	83 30       	cpi	r24, 0x03	; 3
    44a4:	39 f4       	brne	.+14     	; 0x44b4 <__vector_24+0xb2>
    44a6:	82 e0       	ldi	r24, 0x02	; 2
    44a8:	80 93 dd 02 	sts	0x02DD, r24
    44ac:	85 ea       	ldi	r24, 0xA5	; 165
    44ae:	80 93 bc 00 	sts	0x00BC, r24
    44b2:	f7 c0       	rjmp	.+494    	; 0x46a2 <__vector_24+0x2a0>
    44b4:	e0 91 e9 02 	lds	r30, 0x02E9
    44b8:	f0 91 ea 02 	lds	r31, 0x02EA
    44bc:	30 97       	sbiw	r30, 0x00	; 0
    44be:	11 f0       	breq	.+4      	; 0x44c4 <__vector_24+0xc2>
    44c0:	80 e0       	ldi	r24, 0x00	; 0
    44c2:	09 95       	icall
    44c4:	85 e9       	ldi	r24, 0x95	; 149
    44c6:	80 93 bc 00 	sts	0x00BC, r24
    44ca:	ec eb       	ldi	r30, 0xBC	; 188
    44cc:	f0 e0       	ldi	r31, 0x00	; 0
    44ce:	80 81       	ld	r24, Z
    44d0:	84 fd       	sbrc	r24, 4
    44d2:	fd cf       	rjmp	.-6      	; 0x44ce <__vector_24+0xcc>
    44d4:	10 92 ef 02 	sts	0x02EF, r1
    44d8:	e4 c0       	rjmp	.+456    	; 0x46a2 <__vector_24+0x2a0>
    44da:	20 91 e4 02 	lds	r18, 0x02E4
    44de:	30 91 e5 02 	lds	r19, 0x02E5
    44e2:	80 91 f7 02 	lds	r24, 0x02F7
    44e6:	90 91 f8 02 	lds	r25, 0x02F8
    44ea:	ac 01       	movw	r20, r24
    44ec:	4f 5f       	subi	r20, 0xFF	; 255
    44ee:	5f 4f       	sbci	r21, 0xFF	; 255
    44f0:	50 93 f8 02 	sts	0x02F8, r21
    44f4:	40 93 f7 02 	sts	0x02F7, r20
    44f8:	f9 01       	movw	r30, r18
    44fa:	e8 0f       	add	r30, r24
    44fc:	f9 1f       	adc	r31, r25
    44fe:	80 81       	ld	r24, Z
    4500:	80 93 bb 00 	sts	0x00BB, r24
    4504:	85 e8       	ldi	r24, 0x85	; 133
    4506:	80 93 bc 00 	sts	0x00BC, r24
    450a:	cb c0       	rjmp	.+406    	; 0x46a2 <__vector_24+0x2a0>
    450c:	20 91 e4 02 	lds	r18, 0x02E4
    4510:	30 91 e5 02 	lds	r19, 0x02E5
    4514:	80 91 f7 02 	lds	r24, 0x02F7
    4518:	90 91 f8 02 	lds	r25, 0x02F8
    451c:	ac 01       	movw	r20, r24
    451e:	4f 5f       	subi	r20, 0xFF	; 255
    4520:	5f 4f       	sbci	r21, 0xFF	; 255
    4522:	50 93 f8 02 	sts	0x02F8, r21
    4526:	40 93 f7 02 	sts	0x02F7, r20
    452a:	f9 01       	movw	r30, r18
    452c:	e8 0f       	add	r30, r24
    452e:	f9 1f       	adc	r31, r25
    4530:	20 91 bb 00 	lds	r18, 0x00BB
    4534:	20 83       	st	Z, r18
    4536:	80 91 e7 02 	lds	r24, 0x02E7
    453a:	90 91 e8 02 	lds	r25, 0x02E8
    453e:	20 91 f7 02 	lds	r18, 0x02F7
    4542:	30 91 f8 02 	lds	r19, 0x02F8
    4546:	01 97       	sbiw	r24, 0x01	; 1
    4548:	82 17       	cp	r24, r18
    454a:	93 07       	cpc	r25, r19
    454c:	21 f4       	brne	.+8      	; 0x4556 <__vector_24+0x154>
    454e:	85 e8       	ldi	r24, 0x85	; 133
    4550:	80 93 bc 00 	sts	0x00BC, r24
    4554:	a6 c0       	rjmp	.+332    	; 0x46a2 <__vector_24+0x2a0>
    4556:	85 ec       	ldi	r24, 0xC5	; 197
    4558:	80 93 bc 00 	sts	0x00BC, r24
    455c:	a2 c0       	rjmp	.+324    	; 0x46a2 <__vector_24+0x2a0>
    455e:	20 91 e4 02 	lds	r18, 0x02E4
    4562:	30 91 e5 02 	lds	r19, 0x02E5
    4566:	80 91 f7 02 	lds	r24, 0x02F7
    456a:	90 91 f8 02 	lds	r25, 0x02F8
    456e:	ac 01       	movw	r20, r24
    4570:	4f 5f       	subi	r20, 0xFF	; 255
    4572:	5f 4f       	sbci	r21, 0xFF	; 255
    4574:	50 93 f8 02 	sts	0x02F8, r21
    4578:	40 93 f7 02 	sts	0x02F7, r20
    457c:	f9 01       	movw	r30, r18
    457e:	e8 0f       	add	r30, r24
    4580:	f9 1f       	adc	r31, r25
    4582:	20 91 bb 00 	lds	r18, 0x00BB
    4586:	20 83       	st	Z, r18
    4588:	e0 91 e9 02 	lds	r30, 0x02E9
    458c:	f0 91 ea 02 	lds	r31, 0x02EA
    4590:	30 97       	sbiw	r30, 0x00	; 0
    4592:	11 f0       	breq	.+4      	; 0x4598 <__vector_24+0x196>
    4594:	80 e0       	ldi	r24, 0x00	; 0
    4596:	09 95       	icall
    4598:	85 e9       	ldi	r24, 0x95	; 149
    459a:	80 93 bc 00 	sts	0x00BC, r24
    459e:	ec eb       	ldi	r30, 0xBC	; 188
    45a0:	f0 e0       	ldi	r31, 0x00	; 0
    45a2:	80 81       	ld	r24, Z
    45a4:	84 fd       	sbrc	r24, 4
    45a6:	fd cf       	rjmp	.-6      	; 0x45a2 <__vector_24+0x1a0>
    45a8:	10 92 ef 02 	sts	0x02EF, r1
    45ac:	7a c0       	rjmp	.+244    	; 0x46a2 <__vector_24+0x2a0>
    45ae:	10 92 f8 02 	sts	0x02F8, r1
    45b2:	10 92 f7 02 	sts	0x02F7, r1
    45b6:	85 ec       	ldi	r24, 0xC5	; 197
    45b8:	80 93 bc 00 	sts	0x00BC, r24
    45bc:	72 c0       	rjmp	.+228    	; 0x46a2 <__vector_24+0x2a0>
    45be:	20 91 f7 02 	lds	r18, 0x02F7
    45c2:	30 91 f8 02 	lds	r19, 0x02F8
    45c6:	80 91 4e 02 	lds	r24, 0x024E
    45ca:	90 91 4f 02 	lds	r25, 0x024F
    45ce:	28 17       	cp	r18, r24
    45d0:	39 07       	cpc	r19, r25
    45d2:	a8 f4       	brcc	.+42     	; 0x45fe <__vector_24+0x1fc>
    45d4:	20 91 e4 02 	lds	r18, 0x02E4
    45d8:	30 91 e5 02 	lds	r19, 0x02E5
    45dc:	80 91 f7 02 	lds	r24, 0x02F7
    45e0:	90 91 f8 02 	lds	r25, 0x02F8
    45e4:	ac 01       	movw	r20, r24
    45e6:	4f 5f       	subi	r20, 0xFF	; 255
    45e8:	5f 4f       	sbci	r21, 0xFF	; 255
    45ea:	50 93 f8 02 	sts	0x02F8, r21
    45ee:	40 93 f7 02 	sts	0x02F7, r20
    45f2:	f9 01       	movw	r30, r18
    45f4:	e8 0f       	add	r30, r24
    45f6:	f9 1f       	adc	r31, r25
    45f8:	20 91 bb 00 	lds	r18, 0x00BB
    45fc:	20 83       	st	Z, r18
    45fe:	85 ec       	ldi	r24, 0xC5	; 197
    4600:	80 93 bc 00 	sts	0x00BC, r24
    4604:	4e c0       	rjmp	.+156    	; 0x46a2 <__vector_24+0x2a0>
    4606:	80 91 f7 02 	lds	r24, 0x02F7
    460a:	90 91 f8 02 	lds	r25, 0x02F8
    460e:	80 93 ec 02 	sts	0x02EC, r24
    4612:	e0 91 e9 02 	lds	r30, 0x02E9
    4616:	f0 91 ea 02 	lds	r31, 0x02EA
    461a:	30 97       	sbiw	r30, 0x00	; 0
    461c:	11 f0       	breq	.+4      	; 0x4622 <__vector_24+0x220>
    461e:	80 e0       	ldi	r24, 0x00	; 0
    4620:	09 95       	icall
    4622:	85 ec       	ldi	r24, 0xC5	; 197
    4624:	80 93 bc 00 	sts	0x00BC, r24
    4628:	3c c0       	rjmp	.+120    	; 0x46a2 <__vector_24+0x2a0>
    462a:	10 92 f8 02 	sts	0x02F8, r1
    462e:	10 92 f7 02 	sts	0x02F7, r1
    4632:	20 91 f7 02 	lds	r18, 0x02F7
    4636:	30 91 f8 02 	lds	r19, 0x02F8
    463a:	80 91 4e 02 	lds	r24, 0x024E
    463e:	90 91 4f 02 	lds	r25, 0x024F
    4642:	28 17       	cp	r18, r24
    4644:	39 07       	cpc	r19, r25
    4646:	a8 f4       	brcc	.+42     	; 0x4672 <__vector_24+0x270>
    4648:	20 91 e4 02 	lds	r18, 0x02E4
    464c:	30 91 e5 02 	lds	r19, 0x02E5
    4650:	80 91 f7 02 	lds	r24, 0x02F7
    4654:	90 91 f8 02 	lds	r25, 0x02F8
    4658:	ac 01       	movw	r20, r24
    465a:	4f 5f       	subi	r20, 0xFF	; 255
    465c:	5f 4f       	sbci	r21, 0xFF	; 255
    465e:	50 93 f8 02 	sts	0x02F8, r21
    4662:	40 93 f7 02 	sts	0x02F7, r20
    4666:	f9 01       	movw	r30, r18
    4668:	e8 0f       	add	r30, r24
    466a:	f9 1f       	adc	r31, r25
    466c:	80 81       	ld	r24, Z
    466e:	80 93 bb 00 	sts	0x00BB, r24
    4672:	85 ec       	ldi	r24, 0xC5	; 197
    4674:	80 93 bc 00 	sts	0x00BC, r24
    4678:	14 c0       	rjmp	.+40     	; 0x46a2 <__vector_24+0x2a0>
    467a:	e0 91 e9 02 	lds	r30, 0x02E9
    467e:	f0 91 ea 02 	lds	r31, 0x02EA
    4682:	30 97       	sbiw	r30, 0x00	; 0
    4684:	19 f0       	breq	.+6      	; 0x468c <__vector_24+0x28a>
    4686:	80 91 e0 02 	lds	r24, 0x02E0
    468a:	09 95       	icall
    468c:	85 e9       	ldi	r24, 0x95	; 149
    468e:	80 93 bc 00 	sts	0x00BC, r24
    4692:	ec eb       	ldi	r30, 0xBC	; 188
    4694:	f0 e0       	ldi	r31, 0x00	; 0
    4696:	80 81       	ld	r24, Z
    4698:	84 fd       	sbrc	r24, 4
    469a:	fd cf       	rjmp	.-6      	; 0x4696 <__vector_24+0x294>
    469c:	85 ea       	ldi	r24, 0xA5	; 165
    469e:	80 93 bc 00 	sts	0x00BC, r24
    46a2:	ff 91       	pop	r31
    46a4:	ef 91       	pop	r30
    46a6:	bf 91       	pop	r27
    46a8:	af 91       	pop	r26
    46aa:	9f 91       	pop	r25
    46ac:	8f 91       	pop	r24
    46ae:	7f 91       	pop	r23
    46b0:	6f 91       	pop	r22
    46b2:	5f 91       	pop	r21
    46b4:	4f 91       	pop	r20
    46b6:	3f 91       	pop	r19
    46b8:	2f 91       	pop	r18
    46ba:	0f 90       	pop	r0
    46bc:	0f be       	out	0x3f, r0	; 63
    46be:	0f 90       	pop	r0
    46c0:	1f 90       	pop	r1
    46c2:	18 95       	reti

000046c4 <bytequeue_init>:
    46c4:	fc 01       	movw	r30, r24
    46c6:	42 83       	std	Z+2, r20	; 0x02
    46c8:	74 83       	std	Z+4, r23	; 0x04
    46ca:	63 83       	std	Z+3, r22	; 0x03
    46cc:	11 82       	std	Z+1, r1	; 0x01
    46ce:	10 82       	st	Z, r1
    46d0:	08 95       	ret

000046d2 <bytequeue_enqueue>:
    46d2:	ff 92       	push	r15
    46d4:	0f 93       	push	r16
    46d6:	1f 93       	push	r17
    46d8:	cf 93       	push	r28
    46da:	df 93       	push	r29
    46dc:	ec 01       	movw	r28, r24
    46de:	06 2f       	mov	r16, r22
    46e0:	0e 94 e2 23 	call	0x47c4	; 0x47c4 <store_and_clear_interrupt>
    46e4:	18 2f       	mov	r17, r24
    46e6:	f9 80       	ldd	r15, Y+1	; 0x01
    46e8:	4f 2d       	mov	r20, r15
    46ea:	50 e0       	ldi	r21, 0x00	; 0
    46ec:	ca 01       	movw	r24, r20
    46ee:	01 96       	adiw	r24, 0x01	; 1
    46f0:	2a 81       	ldd	r18, Y+2	; 0x02
    46f2:	62 2f       	mov	r22, r18
    46f4:	70 e0       	ldi	r23, 0x00	; 0
    46f6:	0e 94 b9 26 	call	0x4d72	; 0x4d72 <__divmodhi4>
    46fa:	28 81       	ld	r18, Y
    46fc:	30 e0       	ldi	r19, 0x00	; 0
    46fe:	82 17       	cp	r24, r18
    4700:	93 07       	cpc	r25, r19
    4702:	29 f4       	brne	.+10     	; 0x470e <bytequeue_enqueue+0x3c>
    4704:	81 2f       	mov	r24, r17
    4706:	0e 94 e5 23 	call	0x47ca	; 0x47ca <restore_interrupt_setting>
    470a:	80 e0       	ldi	r24, 0x00	; 0
    470c:	12 c0       	rjmp	.+36     	; 0x4732 <bytequeue_enqueue+0x60>
    470e:	eb 81       	ldd	r30, Y+3	; 0x03
    4710:	fc 81       	ldd	r31, Y+4	; 0x04
    4712:	ef 0d       	add	r30, r15
    4714:	f1 1d       	adc	r31, r1
    4716:	00 83       	st	Z, r16
    4718:	29 81       	ldd	r18, Y+1	; 0x01
    471a:	30 e0       	ldi	r19, 0x00	; 0
    471c:	c9 01       	movw	r24, r18
    471e:	01 96       	adiw	r24, 0x01	; 1
    4720:	6a 81       	ldd	r22, Y+2	; 0x02
    4722:	70 e0       	ldi	r23, 0x00	; 0
    4724:	0e 94 b9 26 	call	0x4d72	; 0x4d72 <__divmodhi4>
    4728:	89 83       	std	Y+1, r24	; 0x01
    472a:	81 2f       	mov	r24, r17
    472c:	0e 94 e5 23 	call	0x47ca	; 0x47ca <restore_interrupt_setting>
    4730:	81 e0       	ldi	r24, 0x01	; 1
    4732:	df 91       	pop	r29
    4734:	cf 91       	pop	r28
    4736:	1f 91       	pop	r17
    4738:	0f 91       	pop	r16
    473a:	ff 90       	pop	r15
    473c:	08 95       	ret

0000473e <bytequeue_length>:
    473e:	cf 93       	push	r28
    4740:	df 93       	push	r29
    4742:	ec 01       	movw	r28, r24
    4744:	0e 94 e2 23 	call	0x47c4	; 0x47c4 <store_and_clear_interrupt>
    4748:	39 81       	ldd	r19, Y+1	; 0x01
    474a:	28 81       	ld	r18, Y
    474c:	32 17       	cp	r19, r18
    474e:	18 f0       	brcs	.+6      	; 0x4756 <bytequeue_length+0x18>
    4750:	c3 2f       	mov	r28, r19
    4752:	c2 1b       	sub	r28, r18
    4754:	04 c0       	rjmp	.+8      	; 0x475e <bytequeue_length+0x20>
    4756:	9a 81       	ldd	r25, Y+2	; 0x02
    4758:	c3 2f       	mov	r28, r19
    475a:	c9 0f       	add	r28, r25
    475c:	c2 1b       	sub	r28, r18
    475e:	0e 94 e5 23 	call	0x47ca	; 0x47ca <restore_interrupt_setting>
    4762:	8c 2f       	mov	r24, r28
    4764:	df 91       	pop	r29
    4766:	cf 91       	pop	r28
    4768:	08 95       	ret

0000476a <bytequeue_get>:
    476a:	fc 01       	movw	r30, r24
    476c:	80 81       	ld	r24, Z
    476e:	70 e0       	ldi	r23, 0x00	; 0
    4770:	9b 01       	movw	r18, r22
    4772:	28 0f       	add	r18, r24
    4774:	31 1d       	adc	r19, r1
    4776:	c9 01       	movw	r24, r18
    4778:	62 81       	ldd	r22, Z+2	; 0x02
    477a:	70 e0       	ldi	r23, 0x00	; 0
    477c:	0e 94 b9 26 	call	0x4d72	; 0x4d72 <__divmodhi4>
    4780:	03 80       	ldd	r0, Z+3	; 0x03
    4782:	f4 81       	ldd	r31, Z+4	; 0x04
    4784:	e0 2d       	mov	r30, r0
    4786:	e8 0f       	add	r30, r24
    4788:	f9 1f       	adc	r31, r25
    478a:	80 81       	ld	r24, Z
    478c:	08 95       	ret

0000478e <bytequeue_remove>:
    478e:	1f 93       	push	r17
    4790:	cf 93       	push	r28
    4792:	df 93       	push	r29
    4794:	ec 01       	movw	r28, r24
    4796:	16 2f       	mov	r17, r22
    4798:	0e 94 e2 23 	call	0x47c4	; 0x47c4 <store_and_clear_interrupt>
    479c:	48 2f       	mov	r20, r24
    479e:	88 81       	ld	r24, Y
    47a0:	21 2f       	mov	r18, r17
    47a2:	30 e0       	ldi	r19, 0x00	; 0
    47a4:	b9 01       	movw	r22, r18
    47a6:	68 0f       	add	r22, r24
    47a8:	71 1d       	adc	r23, r1
    47aa:	cb 01       	movw	r24, r22
    47ac:	6a 81       	ldd	r22, Y+2	; 0x02
    47ae:	70 e0       	ldi	r23, 0x00	; 0
    47b0:	0e 94 b9 26 	call	0x4d72	; 0x4d72 <__divmodhi4>
    47b4:	88 83       	st	Y, r24
    47b6:	84 2f       	mov	r24, r20
    47b8:	0e 94 e5 23 	call	0x47ca	; 0x47ca <restore_interrupt_setting>
    47bc:	df 91       	pop	r29
    47be:	cf 91       	pop	r28
    47c0:	1f 91       	pop	r17
    47c2:	08 95       	ret

000047c4 <store_and_clear_interrupt>:
    47c4:	8f b7       	in	r24, 0x3f	; 63
    47c6:	f8 94       	cli
    47c8:	08 95       	ret

000047ca <restore_interrupt_setting>:
    47ca:	8f bf       	out	0x3f, r24	; 63
    47cc:	08 95       	ret

000047ce <midi_is_statusbyte>:
    47ce:	88 1f       	adc	r24, r24
    47d0:	88 27       	eor	r24, r24
    47d2:	88 1f       	adc	r24, r24
    47d4:	08 95       	ret

000047d6 <midi_is_realtime>:
    47d6:	91 e0       	ldi	r25, 0x01	; 1
    47d8:	88 3f       	cpi	r24, 0xF8	; 248
    47da:	08 f4       	brcc	.+2      	; 0x47de <midi_is_realtime+0x8>
    47dc:	90 e0       	ldi	r25, 0x00	; 0
    47de:	89 2f       	mov	r24, r25
    47e0:	08 95       	ret

000047e2 <midi_packet_length>:
    47e2:	98 2f       	mov	r25, r24
    47e4:	90 7f       	andi	r25, 0xF0	; 240
    47e6:	90 3c       	cpi	r25, 0xC0	; 192
    47e8:	b1 f0       	breq	.+44     	; 0x4816 <midi_packet_length+0x34>
    47ea:	58 f4       	brcc	.+22     	; 0x4802 <midi_packet_length+0x20>
    47ec:	90 39       	cpi	r25, 0x90	; 144
    47ee:	41 f1       	breq	.+80     	; 0x4840 <midi_packet_length+0x5e>
    47f0:	18 f4       	brcc	.+6      	; 0x47f8 <midi_packet_length+0x16>
    47f2:	90 38       	cpi	r25, 0x80	; 128
    47f4:	19 f5       	brne	.+70     	; 0x483c <midi_packet_length+0x5a>
    47f6:	24 c0       	rjmp	.+72     	; 0x4840 <midi_packet_length+0x5e>
    47f8:	90 3a       	cpi	r25, 0xA0	; 160
    47fa:	11 f1       	breq	.+68     	; 0x4840 <midi_packet_length+0x5e>
    47fc:	90 3b       	cpi	r25, 0xB0	; 176
    47fe:	f1 f4       	brne	.+60     	; 0x483c <midi_packet_length+0x5a>
    4800:	1f c0       	rjmp	.+62     	; 0x4840 <midi_packet_length+0x5e>
    4802:	90 3e       	cpi	r25, 0xE0	; 224
    4804:	e9 f0       	breq	.+58     	; 0x4840 <midi_packet_length+0x5e>
    4806:	18 f4       	brcc	.+6      	; 0x480e <midi_packet_length+0x2c>
    4808:	90 3d       	cpi	r25, 0xD0	; 208
    480a:	29 f0       	breq	.+10     	; 0x4816 <midi_packet_length+0x34>
    480c:	17 c0       	rjmp	.+46     	; 0x483c <midi_packet_length+0x5a>
    480e:	90 3f       	cpi	r25, 0xF0	; 240
    4810:	21 f0       	breq	.+8      	; 0x481a <midi_packet_length+0x38>
    4812:	93 3f       	cpi	r25, 0xF3	; 243
    4814:	99 f4       	brne	.+38     	; 0x483c <midi_packet_length+0x5a>
    4816:	82 e0       	ldi	r24, 0x02	; 2
    4818:	08 95       	ret
    481a:	90 e0       	ldi	r25, 0x00	; 0
    481c:	fc 01       	movw	r30, r24
    481e:	e1 5f       	subi	r30, 0xF1	; 241
    4820:	f1 09       	sbc	r31, r1
    4822:	ef 30       	cpi	r30, 0x0F	; 15
    4824:	f1 05       	cpc	r31, r1
    4826:	40 f4       	brcc	.+16     	; 0x4838 <midi_packet_length+0x56>
    4828:	e5 5e       	subi	r30, 0xE5	; 229
    482a:	fe 4f       	sbci	r31, 0xFE	; 254
    482c:	0c 94 ec 26 	jmp	0x4dd8	; 0x4dd8 <__tablejump2__>
    4830:	83 e0       	ldi	r24, 0x03	; 3
    4832:	08 95       	ret
    4834:	82 e0       	ldi	r24, 0x02	; 2
    4836:	08 95       	ret
    4838:	80 e0       	ldi	r24, 0x00	; 0
    483a:	08 95       	ret
    483c:	80 e0       	ldi	r24, 0x00	; 0
    483e:	08 95       	ret
    4840:	83 e0       	ldi	r24, 0x03	; 3
    4842:	08 95       	ret
    4844:	81 e0       	ldi	r24, 0x01	; 1
    4846:	08 95       	ret

00004848 <midi_send_clock>:
    4848:	0f 93       	push	r16
    484a:	dc 01       	movw	r26, r24
    484c:	ed 91       	ld	r30, X+
    484e:	fc 91       	ld	r31, X
    4850:	00 e0       	ldi	r16, 0x00	; 0
    4852:	20 e0       	ldi	r18, 0x00	; 0
    4854:	48 ef       	ldi	r20, 0xF8	; 248
    4856:	61 e0       	ldi	r22, 0x01	; 1
    4858:	70 e0       	ldi	r23, 0x00	; 0
    485a:	09 95       	icall
    485c:	0f 91       	pop	r16
    485e:	08 95       	ret

00004860 <midi_send_start>:
    4860:	0f 93       	push	r16
    4862:	dc 01       	movw	r26, r24
    4864:	ed 91       	ld	r30, X+
    4866:	fc 91       	ld	r31, X
    4868:	00 e0       	ldi	r16, 0x00	; 0
    486a:	20 e0       	ldi	r18, 0x00	; 0
    486c:	4a ef       	ldi	r20, 0xFA	; 250
    486e:	61 e0       	ldi	r22, 0x01	; 1
    4870:	70 e0       	ldi	r23, 0x00	; 0
    4872:	09 95       	icall
    4874:	0f 91       	pop	r16
    4876:	08 95       	ret

00004878 <midi_send_stop>:
    4878:	0f 93       	push	r16
    487a:	dc 01       	movw	r26, r24
    487c:	ed 91       	ld	r30, X+
    487e:	fc 91       	ld	r31, X
    4880:	00 e0       	ldi	r16, 0x00	; 0
    4882:	20 e0       	ldi	r18, 0x00	; 0
    4884:	4c ef       	ldi	r20, 0xFC	; 252
    4886:	61 e0       	ldi	r22, 0x01	; 1
    4888:	70 e0       	ldi	r23, 0x00	; 0
    488a:	09 95       	icall
    488c:	0f 91       	pop	r16
    488e:	08 95       	ret

00004890 <midi_register_noteon_callback>:
    4890:	fc 01       	movw	r30, r24
    4892:	75 83       	std	Z+5, r23	; 0x05
    4894:	64 83       	std	Z+4, r22	; 0x04
    4896:	08 95       	ret

00004898 <midi_register_noteoff_callback>:
    4898:	fc 01       	movw	r30, r24
    489a:	77 83       	std	Z+7, r23	; 0x07
    489c:	66 83       	std	Z+6, r22	; 0x06
    489e:	08 95       	ret

000048a0 <midi_register_realtime_callback>:
    48a0:	fc 01       	movw	r30, r24
    48a2:	77 8b       	std	Z+23, r23	; 0x17
    48a4:	66 8b       	std	Z+22, r22	; 0x16
    48a6:	08 95       	ret

000048a8 <midi_device_init>:
    48a8:	cf 93       	push	r28
    48aa:	df 93       	push	r29
    48ac:	ec 01       	movw	r28, r24
    48ae:	1d a2       	std	Y+37, r1	; 0x25
    48b0:	1f a2       	std	Y+39, r1	; 0x27
    48b2:	1e a2       	std	Y+38, r1	; 0x26
    48b4:	bc 01       	movw	r22, r24
    48b6:	68 5d       	subi	r22, 0xD8	; 216
    48b8:	7f 4f       	sbci	r23, 0xFF	; 255
    48ba:	40 ec       	ldi	r20, 0xC0	; 192
    48bc:	88 51       	subi	r24, 0x18	; 24
    48be:	9f 4f       	sbci	r25, 0xFF	; 255
    48c0:	0e 94 62 23 	call	0x46c4	; 0x46c4 <bytequeue_init>
    48c4:	1b 82       	std	Y+3, r1	; 0x03
    48c6:	1a 82       	std	Y+2, r1	; 0x02
    48c8:	1d 82       	std	Y+5, r1	; 0x05
    48ca:	1c 82       	std	Y+4, r1	; 0x04
    48cc:	1f 82       	std	Y+7, r1	; 0x07
    48ce:	1e 82       	std	Y+6, r1	; 0x06
    48d0:	19 86       	std	Y+9, r1	; 0x09
    48d2:	18 86       	std	Y+8, r1	; 0x08
    48d4:	1b 86       	std	Y+11, r1	; 0x0b
    48d6:	1a 86       	std	Y+10, r1	; 0x0a
    48d8:	1d 86       	std	Y+13, r1	; 0x0d
    48da:	1c 86       	std	Y+12, r1	; 0x0c
    48dc:	1f 86       	std	Y+15, r1	; 0x0f
    48de:	1e 86       	std	Y+14, r1	; 0x0e
    48e0:	19 8a       	std	Y+17, r1	; 0x11
    48e2:	18 8a       	std	Y+16, r1	; 0x10
    48e4:	1b 8a       	std	Y+19, r1	; 0x13
    48e6:	1a 8a       	std	Y+18, r1	; 0x12
    48e8:	1d 8a       	std	Y+21, r1	; 0x15
    48ea:	1c 8a       	std	Y+20, r1	; 0x14
    48ec:	1f 8a       	std	Y+23, r1	; 0x17
    48ee:	1e 8a       	std	Y+22, r1	; 0x16
    48f0:	19 8e       	std	Y+25, r1	; 0x19
    48f2:	18 8e       	std	Y+24, r1	; 0x18
    48f4:	1b 8e       	std	Y+27, r1	; 0x1b
    48f6:	1a 8e       	std	Y+26, r1	; 0x1a
    48f8:	1d 8e       	std	Y+29, r1	; 0x1d
    48fa:	1c 8e       	std	Y+28, r1	; 0x1c
    48fc:	1f 8e       	std	Y+31, r1	; 0x1f
    48fe:	1e 8e       	std	Y+30, r1	; 0x1e
    4900:	19 a2       	std	Y+33, r1	; 0x21
    4902:	18 a2       	std	Y+32, r1	; 0x20
    4904:	df 91       	pop	r29
    4906:	cf 91       	pop	r28
    4908:	08 95       	ret

0000490a <midi_device_input>:
    490a:	ef 92       	push	r14
    490c:	ff 92       	push	r15
    490e:	0f 93       	push	r16
    4910:	1f 93       	push	r17
    4912:	cf 93       	push	r28
    4914:	df 93       	push	r29
    4916:	66 23       	and	r22, r22
    4918:	99 f0       	breq	.+38     	; 0x4940 <midi_device_input+0x36>
    491a:	ea 01       	movw	r28, r20
    491c:	61 50       	subi	r22, 0x01	; 1
    491e:	06 2f       	mov	r16, r22
    4920:	10 e0       	ldi	r17, 0x00	; 0
    4922:	0f 5f       	subi	r16, 0xFF	; 255
    4924:	1f 4f       	sbci	r17, 0xFF	; 255
    4926:	04 0f       	add	r16, r20
    4928:	15 1f       	adc	r17, r21
    492a:	7c 01       	movw	r14, r24
    492c:	28 ee       	ldi	r18, 0xE8	; 232
    492e:	e2 0e       	add	r14, r18
    4930:	f1 1c       	adc	r15, r1
    4932:	69 91       	ld	r22, Y+
    4934:	c7 01       	movw	r24, r14
    4936:	0e 94 69 23 	call	0x46d2	; 0x46d2 <bytequeue_enqueue>
    493a:	c0 17       	cp	r28, r16
    493c:	d1 07       	cpc	r29, r17
    493e:	c9 f7       	brne	.-14     	; 0x4932 <midi_device_input+0x28>
    4940:	df 91       	pop	r29
    4942:	cf 91       	pop	r28
    4944:	1f 91       	pop	r17
    4946:	0f 91       	pop	r16
    4948:	ff 90       	pop	r15
    494a:	ef 90       	pop	r14
    494c:	08 95       	ret

0000494e <midi_device_set_send_func>:
    494e:	fc 01       	movw	r30, r24
    4950:	71 83       	std	Z+1, r23	; 0x01
    4952:	60 83       	st	Z, r22
    4954:	08 95       	ret

00004956 <midi_input_callbacks>:
    4956:	af 92       	push	r10
    4958:	bf 92       	push	r11
    495a:	cf 92       	push	r12
    495c:	df 92       	push	r13
    495e:	ef 92       	push	r14
    4960:	ff 92       	push	r15
    4962:	0f 93       	push	r16
    4964:	1f 93       	push	r17
    4966:	cf 93       	push	r28
    4968:	df 93       	push	r29
    496a:	00 d0       	rcall	.+0      	; 0x496c <midi_input_callbacks+0x16>
    496c:	1f 92       	push	r1
    496e:	cd b7       	in	r28, 0x3d	; 61
    4970:	de b7       	in	r29, 0x3e	; 62
    4972:	7c 01       	movw	r14, r24
    4974:	6b 01       	movw	r12, r22
    4976:	14 2f       	mov	r17, r20
    4978:	b2 2e       	mov	r11, r18
    497a:	a0 2e       	mov	r10, r16
    497c:	dc 01       	movw	r26, r24
    497e:	95 96       	adiw	r26, 0x25	; 37
    4980:	8c 91       	ld	r24, X
    4982:	95 97       	sbiw	r26, 0x25	; 37
    4984:	84 30       	cpi	r24, 0x04	; 4
    4986:	11 f5       	brne	.+68     	; 0x49cc <midi_input_callbacks+0x76>
    4988:	5a 96       	adiw	r26, 0x1a	; 26
    498a:	ed 91       	ld	r30, X+
    498c:	fc 91       	ld	r31, X
    498e:	5b 97       	sbiw	r26, 0x1b	; 27
    4990:	30 97       	sbiw	r30, 0x00	; 0
    4992:	09 f4       	brne	.+2      	; 0x4996 <midi_input_callbacks+0x40>
    4994:	cc c0       	rjmp	.+408    	; 0x4b2e <midi_input_callbacks+0x1d8>
    4996:	9b 01       	movw	r18, r22
    4998:	21 50       	subi	r18, 0x01	; 1
    499a:	31 09       	sbc	r19, r1
    499c:	ab ea       	ldi	r26, 0xAB	; 171
    499e:	ba ea       	ldi	r27, 0xAA	; 170
    49a0:	0e 94 f2 26 	call	0x4de4	; 0x4de4 <__umulhisi3>
    49a4:	96 95       	lsr	r25
    49a6:	87 95       	ror	r24
    49a8:	9c 01       	movw	r18, r24
    49aa:	22 0f       	add	r18, r18
    49ac:	33 1f       	adc	r19, r19
    49ae:	82 0f       	add	r24, r18
    49b0:	93 1f       	adc	r25, r19
    49b2:	49 83       	std	Y+1, r20	; 0x01
    49b4:	ba 82       	std	Y+2, r11	; 0x02
    49b6:	0b 83       	std	Y+3, r16	; 0x03
    49b8:	4c 2d       	mov	r20, r12
    49ba:	48 1b       	sub	r20, r24
    49bc:	9e 01       	movw	r18, r28
    49be:	2f 5f       	subi	r18, 0xFF	; 255
    49c0:	3f 4f       	sbci	r19, 0xFF	; 255
    49c2:	68 2f       	mov	r22, r24
    49c4:	79 2f       	mov	r23, r25
    49c6:	c7 01       	movw	r24, r14
    49c8:	09 95       	icall
    49ca:	be c0       	rjmp	.+380    	; 0x4b48 <midi_input_callbacks+0x1f2>
    49cc:	62 30       	cpi	r22, 0x02	; 2
    49ce:	71 05       	cpc	r23, r1
    49d0:	09 f4       	brne	.+2      	; 0x49d4 <midi_input_callbacks+0x7e>
    49d2:	55 c0       	rjmp	.+170    	; 0x4a7e <midi_input_callbacks+0x128>
    49d4:	63 30       	cpi	r22, 0x03	; 3
    49d6:	71 05       	cpc	r23, r1
    49d8:	29 f0       	breq	.+10     	; 0x49e4 <midi_input_callbacks+0x8e>
    49da:	61 30       	cpi	r22, 0x01	; 1
    49dc:	71 05       	cpc	r23, r1
    49de:	09 f0       	breq	.+2      	; 0x49e2 <midi_input_callbacks+0x8c>
    49e0:	a1 c0       	rjmp	.+322    	; 0x4b24 <midi_input_callbacks+0x1ce>
    49e2:	88 c0       	rjmp	.+272    	; 0x4af4 <midi_input_callbacks+0x19e>
    49e4:	84 2f       	mov	r24, r20
    49e6:	80 7f       	andi	r24, 0xF0	; 240
    49e8:	80 3a       	cpi	r24, 0xA0	; 160
    49ea:	f1 f0       	breq	.+60     	; 0x4a28 <midi_input_callbacks+0xd2>
    49ec:	28 f4       	brcc	.+10     	; 0x49f8 <midi_input_callbacks+0xa2>
    49ee:	80 38       	cpi	r24, 0x80	; 128
    49f0:	a9 f0       	breq	.+42     	; 0x4a1c <midi_input_callbacks+0xc6>
    49f2:	80 39       	cpi	r24, 0x90	; 144
    49f4:	69 f0       	breq	.+26     	; 0x4a10 <midi_input_callbacks+0xba>
    49f6:	2f c0       	rjmp	.+94     	; 0x4a56 <midi_input_callbacks+0x100>
    49f8:	80 3e       	cpi	r24, 0xE0	; 224
    49fa:	e1 f0       	breq	.+56     	; 0x4a34 <midi_input_callbacks+0xde>
    49fc:	80 3f       	cpi	r24, 0xF0	; 240
    49fe:	01 f1       	breq	.+64     	; 0x4a40 <midi_input_callbacks+0xea>
    4a00:	80 3b       	cpi	r24, 0xB0	; 176
    4a02:	49 f5       	brne	.+82     	; 0x4a56 <midi_input_callbacks+0x100>
    4a04:	d7 01       	movw	r26, r14
    4a06:	12 96       	adiw	r26, 0x02	; 2
    4a08:	ed 91       	ld	r30, X+
    4a0a:	fc 91       	ld	r31, X
    4a0c:	13 97       	sbiw	r26, 0x03	; 3
    4a0e:	25 c0       	rjmp	.+74     	; 0x4a5a <midi_input_callbacks+0x104>
    4a10:	d7 01       	movw	r26, r14
    4a12:	14 96       	adiw	r26, 0x04	; 4
    4a14:	ed 91       	ld	r30, X+
    4a16:	fc 91       	ld	r31, X
    4a18:	15 97       	sbiw	r26, 0x05	; 5
    4a1a:	1f c0       	rjmp	.+62     	; 0x4a5a <midi_input_callbacks+0x104>
    4a1c:	d7 01       	movw	r26, r14
    4a1e:	16 96       	adiw	r26, 0x06	; 6
    4a20:	ed 91       	ld	r30, X+
    4a22:	fc 91       	ld	r31, X
    4a24:	17 97       	sbiw	r26, 0x07	; 7
    4a26:	19 c0       	rjmp	.+50     	; 0x4a5a <midi_input_callbacks+0x104>
    4a28:	d7 01       	movw	r26, r14
    4a2a:	18 96       	adiw	r26, 0x08	; 8
    4a2c:	ed 91       	ld	r30, X+
    4a2e:	fc 91       	ld	r31, X
    4a30:	19 97       	sbiw	r26, 0x09	; 9
    4a32:	13 c0       	rjmp	.+38     	; 0x4a5a <midi_input_callbacks+0x104>
    4a34:	d7 01       	movw	r26, r14
    4a36:	1a 96       	adiw	r26, 0x0a	; 10
    4a38:	ed 91       	ld	r30, X+
    4a3a:	fc 91       	ld	r31, X
    4a3c:	1b 97       	sbiw	r26, 0x0b	; 11
    4a3e:	0d c0       	rjmp	.+26     	; 0x4a5a <midi_input_callbacks+0x104>
    4a40:	42 3f       	cpi	r20, 0xF2	; 242
    4a42:	09 f0       	breq	.+2      	; 0x4a46 <midi_input_callbacks+0xf0>
    4a44:	74 c0       	rjmp	.+232    	; 0x4b2e <midi_input_callbacks+0x1d8>
    4a46:	d7 01       	movw	r26, r14
    4a48:	1c 96       	adiw	r26, 0x0c	; 12
    4a4a:	ed 91       	ld	r30, X+
    4a4c:	fc 91       	ld	r31, X
    4a4e:	1d 97       	sbiw	r26, 0x0d	; 13
    4a50:	30 97       	sbiw	r30, 0x00	; 0
    4a52:	41 f4       	brne	.+16     	; 0x4a64 <midi_input_callbacks+0x10e>
    4a54:	6c c0       	rjmp	.+216    	; 0x4b2e <midi_input_callbacks+0x1d8>
    4a56:	e0 e0       	ldi	r30, 0x00	; 0
    4a58:	f0 e0       	ldi	r31, 0x00	; 0
    4a5a:	30 97       	sbiw	r30, 0x00	; 0
    4a5c:	09 f4       	brne	.+2      	; 0x4a60 <midi_input_callbacks+0x10a>
    4a5e:	67 c0       	rjmp	.+206    	; 0x4b2e <midi_input_callbacks+0x1d8>
    4a60:	12 3f       	cpi	r17, 0xF2	; 242
    4a62:	31 f4       	brne	.+12     	; 0x4a70 <midi_input_callbacks+0x11a>
    4a64:	2a 2d       	mov	r18, r10
    4a66:	4b 2d       	mov	r20, r11
    4a68:	62 ef       	ldi	r22, 0xF2	; 242
    4a6a:	c7 01       	movw	r24, r14
    4a6c:	09 95       	icall
    4a6e:	6c c0       	rjmp	.+216    	; 0x4b48 <midi_input_callbacks+0x1f2>
    4a70:	2a 2d       	mov	r18, r10
    4a72:	4b 2d       	mov	r20, r11
    4a74:	61 2f       	mov	r22, r17
    4a76:	6f 70       	andi	r22, 0x0F	; 15
    4a78:	c7 01       	movw	r24, r14
    4a7a:	09 95       	icall
    4a7c:	65 c0       	rjmp	.+202    	; 0x4b48 <midi_input_callbacks+0x1f2>
    4a7e:	84 2f       	mov	r24, r20
    4a80:	80 7f       	andi	r24, 0xF0	; 240
    4a82:	80 3d       	cpi	r24, 0xD0	; 208
    4a84:	51 f0       	breq	.+20     	; 0x4a9a <midi_input_callbacks+0x144>
    4a86:	80 3f       	cpi	r24, 0xF0	; 240
    4a88:	71 f0       	breq	.+28     	; 0x4aa6 <midi_input_callbacks+0x150>
    4a8a:	80 3c       	cpi	r24, 0xC0	; 192
    4a8c:	01 f5       	brne	.+64     	; 0x4ace <midi_input_callbacks+0x178>
    4a8e:	d7 01       	movw	r26, r14
    4a90:	1e 96       	adiw	r26, 0x0e	; 14
    4a92:	ed 91       	ld	r30, X+
    4a94:	fc 91       	ld	r31, X
    4a96:	1f 97       	sbiw	r26, 0x0f	; 15
    4a98:	1c c0       	rjmp	.+56     	; 0x4ad2 <midi_input_callbacks+0x17c>
    4a9a:	d7 01       	movw	r26, r14
    4a9c:	50 96       	adiw	r26, 0x10	; 16
    4a9e:	ed 91       	ld	r30, X+
    4aa0:	fc 91       	ld	r31, X
    4aa2:	51 97       	sbiw	r26, 0x11	; 17
    4aa4:	16 c0       	rjmp	.+44     	; 0x4ad2 <midi_input_callbacks+0x17c>
    4aa6:	43 3f       	cpi	r20, 0xF3	; 243
    4aa8:	41 f4       	brne	.+16     	; 0x4aba <midi_input_callbacks+0x164>
    4aaa:	d7 01       	movw	r26, r14
    4aac:	52 96       	adiw	r26, 0x12	; 18
    4aae:	ed 91       	ld	r30, X+
    4ab0:	fc 91       	ld	r31, X
    4ab2:	53 97       	sbiw	r26, 0x13	; 19
    4ab4:	30 97       	sbiw	r30, 0x00	; 0
    4ab6:	99 f4       	brne	.+38     	; 0x4ade <midi_input_callbacks+0x188>
    4ab8:	3a c0       	rjmp	.+116    	; 0x4b2e <midi_input_callbacks+0x1d8>
    4aba:	41 3f       	cpi	r20, 0xF1	; 241
    4abc:	c1 f5       	brne	.+112    	; 0x4b2e <midi_input_callbacks+0x1d8>
    4abe:	d7 01       	movw	r26, r14
    4ac0:	54 96       	adiw	r26, 0x14	; 20
    4ac2:	ed 91       	ld	r30, X+
    4ac4:	fc 91       	ld	r31, X
    4ac6:	55 97       	sbiw	r26, 0x15	; 21
    4ac8:	30 97       	sbiw	r30, 0x00	; 0
    4aca:	49 f4       	brne	.+18     	; 0x4ade <midi_input_callbacks+0x188>
    4acc:	30 c0       	rjmp	.+96     	; 0x4b2e <midi_input_callbacks+0x1d8>
    4ace:	e0 e0       	ldi	r30, 0x00	; 0
    4ad0:	f0 e0       	ldi	r31, 0x00	; 0
    4ad2:	30 97       	sbiw	r30, 0x00	; 0
    4ad4:	61 f1       	breq	.+88     	; 0x4b2e <midi_input_callbacks+0x1d8>
    4ad6:	81 2f       	mov	r24, r17
    4ad8:	8d 7f       	andi	r24, 0xFD	; 253
    4ada:	81 3f       	cpi	r24, 0xF1	; 241
    4adc:	29 f4       	brne	.+10     	; 0x4ae8 <midi_input_callbacks+0x192>
    4ade:	4b 2d       	mov	r20, r11
    4ae0:	61 2f       	mov	r22, r17
    4ae2:	c7 01       	movw	r24, r14
    4ae4:	09 95       	icall
    4ae6:	30 c0       	rjmp	.+96     	; 0x4b48 <midi_input_callbacks+0x1f2>
    4ae8:	4b 2d       	mov	r20, r11
    4aea:	61 2f       	mov	r22, r17
    4aec:	6f 70       	andi	r22, 0x0F	; 15
    4aee:	c7 01       	movw	r24, r14
    4af0:	09 95       	icall
    4af2:	2a c0       	rjmp	.+84     	; 0x4b48 <midi_input_callbacks+0x1f2>
    4af4:	84 2f       	mov	r24, r20
    4af6:	0e 94 eb 23 	call	0x47d6	; 0x47d6 <midi_is_realtime>
    4afa:	88 23       	and	r24, r24
    4afc:	31 f0       	breq	.+12     	; 0x4b0a <midi_input_callbacks+0x1b4>
    4afe:	d7 01       	movw	r26, r14
    4b00:	56 96       	adiw	r26, 0x16	; 22
    4b02:	ed 91       	ld	r30, X+
    4b04:	fc 91       	ld	r31, X
    4b06:	57 97       	sbiw	r26, 0x17	; 23
    4b08:	07 c0       	rjmp	.+14     	; 0x4b18 <midi_input_callbacks+0x1c2>
    4b0a:	16 3f       	cpi	r17, 0xF6	; 246
    4b0c:	81 f4       	brne	.+32     	; 0x4b2e <midi_input_callbacks+0x1d8>
    4b0e:	d7 01       	movw	r26, r14
    4b10:	58 96       	adiw	r26, 0x18	; 24
    4b12:	ed 91       	ld	r30, X+
    4b14:	fc 91       	ld	r31, X
    4b16:	59 97       	sbiw	r26, 0x19	; 25
    4b18:	30 97       	sbiw	r30, 0x00	; 0
    4b1a:	49 f0       	breq	.+18     	; 0x4b2e <midi_input_callbacks+0x1d8>
    4b1c:	61 2f       	mov	r22, r17
    4b1e:	c7 01       	movw	r24, r14
    4b20:	09 95       	icall
    4b22:	12 c0       	rjmp	.+36     	; 0x4b48 <midi_input_callbacks+0x1f2>
    4b24:	64 30       	cpi	r22, 0x04	; 4
    4b26:	71 05       	cpc	r23, r1
    4b28:	10 f0       	brcs	.+4      	; 0x4b2e <midi_input_callbacks+0x1d8>
    4b2a:	c1 2c       	mov	r12, r1
    4b2c:	d1 2c       	mov	r13, r1
    4b2e:	d7 01       	movw	r26, r14
    4b30:	5c 96       	adiw	r26, 0x1c	; 28
    4b32:	ed 91       	ld	r30, X+
    4b34:	fc 91       	ld	r31, X
    4b36:	5d 97       	sbiw	r26, 0x1d	; 29
    4b38:	30 97       	sbiw	r30, 0x00	; 0
    4b3a:	31 f0       	breq	.+12     	; 0x4b48 <midi_input_callbacks+0x1f2>
    4b3c:	0a 2d       	mov	r16, r10
    4b3e:	2b 2d       	mov	r18, r11
    4b40:	41 2f       	mov	r20, r17
    4b42:	b6 01       	movw	r22, r12
    4b44:	c7 01       	movw	r24, r14
    4b46:	09 95       	icall
    4b48:	d7 01       	movw	r26, r14
    4b4a:	5e 96       	adiw	r26, 0x1e	; 30
    4b4c:	ed 91       	ld	r30, X+
    4b4e:	fc 91       	ld	r31, X
    4b50:	5f 97       	sbiw	r26, 0x1f	; 31
    4b52:	30 97       	sbiw	r30, 0x00	; 0
    4b54:	31 f0       	breq	.+12     	; 0x4b62 <midi_input_callbacks+0x20c>
    4b56:	0a 2d       	mov	r16, r10
    4b58:	2b 2d       	mov	r18, r11
    4b5a:	41 2f       	mov	r20, r17
    4b5c:	b6 01       	movw	r22, r12
    4b5e:	c7 01       	movw	r24, r14
    4b60:	09 95       	icall
    4b62:	0f 90       	pop	r0
    4b64:	0f 90       	pop	r0
    4b66:	0f 90       	pop	r0
    4b68:	df 91       	pop	r29
    4b6a:	cf 91       	pop	r28
    4b6c:	1f 91       	pop	r17
    4b6e:	0f 91       	pop	r16
    4b70:	ff 90       	pop	r15
    4b72:	ef 90       	pop	r14
    4b74:	df 90       	pop	r13
    4b76:	cf 90       	pop	r12
    4b78:	bf 90       	pop	r11
    4b7a:	af 90       	pop	r10
    4b7c:	08 95       	ret

00004b7e <midi_process_byte>:
    4b7e:	ff 92       	push	r15
    4b80:	0f 93       	push	r16
    4b82:	1f 93       	push	r17
    4b84:	cf 93       	push	r28
    4b86:	df 93       	push	r29
    4b88:	ec 01       	movw	r28, r24
    4b8a:	16 2f       	mov	r17, r22
    4b8c:	86 2f       	mov	r24, r22
    4b8e:	0e 94 eb 23 	call	0x47d6	; 0x47d6 <midi_is_realtime>
    4b92:	88 23       	and	r24, r24
    4b94:	69 f0       	breq	.+26     	; 0x4bb0 <midi_process_byte+0x32>
    4b96:	fd a0       	ldd	r15, Y+37	; 0x25
    4b98:	81 e0       	ldi	r24, 0x01	; 1
    4b9a:	8d a3       	std	Y+37, r24	; 0x25
    4b9c:	00 e0       	ldi	r16, 0x00	; 0
    4b9e:	20 e0       	ldi	r18, 0x00	; 0
    4ba0:	41 2f       	mov	r20, r17
    4ba2:	61 e0       	ldi	r22, 0x01	; 1
    4ba4:	70 e0       	ldi	r23, 0x00	; 0
    4ba6:	ce 01       	movw	r24, r28
    4ba8:	0e 94 ab 24 	call	0x4956	; 0x4956 <midi_input_callbacks>
    4bac:	fd a2       	std	Y+37, r15	; 0x25
    4bae:	a4 c0       	rjmp	.+328    	; 0x4cf8 <midi_process_byte+0x17a>
    4bb0:	81 2f       	mov	r24, r17
    4bb2:	0e 94 e7 23 	call	0x47ce	; 0x47ce <midi_is_statusbyte>
    4bb6:	88 23       	and	r24, r24
    4bb8:	09 f4       	brne	.+2      	; 0x4bbc <midi_process_byte+0x3e>
    4bba:	5d c0       	rjmp	.+186    	; 0x4c76 <midi_process_byte+0xf8>
    4bbc:	8d a1       	ldd	r24, Y+37	; 0x25
    4bbe:	84 30       	cpi	r24, 0x04	; 4
    4bc0:	29 f0       	breq	.+10     	; 0x4bcc <midi_process_byte+0x4e>
    4bc2:	1a a3       	std	Y+34, r17	; 0x22
    4bc4:	81 e0       	ldi	r24, 0x01	; 1
    4bc6:	90 e0       	ldi	r25, 0x00	; 0
    4bc8:	9f a3       	std	Y+39, r25	; 0x27
    4bca:	8e a3       	std	Y+38, r24	; 0x26
    4bcc:	81 2f       	mov	r24, r17
    4bce:	0e 94 f1 23 	call	0x47e2	; 0x47e2 <midi_packet_length>
    4bd2:	81 30       	cpi	r24, 0x01	; 1
    4bd4:	31 f0       	breq	.+12     	; 0x4be2 <midi_process_byte+0x64>
    4bd6:	b8 f0       	brcs	.+46     	; 0x4c06 <midi_process_byte+0x88>
    4bd8:	82 30       	cpi	r24, 0x02	; 2
    4bda:	79 f0       	breq	.+30     	; 0x4bfa <midi_process_byte+0x7c>
    4bdc:	83 30       	cpi	r24, 0x03	; 3
    4bde:	81 f0       	breq	.+32     	; 0x4c00 <midi_process_byte+0x82>
    4be0:	46 c0       	rjmp	.+140    	; 0x4c6e <midi_process_byte+0xf0>
    4be2:	81 e0       	ldi	r24, 0x01	; 1
    4be4:	8d a3       	std	Y+37, r24	; 0x25
    4be6:	00 e0       	ldi	r16, 0x00	; 0
    4be8:	20 e0       	ldi	r18, 0x00	; 0
    4bea:	41 2f       	mov	r20, r17
    4bec:	61 e0       	ldi	r22, 0x01	; 1
    4bee:	70 e0       	ldi	r23, 0x00	; 0
    4bf0:	ce 01       	movw	r24, r28
    4bf2:	0e 94 ab 24 	call	0x4956	; 0x4956 <midi_input_callbacks>
    4bf6:	1d a2       	std	Y+37, r1	; 0x25
    4bf8:	7f c0       	rjmp	.+254    	; 0x4cf8 <midi_process_byte+0x17a>
    4bfa:	82 e0       	ldi	r24, 0x02	; 2
    4bfc:	8d a3       	std	Y+37, r24	; 0x25
    4bfe:	7c c0       	rjmp	.+248    	; 0x4cf8 <midi_process_byte+0x17a>
    4c00:	83 e0       	ldi	r24, 0x03	; 3
    4c02:	8d a3       	std	Y+37, r24	; 0x25
    4c04:	79 c0       	rjmp	.+242    	; 0x4cf8 <midi_process_byte+0x17a>
    4c06:	10 3f       	cpi	r17, 0xF0	; 240
    4c08:	19 f0       	breq	.+6      	; 0x4c10 <midi_process_byte+0x92>
    4c0a:	17 3f       	cpi	r17, 0xF7	; 247
    4c0c:	51 f0       	breq	.+20     	; 0x4c22 <midi_process_byte+0xa4>
    4c0e:	2b c0       	rjmp	.+86     	; 0x4c66 <midi_process_byte+0xe8>
    4c10:	84 e0       	ldi	r24, 0x04	; 4
    4c12:	8d a3       	std	Y+37, r24	; 0x25
    4c14:	80 ef       	ldi	r24, 0xF0	; 240
    4c16:	8a a3       	std	Y+34, r24	; 0x22
    4c18:	81 e0       	ldi	r24, 0x01	; 1
    4c1a:	90 e0       	ldi	r25, 0x00	; 0
    4c1c:	9f a3       	std	Y+39, r25	; 0x27
    4c1e:	8e a3       	std	Y+38, r24	; 0x26
    4c20:	6b c0       	rjmp	.+214    	; 0x4cf8 <midi_process_byte+0x17a>
    4c22:	4e a1       	ldd	r20, Y+38	; 0x26
    4c24:	5f a1       	ldd	r21, Y+39	; 0x27
    4c26:	9a 01       	movw	r18, r20
    4c28:	ab ea       	ldi	r26, 0xAB	; 171
    4c2a:	ba ea       	ldi	r27, 0xAA	; 170
    4c2c:	0e 94 f2 26 	call	0x4de4	; 0x4de4 <__umulhisi3>
    4c30:	96 95       	lsr	r25
    4c32:	87 95       	ror	r24
    4c34:	9c 01       	movw	r18, r24
    4c36:	22 0f       	add	r18, r18
    4c38:	33 1f       	adc	r19, r19
    4c3a:	82 0f       	add	r24, r18
    4c3c:	93 1f       	adc	r25, r19
    4c3e:	fa 01       	movw	r30, r20
    4c40:	e8 1b       	sub	r30, r24
    4c42:	f9 0b       	sbc	r31, r25
    4c44:	ec 0f       	add	r30, r28
    4c46:	fd 1f       	adc	r31, r29
    4c48:	87 ef       	ldi	r24, 0xF7	; 247
    4c4a:	82 a3       	std	Z+34, r24	; 0x22
    4c4c:	ba 01       	movw	r22, r20
    4c4e:	6f 5f       	subi	r22, 0xFF	; 255
    4c50:	7f 4f       	sbci	r23, 0xFF	; 255
    4c52:	7f a3       	std	Y+39, r23	; 0x27
    4c54:	6e a3       	std	Y+38, r22	; 0x26
    4c56:	0c a1       	ldd	r16, Y+36	; 0x24
    4c58:	2b a1       	ldd	r18, Y+35	; 0x23
    4c5a:	4a a1       	ldd	r20, Y+34	; 0x22
    4c5c:	ce 01       	movw	r24, r28
    4c5e:	0e 94 ab 24 	call	0x4956	; 0x4956 <midi_input_callbacks>
    4c62:	1d a2       	std	Y+37, r1	; 0x25
    4c64:	49 c0       	rjmp	.+146    	; 0x4cf8 <midi_process_byte+0x17a>
    4c66:	1d a2       	std	Y+37, r1	; 0x25
    4c68:	1f a2       	std	Y+39, r1	; 0x27
    4c6a:	1e a2       	std	Y+38, r1	; 0x26
    4c6c:	45 c0       	rjmp	.+138    	; 0x4cf8 <midi_process_byte+0x17a>
    4c6e:	1d a2       	std	Y+37, r1	; 0x25
    4c70:	1f a2       	std	Y+39, r1	; 0x27
    4c72:	1e a2       	std	Y+38, r1	; 0x26
    4c74:	41 c0       	rjmp	.+130    	; 0x4cf8 <midi_process_byte+0x17a>
    4c76:	ed a1       	ldd	r30, Y+37	; 0x25
    4c78:	ee 23       	and	r30, r30
    4c7a:	f1 f1       	breq	.+124    	; 0x4cf8 <midi_process_byte+0x17a>
    4c7c:	4e a1       	ldd	r20, Y+38	; 0x26
    4c7e:	5f a1       	ldd	r21, Y+39	; 0x27
    4c80:	9a 01       	movw	r18, r20
    4c82:	ab ea       	ldi	r26, 0xAB	; 171
    4c84:	ba ea       	ldi	r27, 0xAA	; 170
    4c86:	0e 94 f2 26 	call	0x4de4	; 0x4de4 <__umulhisi3>
    4c8a:	96 95       	lsr	r25
    4c8c:	87 95       	ror	r24
    4c8e:	9c 01       	movw	r18, r24
    4c90:	22 0f       	add	r18, r18
    4c92:	33 1f       	adc	r19, r19
    4c94:	82 0f       	add	r24, r18
    4c96:	93 1f       	adc	r25, r19
    4c98:	9a 01       	movw	r18, r20
    4c9a:	28 1b       	sub	r18, r24
    4c9c:	39 0b       	sbc	r19, r25
    4c9e:	de 01       	movw	r26, r28
    4ca0:	a2 0f       	add	r26, r18
    4ca2:	b3 1f       	adc	r27, r19
    4ca4:	92 96       	adiw	r26, 0x22	; 34
    4ca6:	1c 93       	st	X, r17
    4ca8:	ba 01       	movw	r22, r20
    4caa:	6f 5f       	subi	r22, 0xFF	; 255
    4cac:	7f 4f       	sbci	r23, 0xFF	; 255
    4cae:	7f a3       	std	Y+39, r23	; 0x27
    4cb0:	6e a3       	std	Y+38, r22	; 0x26
    4cb2:	21 30       	cpi	r18, 0x01	; 1
    4cb4:	31 05       	cpc	r19, r1
    4cb6:	89 f0       	breq	.+34     	; 0x4cda <midi_process_byte+0x15c>
    4cb8:	22 30       	cpi	r18, 0x02	; 2
    4cba:	31 05       	cpc	r19, r1
    4cbc:	e9 f4       	brne	.+58     	; 0x4cf8 <midi_process_byte+0x17a>
    4cbe:	0c a1       	ldd	r16, Y+36	; 0x24
    4cc0:	2b a1       	ldd	r18, Y+35	; 0x23
    4cc2:	4a a1       	ldd	r20, Y+34	; 0x22
    4cc4:	ce 01       	movw	r24, r28
    4cc6:	0e 94 ab 24 	call	0x4956	; 0x4956 <midi_input_callbacks>
    4cca:	8d a1       	ldd	r24, Y+37	; 0x25
    4ccc:	84 30       	cpi	r24, 0x04	; 4
    4cce:	a1 f0       	breq	.+40     	; 0x4cf8 <midi_process_byte+0x17a>
    4cd0:	81 e0       	ldi	r24, 0x01	; 1
    4cd2:	90 e0       	ldi	r25, 0x00	; 0
    4cd4:	9f a3       	std	Y+39, r25	; 0x27
    4cd6:	8e a3       	std	Y+38, r24	; 0x26
    4cd8:	0f c0       	rjmp	.+30     	; 0x4cf8 <midi_process_byte+0x17a>
    4cda:	e2 30       	cpi	r30, 0x02	; 2
    4cdc:	69 f4       	brne	.+26     	; 0x4cf8 <midi_process_byte+0x17a>
    4cde:	00 e0       	ldi	r16, 0x00	; 0
    4ce0:	2b a1       	ldd	r18, Y+35	; 0x23
    4ce2:	4a a1       	ldd	r20, Y+34	; 0x22
    4ce4:	ce 01       	movw	r24, r28
    4ce6:	0e 94 ab 24 	call	0x4956	; 0x4956 <midi_input_callbacks>
    4cea:	8d a1       	ldd	r24, Y+37	; 0x25
    4cec:	84 30       	cpi	r24, 0x04	; 4
    4cee:	21 f0       	breq	.+8      	; 0x4cf8 <midi_process_byte+0x17a>
    4cf0:	81 e0       	ldi	r24, 0x01	; 1
    4cf2:	90 e0       	ldi	r25, 0x00	; 0
    4cf4:	9f a3       	std	Y+39, r25	; 0x27
    4cf6:	8e a3       	std	Y+38, r24	; 0x26
    4cf8:	df 91       	pop	r29
    4cfa:	cf 91       	pop	r28
    4cfc:	1f 91       	pop	r17
    4cfe:	0f 91       	pop	r16
    4d00:	ff 90       	pop	r15
    4d02:	08 95       	ret

00004d04 <midi_device_process>:
    4d04:	cf 92       	push	r12
    4d06:	df 92       	push	r13
    4d08:	ef 92       	push	r14
    4d0a:	ff 92       	push	r15
    4d0c:	0f 93       	push	r16
    4d0e:	1f 93       	push	r17
    4d10:	cf 93       	push	r28
    4d12:	df 93       	push	r29
    4d14:	6c 01       	movw	r12, r24
    4d16:	dc 01       	movw	r26, r24
    4d18:	90 96       	adiw	r26, 0x20	; 32
    4d1a:	ed 91       	ld	r30, X+
    4d1c:	fc 91       	ld	r31, X
    4d1e:	91 97       	sbiw	r26, 0x21	; 33
    4d20:	30 97       	sbiw	r30, 0x00	; 0
    4d22:	09 f0       	breq	.+2      	; 0x4d26 <midi_device_process+0x22>
    4d24:	09 95       	icall
    4d26:	86 01       	movw	r16, r12
    4d28:	08 51       	subi	r16, 0x18	; 24
    4d2a:	1f 4f       	sbci	r17, 0xFF	; 255
    4d2c:	c8 01       	movw	r24, r16
    4d2e:	0e 94 9f 23 	call	0x473e	; 0x473e <bytequeue_length>
    4d32:	e8 2e       	mov	r14, r24
    4d34:	f1 2c       	mov	r15, r1
    4d36:	e1 14       	cp	r14, r1
    4d38:	f1 04       	cpc	r15, r1
    4d3a:	91 f0       	breq	.+36     	; 0x4d60 <midi_device_process+0x5c>
    4d3c:	c0 e0       	ldi	r28, 0x00	; 0
    4d3e:	d0 e0       	ldi	r29, 0x00	; 0
    4d40:	60 e0       	ldi	r22, 0x00	; 0
    4d42:	c8 01       	movw	r24, r16
    4d44:	0e 94 b5 23 	call	0x476a	; 0x476a <bytequeue_get>
    4d48:	68 2f       	mov	r22, r24
    4d4a:	c6 01       	movw	r24, r12
    4d4c:	0e 94 bf 25 	call	0x4b7e	; 0x4b7e <midi_process_byte>
    4d50:	61 e0       	ldi	r22, 0x01	; 1
    4d52:	c8 01       	movw	r24, r16
    4d54:	0e 94 c7 23 	call	0x478e	; 0x478e <bytequeue_remove>
    4d58:	21 96       	adiw	r28, 0x01	; 1
    4d5a:	ce 15       	cp	r28, r14
    4d5c:	df 05       	cpc	r29, r15
    4d5e:	81 f7       	brne	.-32     	; 0x4d40 <midi_device_process+0x3c>
    4d60:	df 91       	pop	r29
    4d62:	cf 91       	pop	r28
    4d64:	1f 91       	pop	r17
    4d66:	0f 91       	pop	r16
    4d68:	ff 90       	pop	r15
    4d6a:	ef 90       	pop	r14
    4d6c:	df 90       	pop	r13
    4d6e:	cf 90       	pop	r12
    4d70:	08 95       	ret

00004d72 <__divmodhi4>:
    4d72:	97 fb       	bst	r25, 7
    4d74:	07 2e       	mov	r0, r23
    4d76:	16 f4       	brtc	.+4      	; 0x4d7c <__divmodhi4+0xa>
    4d78:	00 94       	com	r0
    4d7a:	07 d0       	rcall	.+14     	; 0x4d8a <__divmodhi4_neg1>
    4d7c:	77 fd       	sbrc	r23, 7
    4d7e:	09 d0       	rcall	.+18     	; 0x4d92 <__divmodhi4_neg2>
    4d80:	0e 94 01 27 	call	0x4e02	; 0x4e02 <__udivmodhi4>
    4d84:	07 fc       	sbrc	r0, 7
    4d86:	05 d0       	rcall	.+10     	; 0x4d92 <__divmodhi4_neg2>
    4d88:	3e f4       	brtc	.+14     	; 0x4d98 <__divmodhi4_exit>

00004d8a <__divmodhi4_neg1>:
    4d8a:	90 95       	com	r25
    4d8c:	81 95       	neg	r24
    4d8e:	9f 4f       	sbci	r25, 0xFF	; 255
    4d90:	08 95       	ret

00004d92 <__divmodhi4_neg2>:
    4d92:	70 95       	com	r23
    4d94:	61 95       	neg	r22
    4d96:	7f 4f       	sbci	r23, 0xFF	; 255

00004d98 <__divmodhi4_exit>:
    4d98:	08 95       	ret

00004d9a <__divmodsi4>:
    4d9a:	05 2e       	mov	r0, r21
    4d9c:	97 fb       	bst	r25, 7
    4d9e:	1e f4       	brtc	.+6      	; 0x4da6 <__divmodsi4+0xc>
    4da0:	00 94       	com	r0
    4da2:	0e 94 e4 26 	call	0x4dc8	; 0x4dc8 <__negsi2>
    4da6:	57 fd       	sbrc	r21, 7
    4da8:	07 d0       	rcall	.+14     	; 0x4db8 <__divmodsi4_neg2>
    4daa:	0e 94 15 27 	call	0x4e2a	; 0x4e2a <__udivmodsi4>
    4dae:	07 fc       	sbrc	r0, 7
    4db0:	03 d0       	rcall	.+6      	; 0x4db8 <__divmodsi4_neg2>
    4db2:	4e f4       	brtc	.+18     	; 0x4dc6 <__divmodsi4_exit>
    4db4:	0c 94 e4 26 	jmp	0x4dc8	; 0x4dc8 <__negsi2>

00004db8 <__divmodsi4_neg2>:
    4db8:	50 95       	com	r21
    4dba:	40 95       	com	r20
    4dbc:	30 95       	com	r19
    4dbe:	21 95       	neg	r18
    4dc0:	3f 4f       	sbci	r19, 0xFF	; 255
    4dc2:	4f 4f       	sbci	r20, 0xFF	; 255
    4dc4:	5f 4f       	sbci	r21, 0xFF	; 255

00004dc6 <__divmodsi4_exit>:
    4dc6:	08 95       	ret

00004dc8 <__negsi2>:
    4dc8:	90 95       	com	r25
    4dca:	80 95       	com	r24
    4dcc:	70 95       	com	r23
    4dce:	61 95       	neg	r22
    4dd0:	7f 4f       	sbci	r23, 0xFF	; 255
    4dd2:	8f 4f       	sbci	r24, 0xFF	; 255
    4dd4:	9f 4f       	sbci	r25, 0xFF	; 255
    4dd6:	08 95       	ret

00004dd8 <__tablejump2__>:
    4dd8:	ee 0f       	add	r30, r30
    4dda:	ff 1f       	adc	r31, r31
    4ddc:	05 90       	lpm	r0, Z+
    4dde:	f4 91       	lpm	r31, Z
    4de0:	e0 2d       	mov	r30, r0
    4de2:	09 94       	ijmp

00004de4 <__umulhisi3>:
    4de4:	a2 9f       	mul	r26, r18
    4de6:	b0 01       	movw	r22, r0
    4de8:	b3 9f       	mul	r27, r19
    4dea:	c0 01       	movw	r24, r0
    4dec:	a3 9f       	mul	r26, r19
    4dee:	70 0d       	add	r23, r0
    4df0:	81 1d       	adc	r24, r1
    4df2:	11 24       	eor	r1, r1
    4df4:	91 1d       	adc	r25, r1
    4df6:	b2 9f       	mul	r27, r18
    4df8:	70 0d       	add	r23, r0
    4dfa:	81 1d       	adc	r24, r1
    4dfc:	11 24       	eor	r1, r1
    4dfe:	91 1d       	adc	r25, r1
    4e00:	08 95       	ret

00004e02 <__udivmodhi4>:
    4e02:	aa 1b       	sub	r26, r26
    4e04:	bb 1b       	sub	r27, r27
    4e06:	51 e1       	ldi	r21, 0x11	; 17
    4e08:	07 c0       	rjmp	.+14     	; 0x4e18 <__udivmodhi4_ep>

00004e0a <__udivmodhi4_loop>:
    4e0a:	aa 1f       	adc	r26, r26
    4e0c:	bb 1f       	adc	r27, r27
    4e0e:	a6 17       	cp	r26, r22
    4e10:	b7 07       	cpc	r27, r23
    4e12:	10 f0       	brcs	.+4      	; 0x4e18 <__udivmodhi4_ep>
    4e14:	a6 1b       	sub	r26, r22
    4e16:	b7 0b       	sbc	r27, r23

00004e18 <__udivmodhi4_ep>:
    4e18:	88 1f       	adc	r24, r24
    4e1a:	99 1f       	adc	r25, r25
    4e1c:	5a 95       	dec	r21
    4e1e:	a9 f7       	brne	.-22     	; 0x4e0a <__udivmodhi4_loop>
    4e20:	80 95       	com	r24
    4e22:	90 95       	com	r25
    4e24:	bc 01       	movw	r22, r24
    4e26:	cd 01       	movw	r24, r26
    4e28:	08 95       	ret

00004e2a <__udivmodsi4>:
    4e2a:	a1 e2       	ldi	r26, 0x21	; 33
    4e2c:	1a 2e       	mov	r1, r26
    4e2e:	aa 1b       	sub	r26, r26
    4e30:	bb 1b       	sub	r27, r27
    4e32:	fd 01       	movw	r30, r26
    4e34:	0d c0       	rjmp	.+26     	; 0x4e50 <__udivmodsi4_ep>

00004e36 <__udivmodsi4_loop>:
    4e36:	aa 1f       	adc	r26, r26
    4e38:	bb 1f       	adc	r27, r27
    4e3a:	ee 1f       	adc	r30, r30
    4e3c:	ff 1f       	adc	r31, r31
    4e3e:	a2 17       	cp	r26, r18
    4e40:	b3 07       	cpc	r27, r19
    4e42:	e4 07       	cpc	r30, r20
    4e44:	f5 07       	cpc	r31, r21
    4e46:	20 f0       	brcs	.+8      	; 0x4e50 <__udivmodsi4_ep>
    4e48:	a2 1b       	sub	r26, r18
    4e4a:	b3 0b       	sbc	r27, r19
    4e4c:	e4 0b       	sbc	r30, r20
    4e4e:	f5 0b       	sbc	r31, r21

00004e50 <__udivmodsi4_ep>:
    4e50:	66 1f       	adc	r22, r22
    4e52:	77 1f       	adc	r23, r23
    4e54:	88 1f       	adc	r24, r24
    4e56:	99 1f       	adc	r25, r25
    4e58:	1a 94       	dec	r1
    4e5a:	69 f7       	brne	.-38     	; 0x4e36 <__udivmodsi4_loop>
    4e5c:	60 95       	com	r22
    4e5e:	70 95       	com	r23
    4e60:	80 95       	com	r24
    4e62:	90 95       	com	r25
    4e64:	9b 01       	movw	r18, r22
    4e66:	ac 01       	movw	r20, r24
    4e68:	bd 01       	movw	r22, r26
    4e6a:	cf 01       	movw	r24, r30
    4e6c:	08 95       	ret

00004e6e <_exit>:
    4e6e:	f8 94       	cli

00004e70 <__stop_program>:
    4e70:	ff cf       	rjmp	.-2      	; 0x4e70 <__stop_program>
