
TR-808-firmware.elf:     file format elf32-avr

Sections:
Idx Name          Size      VMA       LMA       File off  Algn
  0 .data         00000130  00800100  00004b66  00004bfa  2**0
                  CONTENTS, ALLOC, LOAD, DATA
  1 .text         00004b66  00000000  00000000  00000094  2**1
                  CONTENTS, ALLOC, LOAD, READONLY, CODE
  2 .bss          000003a8  00800230  00800230  00004d2a  2**0
                  ALLOC
  3 .comment      00000030  00000000  00000000  00004d2a  2**0
                  CONTENTS, READONLY
  4 .note.gnu.avr.deviceinfo 00000040  00000000  00000000  00004d5c  2**2
                  CONTENTS, READONLY

Disassembly of section .text:

00000000 <__vectors>:
       0:	0c 94 2a 01 	jmp	0x254	; 0x254 <__ctors_end>
       4:	0c 94 b0 05 	jmp	0xb60	; 0xb60 <__vector_1>
       8:	0c 94 62 05 	jmp	0xac4	; 0xac4 <__vector_2>
       c:	0c 94 47 01 	jmp	0x28e	; 0x28e <__bad_interrupt>
      10:	0c 94 47 01 	jmp	0x28e	; 0x28e <__bad_interrupt>
      14:	0c 94 da 05 	jmp	0xbb4	; 0xbb4 <__vector_5>
      18:	0c 94 47 01 	jmp	0x28e	; 0x28e <__bad_interrupt>
      1c:	0c 94 74 06 	jmp	0xce8	; 0xce8 <__vector_7>
      20:	0c 94 47 01 	jmp	0x28e	; 0x28e <__bad_interrupt>
      24:	0c 94 47 01 	jmp	0x28e	; 0x28e <__bad_interrupt>
      28:	0c 94 47 01 	jmp	0x28e	; 0x28e <__bad_interrupt>
      2c:	0c 94 9d 06 	jmp	0xd3a	; 0xd3a <__vector_11>
      30:	0c 94 47 01 	jmp	0x28e	; 0x28e <__bad_interrupt>
      34:	0c 94 47 01 	jmp	0x28e	; 0x28e <__bad_interrupt>
      38:	0c 94 0d 06 	jmp	0xc1a	; 0xc1a <__vector_14>
      3c:	0c 94 47 01 	jmp	0x28e	; 0x28e <__bad_interrupt>
      40:	0c 94 47 01 	jmp	0x28e	; 0x28e <__bad_interrupt>
      44:	0c 94 47 01 	jmp	0x28e	; 0x28e <__bad_interrupt>
      48:	0c 94 1f 07 	jmp	0xe3e	; 0xe3e <__vector_18>
      4c:	0c 94 54 07 	jmp	0xea8	; 0xea8 <__vector_19>
      50:	0c 94 47 01 	jmp	0x28e	; 0x28e <__bad_interrupt>
      54:	0c 94 47 01 	jmp	0x28e	; 0x28e <__bad_interrupt>
      58:	0c 94 47 01 	jmp	0x28e	; 0x28e <__bad_interrupt>
      5c:	0c 94 47 01 	jmp	0x28e	; 0x28e <__bad_interrupt>
      60:	0c 94 7b 20 	jmp	0x40f6	; 0x40f6 <__vector_24>
      64:	0c 94 47 01 	jmp	0x28e	; 0x28e <__bad_interrupt>
      68:	0c 94 47 01 	jmp	0x28e	; 0x28e <__bad_interrupt>
      6c:	0c 94 47 01 	jmp	0x28e	; 0x28e <__bad_interrupt>
      70:	0c 94 47 01 	jmp	0x28e	; 0x28e <__bad_interrupt>
      74:	0c 94 47 01 	jmp	0x28e	; 0x28e <__bad_interrupt>
      78:	0c 94 47 01 	jmp	0x28e	; 0x28e <__bad_interrupt>
      7c:	0c 94 47 01 	jmp	0x28e	; 0x28e <__bad_interrupt>
      80:	0c 94 47 01 	jmp	0x28e	; 0x28e <__bad_interrupt>
      84:	0c 94 89 06 	jmp	0xd12	; 0xd12 <__vector_33>
      88:	0c 94 47 01 	jmp	0x28e	; 0x28e <__bad_interrupt>
      8c:	0c 94 47 01 	jmp	0x28e	; 0x28e <__bad_interrupt>
      90:	0c 94 47 01 	jmp	0x28e	; 0x28e <__bad_interrupt>
      94:	0c 94 47 01 	jmp	0x28e	; 0x28e <__bad_interrupt>
      98:	0c 94 47 01 	jmp	0x28e	; 0x28e <__bad_interrupt>
      9c:	0c 94 47 01 	jmp	0x28e	; 0x28e <__bad_interrupt>
      a0:	0c 94 47 01 	jmp	0x28e	; 0x28e <__bad_interrupt>
      a4:	0c 94 47 01 	jmp	0x28e	; 0x28e <__bad_interrupt>
      a8:	0c 94 93 06 	jmp	0xd26	; 0xd26 <__vector_42>
      ac:	0c 94 47 01 	jmp	0x28e	; 0x28e <__bad_interrupt>
      b0:	0c 94 47 01 	jmp	0x28e	; 0x28e <__bad_interrupt>
      b4:	9f 20       	and	r9, r15
      b6:	c0 21       	and	r28, r0
      b8:	c0 21       	and	r28, r0
      ba:	c0 21       	and	r28, r0
      bc:	c0 21       	and	r28, r0
      be:	c0 21       	and	r28, r0
      c0:	c0 21       	and	r28, r0
      c2:	c0 21       	and	r28, r0
      c4:	9f 20       	and	r9, r15
      c6:	c0 21       	and	r28, r0
      c8:	c0 21       	and	r28, r0
      ca:	c0 21       	and	r28, r0
      cc:	c0 21       	and	r28, r0
      ce:	c0 21       	and	r28, r0
      d0:	c0 21       	and	r28, r0
      d2:	c0 21       	and	r28, r0
      d4:	be 20       	and	r11, r14
      d6:	c0 21       	and	r28, r0
      d8:	c0 21       	and	r28, r0
      da:	c0 21       	and	r28, r0
      dc:	c0 21       	and	r28, r0
      de:	c0 21       	and	r28, r0
      e0:	c0 21       	and	r28, r0
      e2:	c0 21       	and	r28, r0
      e4:	b7 21       	and	r27, r7
      e6:	c0 21       	and	r28, r0
      e8:	c0 21       	and	r28, r0
      ea:	c0 21       	and	r28, r0
      ec:	c0 21       	and	r28, r0
      ee:	c0 21       	and	r28, r0
      f0:	c0 21       	and	r28, r0
      f2:	c0 21       	and	r28, r0
      f4:	be 20       	and	r11, r14
      f6:	c0 21       	and	r28, r0
      f8:	c0 21       	and	r28, r0
      fa:	c0 21       	and	r28, r0
      fc:	c0 21       	and	r28, r0
      fe:	c0 21       	and	r28, r0
     100:	c0 21       	and	r28, r0
     102:	c0 21       	and	r28, r0
     104:	b7 21       	and	r27, r7
     106:	c0 21       	and	r28, r0
     108:	c0 21       	and	r28, r0
     10a:	c0 21       	and	r28, r0
     10c:	c0 21       	and	r28, r0
     10e:	c0 21       	and	r28, r0
     110:	c0 21       	and	r28, r0
     112:	c0 21       	and	r28, r0
     114:	c0 21       	and	r28, r0
     116:	c0 21       	and	r28, r0
     118:	c0 21       	and	r28, r0
     11a:	c0 21       	and	r28, r0
     11c:	c0 21       	and	r28, r0
     11e:	c0 21       	and	r28, r0
     120:	c0 21       	and	r28, r0
     122:	c0 21       	and	r28, r0
     124:	15 21       	and	r17, r5
     126:	c0 21       	and	r28, r0
     128:	c0 21       	and	r28, r0
     12a:	c0 21       	and	r28, r0
     12c:	c0 21       	and	r28, r0
     12e:	c0 21       	and	r28, r0
     130:	c0 21       	and	r28, r0
     132:	c0 21       	and	r28, r0
     134:	b7 21       	and	r27, r7
     136:	c0 21       	and	r28, r0
     138:	c0 21       	and	r28, r0
     13a:	c0 21       	and	r28, r0
     13c:	c0 21       	and	r28, r0
     13e:	c0 21       	and	r28, r0
     140:	c0 21       	and	r28, r0
     142:	c0 21       	and	r28, r0
     144:	00 21       	and	r16, r0
     146:	c0 21       	and	r28, r0
     148:	c0 21       	and	r28, r0
     14a:	c0 21       	and	r28, r0
     14c:	c0 21       	and	r28, r0
     14e:	c0 21       	and	r28, r0
     150:	c0 21       	and	r28, r0
     152:	c0 21       	and	r28, r0
     154:	29 21       	and	r18, r9
     156:	c0 21       	and	r28, r0
     158:	c0 21       	and	r28, r0
     15a:	c0 21       	and	r28, r0
     15c:	c0 21       	and	r28, r0
     15e:	c0 21       	and	r28, r0
     160:	c0 21       	and	r28, r0
     162:	c0 21       	and	r28, r0
     164:	51 21       	and	r21, r1
     166:	c0 21       	and	r28, r0
     168:	c0 21       	and	r28, r0
     16a:	c0 21       	and	r28, r0
     16c:	c0 21       	and	r28, r0
     16e:	c0 21       	and	r28, r0
     170:	c0 21       	and	r28, r0
     172:	c0 21       	and	r28, r0
     174:	51 21       	and	r21, r1
     176:	c0 21       	and	r28, r0
     178:	c0 21       	and	r28, r0
     17a:	c0 21       	and	r28, r0
     17c:	c0 21       	and	r28, r0
     17e:	c0 21       	and	r28, r0
     180:	c0 21       	and	r28, r0
     182:	c0 21       	and	r28, r0
     184:	51 21       	and	r21, r1
     186:	c0 21       	and	r28, r0
     188:	c0 21       	and	r28, r0
     18a:	c0 21       	and	r28, r0
     18c:	c0 21       	and	r28, r0
     18e:	c0 21       	and	r28, r0
     190:	c0 21       	and	r28, r0
     192:	c0 21       	and	r28, r0
     194:	51 21       	and	r21, r1
     196:	c0 21       	and	r28, r0
     198:	c0 21       	and	r28, r0
     19a:	c0 21       	and	r28, r0
     19c:	c0 21       	and	r28, r0
     19e:	c0 21       	and	r28, r0
     1a0:	c0 21       	and	r28, r0
     1a2:	c0 21       	and	r28, r0
     1a4:	59 21       	and	r21, r9
     1a6:	c0 21       	and	r28, r0
     1a8:	c0 21       	and	r28, r0
     1aa:	c0 21       	and	r28, r0
     1ac:	c0 21       	and	r28, r0
     1ae:	c0 21       	and	r28, r0
     1b0:	c0 21       	and	r28, r0
     1b2:	c0 21       	and	r28, r0
     1b4:	b3 21       	and	r27, r3
     1b6:	c0 21       	and	r28, r0
     1b8:	c0 21       	and	r28, r0
     1ba:	c0 21       	and	r28, r0
     1bc:	c0 21       	and	r28, r0
     1be:	c0 21       	and	r28, r0
     1c0:	c0 21       	and	r28, r0
     1c2:	c0 21       	and	r28, r0
     1c4:	59 21       	and	r21, r9
     1c6:	c0 21       	and	r28, r0
     1c8:	c0 21       	and	r28, r0
     1ca:	c0 21       	and	r28, r0
     1cc:	c0 21       	and	r28, r0
     1ce:	c0 21       	and	r28, r0
     1d0:	c0 21       	and	r28, r0
     1d2:	c0 21       	and	r28, r0
     1d4:	b3 21       	and	r27, r3
     1d6:	c0 21       	and	r28, r0
     1d8:	c0 21       	and	r28, r0
     1da:	c0 21       	and	r28, r0
     1dc:	c0 21       	and	r28, r0
     1de:	c0 21       	and	r28, r0
     1e0:	c0 21       	and	r28, r0
     1e2:	c0 21       	and	r28, r0
     1e4:	7d 21       	and	r23, r13
     1e6:	c0 21       	and	r28, r0
     1e8:	c0 21       	and	r28, r0
     1ea:	c0 21       	and	r28, r0
     1ec:	c0 21       	and	r28, r0
     1ee:	c0 21       	and	r28, r0
     1f0:	c0 21       	and	r28, r0
     1f2:	c0 21       	and	r28, r0
     1f4:	8f 21       	and	r24, r15
     1f6:	c0 21       	and	r28, r0
     1f8:	c0 21       	and	r28, r0
     1fa:	c0 21       	and	r28, r0
     1fc:	c0 21       	and	r28, r0
     1fe:	c0 21       	and	r28, r0
     200:	c0 21       	and	r28, r0
     202:	c0 21       	and	r28, r0
     204:	8f 21       	and	r24, r15
     206:	c0 21       	and	r28, r0
     208:	c0 21       	and	r28, r0
     20a:	c0 21       	and	r28, r0
     20c:	c0 21       	and	r28, r0
     20e:	c0 21       	and	r28, r0
     210:	c0 21       	and	r28, r0
     212:	c0 21       	and	r28, r0
     214:	93 21       	and	r25, r3
     216:	c0 21       	and	r28, r0
     218:	c0 21       	and	r28, r0
     21a:	c0 21       	and	r28, r0
     21c:	c0 21       	and	r28, r0
     21e:	c0 21       	and	r28, r0
     220:	c0 21       	and	r28, r0
     222:	c0 21       	and	r28, r0
     224:	b3 21       	and	r27, r3
     226:	c0 21       	and	r28, r0
     228:	c0 21       	and	r28, r0
     22a:	c0 21       	and	r28, r0
     22c:	c0 21       	and	r28, r0
     22e:	c0 21       	and	r28, r0
     230:	c0 21       	and	r28, r0
     232:	c0 21       	and	r28, r0
     234:	b3 21       	and	r27, r3
     236:	94 22       	and	r9, r20
     238:	92 22       	and	r9, r18
     23a:	94 22       	and	r9, r20
     23c:	96 22       	and	r9, r22
     23e:	96 22       	and	r9, r22
     240:	9c 22       	and	r9, r28
     242:	96 22       	and	r9, r22
     244:	9c 22       	and	r9, r28
     246:	9c 22       	and	r9, r28
     248:	9c 22       	and	r9, r28
     24a:	9c 22       	and	r9, r28
     24c:	9c 22       	and	r9, r28
     24e:	96 22       	and	r9, r22
     250:	9c 22       	and	r9, r28
     252:	9c 22       	and	r9, r28

00000254 <__ctors_end>:
     254:	11 24       	eor	r1, r1
     256:	1f be       	out	0x3f, r1	; 63
     258:	cf ef       	ldi	r28, 0xFF	; 255
     25a:	d8 e0       	ldi	r29, 0x08	; 8
     25c:	de bf       	out	0x3e, r29	; 62
     25e:	cd bf       	out	0x3d, r28	; 61

00000260 <__do_copy_data>:
     260:	12 e0       	ldi	r17, 0x02	; 2
     262:	a0 e0       	ldi	r26, 0x00	; 0
     264:	b1 e0       	ldi	r27, 0x01	; 1
     266:	e6 e6       	ldi	r30, 0x66	; 102
     268:	fb e4       	ldi	r31, 0x4B	; 75
     26a:	02 c0       	rjmp	.+4      	; 0x270 <__do_copy_data+0x10>
     26c:	05 90       	lpm	r0, Z+
     26e:	0d 92       	st	X+, r0
     270:	a0 33       	cpi	r26, 0x30	; 48
     272:	b1 07       	cpc	r27, r17
     274:	d9 f7       	brne	.-10     	; 0x26c <__do_copy_data+0xc>

00000276 <__do_clear_bss>:
     276:	25 e0       	ldi	r18, 0x05	; 5
     278:	a0 e3       	ldi	r26, 0x30	; 48
     27a:	b2 e0       	ldi	r27, 0x02	; 2
     27c:	01 c0       	rjmp	.+2      	; 0x280 <.do_clear_bss_start>

0000027e <.do_clear_bss_loop>:
     27e:	1d 92       	st	X+, r1

00000280 <.do_clear_bss_start>:
     280:	a8 3d       	cpi	r26, 0xD8	; 216
     282:	b2 07       	cpc	r27, r18
     284:	e1 f7       	brne	.-8      	; 0x27e <.do_clear_bss_loop>
     286:	0e 94 fe 09 	call	0x13fc	; 0x13fc <main>
     28a:	0c 94 b1 25 	jmp	0x4b62	; 0x4b62 <_exit>

0000028e <__bad_interrupt>:
     28e:	0c 94 00 00 	jmp	0	; 0x0 <__vectors>

00000292 <handle_TWI_result>:
     292:	08 95       	ret

00000294 <eeprom_init>:
     294:	cf 92       	push	r12
     296:	df 92       	push	r13
     298:	ef 92       	push	r14
     29a:	ff 92       	push	r15
     29c:	0f 93       	push	r16
     29e:	1f 93       	push	r17
     2a0:	0f 2e       	mov	r0, r31
     2a2:	f9 e4       	ldi	r31, 0x49	; 73
     2a4:	cf 2e       	mov	r12, r31
     2a6:	f1 e0       	ldi	r31, 0x01	; 1
     2a8:	df 2e       	mov	r13, r31
     2aa:	f0 2d       	mov	r31, r0
     2ac:	0f 2e       	mov	r0, r31
     2ae:	fd e8       	ldi	r31, 0x8D	; 141
     2b0:	ef 2e       	mov	r14, r31
     2b2:	f1 2c       	mov	r15, r1
     2b4:	f0 2d       	mov	r31, r0
     2b6:	00 e5       	ldi	r16, 0x50	; 80
     2b8:	12 e0       	ldi	r17, 0x02	; 2
     2ba:	20 e0       	ldi	r18, 0x00	; 0
     2bc:	35 e3       	ldi	r19, 0x35	; 53
     2be:	4c e0       	ldi	r20, 0x0C	; 12
     2c0:	50 e0       	ldi	r21, 0x00	; 0
     2c2:	60 e0       	ldi	r22, 0x00	; 0
     2c4:	74 e2       	ldi	r23, 0x24	; 36
     2c6:	84 ef       	ldi	r24, 0xF4	; 244
     2c8:	90 e0       	ldi	r25, 0x00	; 0
     2ca:	0e 94 f1 1f 	call	0x3fe2	; 0x3fe2 <TWI_init>
     2ce:	10 93 df 02 	sts	0x02DF, r17
     2d2:	00 93 de 02 	sts	0x02DE, r16
     2d6:	10 93 f7 02 	sts	0x02F7, r17
     2da:	00 93 f6 02 	sts	0x02F6, r16
     2de:	10 93 fb 02 	sts	0x02FB, r17
     2e2:	00 93 fa 02 	sts	0x02FA, r16
     2e6:	10 93 ef 02 	sts	0x02EF, r17
     2ea:	00 93 ee 02 	sts	0x02EE, r16
     2ee:	10 93 f3 02 	sts	0x02F3, r17
     2f2:	00 93 f2 02 	sts	0x02F2, r16
     2f6:	1f 91       	pop	r17
     2f8:	0f 91       	pop	r16
     2fa:	ff 90       	pop	r15
     2fc:	ef 90       	pop	r14
     2fe:	df 90       	pop	r13
     300:	cf 90       	pop	r12
     302:	08 95       	ret

00000304 <read_pattern>:
     304:	cf 93       	push	r28
     306:	df 93       	push	r29
     308:	ec 01       	movw	r28, r24
     30a:	90 91 f0 02 	lds	r25, 0x02F0
     30e:	91 11       	cpse	r25, r1
     310:	fc cf       	rjmp	.-8      	; 0x30a <read_pattern+0x6>
     312:	50 e0       	ldi	r21, 0x00	; 0
     314:	54 2f       	mov	r21, r20
     316:	44 27       	eor	r20, r20
     318:	52 95       	swap	r21
     31a:	50 7f       	andi	r21, 0xF0	; 240
     31c:	46 0f       	add	r20, r22
     31e:	57 1f       	adc	r21, r23
     320:	e0 91 de 02 	lds	r30, 0x02DE
     324:	f0 91 df 02 	lds	r31, 0x02DF
     328:	50 83       	st	Z, r21
     32a:	e0 91 de 02 	lds	r30, 0x02DE
     32e:	f0 91 df 02 	lds	r31, 0x02DF
     332:	41 83       	std	Z+1, r20	; 0x01
     334:	4b e8       	ldi	r20, 0x8B	; 139
     336:	50 e0       	ldi	r21, 0x00	; 0
     338:	62 e0       	ldi	r22, 0x02	; 2
     33a:	70 e0       	ldi	r23, 0x00	; 0
     33c:	80 e5       	ldi	r24, 0x50	; 80
     33e:	0e 94 44 20 	call	0x4088	; 0x4088 <TWI_master_start_write_then_read>
     342:	90 91 f0 02 	lds	r25, 0x02F0
     346:	91 11       	cpse	r25, r1
     348:	fc cf       	rjmp	.-8      	; 0x342 <read_pattern+0x3e>
     34a:	e0 91 fa 02 	lds	r30, 0x02FA
     34e:	f0 91 fb 02 	lds	r31, 0x02FB
     352:	8b e8       	ldi	r24, 0x8B	; 139
     354:	de 01       	movw	r26, r28
     356:	01 90       	ld	r0, Z+
     358:	0d 92       	st	X+, r0
     35a:	8a 95       	dec	r24
     35c:	e1 f7       	brne	.-8      	; 0x356 <read_pattern+0x52>
     35e:	ce 01       	movw	r24, r28
     360:	df 91       	pop	r29
     362:	cf 91       	pop	r28
     364:	08 95       	ret

00000366 <write_pattern>:
     366:	0f 93       	push	r16
     368:	1f 93       	push	r17
     36a:	cf 93       	push	r28
     36c:	df 93       	push	r29
     36e:	9c 01       	movw	r18, r24
     370:	8a 01       	movw	r16, r20
     372:	90 91 f0 02 	lds	r25, 0x02F0
     376:	91 11       	cpse	r25, r1
     378:	fc cf       	rjmp	.-8      	; 0x372 <write_pattern+0xc>
     37a:	c6 2f       	mov	r28, r22
     37c:	d0 e0       	ldi	r29, 0x00	; 0
     37e:	dc 2f       	mov	r29, r28
     380:	cc 27       	eor	r28, r28
     382:	d2 95       	swap	r29
     384:	d0 7f       	andi	r29, 0xF0	; 240
     386:	c2 0f       	add	r28, r18
     388:	d3 1f       	adc	r29, r19
     38a:	e0 91 f6 02 	lds	r30, 0x02F6
     38e:	f0 91 f7 02 	lds	r31, 0x02F7
     392:	d0 83       	st	Z, r29
     394:	e0 91 f6 02 	lds	r30, 0x02F6
     398:	f0 91 f7 02 	lds	r31, 0x02F7
     39c:	c1 83       	std	Z+1, r28	; 0x01
     39e:	80 e8       	ldi	r24, 0x80	; 128
     3a0:	f8 01       	movw	r30, r16
     3a2:	a2 e5       	ldi	r26, 0x52	; 82
     3a4:	b2 e0       	ldi	r27, 0x02	; 2
     3a6:	01 90       	ld	r0, Z+
     3a8:	0d 92       	st	X+, r0
     3aa:	8a 95       	dec	r24
     3ac:	e1 f7       	brne	.-8      	; 0x3a6 <write_pattern+0x40>
     3ae:	62 e8       	ldi	r22, 0x82	; 130
     3b0:	70 e0       	ldi	r23, 0x00	; 0
     3b2:	80 e5       	ldi	r24, 0x50	; 80
     3b4:	0e 94 22 20 	call	0x4044	; 0x4044 <TWI_master_start_write>
     3b8:	c0 58       	subi	r28, 0x80	; 128
     3ba:	df 4f       	sbci	r29, 0xFF	; 255
     3bc:	90 91 f0 02 	lds	r25, 0x02F0
     3c0:	91 11       	cpse	r25, r1
     3c2:	fc cf       	rjmp	.-8      	; 0x3bc <write_pattern+0x56>
     3c4:	e0 91 f6 02 	lds	r30, 0x02F6
     3c8:	f0 91 f7 02 	lds	r31, 0x02F7
     3cc:	d0 83       	st	Z, r29
     3ce:	e0 91 f6 02 	lds	r30, 0x02F6
     3d2:	f0 91 f7 02 	lds	r31, 0x02F7
     3d6:	c1 83       	std	Z+1, r28	; 0x01
     3d8:	f8 01       	movw	r30, r16
     3da:	e0 58       	subi	r30, 0x80	; 128
     3dc:	ff 4f       	sbci	r31, 0xFF	; 255
     3de:	8b e0       	ldi	r24, 0x0B	; 11
     3e0:	a2 e5       	ldi	r26, 0x52	; 82
     3e2:	b2 e0       	ldi	r27, 0x02	; 2
     3e4:	01 90       	ld	r0, Z+
     3e6:	0d 92       	st	X+, r0
     3e8:	8a 95       	dec	r24
     3ea:	e1 f7       	brne	.-8      	; 0x3e4 <write_pattern+0x7e>
     3ec:	6d e0       	ldi	r22, 0x0D	; 13
     3ee:	70 e0       	ldi	r23, 0x00	; 0
     3f0:	80 e5       	ldi	r24, 0x50	; 80
     3f2:	0e 94 22 20 	call	0x4044	; 0x4044 <TWI_master_start_write>
     3f6:	80 91 f0 02 	lds	r24, 0x02F0
     3fa:	81 11       	cpse	r24, r1
     3fc:	fc cf       	rjmp	.-8      	; 0x3f6 <write_pattern+0x90>
     3fe:	df 91       	pop	r29
     400:	cf 91       	pop	r28
     402:	1f 91       	pop	r17
     404:	0f 91       	pop	r16
     406:	08 95       	ret

00000408 <eeprom_read_rhythm_track>:
     408:	cf 93       	push	r28
     40a:	df 93       	push	r29
     40c:	ec 01       	movw	r28, r24
     40e:	90 91 f0 02 	lds	r25, 0x02F0
     412:	91 11       	cpse	r25, r1
     414:	fc cf       	rjmp	.-8      	; 0x40e <eeprom_read_rhythm_track+0x6>
     416:	6e 57       	subi	r22, 0x7E	; 126
     418:	7e 4f       	sbci	r23, 0xFE	; 254
     41a:	76 95       	lsr	r23
     41c:	76 2f       	mov	r23, r22
     41e:	66 27       	eor	r22, r22
     420:	77 95       	ror	r23
     422:	67 95       	ror	r22
     424:	e0 91 de 02 	lds	r30, 0x02DE
     428:	f0 91 df 02 	lds	r31, 0x02DF
     42c:	70 83       	st	Z, r23
     42e:	e0 91 de 02 	lds	r30, 0x02DE
     432:	f0 91 df 02 	lds	r31, 0x02DF
     436:	61 83       	std	Z+1, r22	; 0x01
     438:	41 e4       	ldi	r20, 0x41	; 65
     43a:	50 e0       	ldi	r21, 0x00	; 0
     43c:	62 e0       	ldi	r22, 0x02	; 2
     43e:	70 e0       	ldi	r23, 0x00	; 0
     440:	80 e5       	ldi	r24, 0x50	; 80
     442:	0e 94 44 20 	call	0x4088	; 0x4088 <TWI_master_start_write_then_read>
     446:	90 91 f0 02 	lds	r25, 0x02F0
     44a:	91 11       	cpse	r25, r1
     44c:	fc cf       	rjmp	.-8      	; 0x446 <eeprom_read_rhythm_track+0x3e>
     44e:	e0 91 f2 02 	lds	r30, 0x02F2
     452:	f0 91 f3 02 	lds	r31, 0x02F3
     456:	81 e4       	ldi	r24, 0x41	; 65
     458:	de 01       	movw	r26, r28
     45a:	01 90       	ld	r0, Z+
     45c:	0d 92       	st	X+, r0
     45e:	8a 95       	dec	r24
     460:	e1 f7       	brne	.-8      	; 0x45a <eeprom_read_rhythm_track+0x52>
     462:	ce 01       	movw	r24, r28
     464:	df 91       	pop	r29
     466:	cf 91       	pop	r28
     468:	08 95       	ret

0000046a <eeprom_write_rhythm_track>:
     46a:	9c 01       	movw	r18, r24
     46c:	90 91 f0 02 	lds	r25, 0x02F0
     470:	91 11       	cpse	r25, r1
     472:	fc cf       	rjmp	.-8      	; 0x46c <eeprom_write_rhythm_track+0x2>
     474:	c9 01       	movw	r24, r18
     476:	8e 57       	subi	r24, 0x7E	; 126
     478:	9e 4f       	sbci	r25, 0xFE	; 254
     47a:	96 95       	lsr	r25
     47c:	98 2f       	mov	r25, r24
     47e:	88 27       	eor	r24, r24
     480:	97 95       	ror	r25
     482:	87 95       	ror	r24
     484:	e0 91 f6 02 	lds	r30, 0x02F6
     488:	f0 91 f7 02 	lds	r31, 0x02F7
     48c:	90 83       	st	Z, r25
     48e:	e0 91 f6 02 	lds	r30, 0x02F6
     492:	f0 91 f7 02 	lds	r31, 0x02F7
     496:	81 83       	std	Z+1, r24	; 0x01
     498:	81 e4       	ldi	r24, 0x41	; 65
     49a:	fb 01       	movw	r30, r22
     49c:	a2 e5       	ldi	r26, 0x52	; 82
     49e:	b2 e0       	ldi	r27, 0x02	; 2
     4a0:	01 90       	ld	r0, Z+
     4a2:	0d 92       	st	X+, r0
     4a4:	8a 95       	dec	r24
     4a6:	e1 f7       	brne	.-8      	; 0x4a0 <eeprom_write_rhythm_track+0x36>
     4a8:	63 e4       	ldi	r22, 0x43	; 67
     4aa:	70 e0       	ldi	r23, 0x00	; 0
     4ac:	80 e5       	ldi	r24, 0x50	; 80
     4ae:	0e 94 22 20 	call	0x4044	; 0x4044 <TWI_master_start_write>
     4b2:	80 91 f0 02 	lds	r24, 0x02F0
     4b6:	81 11       	cpse	r24, r1
     4b8:	fc cf       	rjmp	.-8      	; 0x4b2 <eeprom_write_rhythm_track+0x48>
     4ba:	08 95       	ret

000004bc <setup_adc>:
     4bc:	ea e7       	ldi	r30, 0x7A	; 122
     4be:	f0 e0       	ldi	r31, 0x00	; 0
     4c0:	80 81       	ld	r24, Z
     4c2:	84 60       	ori	r24, 0x04	; 4
     4c4:	80 83       	st	Z, r24
     4c6:	ac e7       	ldi	r26, 0x7C	; 124
     4c8:	b0 e0       	ldi	r27, 0x00	; 0
     4ca:	8c 91       	ld	r24, X
     4cc:	80 64       	ori	r24, 0x40	; 64
     4ce:	8c 93       	st	X, r24
     4d0:	8c 91       	ld	r24, X
     4d2:	83 60       	ori	r24, 0x03	; 3
     4d4:	8c 93       	st	X, r24
     4d6:	ae e7       	ldi	r26, 0x7E	; 126
     4d8:	b0 e0       	ldi	r27, 0x00	; 0
     4da:	8c 91       	ld	r24, X
     4dc:	88 60       	ori	r24, 0x08	; 8
     4de:	8c 93       	st	X, r24
     4e0:	80 81       	ld	r24, Z
     4e2:	80 68       	ori	r24, 0x80	; 128
     4e4:	80 83       	st	Z, r24
     4e6:	08 95       	ret

000004e8 <read_tempo_pot>:
     4e8:	ea e7       	ldi	r30, 0x7A	; 122
     4ea:	f0 e0       	ldi	r31, 0x00	; 0
     4ec:	80 81       	ld	r24, Z
     4ee:	80 64       	ori	r24, 0x40	; 64
     4f0:	80 83       	st	Z, r24
     4f2:	80 81       	ld	r24, Z
     4f4:	86 fd       	sbrc	r24, 6
     4f6:	fd cf       	rjmp	.-6      	; 0x4f2 <read_tempo_pot+0xa>
     4f8:	80 91 78 00 	lds	r24, 0x0078
     4fc:	90 91 79 00 	lds	r25, 0x0079
     500:	08 95       	ret

00000502 <setup_clock>:
     502:	8c e0       	ldi	r24, 0x0C	; 12
     504:	80 93 81 00 	sts	0x0081, r24
     508:	82 e0       	ldi	r24, 0x02	; 2
     50a:	80 93 6f 00 	sts	0x006F, r24
     50e:	86 e4       	ldi	r24, 0x46	; 70
     510:	80 93 b4 00 	sts	0x00B4, r24
     514:	80 93 b3 00 	sts	0x00B3, r24
     518:	ee ef       	ldi	r30, 0xFE	; 254
     51a:	f2 e0       	ldi	r31, 0x02	; 2
     51c:	80 81       	ld	r24, Z
     51e:	88 7f       	andi	r24, 0xF8	; 248
     520:	80 83       	st	Z, r24
     522:	08 95       	ret

00000524 <update_clock_rate>:
     524:	90 93 89 00 	sts	0x0089, r25
     528:	80 93 88 00 	sts	0x0088, r24
     52c:	20 91 84 00 	lds	r18, 0x0084
     530:	30 91 85 00 	lds	r19, 0x0085
     534:	82 17       	cp	r24, r18
     536:	93 07       	cpc	r25, r19
     538:	28 f4       	brcc	.+10     	; 0x544 <update_clock_rate+0x20>
     53a:	01 97       	sbiw	r24, 0x01	; 1
     53c:	90 93 85 00 	sts	0x0085, r25
     540:	80 93 84 00 	sts	0x0084, r24
     544:	08 95       	ret

00000546 <clear_all_trigs>:
     546:	e1 e4       	ldi	r30, 0x41	; 65
     548:	f2 e0       	ldi	r31, 0x02	; 2
     54a:	10 86       	std	Z+8, r1	; 0x08
     54c:	86 81       	ldd	r24, Z+6	; 0x06
     54e:	80 7f       	andi	r24, 0xF0	; 240
     550:	86 83       	std	Z+6, r24	; 0x06
     552:	87 81       	ldd	r24, Z+7	; 0x07
     554:	8f 7d       	andi	r24, 0xDF	; 223
     556:	87 83       	std	Z+7, r24	; 0x07
     558:	2b 98       	cbi	0x05, 3	; 5
     55a:	2c 98       	cbi	0x05, 4	; 5
     55c:	08 95       	ret

0000055e <trigger_drum>:
     55e:	ff 92       	push	r15
     560:	0f 93       	push	r16
     562:	1f 93       	push	r17
     564:	cf 93       	push	r28
     566:	df 93       	push	r29
     568:	c8 2f       	mov	r28, r24
     56a:	f6 2e       	mov	r15, r22
     56c:	0e 94 a3 02 	call	0x546	; 0x546 <clear_all_trigs>
     570:	e1 ee       	ldi	r30, 0xE1	; 225
     572:	f2 e0       	ldi	r31, 0x02	; 2
     574:	90 81       	ld	r25, Z
     576:	93 ff       	sbrs	r25, 3
     578:	fd cf       	rjmp	.-6      	; 0x574 <trigger_drum+0x16>
     57a:	c0 93 30 02 	sts	0x0230, r28
     57e:	0c 2f       	mov	r16, r28
     580:	10 e0       	ldi	r17, 0x00	; 0
     582:	87 e0       	ldi	r24, 0x07	; 7
     584:	c8 9f       	mul	r28, r24
     586:	e0 01       	movw	r28, r0
     588:	11 24       	eor	r1, r1
     58a:	c0 50       	subi	r28, 0x00	; 0
     58c:	df 4f       	sbci	r29, 0xFF	; 255
     58e:	e8 81       	ld	r30, Y
     590:	8e 2f       	mov	r24, r30
     592:	88 1f       	adc	r24, r24
     594:	88 27       	eor	r24, r24
     596:	88 1f       	adc	r24, r24
     598:	e9 81       	ldd	r30, Y+1	; 0x01
     59a:	e7 70       	andi	r30, 0x07	; 7
     59c:	ee 0f       	add	r30, r30
     59e:	e8 2b       	or	r30, r24
     5a0:	f0 e0       	ldi	r31, 0x00	; 0
     5a2:	ef 5b       	subi	r30, 0xBF	; 191
     5a4:	fd 4f       	sbci	r31, 0xFD	; 253
     5a6:	90 81       	ld	r25, Z
     5a8:	8a 81       	ldd	r24, Y+2	; 0x02
     5aa:	89 2b       	or	r24, r25
     5ac:	80 83       	st	Z, r24
     5ae:	8d 81       	ldd	r24, Y+5	; 0x05
     5b0:	0e 94 93 07 	call	0xf26	; 0xf26 <turn_on>
     5b4:	9b 81       	ldd	r25, Y+3	; 0x03
     5b6:	9f 3f       	cpi	r25, 0xFF	; 255
     5b8:	c1 f0       	breq	.+48     	; 0x5ea <trigger_drum+0x8c>
     5ba:	a1 e4       	ldi	r26, 0x41	; 65
     5bc:	b2 e0       	ldi	r27, 0x02	; 2
     5be:	13 96       	adiw	r26, 0x03	; 3
     5c0:	2c 91       	ld	r18, X
     5c2:	13 97       	sbiw	r26, 0x03	; 3
     5c4:	f8 01       	movw	r30, r16
     5c6:	ee 0f       	add	r30, r30
     5c8:	ff 1f       	adc	r31, r31
     5ca:	ee 0f       	add	r30, r30
     5cc:	ff 1f       	adc	r31, r31
     5ce:	ee 0f       	add	r30, r30
     5d0:	ff 1f       	adc	r31, r31
     5d2:	e0 1b       	sub	r30, r16
     5d4:	f1 0b       	sbc	r31, r17
     5d6:	ec 5f       	subi	r30, 0xFC	; 252
     5d8:	fe 4f       	sbci	r31, 0xFE	; 254
     5da:	80 81       	ld	r24, Z
     5dc:	81 70       	andi	r24, 0x01	; 1
     5de:	81 95       	neg	r24
     5e0:	82 27       	eor	r24, r18
     5e2:	89 23       	and	r24, r25
     5e4:	82 27       	eor	r24, r18
     5e6:	13 96       	adiw	r26, 0x03	; 3
     5e8:	8c 93       	st	X, r24
     5ea:	80 e4       	ldi	r24, 0x40	; 64
     5ec:	8f 15       	cp	r24, r15
     5ee:	40 f4       	brcc	.+16     	; 0x600 <trigger_drum+0xa2>
     5f0:	e1 e4       	ldi	r30, 0x41	; 65
     5f2:	f2 e0       	ldi	r31, 0x02	; 2
     5f4:	80 85       	ldd	r24, Z+8	; 0x08
     5f6:	81 60       	ori	r24, 0x01	; 1
     5f8:	80 87       	std	Z+8, r24	; 0x08
     5fa:	84 e1       	ldi	r24, 0x14	; 20
     5fc:	0e 94 93 07 	call	0xf26	; 0xf26 <turn_on>
     600:	5d 9a       	sbi	0x0b, 5	; 11
     602:	ee e6       	ldi	r30, 0x6E	; 110
     604:	f0 e0       	ldi	r31, 0x00	; 0
     606:	80 81       	ld	r24, Z
     608:	82 60       	ori	r24, 0x02	; 2
     60a:	80 83       	st	Z, r24
     60c:	85 b5       	in	r24, 0x25	; 37
     60e:	85 60       	ori	r24, 0x05	; 5
     610:	85 bd       	out	0x25, r24	; 37
     612:	e1 ee       	ldi	r30, 0xE1	; 225
     614:	f2 e0       	ldi	r31, 0x02	; 2
     616:	80 81       	ld	r24, Z
     618:	87 7f       	andi	r24, 0xF7	; 247
     61a:	80 83       	st	Z, r24
     61c:	df 91       	pop	r29
     61e:	cf 91       	pop	r28
     620:	1f 91       	pop	r17
     622:	0f 91       	pop	r16
     624:	ff 90       	pop	r15
     626:	08 95       	ret

00000628 <trigger_roll>:
     628:	cf 93       	push	r28
     62a:	df 93       	push	r29
     62c:	cd b7       	in	r28, 0x3d	; 61
     62e:	de b7       	in	r29, 0x3e	; 62
     630:	2a 97       	sbiw	r28, 0x0a	; 10
     632:	0f b6       	in	r0, 0x3f	; 63
     634:	f8 94       	cli
     636:	de bf       	out	0x3e, r29	; 62
     638:	0f be       	out	0x3f, r0	; 63
     63a:	cd bf       	out	0x3d, r28	; 61
     63c:	8a e0       	ldi	r24, 0x0A	; 10
     63e:	e9 e1       	ldi	r30, 0x19	; 25
     640:	f2 e0       	ldi	r31, 0x02	; 2
     642:	de 01       	movw	r26, r28
     644:	11 96       	adiw	r26, 0x01	; 1
     646:	01 90       	ld	r0, Z+
     648:	0d 92       	st	X+, r0
     64a:	8a 95       	dec	r24
     64c:	e1 f7       	brne	.-8      	; 0x646 <trigger_roll+0x1e>
     64e:	80 91 ce 05 	lds	r24, 0x05CE
     652:	98 2f       	mov	r25, r24
     654:	92 95       	swap	r25
     656:	96 95       	lsr	r25
     658:	97 70       	andi	r25, 0x07	; 7
     65a:	80 91 cf 05 	lds	r24, 0x05CF
     65e:	81 70       	andi	r24, 0x01	; 1
     660:	88 0f       	add	r24, r24
     662:	88 0f       	add	r24, r24
     664:	88 0f       	add	r24, r24
     666:	89 2b       	or	r24, r25
     668:	21 e0       	ldi	r18, 0x01	; 1
     66a:	30 e0       	ldi	r19, 0x00	; 0
     66c:	a9 01       	movw	r20, r18
     66e:	02 c0       	rjmp	.+4      	; 0x674 <trigger_roll+0x4c>
     670:	44 0f       	add	r20, r20
     672:	55 1f       	adc	r21, r21
     674:	8a 95       	dec	r24
     676:	e2 f7       	brpl	.-8      	; 0x670 <trigger_roll+0x48>
     678:	ca 01       	movw	r24, r20
     67a:	e0 91 fc 04 	lds	r30, 0x04FC
     67e:	e6 95       	lsr	r30
     680:	e6 95       	lsr	r30
     682:	e6 95       	lsr	r30
     684:	e7 70       	andi	r30, 0x07	; 7
     686:	f0 e0       	ldi	r31, 0x00	; 0
     688:	31 97       	sbiw	r30, 0x01	; 1
     68a:	ee 0f       	add	r30, r30
     68c:	ff 1f       	adc	r31, r31
     68e:	2c 0f       	add	r18, r28
     690:	3d 1f       	adc	r19, r29
     692:	e2 0f       	add	r30, r18
     694:	f3 1f       	adc	r31, r19
     696:	20 81       	ld	r18, Z
     698:	31 81       	ldd	r19, Z+1	; 0x01
     69a:	82 23       	and	r24, r18
     69c:	93 23       	and	r25, r19
     69e:	89 2b       	or	r24, r25
     6a0:	d9 f0       	breq	.+54     	; 0x6d8 <trigger_roll+0xb0>
     6a2:	a0 91 d4 05 	lds	r26, 0x05D4
     6a6:	37 e0       	ldi	r19, 0x07	; 7
     6a8:	a3 9f       	mul	r26, r19
     6aa:	d0 01       	movw	r26, r0
     6ac:	11 24       	eor	r1, r1
     6ae:	a0 50       	subi	r26, 0x00	; 0
     6b0:	bf 4f       	sbci	r27, 0xFF	; 255
     6b2:	ec 91       	ld	r30, X
     6b4:	8e 2f       	mov	r24, r30
     6b6:	88 1f       	adc	r24, r24
     6b8:	88 27       	eor	r24, r24
     6ba:	88 1f       	adc	r24, r24
     6bc:	11 96       	adiw	r26, 0x01	; 1
     6be:	ec 91       	ld	r30, X
     6c0:	11 97       	sbiw	r26, 0x01	; 1
     6c2:	e7 70       	andi	r30, 0x07	; 7
     6c4:	ee 0f       	add	r30, r30
     6c6:	e8 2b       	or	r30, r24
     6c8:	f0 e0       	ldi	r31, 0x00	; 0
     6ca:	ef 5b       	subi	r30, 0xBF	; 191
     6cc:	fd 4f       	sbci	r31, 0xFD	; 253
     6ce:	90 81       	ld	r25, Z
     6d0:	12 96       	adiw	r26, 0x02	; 2
     6d2:	8c 91       	ld	r24, X
     6d4:	89 2b       	or	r24, r25
     6d6:	80 83       	st	Z, r24
     6d8:	2a 96       	adiw	r28, 0x0a	; 10
     6da:	0f b6       	in	r0, 0x3f	; 63
     6dc:	f8 94       	cli
     6de:	de bf       	out	0x3e, r29	; 62
     6e0:	0f be       	out	0x3f, r0	; 63
     6e2:	cd bf       	out	0x3d, r28	; 61
     6e4:	df 91       	pop	r29
     6e6:	cf 91       	pop	r28
     6e8:	08 95       	ret

000006ea <trigger_step>:
     6ea:	3f 92       	push	r3
     6ec:	4f 92       	push	r4
     6ee:	5f 92       	push	r5
     6f0:	6f 92       	push	r6
     6f2:	7f 92       	push	r7
     6f4:	8f 92       	push	r8
     6f6:	9f 92       	push	r9
     6f8:	af 92       	push	r10
     6fa:	bf 92       	push	r11
     6fc:	cf 92       	push	r12
     6fe:	df 92       	push	r13
     700:	ef 92       	push	r14
     702:	ff 92       	push	r15
     704:	0f 93       	push	r16
     706:	1f 93       	push	r17
     708:	cf 93       	push	r28
     70a:	df 93       	push	r29
     70c:	00 d0       	rcall	.+0      	; 0x70e <trigger_step+0x24>
     70e:	00 d0       	rcall	.+0      	; 0x710 <trigger_step+0x26>
     710:	cd b7       	in	r28, 0x3d	; 61
     712:	de b7       	in	r29, 0x3e	; 62
     714:	5d 9a       	sbi	0x0b, 5	; 11
     716:	0e 94 a3 02 	call	0x546	; 0x546 <clear_all_trigs>
     71a:	ee e6       	ldi	r30, 0x6E	; 110
     71c:	f0 e0       	ldi	r31, 0x00	; 0
     71e:	80 81       	ld	r24, Z
     720:	82 60       	ori	r24, 0x02	; 2
     722:	80 83       	st	Z, r24
     724:	85 b5       	in	r24, 0x25	; 37
     726:	85 60       	ori	r24, 0x05	; 5
     728:	85 bd       	out	0x25, r24	; 37
     72a:	80 91 fc 04 	lds	r24, 0x04FC
     72e:	88 73       	andi	r24, 0x38	; 56
     730:	09 f4       	brne	.+2      	; 0x734 <trigger_step+0x4a>
     732:	02 c1       	rjmp	.+516    	; 0x938 <__stack+0x39>
     734:	0e 94 14 03 	call	0x628	; 0x628 <trigger_roll>
     738:	ff c0       	rjmp	.+510    	; 0x938 <__stack+0x39>
     73a:	d4 01       	movw	r26, r8
     73c:	8c 91       	ld	r24, X
     73e:	81 fb       	bst	r24, 1
     740:	00 27       	eor	r16, r16
     742:	00 f9       	bld	r16, 0
     744:	10 e0       	ldi	r17, 0x00	; 0
     746:	f5 01       	movw	r30, r10
     748:	90 81       	ld	r25, Z
     74a:	92 95       	swap	r25
     74c:	96 95       	lsr	r25
     74e:	97 70       	andi	r25, 0x07	; 7
     750:	81 70       	andi	r24, 0x01	; 1
     752:	88 0f       	add	r24, r24
     754:	88 0f       	add	r24, r24
     756:	88 0f       	add	r24, r24
     758:	89 2b       	or	r24, r25
     75a:	d6 01       	movw	r26, r12
     75c:	9c 91       	ld	r25, X
     75e:	f8 01       	movw	r30, r16
     760:	e2 95       	swap	r30
     762:	f2 95       	swap	r31
     764:	f0 7f       	andi	r31, 0xF0	; 240
     766:	fe 27       	eor	r31, r30
     768:	e0 7f       	andi	r30, 0xF0	; 240
     76a:	fe 27       	eor	r31, r30
     76c:	96 95       	lsr	r25
     76e:	91 70       	andi	r25, 0x01	; 1
     770:	39 9e       	mul	r3, r25
     772:	e0 0d       	add	r30, r0
     774:	f1 1d       	adc	r31, r1
     776:	11 24       	eor	r1, r1
     778:	e8 0f       	add	r30, r24
     77a:	f1 1d       	adc	r31, r1
     77c:	ee 0f       	add	r30, r30
     77e:	ff 1f       	adc	r31, r31
     780:	e4 50       	subi	r30, 0x04	; 4
     782:	fb 4f       	sbci	r31, 0xFB	; 251
     784:	85 81       	ldd	r24, Z+5	; 0x05
     786:	96 81       	ldd	r25, Z+6	; 0x06
     788:	0b 80       	ldd	r0, Y+3	; 0x03
     78a:	02 c0       	rjmp	.+4      	; 0x790 <trigger_step+0xa6>
     78c:	96 95       	lsr	r25
     78e:	87 95       	ror	r24
     790:	0a 94       	dec	r0
     792:	e2 f7       	brpl	.-8      	; 0x78c <trigger_step+0xa2>
     794:	80 ff       	sbrs	r24, 0
     796:	76 c0       	rjmp	.+236    	; 0x884 <trigger_step+0x19a>
     798:	f3 01       	movw	r30, r6
     79a:	80 81       	ld	r24, Z
     79c:	8f 71       	andi	r24, 0x1F	; 31
     79e:	90 e0       	ldi	r25, 0x00	; 0
     7a0:	2b 81       	ldd	r18, Y+3	; 0x03
     7a2:	3c 81       	ldd	r19, Y+4	; 0x04
     7a4:	82 17       	cp	r24, r18
     7a6:	93 07       	cpc	r25, r19
     7a8:	09 f4       	brne	.+2      	; 0x7ac <trigger_step+0xc2>
     7aa:	2b 9a       	sbi	0x05, 3	; 5
     7ac:	d3 01       	movw	r26, r6
     7ae:	8c 91       	ld	r24, X
     7b0:	98 2f       	mov	r25, r24
     7b2:	92 95       	swap	r25
     7b4:	96 95       	lsr	r25
     7b6:	97 70       	andi	r25, 0x07	; 7
     7b8:	f2 01       	movw	r30, r4
     7ba:	80 81       	ld	r24, Z
     7bc:	83 70       	andi	r24, 0x03	; 3
     7be:	88 0f       	add	r24, r24
     7c0:	88 0f       	add	r24, r24
     7c2:	88 0f       	add	r24, r24
     7c4:	89 2b       	or	r24, r25
     7c6:	90 e0       	ldi	r25, 0x00	; 0
     7c8:	2b 81       	ldd	r18, Y+3	; 0x03
     7ca:	3c 81       	ldd	r19, Y+4	; 0x04
     7cc:	82 17       	cp	r24, r18
     7ce:	93 07       	cpc	r25, r19
     7d0:	09 f4       	brne	.+2      	; 0x7d4 <trigger_step+0xea>
     7d2:	2c 9a       	sbi	0x05, 4	; 5
     7d4:	eb 81       	ldd	r30, Y+3	; 0x03
     7d6:	fc 81       	ldd	r31, Y+4	; 0x04
     7d8:	ee 0f       	add	r30, r30
     7da:	ff 1f       	adc	r31, r31
     7dc:	ee 0f       	add	r30, r30
     7de:	ff 1f       	adc	r31, r31
     7e0:	ee 0f       	add	r30, r30
     7e2:	ff 1f       	adc	r31, r31
     7e4:	4b 81       	ldd	r20, Y+3	; 0x03
     7e6:	5c 81       	ldd	r21, Y+4	; 0x04
     7e8:	e4 1b       	sub	r30, r20
     7ea:	f5 0b       	sbc	r31, r21
     7ec:	ea 5f       	subi	r30, 0xFA	; 250
     7ee:	fe 4f       	sbci	r31, 0xFE	; 254
     7f0:	80 81       	ld	r24, Z
     7f2:	80 fd       	sbrc	r24, 0
     7f4:	47 c0       	rjmp	.+142    	; 0x884 <trigger_step+0x19a>
     7f6:	aa ef       	ldi	r26, 0xFA	; 250
     7f8:	b4 e0       	ldi	r27, 0x04	; 4
     7fa:	8c 91       	ld	r24, X
     7fc:	84 fd       	sbrc	r24, 4
     7fe:	04 c0       	rjmp	.+8      	; 0x808 <trigger_step+0x11e>
     800:	f7 01       	movw	r30, r14
     802:	80 81       	ld	r24, Z
     804:	0e 94 93 07 	call	0xf26	; 0xf26 <turn_on>
     808:	ab 81       	ldd	r26, Y+3	; 0x03
     80a:	bc 81       	ldd	r27, Y+4	; 0x04
     80c:	aa 0f       	add	r26, r26
     80e:	bb 1f       	adc	r27, r27
     810:	aa 0f       	add	r26, r26
     812:	bb 1f       	adc	r27, r27
     814:	aa 0f       	add	r26, r26
     816:	bb 1f       	adc	r27, r27
     818:	2b 81       	ldd	r18, Y+3	; 0x03
     81a:	3c 81       	ldd	r19, Y+4	; 0x04
     81c:	a2 1b       	sub	r26, r18
     81e:	b3 0b       	sbc	r27, r19
     820:	a0 50       	subi	r26, 0x00	; 0
     822:	bf 4f       	sbci	r27, 0xFF	; 255
     824:	ec 91       	ld	r30, X
     826:	8e 2f       	mov	r24, r30
     828:	88 1f       	adc	r24, r24
     82a:	88 27       	eor	r24, r24
     82c:	88 1f       	adc	r24, r24
     82e:	11 96       	adiw	r26, 0x01	; 1
     830:	ec 91       	ld	r30, X
     832:	e7 70       	andi	r30, 0x07	; 7
     834:	ee 0f       	add	r30, r30
     836:	e8 2b       	or	r30, r24
     838:	f0 e0       	ldi	r31, 0x00	; 0
     83a:	ef 5b       	subi	r30, 0xBF	; 191
     83c:	fd 4f       	sbci	r31, 0xFD	; 253
     83e:	d7 01       	movw	r26, r14
     840:	13 97       	sbiw	r26, 0x03	; 3
     842:	9c 91       	ld	r25, X
     844:	80 81       	ld	r24, Z
     846:	89 2b       	or	r24, r25
     848:	80 83       	st	Z, r24
     84a:	f7 01       	movw	r30, r14
     84c:	32 97       	sbiw	r30, 0x02	; 2
     84e:	80 81       	ld	r24, Z
     850:	8f 3f       	cpi	r24, 0xFF	; 255
     852:	c1 f0       	breq	.+48     	; 0x884 <trigger_step+0x19a>
     854:	20 91 44 02 	lds	r18, 0x0244
     858:	eb 81       	ldd	r30, Y+3	; 0x03
     85a:	fc 81       	ldd	r31, Y+4	; 0x04
     85c:	ee 0f       	add	r30, r30
     85e:	ff 1f       	adc	r31, r31
     860:	ee 0f       	add	r30, r30
     862:	ff 1f       	adc	r31, r31
     864:	ee 0f       	add	r30, r30
     866:	ff 1f       	adc	r31, r31
     868:	4b 81       	ldd	r20, Y+3	; 0x03
     86a:	5c 81       	ldd	r21, Y+4	; 0x04
     86c:	e4 1b       	sub	r30, r20
     86e:	f5 0b       	sbc	r31, r21
     870:	ec 5f       	subi	r30, 0xFC	; 252
     872:	fe 4f       	sbci	r31, 0xFE	; 254
     874:	90 81       	ld	r25, Z
     876:	91 70       	andi	r25, 0x01	; 1
     878:	91 95       	neg	r25
     87a:	92 27       	eor	r25, r18
     87c:	89 23       	and	r24, r25
     87e:	82 27       	eor	r24, r18
     880:	80 93 44 02 	sts	0x0244, r24
     884:	8b 81       	ldd	r24, Y+3	; 0x03
     886:	9c 81       	ldd	r25, Y+4	; 0x04
     888:	01 96       	adiw	r24, 0x01	; 1
     88a:	9c 83       	std	Y+4, r25	; 0x04
     88c:	8b 83       	std	Y+3, r24	; 0x03
     88e:	97 e0       	ldi	r25, 0x07	; 7
     890:	e9 0e       	add	r14, r25
     892:	f1 1c       	adc	r15, r1
     894:	ab 81       	ldd	r26, Y+3	; 0x03
     896:	bc 81       	ldd	r27, Y+4	; 0x04
     898:	50 97       	sbiw	r26, 0x10	; 16
     89a:	09 f0       	breq	.+2      	; 0x89e <trigger_step+0x1b4>
     89c:	4e cf       	rjmp	.-356    	; 0x73a <trigger_step+0x50>
     89e:	90 91 ca 05 	lds	r25, 0x05CA
     8a2:	80 91 cf 05 	lds	r24, 0x05CF
     8a6:	81 fb       	bst	r24, 1
     8a8:	bb 27       	eor	r27, r27
     8aa:	b0 f9       	bld	r27, 0
     8ac:	b9 83       	std	Y+1, r27	; 0x01
     8ae:	1a 82       	std	Y+2, r1	; 0x02
     8b0:	96 95       	lsr	r25
     8b2:	91 70       	andi	r25, 0x01	; 1
     8b4:	e9 81       	ldd	r30, Y+1	; 0x01
     8b6:	fa 81       	ldd	r31, Y+2	; 0x02
     8b8:	22 e2       	ldi	r18, 0x22	; 34
     8ba:	92 9f       	mul	r25, r18
     8bc:	e0 0d       	add	r30, r0
     8be:	f1 1d       	adc	r31, r1
     8c0:	11 24       	eor	r1, r1
     8c2:	ee 0f       	add	r30, r30
     8c4:	ff 1f       	adc	r31, r31
     8c6:	e8 50       	subi	r30, 0x08	; 8
     8c8:	fb 4f       	sbci	r31, 0xFB	; 251
     8ca:	90 91 ce 05 	lds	r25, 0x05CE
     8ce:	92 95       	swap	r25
     8d0:	96 95       	lsr	r25
     8d2:	97 70       	andi	r25, 0x07	; 7
     8d4:	81 70       	andi	r24, 0x01	; 1
     8d6:	88 0f       	add	r24, r24
     8d8:	88 0f       	add	r24, r24
     8da:	88 0f       	add	r24, r24
     8dc:	89 2b       	or	r24, r25
     8de:	25 81       	ldd	r18, Z+5	; 0x05
     8e0:	36 81       	ldd	r19, Z+6	; 0x06
     8e2:	a9 01       	movw	r20, r18
     8e4:	02 c0       	rjmp	.+4      	; 0x8ea <trigger_step+0x200>
     8e6:	56 95       	lsr	r21
     8e8:	47 95       	ror	r20
     8ea:	8a 95       	dec	r24
     8ec:	e2 f7       	brpl	.-8      	; 0x8e6 <trigger_step+0x1fc>
     8ee:	40 ff       	sbrs	r20, 0
     8f0:	4e c0       	rjmp	.+156    	; 0x98e <__stack+0x8f>
     8f2:	e1 e4       	ldi	r30, 0x41	; 65
     8f4:	f2 e0       	ldi	r31, 0x02	; 2
     8f6:	80 85       	ldd	r24, Z+8	; 0x08
     8f8:	81 60       	ori	r24, 0x01	; 1
     8fa:	80 87       	std	Z+8, r24	; 0x08
     8fc:	80 91 d6 05 	lds	r24, 0x05D6
     900:	8f 71       	andi	r24, 0x1F	; 31
     902:	80 31       	cpi	r24, 0x10	; 16
     904:	09 f4       	brne	.+2      	; 0x908 <__stack+0x9>
     906:	2b 9a       	sbi	0x05, 3	; 5
     908:	80 91 d6 05 	lds	r24, 0x05D6
     90c:	98 2f       	mov	r25, r24
     90e:	92 95       	swap	r25
     910:	96 95       	lsr	r25
     912:	97 70       	andi	r25, 0x07	; 7
     914:	80 91 d7 05 	lds	r24, 0x05D7
     918:	83 70       	andi	r24, 0x03	; 3
     91a:	88 0f       	add	r24, r24
     91c:	88 0f       	add	r24, r24
     91e:	88 0f       	add	r24, r24
     920:	89 2b       	or	r24, r25
     922:	80 31       	cpi	r24, 0x10	; 16
     924:	09 f4       	brne	.+2      	; 0x928 <__stack+0x29>
     926:	2c 9a       	sbi	0x05, 4	; 5
     928:	80 91 fa 04 	lds	r24, 0x04FA
     92c:	84 fd       	sbrc	r24, 4
     92e:	2f c0       	rjmp	.+94     	; 0x98e <__stack+0x8f>
     930:	84 e1       	ldi	r24, 0x14	; 20
     932:	0e 94 93 07 	call	0xf26	; 0xf26 <turn_on>
     936:	2b c0       	rjmp	.+86     	; 0x98e <__stack+0x8f>
     938:	0f 2e       	mov	r0, r31
     93a:	f5 e0       	ldi	r31, 0x05	; 5
     93c:	ef 2e       	mov	r14, r31
     93e:	f1 e0       	ldi	r31, 0x01	; 1
     940:	ff 2e       	mov	r15, r31
     942:	f0 2d       	mov	r31, r0
     944:	1c 82       	std	Y+4, r1	; 0x04
     946:	1b 82       	std	Y+3, r1	; 0x03
     948:	0f 2e       	mov	r0, r31
     94a:	ff ec       	ldi	r31, 0xCF	; 207
     94c:	8f 2e       	mov	r8, r31
     94e:	f5 e0       	ldi	r31, 0x05	; 5
     950:	9f 2e       	mov	r9, r31
     952:	f0 2d       	mov	r31, r0
     954:	0f 2e       	mov	r0, r31
     956:	fe ec       	ldi	r31, 0xCE	; 206
     958:	af 2e       	mov	r10, r31
     95a:	f5 e0       	ldi	r31, 0x05	; 5
     95c:	bf 2e       	mov	r11, r31
     95e:	f0 2d       	mov	r31, r0
     960:	0f 2e       	mov	r0, r31
     962:	fa ec       	ldi	r31, 0xCA	; 202
     964:	cf 2e       	mov	r12, r31
     966:	f5 e0       	ldi	r31, 0x05	; 5
     968:	df 2e       	mov	r13, r31
     96a:	f0 2d       	mov	r31, r0
     96c:	0f 2e       	mov	r0, r31
     96e:	f2 e2       	ldi	r31, 0x22	; 34
     970:	3f 2e       	mov	r3, r31
     972:	f0 2d       	mov	r31, r0
     974:	0f 2e       	mov	r0, r31
     976:	f6 ed       	ldi	r31, 0xD6	; 214
     978:	6f 2e       	mov	r6, r31
     97a:	f5 e0       	ldi	r31, 0x05	; 5
     97c:	7f 2e       	mov	r7, r31
     97e:	f0 2d       	mov	r31, r0
     980:	0f 2e       	mov	r0, r31
     982:	f7 ed       	ldi	r31, 0xD7	; 215
     984:	4f 2e       	mov	r4, r31
     986:	f5 e0       	ldi	r31, 0x05	; 5
     988:	5f 2e       	mov	r5, r31
     98a:	f0 2d       	mov	r31, r0
     98c:	d6 ce       	rjmp	.-596    	; 0x73a <trigger_step+0x50>
     98e:	0f 90       	pop	r0
     990:	0f 90       	pop	r0
     992:	0f 90       	pop	r0
     994:	0f 90       	pop	r0
     996:	df 91       	pop	r29
     998:	cf 91       	pop	r28
     99a:	1f 91       	pop	r17
     99c:	0f 91       	pop	r16
     99e:	ff 90       	pop	r15
     9a0:	ef 90       	pop	r14
     9a2:	df 90       	pop	r13
     9a4:	cf 90       	pop	r12
     9a6:	bf 90       	pop	r11
     9a8:	af 90       	pop	r10
     9aa:	9f 90       	pop	r9
     9ac:	8f 90       	pop	r8
     9ae:	7f 90       	pop	r7
     9b0:	6f 90       	pop	r6
     9b2:	5f 90       	pop	r5
     9b4:	4f 90       	pop	r4
     9b6:	3f 90       	pop	r3
     9b8:	08 95       	ret

000009ba <live_hits>:
     9ba:	80 91 07 02 	lds	r24, 0x0207
     9be:	86 ff       	sbrs	r24, 6
     9c0:	08 c0       	rjmp	.+16     	; 0x9d2 <live_hits+0x18>
     9c2:	e7 e0       	ldi	r30, 0x07	; 7
     9c4:	f2 e0       	ldi	r31, 0x02	; 2
     9c6:	8f 7b       	andi	r24, 0xBF	; 191
     9c8:	80 83       	st	Z, r24
     9ca:	60 e0       	ldi	r22, 0x00	; 0
     9cc:	80 e0       	ldi	r24, 0x00	; 0
     9ce:	0e 94 af 02 	call	0x55e	; 0x55e <trigger_drum>
     9d2:	80 91 08 02 	lds	r24, 0x0208
     9d6:	86 ff       	sbrs	r24, 6
     9d8:	08 c0       	rjmp	.+16     	; 0x9ea <live_hits+0x30>
     9da:	e8 e0       	ldi	r30, 0x08	; 8
     9dc:	f2 e0       	ldi	r31, 0x02	; 2
     9de:	8f 7b       	andi	r24, 0xBF	; 191
     9e0:	80 83       	st	Z, r24
     9e2:	60 e0       	ldi	r22, 0x00	; 0
     9e4:	81 e0       	ldi	r24, 0x01	; 1
     9e6:	0e 94 af 02 	call	0x55e	; 0x55e <trigger_drum>
     9ea:	80 91 09 02 	lds	r24, 0x0209
     9ee:	86 ff       	sbrs	r24, 6
     9f0:	08 c0       	rjmp	.+16     	; 0xa02 <live_hits+0x48>
     9f2:	e9 e0       	ldi	r30, 0x09	; 9
     9f4:	f2 e0       	ldi	r31, 0x02	; 2
     9f6:	8f 7b       	andi	r24, 0xBF	; 191
     9f8:	80 83       	st	Z, r24
     9fa:	60 e0       	ldi	r22, 0x00	; 0
     9fc:	82 e0       	ldi	r24, 0x02	; 2
     9fe:	0e 94 af 02 	call	0x55e	; 0x55e <trigger_drum>
     a02:	80 91 0a 02 	lds	r24, 0x020A
     a06:	86 ff       	sbrs	r24, 6
     a08:	08 c0       	rjmp	.+16     	; 0xa1a <live_hits+0x60>
     a0a:	ea e0       	ldi	r30, 0x0A	; 10
     a0c:	f2 e0       	ldi	r31, 0x02	; 2
     a0e:	8f 7b       	andi	r24, 0xBF	; 191
     a10:	80 83       	st	Z, r24
     a12:	60 e0       	ldi	r22, 0x00	; 0
     a14:	83 e0       	ldi	r24, 0x03	; 3
     a16:	0e 94 af 02 	call	0x55e	; 0x55e <trigger_drum>
     a1a:	80 91 0b 02 	lds	r24, 0x020B
     a1e:	86 ff       	sbrs	r24, 6
     a20:	08 c0       	rjmp	.+16     	; 0xa32 <live_hits+0x78>
     a22:	eb e0       	ldi	r30, 0x0B	; 11
     a24:	f2 e0       	ldi	r31, 0x02	; 2
     a26:	8f 7b       	andi	r24, 0xBF	; 191
     a28:	80 83       	st	Z, r24
     a2a:	60 e0       	ldi	r22, 0x00	; 0
     a2c:	84 e0       	ldi	r24, 0x04	; 4
     a2e:	0e 94 af 02 	call	0x55e	; 0x55e <trigger_drum>
     a32:	80 91 0c 02 	lds	r24, 0x020C
     a36:	86 ff       	sbrs	r24, 6
     a38:	08 c0       	rjmp	.+16     	; 0xa4a <live_hits+0x90>
     a3a:	ec e0       	ldi	r30, 0x0C	; 12
     a3c:	f2 e0       	ldi	r31, 0x02	; 2
     a3e:	8f 7b       	andi	r24, 0xBF	; 191
     a40:	80 83       	st	Z, r24
     a42:	60 e0       	ldi	r22, 0x00	; 0
     a44:	85 e0       	ldi	r24, 0x05	; 5
     a46:	0e 94 af 02 	call	0x55e	; 0x55e <trigger_drum>
     a4a:	80 91 0d 02 	lds	r24, 0x020D
     a4e:	86 ff       	sbrs	r24, 6
     a50:	08 c0       	rjmp	.+16     	; 0xa62 <live_hits+0xa8>
     a52:	ed e0       	ldi	r30, 0x0D	; 13
     a54:	f2 e0       	ldi	r31, 0x02	; 2
     a56:	8f 7b       	andi	r24, 0xBF	; 191
     a58:	80 83       	st	Z, r24
     a5a:	60 e0       	ldi	r22, 0x00	; 0
     a5c:	86 e0       	ldi	r24, 0x06	; 6
     a5e:	0e 94 af 02 	call	0x55e	; 0x55e <trigger_drum>
     a62:	80 91 0e 02 	lds	r24, 0x020E
     a66:	86 ff       	sbrs	r24, 6
     a68:	08 c0       	rjmp	.+16     	; 0xa7a <live_hits+0xc0>
     a6a:	ee e0       	ldi	r30, 0x0E	; 14
     a6c:	f2 e0       	ldi	r31, 0x02	; 2
     a6e:	8f 7b       	andi	r24, 0xBF	; 191
     a70:	80 83       	st	Z, r24
     a72:	60 e0       	ldi	r22, 0x00	; 0
     a74:	87 e0       	ldi	r24, 0x07	; 7
     a76:	0e 94 af 02 	call	0x55e	; 0x55e <trigger_drum>
     a7a:	80 91 0f 02 	lds	r24, 0x020F
     a7e:	86 ff       	sbrs	r24, 6
     a80:	08 c0       	rjmp	.+16     	; 0xa92 <live_hits+0xd8>
     a82:	ef e0       	ldi	r30, 0x0F	; 15
     a84:	f2 e0       	ldi	r31, 0x02	; 2
     a86:	8f 7b       	andi	r24, 0xBF	; 191
     a88:	80 83       	st	Z, r24
     a8a:	60 e0       	ldi	r22, 0x00	; 0
     a8c:	88 e0       	ldi	r24, 0x08	; 8
     a8e:	0e 94 af 02 	call	0x55e	; 0x55e <trigger_drum>
     a92:	80 91 10 02 	lds	r24, 0x0210
     a96:	86 ff       	sbrs	r24, 6
     a98:	08 c0       	rjmp	.+16     	; 0xaaa <live_hits+0xf0>
     a9a:	e0 e1       	ldi	r30, 0x10	; 16
     a9c:	f2 e0       	ldi	r31, 0x02	; 2
     a9e:	8f 7b       	andi	r24, 0xBF	; 191
     aa0:	80 83       	st	Z, r24
     aa2:	60 e0       	ldi	r22, 0x00	; 0
     aa4:	89 e0       	ldi	r24, 0x09	; 9
     aa6:	0e 94 af 02 	call	0x55e	; 0x55e <trigger_drum>
     aaa:	80 91 11 02 	lds	r24, 0x0211
     aae:	86 ff       	sbrs	r24, 6
     ab0:	08 c0       	rjmp	.+16     	; 0xac2 <live_hits+0x108>
     ab2:	e1 e1       	ldi	r30, 0x11	; 17
     ab4:	f2 e0       	ldi	r31, 0x02	; 2
     ab6:	8f 7b       	andi	r24, 0xBF	; 191
     ab8:	80 83       	st	Z, r24
     aba:	60 e0       	ldi	r22, 0x00	; 0
     abc:	8a e0       	ldi	r24, 0x0A	; 10
     abe:	0e 94 af 02 	call	0x55e	; 0x55e <trigger_drum>
     ac2:	08 95       	ret

00000ac4 <__vector_2>:
     ac4:	1f 92       	push	r1
     ac6:	0f 92       	push	r0
     ac8:	0f b6       	in	r0, 0x3f	; 63
     aca:	0f 92       	push	r0
     acc:	11 24       	eor	r1, r1
     ace:	2f 93       	push	r18
     ad0:	3f 93       	push	r19
     ad2:	4f 93       	push	r20
     ad4:	5f 93       	push	r21
     ad6:	6f 93       	push	r22
     ad8:	7f 93       	push	r23
     ada:	8f 93       	push	r24
     adc:	9f 93       	push	r25
     ade:	af 93       	push	r26
     ae0:	bf 93       	push	r27
     ae2:	ef 93       	push	r30
     ae4:	ff 93       	push	r31
     ae6:	ec ef       	ldi	r30, 0xFC	; 252
     ae8:	f2 e0       	ldi	r31, 0x02	; 2
     aea:	81 81       	ldd	r24, Z+1	; 0x01
     aec:	8d 5f       	subi	r24, 0xFD	; 253
     aee:	81 83       	std	Z+1, r24	; 0x01
     af0:	0e 94 2b 0d 	call	0x1a56	; 0x1a56 <process_tick>
     af4:	80 91 e3 02 	lds	r24, 0x02E3
     af8:	85 ff       	sbrs	r24, 5
     afa:	21 c0       	rjmp	.+66     	; 0xb3e <__vector_2+0x7a>
     afc:	ee ef       	ldi	r30, 0xFE	; 254
     afe:	f2 e0       	ldi	r31, 0x02	; 2
     b00:	80 81       	ld	r24, Z
     b02:	86 95       	lsr	r24
     b04:	86 95       	lsr	r24
     b06:	86 95       	lsr	r24
     b08:	8f 5f       	subi	r24, 0xFF	; 255
     b0a:	87 70       	andi	r24, 0x07	; 7
     b0c:	28 2f       	mov	r18, r24
     b0e:	22 0f       	add	r18, r18
     b10:	22 0f       	add	r18, r18
     b12:	22 0f       	add	r18, r18
     b14:	90 81       	ld	r25, Z
     b16:	97 7c       	andi	r25, 0xC7	; 199
     b18:	92 2b       	or	r25, r18
     b1a:	90 83       	st	Z, r25
     b1c:	81 30       	cpi	r24, 0x01	; 1
     b1e:	79 f4       	brne	.+30     	; 0xb3e <__vector_2+0x7a>
     b20:	e3 ee       	ldi	r30, 0xE3	; 227
     b22:	f2 e0       	ldi	r31, 0x02	; 2
     b24:	80 81       	ld	r24, Z
     b26:	8f 7d       	andi	r24, 0xDF	; 223
     b28:	80 83       	st	Z, r24
     b2a:	10 92 fd 02 	sts	0x02FD, r1
     b2e:	e1 ee       	ldi	r30, 0xE1	; 225
     b30:	f2 e0       	ldi	r31, 0x02	; 2
     b32:	80 81       	ld	r24, Z
     b34:	81 60       	ori	r24, 0x01	; 1
     b36:	80 83       	st	Z, r24
     b38:	80 81       	ld	r24, Z
     b3a:	8d 7f       	andi	r24, 0xFD	; 253
     b3c:	80 83       	st	Z, r24
     b3e:	ff 91       	pop	r31
     b40:	ef 91       	pop	r30
     b42:	bf 91       	pop	r27
     b44:	af 91       	pop	r26
     b46:	9f 91       	pop	r25
     b48:	8f 91       	pop	r24
     b4a:	7f 91       	pop	r23
     b4c:	6f 91       	pop	r22
     b4e:	5f 91       	pop	r21
     b50:	4f 91       	pop	r20
     b52:	3f 91       	pop	r19
     b54:	2f 91       	pop	r18
     b56:	0f 90       	pop	r0
     b58:	0f be       	out	0x3f, r0	; 63
     b5a:	0f 90       	pop	r0
     b5c:	1f 90       	pop	r1
     b5e:	18 95       	reti

00000b60 <__vector_1>:
     b60:	1f 92       	push	r1
     b62:	0f 92       	push	r0
     b64:	0f b6       	in	r0, 0x3f	; 63
     b66:	0f 92       	push	r0
     b68:	11 24       	eor	r1, r1
     b6a:	2f 93       	push	r18
     b6c:	3f 93       	push	r19
     b6e:	4f 93       	push	r20
     b70:	5f 93       	push	r21
     b72:	6f 93       	push	r22
     b74:	7f 93       	push	r23
     b76:	8f 93       	push	r24
     b78:	9f 93       	push	r25
     b7a:	af 93       	push	r26
     b7c:	bf 93       	push	r27
     b7e:	ef 93       	push	r30
     b80:	ff 93       	push	r31
     b82:	ec ef       	ldi	r30, 0xFC	; 252
     b84:	f2 e0       	ldi	r31, 0x02	; 2
     b86:	80 81       	ld	r24, Z
     b88:	81 50       	subi	r24, 0x01	; 1
     b8a:	81 83       	std	Z+1, r24	; 0x01
     b8c:	0e 94 2b 0d 	call	0x1a56	; 0x1a56 <process_tick>
     b90:	32 9a       	sbi	0x06, 2	; 6
     b92:	ff 91       	pop	r31
     b94:	ef 91       	pop	r30
     b96:	bf 91       	pop	r27
     b98:	af 91       	pop	r26
     b9a:	9f 91       	pop	r25
     b9c:	8f 91       	pop	r24
     b9e:	7f 91       	pop	r23
     ba0:	6f 91       	pop	r22
     ba2:	5f 91       	pop	r21
     ba4:	4f 91       	pop	r20
     ba6:	3f 91       	pop	r19
     ba8:	2f 91       	pop	r18
     baa:	0f 90       	pop	r0
     bac:	0f be       	out	0x3f, r0	; 63
     bae:	0f 90       	pop	r0
     bb0:	1f 90       	pop	r1
     bb2:	18 95       	reti

00000bb4 <__vector_5>:
     bb4:	1f 92       	push	r1
     bb6:	0f 92       	push	r0
     bb8:	0f b6       	in	r0, 0x3f	; 63
     bba:	0f 92       	push	r0
     bbc:	11 24       	eor	r1, r1
     bbe:	2f 93       	push	r18
     bc0:	3f 93       	push	r19
     bc2:	4f 93       	push	r20
     bc4:	5f 93       	push	r21
     bc6:	6f 93       	push	r22
     bc8:	7f 93       	push	r23
     bca:	8f 93       	push	r24
     bcc:	9f 93       	push	r25
     bce:	af 93       	push	r26
     bd0:	bf 93       	push	r27
     bd2:	ef 93       	push	r30
     bd4:	ff 93       	push	r31
     bd6:	4c 9b       	sbis	0x09, 4	; 9
     bd8:	08 c0       	rjmp	.+16     	; 0xbea <__vector_5+0x36>
     bda:	ea ef       	ldi	r30, 0xFA	; 250
     bdc:	f4 e0       	ldi	r31, 0x04	; 4
     bde:	80 81       	ld	r24, Z
     be0:	80 62       	ori	r24, 0x20	; 32
     be2:	80 83       	st	Z, r24
     be4:	0e 94 11 0e 	call	0x1c22	; 0x1c22 <process_start>
     be8:	07 c0       	rjmp	.+14     	; 0xbf8 <__vector_5+0x44>
     bea:	ea ef       	ldi	r30, 0xFA	; 250
     bec:	f4 e0       	ldi	r31, 0x04	; 4
     bee:	80 81       	ld	r24, Z
     bf0:	8f 7d       	andi	r24, 0xDF	; 223
     bf2:	80 83       	st	Z, r24
     bf4:	0e 94 78 0e 	call	0x1cf0	; 0x1cf0 <process_stop>
     bf8:	ff 91       	pop	r31
     bfa:	ef 91       	pop	r30
     bfc:	bf 91       	pop	r27
     bfe:	af 91       	pop	r26
     c00:	9f 91       	pop	r25
     c02:	8f 91       	pop	r24
     c04:	7f 91       	pop	r23
     c06:	6f 91       	pop	r22
     c08:	5f 91       	pop	r21
     c0a:	4f 91       	pop	r20
     c0c:	3f 91       	pop	r19
     c0e:	2f 91       	pop	r18
     c10:	0f 90       	pop	r0
     c12:	0f be       	out	0x3f, r0	; 63
     c14:	0f 90       	pop	r0
     c16:	1f 90       	pop	r1
     c18:	18 95       	reti

00000c1a <__vector_14>:
     c1a:	1f 92       	push	r1
     c1c:	0f 92       	push	r0
     c1e:	0f b6       	in	r0, 0x3f	; 63
     c20:	0f 92       	push	r0
     c22:	11 24       	eor	r1, r1
     c24:	2f 93       	push	r18
     c26:	3f 93       	push	r19
     c28:	4f 93       	push	r20
     c2a:	5f 93       	push	r21
     c2c:	6f 93       	push	r22
     c2e:	7f 93       	push	r23
     c30:	8f 93       	push	r24
     c32:	9f 93       	push	r25
     c34:	af 93       	push	r26
     c36:	bf 93       	push	r27
     c38:	cf 93       	push	r28
     c3a:	df 93       	push	r29
     c3c:	ef 93       	push	r30
     c3e:	ff 93       	push	r31
     c40:	15 bc       	out	0x25, r1	; 37
     c42:	ee e6       	ldi	r30, 0x6E	; 110
     c44:	f0 e0       	ldi	r31, 0x00	; 0
     c46:	80 81       	ld	r24, Z
     c48:	8d 7f       	andi	r24, 0xFD	; 253
     c4a:	80 83       	st	Z, r24
     c4c:	85 b1       	in	r24, 0x05	; 5
     c4e:	87 7e       	andi	r24, 0xE7	; 231
     c50:	85 b9       	out	0x05, r24	; 5
     c52:	e1 ee       	ldi	r30, 0xE1	; 225
     c54:	f2 e0       	ldi	r31, 0x02	; 2
     c56:	80 81       	ld	r24, Z
     c58:	88 60       	ori	r24, 0x08	; 8
     c5a:	80 83       	st	Z, r24
     c5c:	80 91 f9 04 	lds	r24, 0x04F9
     c60:	81 11       	cpse	r24, r1
     c62:	2f c0       	rjmp	.+94     	; 0xcc2 <__vector_14+0xa8>
     c64:	a0 91 30 02 	lds	r26, 0x0230
     c68:	87 e0       	ldi	r24, 0x07	; 7
     c6a:	a8 9f       	mul	r26, r24
     c6c:	d0 01       	movw	r26, r0
     c6e:	11 24       	eor	r1, r1
     c70:	a0 50       	subi	r26, 0x00	; 0
     c72:	bf 4f       	sbci	r27, 0xFF	; 255
     c74:	ec 91       	ld	r30, X
     c76:	8e 2f       	mov	r24, r30
     c78:	88 1f       	adc	r24, r24
     c7a:	88 27       	eor	r24, r24
     c7c:	88 1f       	adc	r24, r24
     c7e:	11 96       	adiw	r26, 0x01	; 1
     c80:	ec 91       	ld	r30, X
     c82:	11 97       	sbiw	r26, 0x01	; 1
     c84:	e7 70       	andi	r30, 0x07	; 7
     c86:	ee 0f       	add	r30, r30
     c88:	e8 2b       	or	r30, r24
     c8a:	f0 e0       	ldi	r31, 0x00	; 0
     c8c:	c1 e4       	ldi	r28, 0x41	; 65
     c8e:	d2 e0       	ldi	r29, 0x02	; 2
     c90:	ef 5b       	subi	r30, 0xBF	; 191
     c92:	fd 4f       	sbci	r31, 0xFD	; 253
     c94:	12 96       	adiw	r26, 0x02	; 2
     c96:	8c 91       	ld	r24, X
     c98:	80 95       	com	r24
     c9a:	90 81       	ld	r25, Z
     c9c:	89 23       	and	r24, r25
     c9e:	80 83       	st	Z, r24
     ca0:	84 e1       	ldi	r24, 0x14	; 20
     ca2:	0e 94 ae 07 	call	0xf5c	; 0xf5c <turn_off>
     ca6:	88 85       	ldd	r24, Y+8	; 0x08
     ca8:	8e 7f       	andi	r24, 0xFE	; 254
     caa:	88 87       	std	Y+8, r24	; 0x08
     cac:	e0 91 30 02 	lds	r30, 0x0230
     cb0:	87 e0       	ldi	r24, 0x07	; 7
     cb2:	e8 9f       	mul	r30, r24
     cb4:	f0 01       	movw	r30, r0
     cb6:	11 24       	eor	r1, r1
     cb8:	e0 50       	subi	r30, 0x00	; 0
     cba:	ff 4f       	sbci	r31, 0xFF	; 255
     cbc:	85 81       	ldd	r24, Z+5	; 0x05
     cbe:	0e 94 ae 07 	call	0xf5c	; 0xf5c <turn_off>
     cc2:	ff 91       	pop	r31
     cc4:	ef 91       	pop	r30
     cc6:	df 91       	pop	r29
     cc8:	cf 91       	pop	r28
     cca:	bf 91       	pop	r27
     ccc:	af 91       	pop	r26
     cce:	9f 91       	pop	r25
     cd0:	8f 91       	pop	r24
     cd2:	7f 91       	pop	r23
     cd4:	6f 91       	pop	r22
     cd6:	5f 91       	pop	r21
     cd8:	4f 91       	pop	r20
     cda:	3f 91       	pop	r19
     cdc:	2f 91       	pop	r18
     cde:	0f 90       	pop	r0
     ce0:	0f be       	out	0x3f, r0	; 63
     ce2:	0f 90       	pop	r0
     ce4:	1f 90       	pop	r1
     ce6:	18 95       	reti

00000ce8 <__vector_7>:
     ce8:	1f 92       	push	r1
     cea:	0f 92       	push	r0
     cec:	0f b6       	in	r0, 0x3f	; 63
     cee:	0f 92       	push	r0
     cf0:	11 24       	eor	r1, r1
     cf2:	8f 93       	push	r24
     cf4:	ef 93       	push	r30
     cf6:	ff 93       	push	r31
     cf8:	e3 ee       	ldi	r30, 0xE3	; 227
     cfa:	f2 e0       	ldi	r31, 0x02	; 2
     cfc:	81 81       	ldd	r24, Z+1	; 0x01
     cfe:	81 60       	ori	r24, 0x01	; 1
     d00:	81 83       	std	Z+1, r24	; 0x01
     d02:	ff 91       	pop	r31
     d04:	ef 91       	pop	r30
     d06:	8f 91       	pop	r24
     d08:	0f 90       	pop	r0
     d0a:	0f be       	out	0x3f, r0	; 63
     d0c:	0f 90       	pop	r0
     d0e:	1f 90       	pop	r1
     d10:	18 95       	reti

00000d12 <__vector_33>:
     d12:	1f 92       	push	r1
     d14:	0f 92       	push	r0
     d16:	0f b6       	in	r0, 0x3f	; 63
     d18:	0f 92       	push	r0
     d1a:	11 24       	eor	r1, r1
     d1c:	0f 90       	pop	r0
     d1e:	0f be       	out	0x3f, r0	; 63
     d20:	0f 90       	pop	r0
     d22:	1f 90       	pop	r1
     d24:	18 95       	reti

00000d26 <__vector_42>:
     d26:	1f 92       	push	r1
     d28:	0f 92       	push	r0
     d2a:	0f b6       	in	r0, 0x3f	; 63
     d2c:	0f 92       	push	r0
     d2e:	11 24       	eor	r1, r1
     d30:	0f 90       	pop	r0
     d32:	0f be       	out	0x3f, r0	; 63
     d34:	0f 90       	pop	r0
     d36:	1f 90       	pop	r1
     d38:	18 95       	reti

00000d3a <__vector_11>:
     d3a:	1f 92       	push	r1
     d3c:	0f 92       	push	r0
     d3e:	0f b6       	in	r0, 0x3f	; 63
     d40:	0f 92       	push	r0
     d42:	11 24       	eor	r1, r1
     d44:	2f 93       	push	r18
     d46:	3f 93       	push	r19
     d48:	4f 93       	push	r20
     d4a:	5f 93       	push	r21
     d4c:	6f 93       	push	r22
     d4e:	7f 93       	push	r23
     d50:	8f 93       	push	r24
     d52:	9f 93       	push	r25
     d54:	af 93       	push	r26
     d56:	bf 93       	push	r27
     d58:	ef 93       	push	r30
     d5a:	ff 93       	push	r31
     d5c:	80 91 04 03 	lds	r24, 0x0304
     d60:	81 11       	cpse	r24, r1
     d62:	5c c0       	rjmp	.+184    	; 0xe1c <__vector_11+0xe2>
     d64:	0e 94 2b 0d 	call	0x1a56	; 0x1a56 <process_tick>
     d68:	80 91 fa 04 	lds	r24, 0x04FA
     d6c:	85 ff       	sbrs	r24, 5
     d6e:	56 c0       	rjmp	.+172    	; 0xe1c <__vector_11+0xe2>
     d70:	ee ef       	ldi	r30, 0xFE	; 254
     d72:	f2 e0       	ldi	r31, 0x02	; 2
     d74:	20 81       	ld	r18, Z
     d76:	27 70       	andi	r18, 0x07	; 7
     d78:	81 e0       	ldi	r24, 0x01	; 1
     d7a:	82 0f       	add	r24, r18
     d7c:	98 2f       	mov	r25, r24
     d7e:	97 70       	andi	r25, 0x07	; 7
     d80:	80 81       	ld	r24, Z
     d82:	88 7f       	andi	r24, 0xF8	; 248
     d84:	89 2b       	or	r24, r25
     d86:	80 83       	st	Z, r24
     d88:	23 30       	cpi	r18, 0x03	; 3
     d8a:	09 f0       	breq	.+2      	; 0xd8e <__vector_11+0x54>
     d8c:	47 c0       	rjmp	.+142    	; 0xe1c <__vector_11+0xe2>
     d8e:	80 81       	ld	r24, Z
     d90:	88 7f       	andi	r24, 0xF8	; 248
     d92:	80 83       	st	Z, r24
     d94:	80 91 f9 04 	lds	r24, 0x04F9
     d98:	81 30       	cpi	r24, 0x01	; 1
     d9a:	31 f4       	brne	.+12     	; 0xda8 <__vector_11+0x6e>
     d9c:	85 e0       	ldi	r24, 0x05	; 5
     d9e:	93 e0       	ldi	r25, 0x03	; 3
     da0:	0e 94 9e 22 	call	0x453c	; 0x453c <midi_send_clock>
     da4:	32 9a       	sbi	0x06, 2	; 6
     da6:	3a c0       	rjmp	.+116    	; 0xe1c <__vector_11+0xe2>
     da8:	e0 eb       	ldi	r30, 0xB0	; 176
     daa:	f0 e0       	ldi	r31, 0x00	; 0
     dac:	80 81       	ld	r24, Z
     dae:	8f 7e       	andi	r24, 0xEF	; 239
     db0:	80 83       	st	Z, r24
     db2:	a1 eb       	ldi	r26, 0xB1	; 177
     db4:	b0 e0       	ldi	r27, 0x00	; 0
     db6:	8c 91       	ld	r24, X
     db8:	80 64       	ori	r24, 0x40	; 64
     dba:	8c 93       	st	X, r24
     dbc:	80 81       	ld	r24, Z
     dbe:	80 63       	ori	r24, 0x30	; 48
     dc0:	80 83       	st	Z, r24
     dc2:	10 92 b2 00 	sts	0x00B2, r1
     dc6:	32 9a       	sbi	0x06, 2	; 6
     dc8:	80 91 e3 02 	lds	r24, 0x02E3
     dcc:	85 ff       	sbrs	r24, 5
     dce:	26 c0       	rjmp	.+76     	; 0xe1c <__vector_11+0xe2>
     dd0:	ee ef       	ldi	r30, 0xFE	; 254
     dd2:	f2 e0       	ldi	r31, 0x02	; 2
     dd4:	80 81       	ld	r24, Z
     dd6:	86 95       	lsr	r24
     dd8:	86 95       	lsr	r24
     dda:	86 95       	lsr	r24
     ddc:	8f 5f       	subi	r24, 0xFF	; 255
     dde:	87 70       	andi	r24, 0x07	; 7
     de0:	28 2f       	mov	r18, r24
     de2:	22 0f       	add	r18, r18
     de4:	22 0f       	add	r18, r18
     de6:	22 0f       	add	r18, r18
     de8:	90 81       	ld	r25, Z
     dea:	97 7c       	andi	r25, 0xC7	; 199
     dec:	92 2b       	or	r25, r18
     dee:	90 83       	st	Z, r25
     df0:	83 30       	cpi	r24, 0x03	; 3
     df2:	a1 f4       	brne	.+40     	; 0xe1c <__vector_11+0xe2>
     df4:	e3 ee       	ldi	r30, 0xE3	; 227
     df6:	f2 e0       	ldi	r31, 0x02	; 2
     df8:	80 81       	ld	r24, Z
     dfa:	8f 7d       	andi	r24, 0xDF	; 223
     dfc:	80 83       	st	Z, r24
     dfe:	5c 9a       	sbi	0x0b, 4	; 11
     e00:	10 92 fd 02 	sts	0x02FD, r1
     e04:	e1 ee       	ldi	r30, 0xE1	; 225
     e06:	f2 e0       	ldi	r31, 0x02	; 2
     e08:	80 81       	ld	r24, Z
     e0a:	81 60       	ori	r24, 0x01	; 1
     e0c:	80 83       	st	Z, r24
     e0e:	10 92 85 00 	sts	0x0085, r1
     e12:	10 92 84 00 	sts	0x0084, r1
     e16:	80 81       	ld	r24, Z
     e18:	8d 7f       	andi	r24, 0xFD	; 253
     e1a:	80 83       	st	Z, r24
     e1c:	ff 91       	pop	r31
     e1e:	ef 91       	pop	r30
     e20:	bf 91       	pop	r27
     e22:	af 91       	pop	r26
     e24:	9f 91       	pop	r25
     e26:	8f 91       	pop	r24
     e28:	7f 91       	pop	r23
     e2a:	6f 91       	pop	r22
     e2c:	5f 91       	pop	r21
     e2e:	4f 91       	pop	r20
     e30:	3f 91       	pop	r19
     e32:	2f 91       	pop	r18
     e34:	0f 90       	pop	r0
     e36:	0f be       	out	0x3f, r0	; 63
     e38:	0f 90       	pop	r0
     e3a:	1f 90       	pop	r1
     e3c:	18 95       	reti

00000e3e <__vector_18>:
     e3e:	1f 92       	push	r1
     e40:	0f 92       	push	r0
     e42:	0f b6       	in	r0, 0x3f	; 63
     e44:	0f 92       	push	r0
     e46:	11 24       	eor	r1, r1
     e48:	2f 93       	push	r18
     e4a:	3f 93       	push	r19
     e4c:	4f 93       	push	r20
     e4e:	5f 93       	push	r21
     e50:	6f 93       	push	r22
     e52:	7f 93       	push	r23
     e54:	8f 93       	push	r24
     e56:	9f 93       	push	r25
     e58:	af 93       	push	r26
     e5a:	bf 93       	push	r27
     e5c:	ef 93       	push	r30
     e5e:	ff 93       	push	r31
     e60:	cf 93       	push	r28
     e62:	df 93       	push	r29
     e64:	1f 92       	push	r1
     e66:	cd b7       	in	r28, 0x3d	; 61
     e68:	de b7       	in	r29, 0x3e	; 62
     e6a:	80 91 c6 00 	lds	r24, 0x00C6
     e6e:	89 83       	std	Y+1, r24	; 0x01
     e70:	ae 01       	movw	r20, r28
     e72:	4f 5f       	subi	r20, 0xFF	; 255
     e74:	5f 4f       	sbci	r21, 0xFF	; 255
     e76:	61 e0       	ldi	r22, 0x01	; 1
     e78:	85 e0       	ldi	r24, 0x05	; 5
     e7a:	93 e0       	ldi	r25, 0x03	; 3
     e7c:	0e 94 ff 22 	call	0x45fe	; 0x45fe <midi_device_input>
     e80:	0f 90       	pop	r0
     e82:	df 91       	pop	r29
     e84:	cf 91       	pop	r28
     e86:	ff 91       	pop	r31
     e88:	ef 91       	pop	r30
     e8a:	bf 91       	pop	r27
     e8c:	af 91       	pop	r26
     e8e:	9f 91       	pop	r25
     e90:	8f 91       	pop	r24
     e92:	7f 91       	pop	r23
     e94:	6f 91       	pop	r22
     e96:	5f 91       	pop	r21
     e98:	4f 91       	pop	r20
     e9a:	3f 91       	pop	r19
     e9c:	2f 91       	pop	r18
     e9e:	0f 90       	pop	r0
     ea0:	0f be       	out	0x3f, r0	; 63
     ea2:	0f 90       	pop	r0
     ea4:	1f 90       	pop	r1
     ea6:	18 95       	reti

00000ea8 <__vector_19>:
     ea8:	1f 92       	push	r1
     eaa:	0f 92       	push	r0
     eac:	0f b6       	in	r0, 0x3f	; 63
     eae:	0f 92       	push	r0
     eb0:	11 24       	eor	r1, r1
     eb2:	2f 93       	push	r18
     eb4:	3f 93       	push	r19
     eb6:	4f 93       	push	r20
     eb8:	5f 93       	push	r21
     eba:	6f 93       	push	r22
     ebc:	7f 93       	push	r23
     ebe:	8f 93       	push	r24
     ec0:	9f 93       	push	r25
     ec2:	af 93       	push	r26
     ec4:	bf 93       	push	r27
     ec6:	ef 93       	push	r30
     ec8:	ff 93       	push	r31
     eca:	82 eb       	ldi	r24, 0xB2	; 178
     ecc:	94 e0       	ldi	r25, 0x04	; 4
     ece:	0e 94 19 22 	call	0x4432	; 0x4432 <bytequeue_length>
     ed2:	88 23       	and	r24, r24
     ed4:	61 f0       	breq	.+24     	; 0xeee <__vector_19+0x46>
     ed6:	60 e0       	ldi	r22, 0x00	; 0
     ed8:	82 eb       	ldi	r24, 0xB2	; 178
     eda:	94 e0       	ldi	r25, 0x04	; 4
     edc:	0e 94 2f 22 	call	0x445e	; 0x445e <bytequeue_get>
     ee0:	80 93 c6 00 	sts	0x00C6, r24
     ee4:	61 e0       	ldi	r22, 0x01	; 1
     ee6:	82 eb       	ldi	r24, 0xB2	; 178
     ee8:	94 e0       	ldi	r25, 0x04	; 4
     eea:	0e 94 41 22 	call	0x4482	; 0x4482 <bytequeue_remove>
     eee:	82 eb       	ldi	r24, 0xB2	; 178
     ef0:	94 e0       	ldi	r25, 0x04	; 4
     ef2:	0e 94 19 22 	call	0x4432	; 0x4432 <bytequeue_length>
     ef6:	81 11       	cpse	r24, r1
     ef8:	05 c0       	rjmp	.+10     	; 0xf04 <__vector_19+0x5c>
     efa:	e1 ec       	ldi	r30, 0xC1	; 193
     efc:	f0 e0       	ldi	r31, 0x00	; 0
     efe:	80 81       	ld	r24, Z
     f00:	8f 7d       	andi	r24, 0xDF	; 223
     f02:	80 83       	st	Z, r24
     f04:	ff 91       	pop	r31
     f06:	ef 91       	pop	r30
     f08:	bf 91       	pop	r27
     f0a:	af 91       	pop	r26
     f0c:	9f 91       	pop	r25
     f0e:	8f 91       	pop	r24
     f10:	7f 91       	pop	r23
     f12:	6f 91       	pop	r22
     f14:	5f 91       	pop	r21
     f16:	4f 91       	pop	r20
     f18:	3f 91       	pop	r19
     f1a:	2f 91       	pop	r18
     f1c:	0f 90       	pop	r0
     f1e:	0f be       	out	0x3f, r0	; 63
     f20:	0f 90       	pop	r0
     f22:	1f 90       	pop	r1
     f24:	18 95       	reti

00000f26 <turn_on>:
     f26:	cf 93       	push	r28
     f28:	df 93       	push	r29
     f2a:	90 e0       	ldi	r25, 0x00	; 0
     f2c:	88 0f       	add	r24, r24
     f2e:	99 1f       	adc	r25, r25
     f30:	dc 01       	movw	r26, r24
     f32:	ac 57       	subi	r26, 0x7C	; 124
     f34:	be 4f       	sbci	r27, 0xFE	; 254
     f36:	2c 91       	ld	r18, X
     f38:	e2 2f       	mov	r30, r18
     f3a:	ef 70       	andi	r30, 0x0F	; 15
     f3c:	f0 e0       	ldi	r31, 0x00	; 0
     f3e:	ef 5b       	subi	r30, 0xBF	; 191
     f40:	fd 4f       	sbci	r31, 0xFD	; 253
     f42:	ec 01       	movw	r28, r24
     f44:	cd 57       	subi	r28, 0x7D	; 125
     f46:	de 4f       	sbci	r29, 0xFE	; 254
     f48:	30 81       	ld	r19, Z
     f4a:	88 81       	ld	r24, Y
     f4c:	83 2b       	or	r24, r19
     f4e:	80 83       	st	Z, r24
     f50:	82 2f       	mov	r24, r18
     f52:	80 61       	ori	r24, 0x10	; 16
     f54:	8c 93       	st	X, r24
     f56:	df 91       	pop	r29
     f58:	cf 91       	pop	r28
     f5a:	08 95       	ret

00000f5c <turn_off>:
     f5c:	cf 93       	push	r28
     f5e:	df 93       	push	r29
     f60:	90 e0       	ldi	r25, 0x00	; 0
     f62:	88 0f       	add	r24, r24
     f64:	99 1f       	adc	r25, r25
     f66:	dc 01       	movw	r26, r24
     f68:	ac 57       	subi	r26, 0x7C	; 124
     f6a:	be 4f       	sbci	r27, 0xFE	; 254
     f6c:	2c 91       	ld	r18, X
     f6e:	e2 2f       	mov	r30, r18
     f70:	ef 70       	andi	r30, 0x0F	; 15
     f72:	f0 e0       	ldi	r31, 0x00	; 0
     f74:	ef 5b       	subi	r30, 0xBF	; 191
     f76:	fd 4f       	sbci	r31, 0xFD	; 253
     f78:	ec 01       	movw	r28, r24
     f7a:	cd 57       	subi	r28, 0x7D	; 125
     f7c:	de 4f       	sbci	r29, 0xFE	; 254
     f7e:	88 81       	ld	r24, Y
     f80:	80 95       	com	r24
     f82:	90 81       	ld	r25, Z
     f84:	89 23       	and	r24, r25
     f86:	80 83       	st	Z, r24
     f88:	82 2f       	mov	r24, r18
     f8a:	8f 7e       	andi	r24, 0xEF	; 239
     f8c:	8c 93       	st	X, r24
     f8e:	df 91       	pop	r29
     f90:	cf 91       	pop	r28
     f92:	08 95       	ret

00000f94 <toggle>:
     f94:	e8 2f       	mov	r30, r24
     f96:	f0 e0       	ldi	r31, 0x00	; 0
     f98:	ee 0f       	add	r30, r30
     f9a:	ff 1f       	adc	r31, r31
     f9c:	ec 57       	subi	r30, 0x7C	; 124
     f9e:	fe 4f       	sbci	r31, 0xFE	; 254
     fa0:	90 81       	ld	r25, Z
     fa2:	94 ff       	sbrs	r25, 4
     fa4:	03 c0       	rjmp	.+6      	; 0xfac <toggle+0x18>
     fa6:	0e 94 ae 07 	call	0xf5c	; 0xf5c <turn_off>
     faa:	08 95       	ret
     fac:	0e 94 93 07 	call	0xf26	; 0xf26 <turn_on>
     fb0:	08 95       	ret

00000fb2 <turn_off_all_inst_leds>:
     fb2:	e1 e4       	ldi	r30, 0x41	; 65
     fb4:	f2 e0       	ldi	r31, 0x02	; 2
     fb6:	82 81       	ldd	r24, Z+2	; 0x02
     fb8:	8f 70       	andi	r24, 0x0F	; 15
     fba:	82 83       	std	Z+2, r24	; 0x02
     fbc:	87 81       	ldd	r24, Z+7	; 0x07
     fbe:	80 72       	andi	r24, 0x20	; 32
     fc0:	87 83       	std	Z+7, r24	; 0x07
     fc2:	83 81       	ldd	r24, Z+3	; 0x03
     fc4:	8f 70       	andi	r24, 0x0F	; 15
     fc6:	83 83       	std	Z+3, r24	; 0x03
     fc8:	86 81       	ldd	r24, Z+6	; 0x06
     fca:	8f 7c       	andi	r24, 0xCF	; 207
     fcc:	86 83       	std	Z+6, r24	; 0x06
     fce:	08 95       	ret

00000fd0 <show_mutes>:
     fd0:	0f 93       	push	r16
     fd2:	1f 93       	push	r17
     fd4:	cf 93       	push	r28
     fd6:	df 93       	push	r29
     fd8:	05 e0       	ldi	r16, 0x05	; 5
     fda:	11 e0       	ldi	r17, 0x01	; 1
     fdc:	c0 e0       	ldi	r28, 0x00	; 0
     fde:	d0 e0       	ldi	r29, 0x00	; 0
     fe0:	fe 01       	movw	r30, r28
     fe2:	ee 0f       	add	r30, r30
     fe4:	ff 1f       	adc	r31, r31
     fe6:	ee 0f       	add	r30, r30
     fe8:	ff 1f       	adc	r31, r31
     fea:	ee 0f       	add	r30, r30
     fec:	ff 1f       	adc	r31, r31
     fee:	ec 1b       	sub	r30, r28
     ff0:	fd 0b       	sbc	r31, r29
     ff2:	ea 5f       	subi	r30, 0xFA	; 250
     ff4:	fe 4f       	sbci	r31, 0xFE	; 254
     ff6:	80 81       	ld	r24, Z
     ff8:	80 ff       	sbrs	r24, 0
     ffa:	05 c0       	rjmp	.+10     	; 0x1006 <show_mutes+0x36>
     ffc:	f8 01       	movw	r30, r16
     ffe:	80 81       	ld	r24, Z
    1000:	0e 94 93 07 	call	0xf26	; 0xf26 <turn_on>
    1004:	04 c0       	rjmp	.+8      	; 0x100e <show_mutes+0x3e>
    1006:	f8 01       	movw	r30, r16
    1008:	80 81       	ld	r24, Z
    100a:	0e 94 ae 07 	call	0xf5c	; 0xf5c <turn_off>
    100e:	21 96       	adiw	r28, 0x01	; 1
    1010:	09 5f       	subi	r16, 0xF9	; 249
    1012:	1f 4f       	sbci	r17, 0xFF	; 255
    1014:	c0 31       	cpi	r28, 0x10	; 16
    1016:	d1 05       	cpc	r29, r1
    1018:	19 f7       	brne	.-58     	; 0xfe0 <show_mutes+0x10>
    101a:	df 91       	pop	r29
    101c:	cf 91       	pop	r28
    101e:	1f 91       	pop	r17
    1020:	0f 91       	pop	r16
    1022:	08 95       	ret

00001024 <update_inst_leds>:
    1024:	80 91 f8 04 	lds	r24, 0x04F8
    1028:	83 30       	cpi	r24, 0x03	; 3
    102a:	09 f4       	brne	.+2      	; 0x102e <update_inst_leds+0xa>
    102c:	49 c0       	rjmp	.+146    	; 0x10c0 <update_inst_leds+0x9c>
    102e:	38 f0       	brcs	.+14     	; 0x103e <update_inst_leds+0x1a>
    1030:	84 30       	cpi	r24, 0x04	; 4
    1032:	09 f4       	brne	.+2      	; 0x1036 <update_inst_leds+0x12>
    1034:	58 c0       	rjmp	.+176    	; 0x10e6 <update_inst_leds+0xc2>
    1036:	85 30       	cpi	r24, 0x05	; 5
    1038:	09 f4       	brne	.+2      	; 0x103c <update_inst_leds+0x18>
    103a:	70 c0       	rjmp	.+224    	; 0x111c <update_inst_leds+0xf8>
    103c:	08 95       	ret
    103e:	80 91 fa 04 	lds	r24, 0x04FA
    1042:	84 ff       	sbrs	r24, 4
    1044:	31 c0       	rjmp	.+98     	; 0x10a8 <update_inst_leds+0x84>
    1046:	80 91 fb 04 	lds	r24, 0x04FB
    104a:	80 ff       	sbrs	r24, 0
    104c:	2a c0       	rjmp	.+84     	; 0x10a2 <update_inst_leds+0x7e>
    104e:	0e 94 d9 07 	call	0xfb2	; 0xfb2 <turn_off_all_inst_leds>
    1052:	80 91 ca 05 	lds	r24, 0x05CA
    1056:	82 fd       	sbrc	r24, 2
    1058:	0d c0       	rjmp	.+26     	; 0x1074 <update_inst_leds+0x50>
    105a:	e0 91 d6 05 	lds	r30, 0x05D6
    105e:	ef 71       	andi	r30, 0x1F	; 31
    1060:	87 e0       	ldi	r24, 0x07	; 7
    1062:	e8 9f       	mul	r30, r24
    1064:	f0 01       	movw	r30, r0
    1066:	11 24       	eor	r1, r1
    1068:	e0 50       	subi	r30, 0x00	; 0
    106a:	ff 4f       	sbci	r31, 0xFF	; 255
    106c:	85 81       	ldd	r24, Z+5	; 0x05
    106e:	0e 94 93 07 	call	0xf26	; 0xf26 <turn_on>
    1072:	08 95       	ret
    1074:	e0 91 d6 05 	lds	r30, 0x05D6
    1078:	8e 2f       	mov	r24, r30
    107a:	82 95       	swap	r24
    107c:	86 95       	lsr	r24
    107e:	87 70       	andi	r24, 0x07	; 7
    1080:	e0 91 d7 05 	lds	r30, 0x05D7
    1084:	e3 70       	andi	r30, 0x03	; 3
    1086:	ee 0f       	add	r30, r30
    1088:	ee 0f       	add	r30, r30
    108a:	ee 0f       	add	r30, r30
    108c:	e8 2b       	or	r30, r24
    108e:	87 e0       	ldi	r24, 0x07	; 7
    1090:	e8 9f       	mul	r30, r24
    1092:	f0 01       	movw	r30, r0
    1094:	11 24       	eor	r1, r1
    1096:	e0 50       	subi	r30, 0x00	; 0
    1098:	ff 4f       	sbci	r31, 0xFF	; 255
    109a:	85 81       	ldd	r24, Z+5	; 0x05
    109c:	0e 94 93 07 	call	0xf26	; 0xf26 <turn_on>
    10a0:	08 95       	ret
    10a2:	0e 94 e8 07 	call	0xfd0	; 0xfd0 <show_mutes>
    10a6:	08 95       	ret
    10a8:	e0 91 d4 05 	lds	r30, 0x05D4
    10ac:	87 e0       	ldi	r24, 0x07	; 7
    10ae:	e8 9f       	mul	r30, r24
    10b0:	f0 01       	movw	r30, r0
    10b2:	11 24       	eor	r1, r1
    10b4:	e0 50       	subi	r30, 0x00	; 0
    10b6:	ff 4f       	sbci	r31, 0xFF	; 255
    10b8:	85 81       	ldd	r24, Z+5	; 0x05
    10ba:	0e 94 93 07 	call	0xf26	; 0xf26 <turn_on>
    10be:	08 95       	ret
    10c0:	80 91 fa 04 	lds	r24, 0x04FA
    10c4:	84 ff       	sbrs	r24, 4
    10c6:	03 c0       	rjmp	.+6      	; 0x10ce <update_inst_leds+0xaa>
    10c8:	0e 94 e8 07 	call	0xfd0	; 0xfd0 <show_mutes>
    10cc:	08 95       	ret
    10ce:	e0 91 d4 05 	lds	r30, 0x05D4
    10d2:	87 e0       	ldi	r24, 0x07	; 7
    10d4:	e8 9f       	mul	r30, r24
    10d6:	f0 01       	movw	r30, r0
    10d8:	11 24       	eor	r1, r1
    10da:	e0 50       	subi	r30, 0x00	; 0
    10dc:	ff 4f       	sbci	r31, 0xFF	; 255
    10de:	85 81       	ldd	r24, Z+5	; 0x05
    10e0:	0e 94 93 07 	call	0xf26	; 0xf26 <turn_on>
    10e4:	08 95       	ret
    10e6:	80 91 fa 04 	lds	r24, 0x04FA
    10ea:	84 ff       	sbrs	r24, 4
    10ec:	03 c0       	rjmp	.+6      	; 0x10f4 <update_inst_leds+0xd0>
    10ee:	0e 94 e8 07 	call	0xfd0	; 0xfd0 <show_mutes>
    10f2:	08 95       	ret
    10f4:	e0 91 d2 05 	lds	r30, 0x05D2
    10f8:	8e 2f       	mov	r24, r30
    10fa:	82 95       	swap	r24
    10fc:	86 95       	lsr	r24
    10fe:	86 95       	lsr	r24
    1100:	83 70       	andi	r24, 0x03	; 3
    1102:	e0 91 d3 05 	lds	r30, 0x05D3
    1106:	e3 70       	andi	r30, 0x03	; 3
    1108:	ee 0f       	add	r30, r30
    110a:	ee 0f       	add	r30, r30
    110c:	e8 2b       	or	r30, r24
    110e:	f0 e0       	ldi	r31, 0x00	; 0
    1110:	e9 58       	subi	r30, 0x89	; 137
    1112:	fe 4f       	sbci	r31, 0xFE	; 254
    1114:	80 81       	ld	r24, Z
    1116:	0e 94 93 07 	call	0xf26	; 0xf26 <turn_on>
    111a:	08 95       	ret
    111c:	80 91 fa 04 	lds	r24, 0x04FA
    1120:	84 ff       	sbrs	r24, 4
    1122:	03 c0       	rjmp	.+6      	; 0x112a <update_inst_leds+0x106>
    1124:	0e 94 e8 07 	call	0xfd0	; 0xfd0 <show_mutes>
    1128:	08 95       	ret
    112a:	e0 91 d2 05 	lds	r30, 0x05D2
    112e:	8e 2f       	mov	r24, r30
    1130:	82 95       	swap	r24
    1132:	86 95       	lsr	r24
    1134:	86 95       	lsr	r24
    1136:	83 70       	andi	r24, 0x03	; 3
    1138:	e0 91 d3 05 	lds	r30, 0x05D3
    113c:	e3 70       	andi	r30, 0x03	; 3
    113e:	ee 0f       	add	r30, r30
    1140:	ee 0f       	add	r30, r30
    1142:	e8 2b       	or	r30, r24
    1144:	f0 e0       	ldi	r31, 0x00	; 0
    1146:	e9 58       	subi	r30, 0x89	; 137
    1148:	fe 4f       	sbci	r31, 0xFE	; 254
    114a:	80 81       	ld	r24, Z
    114c:	0e 94 93 07 	call	0xf26	; 0xf26 <turn_on>
    1150:	08 95       	ret

00001152 <update_step_led_mask>:
    1152:	2f 92       	push	r2
    1154:	3f 92       	push	r3
    1156:	4f 92       	push	r4
    1158:	5f 92       	push	r5
    115a:	6f 92       	push	r6
    115c:	7f 92       	push	r7
    115e:	8f 92       	push	r8
    1160:	9f 92       	push	r9
    1162:	af 92       	push	r10
    1164:	bf 92       	push	r11
    1166:	cf 92       	push	r12
    1168:	df 92       	push	r13
    116a:	ef 92       	push	r14
    116c:	ff 92       	push	r15
    116e:	0f 93       	push	r16
    1170:	1f 93       	push	r17
    1172:	cf 93       	push	r28
    1174:	df 93       	push	r29
    1176:	24 e4       	ldi	r18, 0x44	; 68
    1178:	e6 e8       	ldi	r30, 0x86	; 134
    117a:	f5 e0       	ldi	r31, 0x05	; 5
    117c:	df 01       	movw	r26, r30
    117e:	1d 92       	st	X+, r1
    1180:	2a 95       	dec	r18
    1182:	e9 f7       	brne	.-6      	; 0x117e <update_step_led_mask+0x2c>
    1184:	20 91 cf 05 	lds	r18, 0x05CF
    1188:	22 fb       	bst	r18, 2
    118a:	88 27       	eor	r24, r24
    118c:	80 f9       	bld	r24, 0
    118e:	90 e0       	ldi	r25, 0x00	; 0
    1190:	00 e0       	ldi	r16, 0x00	; 0
    1192:	10 e0       	ldi	r17, 0x00	; 0
    1194:	6c 01       	movw	r12, r24
    1196:	cc 0c       	add	r12, r12
    1198:	dd 1c       	adc	r13, r13
    119a:	cc 0c       	add	r12, r12
    119c:	dd 1c       	adc	r13, r13
    119e:	cc 0c       	add	r12, r12
    11a0:	dd 1c       	adc	r13, r13
    11a2:	cc 0c       	add	r12, r12
    11a4:	dd 1c       	adc	r13, r13
    11a6:	ee 24       	eor	r14, r14
    11a8:	e3 94       	inc	r14
    11aa:	f1 2c       	mov	r15, r1
    11ac:	9c 01       	movw	r18, r24
    11ae:	22 0f       	add	r18, r18
    11b0:	33 1f       	adc	r19, r19
    11b2:	28 50       	subi	r18, 0x08	; 8
    11b4:	3b 4f       	sbci	r19, 0xFB	; 251
    11b6:	59 01       	movw	r10, r18
    11b8:	b5 e0       	ldi	r27, 0x05	; 5
    11ba:	ab 0e       	add	r10, r27
    11bc:	b1 1c       	adc	r11, r1
    11be:	0f 2e       	mov	r0, r31
    11c0:	f6 ea       	ldi	r31, 0xA6	; 166
    11c2:	8f 2e       	mov	r8, r31
    11c4:	f5 e0       	ldi	r31, 0x05	; 5
    11c6:	9f 2e       	mov	r9, r31
    11c8:	f0 2d       	mov	r31, r0
    11ca:	3c 01       	movw	r6, r24
    11cc:	e2 e2       	ldi	r30, 0x22	; 34
    11ce:	6e 0e       	add	r6, r30
    11d0:	71 1c       	adc	r7, r1
    11d2:	93 01       	movw	r18, r6
    11d4:	22 0f       	add	r18, r18
    11d6:	33 1f       	adc	r19, r19
    11d8:	a9 01       	movw	r20, r18
    11da:	43 50       	subi	r20, 0x03	; 3
    11dc:	5b 4f       	sbci	r21, 0xFB	; 251
    11de:	3a 01       	movw	r6, r20
    11e0:	0f 2e       	mov	r0, r31
    11e2:	f8 ec       	ldi	r31, 0xC8	; 200
    11e4:	4f 2e       	mov	r4, r31
    11e6:	f5 e0       	ldi	r31, 0x05	; 5
    11e8:	5f 2e       	mov	r5, r31
    11ea:	f0 2d       	mov	r31, r0
    11ec:	88 50       	subi	r24, 0x08	; 8
    11ee:	9b 4f       	sbci	r25, 0xFB	; 251
    11f0:	1c 01       	movw	r2, r24
    11f2:	54 ed       	ldi	r21, 0xD4	; 212
    11f4:	25 0e       	add	r2, r21
    11f6:	31 1c       	adc	r3, r1
    11f8:	52 c0       	rjmp	.+164    	; 0x129e <update_step_led_mask+0x14c>
    11fa:	9e 01       	movw	r18, r28
    11fc:	08 2e       	mov	r0, r24
    11fe:	02 c0       	rjmp	.+4      	; 0x1204 <update_step_led_mask+0xb2>
    1200:	36 95       	lsr	r19
    1202:	27 95       	ror	r18
    1204:	0a 94       	dec	r0
    1206:	e2 f7       	brpl	.-8      	; 0x1200 <update_step_led_mask+0xae>
    1208:	20 ff       	sbrs	r18, 0
    120a:	06 c0       	rjmp	.+12     	; 0x1218 <update_step_led_mask+0xc6>
    120c:	20 81       	ld	r18, Z
    120e:	31 81       	ldd	r19, Z+1	; 0x01
    1210:	24 2b       	or	r18, r20
    1212:	35 2b       	or	r19, r21
    1214:	31 83       	std	Z+1, r19	; 0x01
    1216:	20 83       	st	Z, r18
    1218:	9b 01       	movw	r18, r22
    121a:	08 2e       	mov	r0, r24
    121c:	02 c0       	rjmp	.+4      	; 0x1222 <update_step_led_mask+0xd0>
    121e:	36 95       	lsr	r19
    1220:	27 95       	ror	r18
    1222:	0a 94       	dec	r0
    1224:	e2 f7       	brpl	.-8      	; 0x121e <update_step_led_mask+0xcc>
    1226:	20 ff       	sbrs	r18, 0
    1228:	08 c0       	rjmp	.+16     	; 0x123a <update_step_led_mask+0xe8>
    122a:	2d 91       	ld	r18, X+
    122c:	3c 91       	ld	r19, X
    122e:	11 97       	sbiw	r26, 0x01	; 1
    1230:	24 2b       	or	r18, r20
    1232:	35 2b       	or	r19, r21
    1234:	11 96       	adiw	r26, 0x01	; 1
    1236:	3c 93       	st	X, r19
    1238:	2e 93       	st	-X, r18
    123a:	01 96       	adiw	r24, 0x01	; 1
    123c:	12 96       	adiw	r26, 0x02	; 2
    123e:	32 96       	adiw	r30, 0x02	; 2
    1240:	80 31       	cpi	r24, 0x10	; 16
    1242:	91 05       	cpc	r25, r1
    1244:	d1 f6       	brne	.-76     	; 0x11fa <update_step_led_mask+0xa8>
    1246:	d5 01       	movw	r26, r10
    1248:	8d 91       	ld	r24, X+
    124a:	9c 91       	ld	r25, X
    124c:	00 2e       	mov	r0, r16
    124e:	02 c0       	rjmp	.+4      	; 0x1254 <update_step_led_mask+0x102>
    1250:	96 95       	lsr	r25
    1252:	87 95       	ror	r24
    1254:	0a 94       	dec	r0
    1256:	e2 f7       	brpl	.-8      	; 0x1250 <update_step_led_mask+0xfe>
    1258:	80 ff       	sbrs	r24, 0
    125a:	07 c0       	rjmp	.+14     	; 0x126a <update_step_led_mask+0x118>
    125c:	f4 01       	movw	r30, r8
    125e:	80 81       	ld	r24, Z
    1260:	91 81       	ldd	r25, Z+1	; 0x01
    1262:	84 2b       	or	r24, r20
    1264:	95 2b       	or	r25, r21
    1266:	91 83       	std	Z+1, r25	; 0x01
    1268:	80 83       	st	Z, r24
    126a:	d3 01       	movw	r26, r6
    126c:	8d 91       	ld	r24, X+
    126e:	9c 91       	ld	r25, X
    1270:	00 2e       	mov	r0, r16
    1272:	02 c0       	rjmp	.+4      	; 0x1278 <update_step_led_mask+0x126>
    1274:	96 95       	lsr	r25
    1276:	87 95       	ror	r24
    1278:	0a 94       	dec	r0
    127a:	e2 f7       	brpl	.-8      	; 0x1274 <update_step_led_mask+0x122>
    127c:	80 ff       	sbrs	r24, 0
    127e:	07 c0       	rjmp	.+14     	; 0x128e <update_step_led_mask+0x13c>
    1280:	f2 01       	movw	r30, r4
    1282:	80 81       	ld	r24, Z
    1284:	91 81       	ldd	r25, Z+1	; 0x01
    1286:	48 2b       	or	r20, r24
    1288:	59 2b       	or	r21, r25
    128a:	51 83       	std	Z+1, r21	; 0x01
    128c:	40 83       	st	Z, r20
    128e:	0f 5f       	subi	r16, 0xFF	; 255
    1290:	1f 4f       	sbci	r17, 0xFF	; 255
    1292:	d1 01       	movw	r26, r2
    1294:	8c 91       	ld	r24, X
    1296:	90 e0       	ldi	r25, 0x00	; 0
    1298:	80 17       	cp	r24, r16
    129a:	91 07       	cpc	r25, r17
    129c:	fc f0       	brlt	.+62     	; 0x12dc <update_step_led_mask+0x18a>
    129e:	c6 01       	movw	r24, r12
    12a0:	80 0f       	add	r24, r16
    12a2:	91 1f       	adc	r25, r17
    12a4:	fc 01       	movw	r30, r24
    12a6:	ee 0f       	add	r30, r30
    12a8:	ff 1f       	adc	r31, r31
    12aa:	e4 50       	subi	r30, 0x04	; 4
    12ac:	fb 4f       	sbci	r31, 0xFB	; 251
    12ae:	c5 81       	ldd	r28, Z+5	; 0x05
    12b0:	d6 81       	ldd	r29, Z+6	; 0x06
    12b2:	a7 01       	movw	r20, r14
    12b4:	00 2e       	mov	r0, r16
    12b6:	02 c0       	rjmp	.+4      	; 0x12bc <update_step_led_mask+0x16a>
    12b8:	44 0f       	add	r20, r20
    12ba:	55 1f       	adc	r21, r21
    12bc:	0a 94       	dec	r0
    12be:	e2 f7       	brpl	.-8      	; 0x12b8 <update_step_led_mask+0x166>
    12c0:	88 0f       	add	r24, r24
    12c2:	99 1f       	adc	r25, r25
    12c4:	fc 01       	movw	r30, r24
    12c6:	e0 5c       	subi	r30, 0xC0	; 192
    12c8:	fa 4f       	sbci	r31, 0xFA	; 250
    12ca:	65 81       	ldd	r22, Z+5	; 0x05
    12cc:	76 81       	ldd	r23, Z+6	; 0x06
    12ce:	a8 ea       	ldi	r26, 0xA8	; 168
    12d0:	b5 e0       	ldi	r27, 0x05	; 5
    12d2:	e6 e8       	ldi	r30, 0x86	; 134
    12d4:	f5 e0       	ldi	r31, 0x05	; 5
    12d6:	80 e0       	ldi	r24, 0x00	; 0
    12d8:	90 e0       	ldi	r25, 0x00	; 0
    12da:	8f cf       	rjmp	.-226    	; 0x11fa <update_step_led_mask+0xa8>
    12dc:	df 91       	pop	r29
    12de:	cf 91       	pop	r28
    12e0:	1f 91       	pop	r17
    12e2:	0f 91       	pop	r16
    12e4:	ff 90       	pop	r15
    12e6:	ef 90       	pop	r14
    12e8:	df 90       	pop	r13
    12ea:	cf 90       	pop	r12
    12ec:	bf 90       	pop	r11
    12ee:	af 90       	pop	r10
    12f0:	9f 90       	pop	r9
    12f2:	8f 90       	pop	r8
    12f4:	7f 90       	pop	r7
    12f6:	6f 90       	pop	r6
    12f8:	5f 90       	pop	r5
    12fa:	4f 90       	pop	r4
    12fc:	3f 90       	pop	r3
    12fe:	2f 90       	pop	r2
    1300:	08 95       	ret

00001302 <update_prescale_leds>:
    1302:	80 91 46 02 	lds	r24, 0x0246
    1306:	48 2f       	mov	r20, r24
    1308:	43 7c       	andi	r20, 0xC3	; 195
    130a:	80 91 fa 04 	lds	r24, 0x04FA
    130e:	88 23       	and	r24, r24
    1310:	6c f5       	brge	.+90     	; 0x136c <update_prescale_leds+0x6a>
    1312:	80 91 f8 04 	lds	r24, 0x04F8
    1316:	84 50       	subi	r24, 0x04	; 4
    1318:	82 30       	cpi	r24, 0x02	; 2
    131a:	40 f5       	brcc	.+80     	; 0x136c <update_prescale_leds+0x6a>
    131c:	80 91 d1 05 	lds	r24, 0x05D1
    1320:	98 2f       	mov	r25, r24
    1322:	99 1f       	adc	r25, r25
    1324:	99 27       	eor	r25, r25
    1326:	99 1f       	adc	r25, r25
    1328:	80 91 d2 05 	lds	r24, 0x05D2
    132c:	8f 73       	andi	r24, 0x3F	; 63
    132e:	88 0f       	add	r24, r24
    1330:	89 2b       	or	r24, r25
    1332:	90 e0       	ldi	r25, 0x00	; 0
    1334:	80 31       	cpi	r24, 0x10	; 16
    1336:	91 05       	cpc	r25, r1
    1338:	2c f4       	brge	.+10     	; 0x1344 <update_prescale_leds+0x42>
    133a:	84 2f       	mov	r24, r20
    133c:	80 62       	ori	r24, 0x20	; 32
    133e:	80 93 46 02 	sts	0x0246, r24
    1342:	08 95       	ret
    1344:	80 32       	cpi	r24, 0x20	; 32
    1346:	91 05       	cpc	r25, r1
    1348:	2c f4       	brge	.+10     	; 0x1354 <update_prescale_leds+0x52>
    134a:	84 2f       	mov	r24, r20
    134c:	80 61       	ori	r24, 0x10	; 16
    134e:	80 93 46 02 	sts	0x0246, r24
    1352:	08 95       	ret
    1354:	c0 97       	sbiw	r24, 0x30	; 48
    1356:	2c f4       	brge	.+10     	; 0x1362 <update_prescale_leds+0x60>
    1358:	84 2f       	mov	r24, r20
    135a:	88 60       	ori	r24, 0x08	; 8
    135c:	80 93 46 02 	sts	0x0246, r24
    1360:	08 95       	ret
    1362:	84 2f       	mov	r24, r20
    1364:	84 60       	ori	r24, 0x04	; 4
    1366:	80 93 46 02 	sts	0x0246, r24
    136a:	08 95       	ret
    136c:	80 91 cf 05 	lds	r24, 0x05CF
    1370:	86 95       	lsr	r24
    1372:	86 95       	lsr	r24
    1374:	86 95       	lsr	r24
    1376:	83 70       	andi	r24, 0x03	; 3
    1378:	8e 5f       	subi	r24, 0xFE	; 254
    137a:	21 e0       	ldi	r18, 0x01	; 1
    137c:	30 e0       	ldi	r19, 0x00	; 0
    137e:	b9 01       	movw	r22, r18
    1380:	02 c0       	rjmp	.+4      	; 0x1386 <update_prescale_leds+0x84>
    1382:	66 0f       	add	r22, r22
    1384:	77 1f       	adc	r23, r23
    1386:	8a 95       	dec	r24
    1388:	e2 f7       	brpl	.-8      	; 0x1382 <update_prescale_leds+0x80>
    138a:	cb 01       	movw	r24, r22
    138c:	84 2b       	or	r24, r20
    138e:	80 93 46 02 	sts	0x0246, r24
    1392:	08 95       	ret

00001394 <refresh_step_leds>:
    1394:	e1 e4       	ldi	r30, 0x41	; 65
    1396:	f2 e0       	ldi	r31, 0x02	; 2
    1398:	11 82       	std	Z+1, r1	; 0x01
    139a:	10 82       	st	Z, r1
    139c:	08 95       	ret

0000139e <refresh>:
    139e:	80 91 04 03 	lds	r24, 0x0304
    13a2:	81 11       	cpse	r24, r1
    13a4:	02 c0       	rjmp	.+4      	; 0x13aa <refresh+0xc>
    13a6:	0e 94 d3 0c 	call	0x19a6	; 0x19a6 <update_tempo>
    13aa:	0e 94 41 1b 	call	0x3682	; 0x3682 <check_start_stop_tap>
    13ae:	0e 94 7c 1a 	call	0x34f8	; 0x34f8 <read_switches>
    13b2:	0e 94 d3 1a 	call	0x35a6	; 0x35a6 <parse_switch_data>
    13b6:	80 91 f8 04 	lds	r24, 0x04F8
    13ba:	83 30       	cpi	r24, 0x03	; 3
    13bc:	29 f4       	brne	.+10     	; 0x13c8 <refresh+0x2a>
    13be:	80 91 fa 04 	lds	r24, 0x04FA
    13c2:	84 ff       	sbrs	r24, 4
    13c4:	0e 94 dd 04 	call	0x9ba	; 0x9ba <live_hits>
    13c8:	0e 94 39 0b 	call	0x1672	; 0x1672 <update_mode>
    13cc:	0e 94 00 0c 	call	0x1800	; 0x1800 <update_fill_mode>
    13d0:	0e 94 ac 1b 	call	0x3758	; 0x3758 <check_clear_switch>
    13d4:	0e 94 b8 1c 	call	0x3970	; 0x3970 <check_intro_fill_variation_switch>
    13d8:	0e 94 7e 1b 	call	0x36fc	; 0x36fc <check_variation_switches>
    13dc:	0e 94 11 0f 	call	0x1e22	; 0x1e22 <update_prescale>
    13e0:	0e 94 9e 1e 	call	0x3d3c	; 0x3d3c <check_inst_switches>
    13e4:	0e 94 12 08 	call	0x1024	; 0x1024 <update_inst_leds>
    13e8:	0e 94 f8 1a 	call	0x35f0	; 0x35f0 <check_write_sw>
    13ec:	0e 94 64 16 	call	0x2cc8	; 0x2cc8 <update_step_board>
    13f0:	0e 94 50 13 	call	0x26a0	; 0x26a0 <process_step>
    13f4:	0e 94 58 1a 	call	0x34b0	; 0x34b0 <update_spi>
    13f8:	5d 98       	cbi	0x0b, 5	; 11
    13fa:	08 95       	ret

000013fc <main>:
    13fc:	55 9a       	sbi	0x0a, 5	; 10
    13fe:	8d b1       	in	r24, 0x0d	; 13
    1400:	8f 60       	ori	r24, 0x0F	; 15
    1402:	8d b9       	out	0x0d, r24	; 13
    1404:	39 9a       	sbi	0x07, 1	; 7
    1406:	20 9a       	sbi	0x04, 0	; 4
    1408:	73 98       	cbi	0x0e, 3	; 14
    140a:	41 98       	cbi	0x08, 1	; 8
    140c:	28 98       	cbi	0x05, 0	; 5
    140e:	71 9a       	sbi	0x0e, 1	; 14
    1410:	80 e5       	ldi	r24, 0x50	; 80
    1412:	80 93 ac 00 	sts	0x00AC, r24
    1416:	ed ea       	ldi	r30, 0xAD	; 173
    1418:	f0 e0       	ldi	r31, 0x00	; 0
    141a:	80 81       	ld	r24, Z
    141c:	81 60       	ori	r24, 0x01	; 1
    141e:	80 83       	st	Z, r24
    1420:	6a 9a       	sbi	0x0d, 2	; 13
    1422:	3a 9a       	sbi	0x07, 2	; 7
    1424:	23 9a       	sbi	0x04, 3	; 4
    1426:	24 9a       	sbi	0x04, 4	; 4
    1428:	e9 e6       	ldi	r30, 0x69	; 105
    142a:	f0 e0       	ldi	r31, 0x00	; 0
    142c:	80 81       	ld	r24, Z
    142e:	8e 60       	ori	r24, 0x0E	; 14
    1430:	80 83       	st	Z, r24
    1432:	ed e6       	ldi	r30, 0x6D	; 109
    1434:	f0 e0       	ldi	r31, 0x00	; 0
    1436:	80 81       	ld	r24, Z
    1438:	80 61       	ori	r24, 0x10	; 16
    143a:	80 83       	st	Z, r24
    143c:	ce ec       	ldi	r28, 0xCE	; 206
    143e:	d5 e0       	ldi	r29, 0x05	; 5
    1440:	8a 81       	ldd	r24, Y+2	; 0x02
    1442:	99 81       	ldd	r25, Y+1	; 0x01
    1444:	9f 71       	andi	r25, 0x1F	; 31
    1446:	99 83       	std	Y+1, r25	; 0x01
    1448:	80 7e       	andi	r24, 0xE0	; 224
    144a:	8a 83       	std	Y+2, r24	; 0x02
    144c:	80 e0       	ldi	r24, 0x00	; 0
    144e:	0e 94 93 07 	call	0xf26	; 0xf26 <turn_on>
    1452:	8d e1       	ldi	r24, 0x1D	; 29
    1454:	0e 94 93 07 	call	0xf26	; 0xf26 <turn_on>
    1458:	82 e2       	ldi	r24, 0x22	; 34
    145a:	0e 94 93 07 	call	0xf26	; 0xf26 <turn_on>
    145e:	0e 94 58 1a 	call	0x34b0	; 0x34b0 <update_spi>
    1462:	84 b5       	in	r24, 0x24	; 36
    1464:	82 60       	ori	r24, 0x02	; 2
    1466:	84 bd       	out	0x24, r24	; 36
    1468:	80 e1       	ldi	r24, 0x10	; 16
    146a:	87 bd       	out	0x27, r24	; 39
    146c:	85 e0       	ldi	r24, 0x05	; 5
    146e:	93 e0       	ldi	r25, 0x03	; 3
    1470:	0e 94 ce 22 	call	0x459c	; 0x459c <midi_device_init>
    1474:	6c ef       	ldi	r22, 0xFC	; 252
    1476:	7a e0       	ldi	r23, 0x0A	; 10
    1478:	85 e0       	ldi	r24, 0x05	; 5
    147a:	93 e0       	ldi	r25, 0x03	; 3
    147c:	0e 94 c2 22 	call	0x4584	; 0x4584 <midi_register_noteon_callback>
    1480:	66 e1       	ldi	r22, 0x16	; 22
    1482:	7b e0       	ldi	r23, 0x0B	; 11
    1484:	85 e0       	ldi	r24, 0x05	; 5
    1486:	93 e0       	ldi	r25, 0x03	; 3
    1488:	0e 94 c6 22 	call	0x458c	; 0x458c <midi_register_noteoff_callback>
    148c:	67 e1       	ldi	r22, 0x17	; 23
    148e:	7b e0       	ldi	r23, 0x0B	; 11
    1490:	85 e0       	ldi	r24, 0x05	; 5
    1492:	93 e0       	ldi	r25, 0x03	; 3
    1494:	0e 94 ca 22 	call	0x4594	; 0x4594 <midi_register_realtime_callback>
    1498:	0e 94 e5 0a 	call	0x15ca	; 0x15ca <setup_midi_usart>
    149c:	0f 2e       	mov	r0, r31
    149e:	f6 ed       	ldi	r31, 0xD6	; 214
    14a0:	ef 2e       	mov	r14, r31
    14a2:	f5 e0       	ldi	r31, 0x05	; 5
    14a4:	ff 2e       	mov	r15, r31
    14a6:	f0 2d       	mov	r31, r0
    14a8:	f7 01       	movw	r30, r14
    14aa:	81 81       	ldd	r24, Z+1	; 0x01
    14ac:	83 7c       	andi	r24, 0xC3	; 195
    14ae:	81 83       	std	Z+1, r24	; 0x01
    14b0:	0e 94 81 02 	call	0x502	; 0x502 <setup_clock>
    14b4:	ec ef       	ldi	r30, 0xFC	; 252
    14b6:	f2 e0       	ldi	r31, 0x02	; 2
    14b8:	88 e1       	ldi	r24, 0x18	; 24
    14ba:	80 83       	st	Z, r24
    14bc:	dd 24       	eor	r13, r13
    14be:	d3 94       	inc	r13
    14c0:	d1 82       	std	Z+1, r13	; 0x01
    14c2:	10 86       	std	Z+8, r1	; 0x08
    14c4:	0e 94 5e 02 	call	0x4bc	; 0x4bc <setup_adc>
    14c8:	e1 ee       	ldi	r30, 0xE1	; 225
    14ca:	f2 e0       	ldi	r31, 0x02	; 2
    14cc:	80 81       	ld	r24, Z
    14ce:	88 60       	ori	r24, 0x08	; 8
    14d0:	80 83       	st	Z, r24
    14d2:	e3 ee       	ldi	r30, 0xE3	; 227
    14d4:	f2 e0       	ldi	r31, 0x02	; 2
    14d6:	80 81       	ld	r24, Z
    14d8:	8d 7f       	andi	r24, 0xFD	; 253
    14da:	80 83       	st	Z, r24
    14dc:	0a ef       	ldi	r16, 0xFA	; 250
    14de:	14 e0       	ldi	r17, 0x04	; 4
    14e0:	f8 01       	movw	r30, r16
    14e2:	80 81       	ld	r24, Z
    14e4:	8f 7d       	andi	r24, 0xDF	; 223
    14e6:	80 83       	st	Z, r24
    14e8:	0f 2e       	mov	r0, r31
    14ea:	f8 ef       	ldi	r31, 0xF8	; 248
    14ec:	af 2e       	mov	r10, r31
    14ee:	f4 e0       	ldi	r31, 0x04	; 4
    14f0:	bf 2e       	mov	r11, r31
    14f2:	f0 2d       	mov	r31, r0
    14f4:	10 92 cb 05 	sts	0x05CB, r1
    14f8:	84 e2       	ldi	r24, 0x24	; 36
    14fa:	0e 94 93 07 	call	0xf26	; 0xf26 <turn_on>
    14fe:	ea ec       	ldi	r30, 0xCA	; 202
    1500:	f5 e0       	ldi	r31, 0x05	; 5
    1502:	80 81       	ld	r24, Z
    1504:	8b 7f       	andi	r24, 0xFB	; 251
    1506:	80 83       	st	Z, r24
    1508:	8e e2       	ldi	r24, 0x2E	; 46
    150a:	0e 94 93 07 	call	0xf26	; 0xf26 <turn_on>
    150e:	f5 01       	movw	r30, r10
    1510:	d0 82       	st	Z, r13
    1512:	d1 82       	std	Z+1, r13	; 0x01
    1514:	89 81       	ldd	r24, Y+1	; 0x01
    1516:	8d 7f       	andi	r24, 0xFD	; 253
    1518:	8b 7f       	andi	r24, 0xFB	; 251
    151a:	89 83       	std	Y+1, r24	; 0x01
    151c:	8a e2       	ldi	r24, 0x2A	; 42
    151e:	0e 94 93 07 	call	0xf26	; 0xf26 <turn_on>
    1522:	87 e2       	ldi	r24, 0x27	; 39
    1524:	0e 94 93 07 	call	0xf26	; 0xf26 <turn_on>
    1528:	8a 81       	ldd	r24, Y+2	; 0x02
    152a:	8f 71       	andi	r24, 0x1F	; 31
    152c:	80 68       	ori	r24, 0x80	; 128
    152e:	8a 83       	std	Y+2, r24	; 0x02
    1530:	8b 81       	ldd	r24, Y+3	; 0x03
    1532:	81 60       	ori	r24, 0x01	; 1
    1534:	8b 83       	std	Y+3, r24	; 0x03
    1536:	f8 01       	movw	r30, r16
    1538:	80 81       	ld	r24, Z
    153a:	80 7f       	andi	r24, 0xF0	; 240
    153c:	80 83       	st	Z, r24
    153e:	e5 e8       	ldi	r30, 0x85	; 133
    1540:	f5 e0       	ldi	r31, 0x05	; 5
    1542:	80 81       	ld	r24, Z
    1544:	80 7f       	andi	r24, 0xF0	; 240
    1546:	80 83       	st	Z, r24
    1548:	f8 01       	movw	r30, r16
    154a:	82 81       	ldd	r24, Z+2	; 0x02
    154c:	87 7c       	andi	r24, 0xC7	; 199
    154e:	82 83       	std	Z+2, r24	; 0x02
    1550:	0e 94 4a 01 	call	0x294	; 0x294 <eeprom_init>
    1554:	78 94       	sei
    1556:	60 e0       	ldi	r22, 0x00	; 0
    1558:	80 e0       	ldi	r24, 0x00	; 0
    155a:	0e 94 70 0f 	call	0x1ee0	; 0x1ee0 <read_next_pattern>
    155e:	f8 01       	movw	r30, r16
    1560:	81 81       	ldd	r24, Z+1	; 0x01
    1562:	81 7f       	andi	r24, 0xF1	; 241
    1564:	81 83       	std	Z+1, r24	; 0x01
    1566:	85 ee       	ldi	r24, 0xE5	; 229
    1568:	f7 01       	movw	r30, r14
    156a:	80 83       	st	Z, r24
    156c:	81 81       	ldd	r24, Z+1	; 0x01
    156e:	8c 7f       	andi	r24, 0xFC	; 252
    1570:	81 60       	ori	r24, 0x01	; 1
    1572:	81 83       	std	Z+1, r24	; 0x01
    1574:	85 e0       	ldi	r24, 0x05	; 5
    1576:	93 e0       	ldi	r25, 0x03	; 3
    1578:	0e 94 fc 24 	call	0x49f8	; 0x49f8 <midi_device_process>
    157c:	0e 94 cf 09 	call	0x139e	; 0x139e <refresh>
    1580:	f9 cf       	rjmp	.-14     	; 0x1574 <main+0x178>

00001582 <midi_send>:
    1582:	0f 93       	push	r16
    1584:	1f 93       	push	r17
    1586:	cf 93       	push	r28
    1588:	df 93       	push	r29
    158a:	eb 01       	movw	r28, r22
    158c:	12 2f       	mov	r17, r18
    158e:	64 2f       	mov	r22, r20
    1590:	82 eb       	ldi	r24, 0xB2	; 178
    1592:	94 e0       	ldi	r25, 0x04	; 4
    1594:	0e 94 e3 21 	call	0x43c6	; 0x43c6 <bytequeue_enqueue>
    1598:	c2 30       	cpi	r28, 0x02	; 2
    159a:	d1 05       	cpc	r29, r1
    159c:	28 f0       	brcs	.+10     	; 0x15a8 <midi_send+0x26>
    159e:	61 2f       	mov	r22, r17
    15a0:	82 eb       	ldi	r24, 0xB2	; 178
    15a2:	94 e0       	ldi	r25, 0x04	; 4
    15a4:	0e 94 e3 21 	call	0x43c6	; 0x43c6 <bytequeue_enqueue>
    15a8:	23 97       	sbiw	r28, 0x03	; 3
    15aa:	29 f4       	brne	.+10     	; 0x15b6 <midi_send+0x34>
    15ac:	60 2f       	mov	r22, r16
    15ae:	82 eb       	ldi	r24, 0xB2	; 178
    15b0:	94 e0       	ldi	r25, 0x04	; 4
    15b2:	0e 94 e3 21 	call	0x43c6	; 0x43c6 <bytequeue_enqueue>
    15b6:	e1 ec       	ldi	r30, 0xC1	; 193
    15b8:	f0 e0       	ldi	r31, 0x00	; 0
    15ba:	80 81       	ld	r24, Z
    15bc:	80 62       	ori	r24, 0x20	; 32
    15be:	80 83       	st	Z, r24
    15c0:	df 91       	pop	r29
    15c2:	cf 91       	pop	r28
    15c4:	1f 91       	pop	r17
    15c6:	0f 91       	pop	r16
    15c8:	08 95       	ret

000015ca <setup_midi_usart>:
    15ca:	8f e1       	ldi	r24, 0x1F	; 31
    15cc:	80 93 c4 00 	sts	0x00C4, r24
    15d0:	10 92 c5 00 	sts	0x00C5, r1
    15d4:	88 e9       	ldi	r24, 0x98	; 152
    15d6:	80 93 c1 00 	sts	0x00C1, r24
    15da:	51 9a       	sbi	0x0a, 1	; 10
    15dc:	40 ec       	ldi	r20, 0xC0	; 192
    15de:	62 ef       	ldi	r22, 0xF2	; 242
    15e0:	73 e0       	ldi	r23, 0x03	; 3
    15e2:	82 eb       	ldi	r24, 0xB2	; 178
    15e4:	94 e0       	ldi	r25, 0x04	; 4
    15e6:	0e 94 dc 21 	call	0x43b8	; 0x43b8 <bytequeue_init>
    15ea:	61 ec       	ldi	r22, 0xC1	; 193
    15ec:	7a e0       	ldi	r23, 0x0A	; 10
    15ee:	85 e0       	ldi	r24, 0x05	; 5
    15f0:	93 e0       	ldi	r25, 0x03	; 3
    15f2:	0e 94 21 23 	call	0x4642	; 0x4642 <midi_device_set_send_func>
    15f6:	08 95       	ret

000015f8 <note_on_event>:
    15f8:	e0 91 d7 05 	lds	r30, 0x05D7
    15fc:	e6 95       	lsr	r30
    15fe:	e6 95       	lsr	r30
    1600:	ef 70       	andi	r30, 0x0F	; 15
    1602:	f0 e0       	ldi	r31, 0x00	; 0
    1604:	6f 70       	andi	r22, 0x0F	; 15
    1606:	70 e0       	ldi	r23, 0x00	; 0
    1608:	e6 17       	cp	r30, r22
    160a:	f7 07       	cpc	r31, r23
    160c:	71 f4       	brne	.+28     	; 0x162a <note_on_event+0x32>
    160e:	80 91 f9 04 	lds	r24, 0x04F9
    1612:	81 11       	cpse	r24, r1
    1614:	0a c0       	rjmp	.+20     	; 0x162a <note_on_event+0x32>
    1616:	80 91 fa 04 	lds	r24, 0x04FA
    161a:	85 fd       	sbrc	r24, 5
    161c:	06 c0       	rjmp	.+12     	; 0x162a <note_on_event+0x32>
    161e:	40 31       	cpi	r20, 0x10	; 16
    1620:	20 f4       	brcc	.+8      	; 0x162a <note_on_event+0x32>
    1622:	62 2f       	mov	r22, r18
    1624:	84 2f       	mov	r24, r20
    1626:	0e 94 af 02 	call	0x55e	; 0x55e <trigger_drum>
    162a:	08 95       	ret

0000162c <note_off_event>:
    162c:	08 95       	ret

0000162e <real_time_event>:
    162e:	80 91 04 03 	lds	r24, 0x0304
    1632:	88 23       	and	r24, r24
    1634:	e9 f0       	breq	.+58     	; 0x1670 <real_time_event+0x42>
    1636:	6a 3f       	cpi	r22, 0xFA	; 250
    1638:	61 f0       	breq	.+24     	; 0x1652 <real_time_event+0x24>
    163a:	6c 3f       	cpi	r22, 0xFC	; 252
    163c:	91 f0       	breq	.+36     	; 0x1662 <real_time_event+0x34>
    163e:	68 3f       	cpi	r22, 0xF8	; 248
    1640:	b9 f4       	brne	.+46     	; 0x1670 <real_time_event+0x42>
    1642:	ec ef       	ldi	r30, 0xFC	; 252
    1644:	f2 e0       	ldi	r31, 0x02	; 2
    1646:	81 81       	ldd	r24, Z+1	; 0x01
    1648:	8d 5f       	subi	r24, 0xFD	; 253
    164a:	81 83       	std	Z+1, r24	; 0x01
    164c:	0e 94 2b 0d 	call	0x1a56	; 0x1a56 <process_tick>
    1650:	08 95       	ret
    1652:	ea ef       	ldi	r30, 0xFA	; 250
    1654:	f4 e0       	ldi	r31, 0x04	; 4
    1656:	80 81       	ld	r24, Z
    1658:	80 62       	ori	r24, 0x20	; 32
    165a:	80 83       	st	Z, r24
    165c:	0e 94 11 0e 	call	0x1c22	; 0x1c22 <process_start>
    1660:	08 95       	ret
    1662:	ea ef       	ldi	r30, 0xFA	; 250
    1664:	f4 e0       	ldi	r31, 0x04	; 4
    1666:	80 81       	ld	r24, Z
    1668:	8f 7d       	andi	r24, 0xDF	; 223
    166a:	80 83       	st	Z, r24
    166c:	0e 94 78 0e 	call	0x1cf0	; 0x1cf0 <process_stop>
    1670:	08 95       	ret

00001672 <update_mode>:
    1672:	cf 93       	push	r28
    1674:	df 93       	push	r29
    1676:	00 d0       	rcall	.+0      	; 0x1678 <update_mode+0x6>
    1678:	00 d0       	rcall	.+0      	; 0x167a <update_mode+0x8>
    167a:	00 d0       	rcall	.+0      	; 0x167c <update_mode+0xa>
    167c:	cd b7       	in	r28, 0x3d	; 61
    167e:	de b7       	in	r29, 0x3e	; 62
    1680:	86 e0       	ldi	r24, 0x06	; 6
    1682:	e3 e2       	ldi	r30, 0x23	; 35
    1684:	f2 e0       	ldi	r31, 0x02	; 2
    1686:	de 01       	movw	r26, r28
    1688:	11 96       	adiw	r26, 0x01	; 1
    168a:	01 90       	ld	r0, Z+
    168c:	0d 92       	st	X+, r0
    168e:	8a 95       	dec	r24
    1690:	e1 f7       	brne	.-8      	; 0x168a <update_mode+0x18>
    1692:	80 91 16 02 	lds	r24, 0x0216
    1696:	86 ff       	sbrs	r24, 6
    1698:	aa c0       	rjmp	.+340    	; 0x17ee <update_mode+0x17c>
    169a:	e6 e1       	ldi	r30, 0x16	; 22
    169c:	f2 e0       	ldi	r31, 0x02	; 2
    169e:	8f 7b       	andi	r24, 0xBF	; 191
    16a0:	80 83       	st	Z, r24
    16a2:	80 91 fa 04 	lds	r24, 0x04FA
    16a6:	84 ff       	sbrs	r24, 4
    16a8:	0c c0       	rjmp	.+24     	; 0x16c2 <update_mode+0x50>
    16aa:	80 91 f1 01 	lds	r24, 0x01F1
    16ae:	88 23       	and	r24, r24
    16b0:	21 f0       	breq	.+8      	; 0x16ba <update_mode+0x48>
    16b2:	81 50       	subi	r24, 0x01	; 1
    16b4:	80 93 f1 01 	sts	0x01F1, r24
    16b8:	0e c0       	rjmp	.+28     	; 0x16d6 <update_mode+0x64>
    16ba:	85 e0       	ldi	r24, 0x05	; 5
    16bc:	80 93 f1 01 	sts	0x01F1, r24
    16c0:	0a c0       	rjmp	.+20     	; 0x16d6 <update_mode+0x64>
    16c2:	80 91 f1 01 	lds	r24, 0x01F1
    16c6:	8f 5f       	subi	r24, 0xFF	; 255
    16c8:	86 30       	cpi	r24, 0x06	; 6
    16ca:	19 f0       	breq	.+6      	; 0x16d2 <update_mode+0x60>
    16cc:	80 93 f1 01 	sts	0x01F1, r24
    16d0:	02 c0       	rjmp	.+4      	; 0x16d6 <update_mode+0x64>
    16d2:	10 92 f1 01 	sts	0x01F1, r1
    16d6:	30 91 f1 01 	lds	r19, 0x01F1
    16da:	fe 01       	movw	r30, r28
    16dc:	e3 0f       	add	r30, r19
    16de:	f1 1d       	adc	r31, r1
    16e0:	21 81       	ldd	r18, Z+1	; 0x01
    16e2:	20 93 f8 04 	sts	0x04F8, r18
    16e6:	e1 e4       	ldi	r30, 0x41	; 65
    16e8:	f2 e0       	ldi	r31, 0x02	; 2
    16ea:	81 e0       	ldi	r24, 0x01	; 1
    16ec:	90 e0       	ldi	r25, 0x00	; 0
    16ee:	02 c0       	rjmp	.+4      	; 0x16f4 <update_mode+0x82>
    16f0:	88 0f       	add	r24, r24
    16f2:	99 1f       	adc	r25, r25
    16f4:	3a 95       	dec	r19
    16f6:	e2 f7       	brpl	.-8      	; 0x16f0 <update_mode+0x7e>
    16f8:	94 81       	ldd	r25, Z+4	; 0x04
    16fa:	90 7c       	andi	r25, 0xC0	; 192
    16fc:	89 2b       	or	r24, r25
    16fe:	84 83       	std	Z+4, r24	; 0x04
    1700:	8f ef       	ldi	r24, 0xFF	; 255
    1702:	82 0f       	add	r24, r18
    1704:	82 30       	cpi	r24, 0x02	; 2
    1706:	e8 f4       	brcc	.+58     	; 0x1742 <update_mode+0xd0>
    1708:	e1 e0       	ldi	r30, 0x01	; 1
    170a:	21 30       	cpi	r18, 0x01	; 1
    170c:	09 f4       	brne	.+2      	; 0x1710 <update_mode+0x9e>
    170e:	e0 e0       	ldi	r30, 0x00	; 0
    1710:	ae ec       	ldi	r26, 0xCE	; 206
    1712:	b5 e0       	ldi	r27, 0x05	; 5
    1714:	11 96       	adiw	r26, 0x01	; 1
    1716:	8c 91       	ld	r24, X
    1718:	11 97       	sbiw	r26, 0x01	; 1
    171a:	e0 fb       	bst	r30, 0
    171c:	82 f9       	bld	r24, 2
    171e:	11 96       	adiw	r26, 0x01	; 1
    1720:	8c 93       	st	X, r24
    1722:	11 97       	sbiw	r26, 0x01	; 1
    1724:	f0 e0       	ldi	r31, 0x00	; 0
    1726:	e8 50       	subi	r30, 0x08	; 8
    1728:	fb 4f       	sbci	r31, 0xFB	; 251
    172a:	ec 52       	subi	r30, 0x2C	; 44
    172c:	ff 4f       	sbci	r31, 0xFF	; 255
    172e:	80 81       	ld	r24, Z
    1730:	98 2f       	mov	r25, r24
    1732:	9f 71       	andi	r25, 0x1F	; 31
    1734:	8c 91       	ld	r24, X
    1736:	80 7e       	andi	r24, 0xE0	; 224
    1738:	89 2b       	or	r24, r25
    173a:	8c 93       	st	X, r24
    173c:	0e 94 a9 08 	call	0x1152	; 0x1152 <update_step_led_mask>
    1740:	56 c0       	rjmp	.+172    	; 0x17ee <update_mode+0x17c>
    1742:	23 30       	cpi	r18, 0x03	; 3
    1744:	e9 f4       	brne	.+58     	; 0x1780 <update_mode+0x10e>
    1746:	80 91 cf 05 	lds	r24, 0x05CF
    174a:	98 2f       	mov	r25, r24
    174c:	92 95       	swap	r25
    174e:	96 95       	lsr	r25
    1750:	97 70       	andi	r25, 0x07	; 7
    1752:	80 91 d0 05 	lds	r24, 0x05D0
    1756:	81 70       	andi	r24, 0x01	; 1
    1758:	88 0f       	add	r24, r24
    175a:	88 0f       	add	r24, r24
    175c:	88 0f       	add	r24, r24
    175e:	89 2b       	or	r24, r25
    1760:	90 e0       	ldi	r25, 0x00	; 0
    1762:	0c 97       	sbiw	r24, 0x0c	; 12
    1764:	0c f4       	brge	.+2      	; 0x1768 <update_mode+0xf6>
    1766:	43 c0       	rjmp	.+134    	; 0x17ee <update_mode+0x17c>
    1768:	ee ec       	ldi	r30, 0xCE	; 206
    176a:	f5 e0       	ldi	r31, 0x05	; 5
    176c:	82 81       	ldd	r24, Z+2	; 0x02
    176e:	81 7e       	andi	r24, 0xE1	; 225
    1770:	86 61       	ori	r24, 0x16	; 22
    1772:	82 83       	std	Z+2, r24	; 0x02
    1774:	e1 ee       	ldi	r30, 0xE1	; 225
    1776:	f2 e0       	ldi	r31, 0x02	; 2
    1778:	80 81       	ld	r24, Z
    177a:	80 62       	ori	r24, 0x20	; 32
    177c:	80 83       	st	Z, r24
    177e:	37 c0       	rjmp	.+110    	; 0x17ee <update_mode+0x17c>
    1780:	24 30       	cpi	r18, 0x04	; 4
    1782:	a9 f5       	brne	.+106    	; 0x17ee <update_mode+0x17c>
    1784:	0e 94 b6 19 	call	0x336c	; 0x336c <read_rhythm_track>
    1788:	ee ec       	ldi	r30, 0xCE	; 206
    178a:	f5 e0       	ldi	r31, 0x05	; 5
    178c:	83 81       	ldd	r24, Z+3	; 0x03
    178e:	8f 77       	andi	r24, 0x7F	; 127
    1790:	83 83       	std	Z+3, r24	; 0x03
    1792:	84 81       	ldd	r24, Z+4	; 0x04
    1794:	80 7c       	andi	r24, 0xC0	; 192
    1796:	84 83       	std	Z+4, r24	; 0x04
    1798:	60 91 b7 04 	lds	r22, 0x04B7
    179c:	86 2f       	mov	r24, r22
    179e:	8f 70       	andi	r24, 0x0F	; 15
    17a0:	38 2f       	mov	r19, r24
    17a2:	33 0f       	add	r19, r19
    17a4:	92 81       	ldd	r25, Z+2	; 0x02
    17a6:	90 7e       	andi	r25, 0xE0	; 224
    17a8:	46 2f       	mov	r20, r22
    17aa:	42 95       	swap	r20
    17ac:	44 0f       	add	r20, r20
    17ae:	40 7e       	andi	r20, 0xE0	; 224
    17b0:	21 81       	ldd	r18, Z+1	; 0x01
    17b2:	2f 71       	andi	r18, 0x1F	; 31
    17b4:	24 2b       	or	r18, r20
    17b6:	21 83       	std	Z+1, r18	; 0x01
    17b8:	28 2f       	mov	r18, r24
    17ba:	26 95       	lsr	r18
    17bc:	26 95       	lsr	r18
    17be:	26 95       	lsr	r18
    17c0:	93 2b       	or	r25, r19
    17c2:	92 2b       	or	r25, r18
    17c4:	92 83       	std	Z+2, r25	; 0x02
    17c6:	62 95       	swap	r22
    17c8:	6f 70       	andi	r22, 0x0F	; 15
    17ca:	e5 e8       	ldi	r30, 0x85	; 133
    17cc:	f5 e0       	ldi	r31, 0x05	; 5
    17ce:	90 81       	ld	r25, Z
    17d0:	90 7f       	andi	r25, 0xF0	; 240
    17d2:	96 2b       	or	r25, r22
    17d4:	90 83       	st	Z, r25
    17d6:	90 91 fa 04 	lds	r25, 0x04FA
    17da:	95 ff       	sbrs	r25, 5
    17dc:	06 c0       	rjmp	.+12     	; 0x17ea <update_mode+0x178>
    17de:	e1 ee       	ldi	r30, 0xE1	; 225
    17e0:	f2 e0       	ldi	r31, 0x02	; 2
    17e2:	80 81       	ld	r24, Z
    17e4:	80 62       	ori	r24, 0x20	; 32
    17e6:	80 83       	st	Z, r24
    17e8:	02 c0       	rjmp	.+4      	; 0x17ee <update_mode+0x17c>
    17ea:	0e 94 70 0f 	call	0x1ee0	; 0x1ee0 <read_next_pattern>
    17ee:	26 96       	adiw	r28, 0x06	; 6
    17f0:	0f b6       	in	r0, 0x3f	; 63
    17f2:	f8 94       	cli
    17f4:	de bf       	out	0x3e, r29	; 62
    17f6:	0f be       	out	0x3f, r0	; 63
    17f8:	cd bf       	out	0x3d, r28	; 61
    17fa:	df 91       	pop	r29
    17fc:	cf 91       	pop	r28
    17fe:	08 95       	ret

00001800 <update_fill_mode>:
    1800:	cf 93       	push	r28
    1802:	df 93       	push	r29
    1804:	cd b7       	in	r28, 0x3d	; 61
    1806:	de b7       	in	r29, 0x3e	; 62
    1808:	2a 97       	sbiw	r28, 0x0a	; 10
    180a:	0f b6       	in	r0, 0x3f	; 63
    180c:	f8 94       	cli
    180e:	de bf       	out	0x3e, r29	; 62
    1810:	0f be       	out	0x3f, r0	; 63
    1812:	cd bf       	out	0x3d, r28	; 61
    1814:	86 e0       	ldi	r24, 0x06	; 6
    1816:	e9 e2       	ldi	r30, 0x29	; 41
    1818:	f2 e0       	ldi	r31, 0x02	; 2
    181a:	de 01       	movw	r26, r28
    181c:	11 96       	adiw	r26, 0x01	; 1
    181e:	01 90       	ld	r0, Z+
    1820:	0d 92       	st	X+, r0
    1822:	8a 95       	dec	r24
    1824:	e1 f7       	brne	.-8      	; 0x181e <update_fill_mode+0x1e>
    1826:	81 e0       	ldi	r24, 0x01	; 1
    1828:	8f 83       	std	Y+7, r24	; 0x07
    182a:	18 86       	std	Y+8, r1	; 0x08
    182c:	83 e0       	ldi	r24, 0x03	; 3
    182e:	89 87       	std	Y+9, r24	; 0x09
    1830:	82 e0       	ldi	r24, 0x02	; 2
    1832:	8a 87       	std	Y+10, r24	; 0x0a
    1834:	e1 e4       	ldi	r30, 0x41	; 65
    1836:	f2 e0       	ldi	r31, 0x02	; 2
    1838:	24 81       	ldd	r18, Z+4	; 0x04
    183a:	2f 73       	andi	r18, 0x3F	; 63
    183c:	24 83       	std	Z+4, r18	; 0x04
    183e:	82 81       	ldd	r24, Z+2	; 0x02
    1840:	80 7f       	andi	r24, 0xF0	; 240
    1842:	82 83       	std	Z+2, r24	; 0x02
    1844:	90 91 fa 04 	lds	r25, 0x04FA
    1848:	94 ff       	sbrs	r25, 4
    184a:	62 c0       	rjmp	.+196    	; 0x1910 <update_fill_mode+0x110>
    184c:	80 91 17 02 	lds	r24, 0x0217
    1850:	86 ff       	sbrs	r24, 6
    1852:	4f c0       	rjmp	.+158    	; 0x18f2 <update_fill_mode+0xf2>
    1854:	e7 e1       	ldi	r30, 0x17	; 23
    1856:	f2 e0       	ldi	r31, 0x02	; 2
    1858:	8f 7b       	andi	r24, 0xBF	; 191
    185a:	80 83       	st	Z, r24
    185c:	80 91 31 02 	lds	r24, 0x0231
    1860:	8f 5f       	subi	r24, 0xFF	; 255
    1862:	84 30       	cpi	r24, 0x04	; 4
    1864:	19 f0       	breq	.+6      	; 0x186c <update_fill_mode+0x6c>
    1866:	80 93 31 02 	sts	0x0231, r24
    186a:	02 c0       	rjmp	.+4      	; 0x1870 <update_fill_mode+0x70>
    186c:	10 92 31 02 	sts	0x0231, r1
    1870:	80 91 31 02 	lds	r24, 0x0231
    1874:	fe 01       	movw	r30, r28
    1876:	e8 0f       	add	r30, r24
    1878:	f1 1d       	adc	r31, r1
    187a:	87 81       	ldd	r24, Z+7	; 0x07
    187c:	80 93 f9 04 	sts	0x04F9, r24
    1880:	10 92 b1 00 	sts	0x00B1, r1
    1884:	1d ba       	out	0x1d, r1	; 29
    1886:	10 92 68 00 	sts	0x0068, r1
    188a:	81 30       	cpi	r24, 0x01	; 1
    188c:	31 f0       	breq	.+12     	; 0x189a <update_fill_mode+0x9a>
    188e:	50 f0       	brcs	.+20     	; 0x18a4 <update_fill_mode+0xa4>
    1890:	82 30       	cpi	r24, 0x02	; 2
    1892:	01 f1       	breq	.+64     	; 0x18d4 <update_fill_mode+0xd4>
    1894:	83 30       	cpi	r24, 0x03	; 3
    1896:	59 f0       	breq	.+22     	; 0x18ae <update_fill_mode+0xae>
    1898:	2c c0       	rjmp	.+88     	; 0x18f2 <update_fill_mode+0xf2>
    189a:	10 92 04 03 	sts	0x0304, r1
    189e:	42 98       	cbi	0x08, 2	; 8
    18a0:	72 98       	cbi	0x0e, 2	; 14
    18a2:	27 c0       	rjmp	.+78     	; 0x18f2 <update_fill_mode+0xf2>
    18a4:	81 e0       	ldi	r24, 0x01	; 1
    18a6:	80 93 04 03 	sts	0x0304, r24
    18aa:	72 9a       	sbi	0x0e, 2	; 14
    18ac:	22 c0       	rjmp	.+68     	; 0x18f2 <update_fill_mode+0xf2>
    18ae:	10 92 04 03 	sts	0x0304, r1
    18b2:	5a 9a       	sbi	0x0b, 2	; 11
    18b4:	8a b1       	in	r24, 0x0a	; 10
    18b6:	88 6d       	ori	r24, 0xD8	; 216
    18b8:	8a b9       	out	0x0a, r24	; 10
    18ba:	e0 eb       	ldi	r30, 0xB0	; 176
    18bc:	f0 e0       	ldi	r31, 0x00	; 0
    18be:	80 81       	ld	r24, Z
    18c0:	82 60       	ori	r24, 0x02	; 2
    18c2:	80 83       	st	Z, r24
    18c4:	e1 eb       	ldi	r30, 0xB1	; 177
    18c6:	f0 e0       	ldi	r31, 0x00	; 0
    18c8:	80 81       	ld	r24, Z
    18ca:	87 60       	ori	r24, 0x07	; 7
    18cc:	80 83       	st	Z, r24
    18ce:	10 92 b2 00 	sts	0x00B2, r1
    18d2:	0f c0       	rjmp	.+30     	; 0x18f2 <update_fill_mode+0xf2>
    18d4:	81 e0       	ldi	r24, 0x01	; 1
    18d6:	80 93 04 03 	sts	0x0304, r24
    18da:	72 98       	cbi	0x0e, 2	; 14
    18dc:	8a b1       	in	r24, 0x0a	; 10
    18de:	87 72       	andi	r24, 0x27	; 39
    18e0:	8a b9       	out	0x0a, r24	; 10
    18e2:	8d b3       	in	r24, 0x1d	; 29
    18e4:	83 60       	ori	r24, 0x03	; 3
    18e6:	8d bb       	out	0x1d, r24	; 29
    18e8:	e8 e6       	ldi	r30, 0x68	; 104
    18ea:	f0 e0       	ldi	r31, 0x00	; 0
    18ec:	80 81       	ld	r24, Z
    18ee:	84 60       	ori	r24, 0x04	; 4
    18f0:	80 83       	st	Z, r24
    18f2:	e1 e4       	ldi	r30, 0x41	; 65
    18f4:	f2 e0       	ldi	r31, 0x02	; 2
    18f6:	81 e0       	ldi	r24, 0x01	; 1
    18f8:	90 e0       	ldi	r25, 0x00	; 0
    18fa:	00 90 31 02 	lds	r0, 0x0231
    18fe:	02 c0       	rjmp	.+4      	; 0x1904 <update_fill_mode+0x104>
    1900:	88 0f       	add	r24, r24
    1902:	99 1f       	adc	r25, r25
    1904:	0a 94       	dec	r0
    1906:	e2 f7       	brpl	.-8      	; 0x1900 <update_fill_mode+0x100>
    1908:	92 81       	ldd	r25, Z+2	; 0x02
    190a:	89 2b       	or	r24, r25
    190c:	82 83       	std	Z+2, r24	; 0x02
    190e:	42 c0       	rjmp	.+132    	; 0x1994 <update_fill_mode+0x194>
    1910:	90 91 17 02 	lds	r25, 0x0217
    1914:	96 ff       	sbrs	r25, 6
    1916:	22 c0       	rjmp	.+68     	; 0x195c <update_fill_mode+0x15c>
    1918:	e7 e1       	ldi	r30, 0x17	; 23
    191a:	f2 e0       	ldi	r31, 0x02	; 2
    191c:	9f 7b       	andi	r25, 0xBF	; 191
    191e:	90 83       	st	Z, r25
    1920:	90 91 32 02 	lds	r25, 0x0232
    1924:	9f 5f       	subi	r25, 0xFF	; 255
    1926:	96 30       	cpi	r25, 0x06	; 6
    1928:	19 f0       	breq	.+6      	; 0x1930 <update_fill_mode+0x130>
    192a:	90 93 32 02 	sts	0x0232, r25
    192e:	02 c0       	rjmp	.+4      	; 0x1934 <update_fill_mode+0x134>
    1930:	10 92 32 02 	sts	0x0232, r1
    1934:	90 91 32 02 	lds	r25, 0x0232
    1938:	de 01       	movw	r26, r28
    193a:	a9 0f       	add	r26, r25
    193c:	b1 1d       	adc	r27, r1
    193e:	ea ef       	ldi	r30, 0xFA	; 250
    1940:	f4 e0       	ldi	r31, 0x04	; 4
    1942:	11 96       	adiw	r26, 0x01	; 1
    1944:	9c 91       	ld	r25, X
    1946:	39 2f       	mov	r19, r25
    1948:	3f 70       	andi	r19, 0x0F	; 15
    194a:	90 81       	ld	r25, Z
    194c:	90 7f       	andi	r25, 0xF0	; 240
    194e:	93 2b       	or	r25, r19
    1950:	90 83       	st	Z, r25
    1952:	ee ec       	ldi	r30, 0xCE	; 206
    1954:	f5 e0       	ldi	r31, 0x05	; 5
    1956:	93 81       	ldd	r25, Z+3	; 0x03
    1958:	91 78       	andi	r25, 0x81	; 129
    195a:	93 83       	std	Z+3, r25	; 0x03
    195c:	90 91 32 02 	lds	r25, 0x0232
    1960:	92 30       	cpi	r25, 0x02	; 2
    1962:	68 f4       	brcc	.+26     	; 0x197e <update_fill_mode+0x17e>
    1964:	9a 5f       	subi	r25, 0xFA	; 250
    1966:	41 e0       	ldi	r20, 0x01	; 1
    1968:	50 e0       	ldi	r21, 0x00	; 0
    196a:	ba 01       	movw	r22, r20
    196c:	02 c0       	rjmp	.+4      	; 0x1972 <update_fill_mode+0x172>
    196e:	66 0f       	add	r22, r22
    1970:	77 1f       	adc	r23, r23
    1972:	9a 95       	dec	r25
    1974:	e2 f7       	brpl	.-8      	; 0x196e <update_fill_mode+0x16e>
    1976:	26 2b       	or	r18, r22
    1978:	20 93 45 02 	sts	0x0245, r18
    197c:	0b c0       	rjmp	.+22     	; 0x1994 <update_fill_mode+0x194>
    197e:	92 50       	subi	r25, 0x02	; 2
    1980:	21 e0       	ldi	r18, 0x01	; 1
    1982:	30 e0       	ldi	r19, 0x00	; 0
    1984:	02 c0       	rjmp	.+4      	; 0x198a <update_fill_mode+0x18a>
    1986:	22 0f       	add	r18, r18
    1988:	33 1f       	adc	r19, r19
    198a:	9a 95       	dec	r25
    198c:	e2 f7       	brpl	.-8      	; 0x1986 <update_fill_mode+0x186>
    198e:	82 2b       	or	r24, r18
    1990:	80 93 43 02 	sts	0x0243, r24
    1994:	2a 96       	adiw	r28, 0x0a	; 10
    1996:	0f b6       	in	r0, 0x3f	; 63
    1998:	f8 94       	cli
    199a:	de bf       	out	0x3e, r29	; 62
    199c:	0f be       	out	0x3f, r0	; 63
    199e:	cd bf       	out	0x3d, r28	; 61
    19a0:	df 91       	pop	r29
    19a2:	cf 91       	pop	r28
    19a4:	08 95       	ret

000019a6 <update_tempo>:
    19a6:	0e 94 74 02 	call	0x4e8	; 0x4e8 <read_tempo_pot>
    19aa:	90 93 36 02 	sts	0x0236, r25
    19ae:	80 93 35 02 	sts	0x0235, r24
    19b2:	20 91 33 02 	lds	r18, 0x0233
    19b6:	30 91 34 02 	lds	r19, 0x0234
    19ba:	82 1b       	sub	r24, r18
    19bc:	93 0b       	sbc	r25, r19
    19be:	95 95       	asr	r25
    19c0:	87 95       	ror	r24
    19c2:	95 95       	asr	r25
    19c4:	87 95       	ror	r24
    19c6:	82 0f       	add	r24, r18
    19c8:	93 1f       	adc	r25, r19
    19ca:	90 93 34 02 	sts	0x0234, r25
    19ce:	80 93 33 02 	sts	0x0233, r24
    19d2:	2b e8       	ldi	r18, 0x8B	; 139
    19d4:	34 e0       	ldi	r19, 0x04	; 4
    19d6:	a9 01       	movw	r20, r18
    19d8:	48 1b       	sub	r20, r24
    19da:	59 0b       	sbc	r21, r25
    19dc:	ec ef       	ldi	r30, 0xFC	; 252
    19de:	f2 e0       	ldi	r31, 0x02	; 2
    19e0:	54 83       	std	Z+4, r21	; 0x04
    19e2:	43 83       	std	Z+3, r20	; 0x03
    19e4:	23 81       	ldd	r18, Z+3	; 0x03
    19e6:	34 81       	ldd	r19, Z+4	; 0x04
    19e8:	85 81       	ldd	r24, Z+5	; 0x05
    19ea:	96 81       	ldd	r25, Z+6	; 0x06
    19ec:	28 17       	cp	r18, r24
    19ee:	39 07       	cpc	r19, r25
    19f0:	31 f0       	breq	.+12     	; 0x19fe <update_tempo+0x58>
    19f2:	80 91 ff 02 	lds	r24, 0x02FF
    19f6:	90 91 00 03 	lds	r25, 0x0300
    19fa:	0e 94 92 02 	call	0x524	; 0x524 <update_clock_rate>
    19fe:	ec ef       	ldi	r30, 0xFC	; 252
    1a00:	f2 e0       	ldi	r31, 0x02	; 2
    1a02:	83 81       	ldd	r24, Z+3	; 0x03
    1a04:	94 81       	ldd	r25, Z+4	; 0x04
    1a06:	96 83       	std	Z+6, r25	; 0x06
    1a08:	85 83       	std	Z+5, r24	; 0x05
    1a0a:	08 95       	ret

00001a0c <show_current_measure>:
    1a0c:	80 91 d1 05 	lds	r24, 0x05D1
    1a10:	98 2f       	mov	r25, r24
    1a12:	99 1f       	adc	r25, r25
    1a14:	99 27       	eor	r25, r25
    1a16:	99 1f       	adc	r25, r25
    1a18:	80 91 d2 05 	lds	r24, 0x05D2
    1a1c:	8f 73       	andi	r24, 0x3F	; 63
    1a1e:	88 0f       	add	r24, r24
    1a20:	89 2b       	or	r24, r25
    1a22:	28 2f       	mov	r18, r24
    1a24:	30 e0       	ldi	r19, 0x00	; 0
    1a26:	20 31       	cpi	r18, 0x10	; 16
    1a28:	31 05       	cpc	r19, r1
    1a2a:	1c f4       	brge	.+6      	; 0x1a32 <show_current_measure+0x26>
    1a2c:	0e 94 93 07 	call	0xf26	; 0xf26 <turn_on>
    1a30:	08 95       	ret
    1a32:	20 32       	cpi	r18, 0x20	; 32
    1a34:	31 05       	cpc	r19, r1
    1a36:	24 f4       	brge	.+8      	; 0x1a40 <show_current_measure+0x34>
    1a38:	80 51       	subi	r24, 0x10	; 16
    1a3a:	0e 94 93 07 	call	0xf26	; 0xf26 <turn_on>
    1a3e:	08 95       	ret
    1a40:	20 33       	cpi	r18, 0x30	; 48
    1a42:	31 05       	cpc	r19, r1
    1a44:	24 f4       	brge	.+8      	; 0x1a4e <show_current_measure+0x42>
    1a46:	80 52       	subi	r24, 0x20	; 32
    1a48:	0e 94 93 07 	call	0xf26	; 0xf26 <turn_on>
    1a4c:	08 95       	ret
    1a4e:	80 53       	subi	r24, 0x30	; 48
    1a50:	0e 94 93 07 	call	0xf26	; 0xf26 <turn_on>
    1a54:	08 95       	ret

00001a56 <process_tick>:
    1a56:	80 91 e3 02 	lds	r24, 0x02E3
    1a5a:	86 ff       	sbrs	r24, 6
    1a5c:	2c c0       	rjmp	.+88     	; 0x1ab6 <process_tick+0x60>
    1a5e:	80 91 fb 04 	lds	r24, 0x04FB
    1a62:	98 2f       	mov	r25, r24
    1a64:	99 1f       	adc	r25, r25
    1a66:	99 27       	eor	r25, r25
    1a68:	99 1f       	adc	r25, r25
    1a6a:	80 91 fc 04 	lds	r24, 0x04FC
    1a6e:	87 70       	andi	r24, 0x07	; 7
    1a70:	88 0f       	add	r24, r24
    1a72:	89 2b       	or	r24, r25
    1a74:	8f 5f       	subi	r24, 0xFF	; 255
    1a76:	8f 70       	andi	r24, 0x0F	; 15
    1a78:	ea ef       	ldi	r30, 0xFA	; 250
    1a7a:	f4 e0       	ldi	r31, 0x04	; 4
    1a7c:	21 81       	ldd	r18, Z+1	; 0x01
    1a7e:	80 fb       	bst	r24, 0
    1a80:	27 f9       	bld	r18, 7
    1a82:	21 83       	std	Z+1, r18	; 0x01
    1a84:	38 2f       	mov	r19, r24
    1a86:	36 95       	lsr	r19
    1a88:	92 81       	ldd	r25, Z+2	; 0x02
    1a8a:	98 7f       	andi	r25, 0xF8	; 248
    1a8c:	93 2b       	or	r25, r19
    1a8e:	92 83       	std	Z+2, r25	; 0x02
    1a90:	90 e0       	ldi	r25, 0x00	; 0
    1a92:	26 95       	lsr	r18
    1a94:	27 70       	andi	r18, 0x07	; 7
    1a96:	30 e0       	ldi	r19, 0x00	; 0
    1a98:	22 0f       	add	r18, r18
    1a9a:	33 1f       	adc	r19, r19
    1a9c:	82 17       	cp	r24, r18
    1a9e:	93 07       	cpc	r25, r19
    1aa0:	51 f4       	brne	.+20     	; 0x1ab6 <process_tick+0x60>
    1aa2:	e1 ee       	ldi	r30, 0xE1	; 225
    1aa4:	f2 e0       	ldi	r31, 0x02	; 2
    1aa6:	80 81       	ld	r24, Z
    1aa8:	81 60       	ori	r24, 0x01	; 1
    1aaa:	80 83       	st	Z, r24
    1aac:	e3 ee       	ldi	r30, 0xE3	; 227
    1aae:	f2 e0       	ldi	r31, 0x02	; 2
    1ab0:	80 81       	ld	r24, Z
    1ab2:	8f 7b       	andi	r24, 0xBF	; 191
    1ab4:	80 83       	st	Z, r24
    1ab6:	90 91 ce 05 	lds	r25, 0x05CE
    1aba:	92 95       	swap	r25
    1abc:	96 95       	lsr	r25
    1abe:	97 70       	andi	r25, 0x07	; 7
    1ac0:	80 91 cf 05 	lds	r24, 0x05CF
    1ac4:	81 70       	andi	r24, 0x01	; 1
    1ac6:	88 0f       	add	r24, r24
    1ac8:	88 0f       	add	r24, r24
    1aca:	88 0f       	add	r24, r24
    1acc:	89 2b       	or	r24, r25
    1ace:	38 2f       	mov	r19, r24
    1ad0:	31 70       	andi	r19, 0x01	; 1
    1ad2:	ec ef       	ldi	r30, 0xFC	; 252
    1ad4:	f2 e0       	ldi	r31, 0x02	; 2
    1ad6:	91 81       	ldd	r25, Z+1	; 0x01
    1ad8:	9f 5f       	subi	r25, 0xFF	; 255
    1ada:	91 83       	std	Z+1, r25	; 0x01
    1adc:	20 81       	ld	r18, Z
    1ade:	92 13       	cpse	r25, r18
    1ae0:	7e c0       	rjmp	.+252    	; 0x1bde <process_tick+0x188>
    1ae2:	90 91 e3 02 	lds	r25, 0x02E3
    1ae6:	91 ff       	sbrs	r25, 1
    1ae8:	0c c0       	rjmp	.+24     	; 0x1b02 <process_tick+0xac>
    1aea:	e0 91 cf 05 	lds	r30, 0x05CF
    1aee:	e6 95       	lsr	r30
    1af0:	e6 95       	lsr	r30
    1af2:	e6 95       	lsr	r30
    1af4:	e3 70       	andi	r30, 0x03	; 3
    1af6:	f0 e0       	ldi	r31, 0x00	; 0
    1af8:	ee 50       	subi	r30, 0x0E	; 14
    1afa:	fe 4f       	sbci	r31, 0xFE	; 254
    1afc:	90 81       	ld	r25, Z
    1afe:	90 93 fc 02 	sts	0x02FC, r25
    1b02:	90 91 e3 02 	lds	r25, 0x02E3
    1b06:	99 23       	and	r25, r25
    1b08:	94 f4       	brge	.+36     	; 0x1b2e <process_tick+0xd8>
    1b0a:	90 91 fb 04 	lds	r25, 0x04FB
    1b0e:	96 95       	lsr	r25
    1b10:	96 95       	lsr	r25
    1b12:	96 95       	lsr	r25
    1b14:	ea ef       	ldi	r30, 0xFA	; 250
    1b16:	f4 e0       	ldi	r31, 0x04	; 4
    1b18:	29 2f       	mov	r18, r25
    1b1a:	2e 70       	andi	r18, 0x0E	; 14
    1b1c:	91 81       	ldd	r25, Z+1	; 0x01
    1b1e:	91 7f       	andi	r25, 0xF1	; 241
    1b20:	92 2b       	or	r25, r18
    1b22:	91 83       	std	Z+1, r25	; 0x01
    1b24:	e3 ee       	ldi	r30, 0xE3	; 227
    1b26:	f2 e0       	ldi	r31, 0x02	; 2
    1b28:	90 81       	ld	r25, Z
    1b2a:	9f 77       	andi	r25, 0x7F	; 127
    1b2c:	90 83       	st	Z, r25
    1b2e:	90 91 fb 04 	lds	r25, 0x04FB
    1b32:	9e 70       	andi	r25, 0x0E	; 14
    1b34:	99 f0       	breq	.+38     	; 0x1b5c <process_tick+0x106>
    1b36:	31 11       	cpse	r19, r1
    1b38:	11 c0       	rjmp	.+34     	; 0x1b5c <process_tick+0x106>
    1b3a:	90 91 e3 02 	lds	r25, 0x02E3
    1b3e:	99 23       	and	r25, r25
    1b40:	6c f0       	brlt	.+26     	; 0x1b5c <process_tick+0x106>
    1b42:	ea ef       	ldi	r30, 0xFA	; 250
    1b44:	f4 e0       	ldi	r31, 0x04	; 4
    1b46:	91 81       	ldd	r25, Z+1	; 0x01
    1b48:	9f 77       	andi	r25, 0x7F	; 127
    1b4a:	91 83       	std	Z+1, r25	; 0x01
    1b4c:	92 81       	ldd	r25, Z+2	; 0x02
    1b4e:	98 7f       	andi	r25, 0xF8	; 248
    1b50:	92 83       	std	Z+2, r25	; 0x02
    1b52:	e3 ee       	ldi	r30, 0xE3	; 227
    1b54:	f2 e0       	ldi	r31, 0x02	; 2
    1b56:	90 81       	ld	r25, Z
    1b58:	90 64       	ori	r25, 0x40	; 64
    1b5a:	90 83       	st	Z, r25
    1b5c:	90 91 e3 02 	lds	r25, 0x02E3
    1b60:	96 fd       	sbrc	r25, 6
    1b62:	05 c0       	rjmp	.+10     	; 0x1b6e <process_tick+0x118>
    1b64:	e1 ee       	ldi	r30, 0xE1	; 225
    1b66:	f2 e0       	ldi	r31, 0x02	; 2
    1b68:	90 81       	ld	r25, Z
    1b6a:	91 60       	ori	r25, 0x01	; 1
    1b6c:	90 83       	st	Z, r25
    1b6e:	21 e0       	ldi	r18, 0x01	; 1
    1b70:	28 0f       	add	r18, r24
    1b72:	ee ec       	ldi	r30, 0xCE	; 206
    1b74:	f5 e0       	ldi	r31, 0x05	; 5
    1b76:	32 2f       	mov	r19, r18
    1b78:	32 95       	swap	r19
    1b7a:	33 0f       	add	r19, r19
    1b7c:	30 7e       	andi	r19, 0xE0	; 224
    1b7e:	90 81       	ld	r25, Z
    1b80:	9f 71       	andi	r25, 0x1F	; 31
    1b82:	93 2b       	or	r25, r19
    1b84:	90 83       	st	Z, r25
    1b86:	23 fb       	bst	r18, 3
    1b88:	99 27       	eor	r25, r25
    1b8a:	90 f9       	bld	r25, 0
    1b8c:	21 81       	ldd	r18, Z+1	; 0x01
    1b8e:	2e 7f       	andi	r18, 0xFE	; 254
    1b90:	29 2b       	or	r18, r25
    1b92:	21 83       	std	Z+1, r18	; 0x01
    1b94:	90 e0       	ldi	r25, 0x00	; 0
    1b96:	21 fb       	bst	r18, 1
    1b98:	44 27       	eor	r20, r20
    1b9a:	40 f9       	bld	r20, 0
    1b9c:	50 e0       	ldi	r21, 0x00	; 0
    1b9e:	48 50       	subi	r20, 0x08	; 8
    1ba0:	5b 4f       	sbci	r21, 0xFB	; 251
    1ba2:	fa 01       	movw	r30, r20
    1ba4:	ec 52       	subi	r30, 0x2C	; 44
    1ba6:	ff 4f       	sbci	r31, 0xFF	; 255
    1ba8:	20 81       	ld	r18, Z
    1baa:	30 e0       	ldi	r19, 0x00	; 0
    1bac:	82 17       	cp	r24, r18
    1bae:	93 07       	cpc	r25, r19
    1bb0:	49 f4       	brne	.+18     	; 0x1bc4 <process_tick+0x16e>
    1bb2:	80 91 fa 04 	lds	r24, 0x04FA
    1bb6:	85 ff       	sbrs	r24, 5
    1bb8:	05 c0       	rjmp	.+10     	; 0x1bc4 <process_tick+0x16e>
    1bba:	e3 ee       	ldi	r30, 0xE3	; 227
    1bbc:	f2 e0       	ldi	r31, 0x02	; 2
    1bbe:	80 81       	ld	r24, Z
    1bc0:	81 60       	ori	r24, 0x01	; 1
    1bc2:	80 83       	st	Z, r24
    1bc4:	ee ef       	ldi	r30, 0xFE	; 254
    1bc6:	f2 e0       	ldi	r31, 0x02	; 2
    1bc8:	80 81       	ld	r24, Z
    1bca:	80 7c       	andi	r24, 0xC0	; 192
    1bcc:	90 e4       	ldi	r25, 0x40	; 64
    1bce:	98 0f       	add	r25, r24
    1bd0:	80 81       	ld	r24, Z
    1bd2:	8f 73       	andi	r24, 0x3F	; 63
    1bd4:	89 2b       	or	r24, r25
    1bd6:	80 83       	st	Z, r24
    1bd8:	10 92 fd 02 	sts	0x02FD, r1
    1bdc:	08 95       	ret
    1bde:	ec ef       	ldi	r30, 0xFC	; 252
    1be0:	f2 e0       	ldi	r31, 0x02	; 2
    1be2:	91 81       	ldd	r25, Z+1	; 0x01
    1be4:	80 81       	ld	r24, Z
    1be6:	86 95       	lsr	r24
    1be8:	98 13       	cpse	r25, r24
    1bea:	03 c0       	rjmp	.+6      	; 0x1bf2 <process_tick+0x19c>
    1bec:	33 23       	and	r19, r19
    1bee:	99 f0       	breq	.+38     	; 0x1c16 <process_tick+0x1c0>
    1bf0:	02 c0       	rjmp	.+4      	; 0x1bf6 <process_tick+0x1a0>
    1bf2:	33 23       	and	r19, r19
    1bf4:	a9 f0       	breq	.+42     	; 0x1c20 <process_tick+0x1ca>
    1bf6:	ec ef       	ldi	r30, 0xFC	; 252
    1bf8:	f2 e0       	ldi	r31, 0x02	; 2
    1bfa:	21 81       	ldd	r18, Z+1	; 0x01
    1bfc:	40 81       	ld	r20, Z
    1bfe:	30 e0       	ldi	r19, 0x00	; 0
    1c00:	46 95       	lsr	r20
    1c02:	80 91 fb 04 	lds	r24, 0x04FB
    1c06:	86 95       	lsr	r24
    1c08:	87 70       	andi	r24, 0x07	; 7
    1c0a:	90 e0       	ldi	r25, 0x00	; 0
    1c0c:	84 0f       	add	r24, r20
    1c0e:	91 1d       	adc	r25, r1
    1c10:	28 17       	cp	r18, r24
    1c12:	39 07       	cpc	r19, r25
    1c14:	29 f4       	brne	.+10     	; 0x1c20 <process_tick+0x1ca>
    1c16:	e1 ee       	ldi	r30, 0xE1	; 225
    1c18:	f2 e0       	ldi	r31, 0x02	; 2
    1c1a:	80 81       	ld	r24, Z
    1c1c:	82 60       	ori	r24, 0x02	; 2
    1c1e:	80 83       	st	Z, r24
    1c20:	08 95       	ret

00001c22 <process_start>:
    1c22:	ee ec       	ldi	r30, 0xCE	; 206
    1c24:	f5 e0       	ldi	r31, 0x05	; 5
    1c26:	80 81       	ld	r24, Z
    1c28:	8f 71       	andi	r24, 0x1F	; 31
    1c2a:	80 83       	st	Z, r24
    1c2c:	81 81       	ldd	r24, Z+1	; 0x01
    1c2e:	8e 7f       	andi	r24, 0xFE	; 254
    1c30:	81 83       	std	Z+1, r24	; 0x01
    1c32:	83 81       	ldd	r24, Z+3	; 0x03
    1c34:	8f 77       	andi	r24, 0x7F	; 127
    1c36:	83 83       	std	Z+3, r24	; 0x03
    1c38:	84 81       	ldd	r24, Z+4	; 0x04
    1c3a:	80 7c       	andi	r24, 0xC0	; 192
    1c3c:	84 83       	std	Z+4, r24	; 0x04
    1c3e:	10 92 fd 02 	sts	0x02FD, r1
    1c42:	ee ef       	ldi	r30, 0xFE	; 254
    1c44:	f2 e0       	ldi	r31, 0x02	; 2
    1c46:	80 81       	ld	r24, Z
    1c48:	88 7f       	andi	r24, 0xF8	; 248
    1c4a:	80 83       	st	Z, r24
    1c4c:	e1 ee       	ldi	r30, 0xE1	; 225
    1c4e:	f2 e0       	ldi	r31, 0x02	; 2
    1c50:	80 81       	ld	r24, Z
    1c52:	8b 7f       	andi	r24, 0xFB	; 251
    1c54:	80 83       	st	Z, r24
    1c56:	80 91 cb 05 	lds	r24, 0x05CB
    1c5a:	8d 7f       	andi	r24, 0xFD	; 253
    1c5c:	31 f4       	brne	.+12     	; 0x1c6a <process_start+0x48>
    1c5e:	ea ec       	ldi	r30, 0xCA	; 202
    1c60:	f5 e0       	ldi	r31, 0x05	; 5
    1c62:	80 81       	ld	r24, Z
    1c64:	8d 7f       	andi	r24, 0xFD	; 253
    1c66:	80 83       	st	Z, r24
    1c68:	05 c0       	rjmp	.+10     	; 0x1c74 <process_start+0x52>
    1c6a:	ea ec       	ldi	r30, 0xCA	; 202
    1c6c:	f5 e0       	ldi	r31, 0x05	; 5
    1c6e:	80 81       	ld	r24, Z
    1c70:	82 60       	ori	r24, 0x02	; 2
    1c72:	80 83       	st	Z, r24
    1c74:	80 91 f9 04 	lds	r24, 0x04F9
    1c78:	9e ef       	ldi	r25, 0xFE	; 254
    1c7a:	98 0f       	add	r25, r24
    1c7c:	92 30       	cpi	r25, 0x02	; 2
    1c7e:	58 f4       	brcc	.+22     	; 0x1c96 <process_start+0x74>
    1c80:	e3 ee       	ldi	r30, 0xE3	; 227
    1c82:	f2 e0       	ldi	r31, 0x02	; 2
    1c84:	80 81       	ld	r24, Z
    1c86:	80 62       	ori	r24, 0x20	; 32
    1c88:	80 83       	st	Z, r24
    1c8a:	ee ef       	ldi	r30, 0xFE	; 254
    1c8c:	f2 e0       	ldi	r31, 0x02	; 2
    1c8e:	80 81       	ld	r24, Z
    1c90:	87 7c       	andi	r24, 0xC7	; 199
    1c92:	80 83       	st	Z, r24
    1c94:	0f c0       	rjmp	.+30     	; 0x1cb4 <process_start+0x92>
    1c96:	e1 ee       	ldi	r30, 0xE1	; 225
    1c98:	f2 e0       	ldi	r31, 0x02	; 2
    1c9a:	90 81       	ld	r25, Z
    1c9c:	91 60       	ori	r25, 0x01	; 1
    1c9e:	90 83       	st	Z, r25
    1ca0:	81 30       	cpi	r24, 0x01	; 1
    1ca2:	41 f4       	brne	.+16     	; 0x1cb4 <process_start+0x92>
    1ca4:	85 e0       	ldi	r24, 0x05	; 5
    1ca6:	93 e0       	ldi	r25, 0x03	; 3
    1ca8:	0e 94 aa 22 	call	0x4554	; 0x4554 <midi_send_start>
    1cac:	85 e0       	ldi	r24, 0x05	; 5
    1cae:	93 e0       	ldi	r25, 0x03	; 3
    1cb0:	0e 94 9e 22 	call	0x453c	; 0x453c <midi_send_clock>
    1cb4:	80 91 f8 04 	lds	r24, 0x04F8
    1cb8:	83 30       	cpi	r24, 0x03	; 3
    1cba:	b9 f4       	brne	.+46     	; 0x1cea <process_start+0xc8>
    1cbc:	80 91 e3 02 	lds	r24, 0x02E3
    1cc0:	83 ff       	sbrs	r24, 3
    1cc2:	13 c0       	rjmp	.+38     	; 0x1cea <process_start+0xc8>
    1cc4:	e3 ee       	ldi	r30, 0xE3	; 227
    1cc6:	f2 e0       	ldi	r31, 0x02	; 2
    1cc8:	80 81       	ld	r24, Z
    1cca:	87 7f       	andi	r24, 0xF7	; 247
    1ccc:	80 83       	st	Z, r24
    1cce:	ea ec       	ldi	r30, 0xCA	; 202
    1cd0:	f5 e0       	ldi	r31, 0x05	; 5
    1cd2:	80 81       	ld	r24, Z
    1cd4:	82 fb       	bst	r24, 2
    1cd6:	99 27       	eor	r25, r25
    1cd8:	90 f9       	bld	r25, 0
    1cda:	90 fb       	bst	r25, 0
    1cdc:	81 f9       	bld	r24, 1
    1cde:	80 83       	st	Z, r24
    1ce0:	e1 ee       	ldi	r30, 0xE1	; 225
    1ce2:	f2 e0       	ldi	r31, 0x02	; 2
    1ce4:	80 81       	ld	r24, Z
    1ce6:	80 62       	ori	r24, 0x20	; 32
    1ce8:	80 83       	st	Z, r24
    1cea:	8b ee       	ldi	r24, 0xEB	; 235
    1cec:	87 bd       	out	0x27, r24	; 39
    1cee:	08 95       	ret

00001cf0 <process_stop>:
    1cf0:	80 91 cf 05 	lds	r24, 0x05CF
    1cf4:	81 ff       	sbrs	r24, 1
    1cf6:	0b c0       	rjmp	.+22     	; 0x1d0e <process_stop+0x1e>
    1cf8:	ee ec       	ldi	r30, 0xCE	; 206
    1cfa:	f5 e0       	ldi	r31, 0x05	; 5
    1cfc:	81 81       	ldd	r24, Z+1	; 0x01
    1cfe:	8d 7f       	andi	r24, 0xFD	; 253
    1d00:	81 83       	std	Z+1, r24	; 0x01
    1d02:	8b e2       	ldi	r24, 0x2B	; 43
    1d04:	0e 94 ae 07 	call	0xf5c	; 0xf5c <turn_off>
    1d08:	8a e2       	ldi	r24, 0x2A	; 42
    1d0a:	0e 94 93 07 	call	0xf26	; 0xf26 <turn_on>
    1d0e:	0e 94 d9 07 	call	0xfb2	; 0xfb2 <turn_off_all_inst_leds>
    1d12:	e0 91 d4 05 	lds	r30, 0x05D4
    1d16:	87 e0       	ldi	r24, 0x07	; 7
    1d18:	e8 9f       	mul	r30, r24
    1d1a:	f0 01       	movw	r30, r0
    1d1c:	11 24       	eor	r1, r1
    1d1e:	e0 50       	subi	r30, 0x00	; 0
    1d20:	ff 4f       	sbci	r31, 0xFF	; 255
    1d22:	85 81       	ldd	r24, Z+5	; 0x05
    1d24:	0e 94 93 07 	call	0xf26	; 0xf26 <turn_on>
    1d28:	80 91 d0 05 	lds	r24, 0x05D0
    1d2c:	86 95       	lsr	r24
    1d2e:	8f 70       	andi	r24, 0x0F	; 15
    1d30:	ee ec       	ldi	r30, 0xCE	; 206
    1d32:	f5 e0       	ldi	r31, 0x05	; 5
    1d34:	28 2f       	mov	r18, r24
    1d36:	22 95       	swap	r18
    1d38:	22 0f       	add	r18, r18
    1d3a:	20 7e       	andi	r18, 0xE0	; 224
    1d3c:	91 81       	ldd	r25, Z+1	; 0x01
    1d3e:	9f 71       	andi	r25, 0x1F	; 31
    1d40:	92 2b       	or	r25, r18
    1d42:	91 83       	std	Z+1, r25	; 0x01
    1d44:	28 2f       	mov	r18, r24
    1d46:	26 95       	lsr	r18
    1d48:	26 95       	lsr	r18
    1d4a:	26 95       	lsr	r18
    1d4c:	92 81       	ldd	r25, Z+2	; 0x02
    1d4e:	9e 7f       	andi	r25, 0xFE	; 254
    1d50:	92 2b       	or	r25, r18
    1d52:	92 83       	std	Z+2, r25	; 0x02
    1d54:	93 81       	ldd	r25, Z+3	; 0x03
    1d56:	91 78       	andi	r25, 0x81	; 129
    1d58:	93 83       	std	Z+3, r25	; 0x03
    1d5a:	e1 ee       	ldi	r30, 0xE1	; 225
    1d5c:	f2 e0       	ldi	r31, 0x02	; 2
    1d5e:	90 81       	ld	r25, Z
    1d60:	9f 7d       	andi	r25, 0xDF	; 223
    1d62:	90 83       	st	Z, r25
    1d64:	e3 ee       	ldi	r30, 0xE3	; 227
    1d66:	f2 e0       	ldi	r31, 0x02	; 2
    1d68:	90 81       	ld	r25, Z
    1d6a:	9f 7e       	andi	r25, 0xEF	; 239
    1d6c:	90 83       	st	Z, r25
    1d6e:	e1 e4       	ldi	r30, 0x41	; 65
    1d70:	f2 e0       	ldi	r31, 0x02	; 2
    1d72:	11 82       	std	Z+1, r1	; 0x01
    1d74:	10 82       	st	Z, r1
    1d76:	0e 94 93 07 	call	0xf26	; 0xf26 <turn_on>
    1d7a:	80 91 f8 04 	lds	r24, 0x04F8
    1d7e:	83 30       	cpi	r24, 0x03	; 3
    1d80:	71 f4       	brne	.+28     	; 0x1d9e <process_stop+0xae>
    1d82:	90 91 d0 05 	lds	r25, 0x05D0
    1d86:	92 95       	swap	r25
    1d88:	96 95       	lsr	r25
    1d8a:	97 70       	andi	r25, 0x07	; 7
    1d8c:	80 91 d1 05 	lds	r24, 0x05D1
    1d90:	81 70       	andi	r24, 0x01	; 1
    1d92:	88 0f       	add	r24, r24
    1d94:	88 0f       	add	r24, r24
    1d96:	88 0f       	add	r24, r24
    1d98:	89 2b       	or	r24, r25
    1d9a:	0e 94 93 07 	call	0xf26	; 0xf26 <turn_on>
    1d9e:	80 91 04 03 	lds	r24, 0x0304
    1da2:	81 11       	cpse	r24, r1
    1da4:	0c c0       	rjmp	.+24     	; 0x1dbe <process_stop+0xce>
    1da6:	80 91 f9 04 	lds	r24, 0x04F9
    1daa:	81 30       	cpi	r24, 0x01	; 1
    1dac:	39 f4       	brne	.+14     	; 0x1dbc <process_stop+0xcc>
    1dae:	42 98       	cbi	0x08, 2	; 8
    1db0:	72 98       	cbi	0x0e, 2	; 14
    1db2:	85 e0       	ldi	r24, 0x05	; 5
    1db4:	93 e0       	ldi	r25, 0x03	; 3
    1db6:	0e 94 b6 22 	call	0x456c	; 0x456c <midi_send_stop>
    1dba:	01 c0       	rjmp	.+2      	; 0x1dbe <process_stop+0xce>
    1dbc:	5c 98       	cbi	0x0b, 4	; 11
    1dbe:	80 e1       	ldi	r24, 0x10	; 16
    1dc0:	87 bd       	out	0x27, r24	; 39
    1dc2:	08 95       	ret

00001dc4 <update_shuffle>:
    1dc4:	86 30       	cpi	r24, 0x06	; 6
    1dc6:	78 f4       	brcc	.+30     	; 0x1de6 <update_shuffle+0x22>
    1dc8:	ea ef       	ldi	r30, 0xFA	; 250
    1dca:	f4 e0       	ldi	r31, 0x04	; 4
    1dcc:	87 70       	andi	r24, 0x07	; 7
    1dce:	82 95       	swap	r24
    1dd0:	80 7f       	andi	r24, 0xF0	; 240
    1dd2:	91 81       	ldd	r25, Z+1	; 0x01
    1dd4:	9f 78       	andi	r25, 0x8F	; 143
    1dd6:	89 2b       	or	r24, r25
    1dd8:	81 83       	std	Z+1, r24	; 0x01
    1dda:	e3 ee       	ldi	r30, 0xE3	; 227
    1ddc:	f2 e0       	ldi	r31, 0x02	; 2
    1dde:	80 81       	ld	r24, Z
    1de0:	80 68       	ori	r24, 0x80	; 128
    1de2:	80 83       	st	Z, r24
    1de4:	0d c0       	rjmp	.+26     	; 0x1e00 <update_shuffle+0x3c>
    1de6:	88 50       	subi	r24, 0x08	; 8
    1de8:	86 30       	cpi	r24, 0x06	; 6
    1dea:	50 f4       	brcc	.+20     	; 0x1e00 <update_shuffle+0x3c>
    1dec:	ea ef       	ldi	r30, 0xFA	; 250
    1dee:	f4 e0       	ldi	r31, 0x04	; 4
    1df0:	87 70       	andi	r24, 0x07	; 7
    1df2:	88 0f       	add	r24, r24
    1df4:	88 0f       	add	r24, r24
    1df6:	88 0f       	add	r24, r24
    1df8:	92 81       	ldd	r25, Z+2	; 0x02
    1dfa:	97 7c       	andi	r25, 0xC7	; 199
    1dfc:	89 2b       	or	r24, r25
    1dfe:	82 83       	std	Z+2, r24	; 0x02
    1e00:	80 91 fb 04 	lds	r24, 0x04FB
    1e04:	82 95       	swap	r24
    1e06:	8f 70       	andi	r24, 0x0F	; 15
    1e08:	87 70       	andi	r24, 0x07	; 7
    1e0a:	0e 94 93 07 	call	0xf26	; 0xf26 <turn_on>
    1e0e:	80 91 fc 04 	lds	r24, 0x04FC
    1e12:	86 95       	lsr	r24
    1e14:	86 95       	lsr	r24
    1e16:	86 95       	lsr	r24
    1e18:	87 70       	andi	r24, 0x07	; 7
    1e1a:	88 5f       	subi	r24, 0xF8	; 248
    1e1c:	0e 94 93 07 	call	0xf26	; 0xf26 <turn_on>
    1e20:	08 95       	ret

00001e22 <update_prescale>:
    1e22:	80 91 18 02 	lds	r24, 0x0218
    1e26:	86 ff       	sbrs	r24, 6
    1e28:	2c c0       	rjmp	.+88     	; 0x1e82 <update_prescale+0x60>
    1e2a:	80 91 fa 04 	lds	r24, 0x04FA
    1e2e:	84 ff       	sbrs	r24, 4
    1e30:	28 c0       	rjmp	.+80     	; 0x1e82 <update_prescale+0x60>
    1e32:	e8 e1       	ldi	r30, 0x18	; 24
    1e34:	f2 e0       	ldi	r31, 0x02	; 2
    1e36:	80 81       	ld	r24, Z
    1e38:	8f 7b       	andi	r24, 0xBF	; 191
    1e3a:	80 83       	st	Z, r24
    1e3c:	80 91 cf 05 	lds	r24, 0x05CF
    1e40:	86 95       	lsr	r24
    1e42:	86 95       	lsr	r24
    1e44:	86 95       	lsr	r24
    1e46:	83 70       	andi	r24, 0x03	; 3
    1e48:	69 f0       	breq	.+26     	; 0x1e64 <update_prescale+0x42>
    1e4a:	8d 5f       	subi	r24, 0xFD	; 253
    1e4c:	83 70       	andi	r24, 0x03	; 3
    1e4e:	ee ec       	ldi	r30, 0xCE	; 206
    1e50:	f5 e0       	ldi	r31, 0x05	; 5
    1e52:	98 2f       	mov	r25, r24
    1e54:	99 0f       	add	r25, r25
    1e56:	99 0f       	add	r25, r25
    1e58:	99 0f       	add	r25, r25
    1e5a:	81 81       	ldd	r24, Z+1	; 0x01
    1e5c:	87 7e       	andi	r24, 0xE7	; 231
    1e5e:	89 2b       	or	r24, r25
    1e60:	81 83       	std	Z+1, r24	; 0x01
    1e62:	05 c0       	rjmp	.+10     	; 0x1e6e <update_prescale+0x4c>
    1e64:	ee ec       	ldi	r30, 0xCE	; 206
    1e66:	f5 e0       	ldi	r31, 0x05	; 5
    1e68:	81 81       	ldd	r24, Z+1	; 0x01
    1e6a:	88 61       	ori	r24, 0x18	; 24
    1e6c:	81 83       	std	Z+1, r24	; 0x01
    1e6e:	e1 ee       	ldi	r30, 0xE1	; 225
    1e70:	f2 e0       	ldi	r31, 0x02	; 2
    1e72:	80 81       	ld	r24, Z
    1e74:	80 61       	ori	r24, 0x10	; 16
    1e76:	80 83       	st	Z, r24
    1e78:	e3 ee       	ldi	r30, 0xE3	; 227
    1e7a:	f2 e0       	ldi	r31, 0x02	; 2
    1e7c:	80 81       	ld	r24, Z
    1e7e:	82 60       	ori	r24, 0x02	; 2
    1e80:	80 83       	st	Z, r24
    1e82:	0e 94 81 09 	call	0x1302	; 0x1302 <update_prescale_leds>
    1e86:	08 95       	ret

00001e88 <toggle_variation>:
    1e88:	80 91 e1 02 	lds	r24, 0x02E1
    1e8c:	82 ff       	sbrs	r24, 2
    1e8e:	18 c0       	rjmp	.+48     	; 0x1ec0 <toggle_variation+0x38>
    1e90:	e1 ee       	ldi	r30, 0xE1	; 225
    1e92:	f2 e0       	ldi	r31, 0x02	; 2
    1e94:	80 81       	ld	r24, Z
    1e96:	8b 7f       	andi	r24, 0xFB	; 251
    1e98:	80 83       	st	Z, r24
    1e9a:	80 91 cb 05 	lds	r24, 0x05CB
    1e9e:	81 30       	cpi	r24, 0x01	; 1
    1ea0:	49 f0       	breq	.+18     	; 0x1eb4 <toggle_variation+0x2c>
    1ea2:	10 f0       	brcs	.+4      	; 0x1ea8 <toggle_variation+0x20>
    1ea4:	82 30       	cpi	r24, 0x02	; 2
    1ea6:	d9 f4       	brne	.+54     	; 0x1ede <toggle_variation+0x56>
    1ea8:	ea ec       	ldi	r30, 0xCA	; 202
    1eaa:	f5 e0       	ldi	r31, 0x05	; 5
    1eac:	80 81       	ld	r24, Z
    1eae:	8d 7f       	andi	r24, 0xFD	; 253
    1eb0:	80 83       	st	Z, r24
    1eb2:	08 95       	ret
    1eb4:	ea ec       	ldi	r30, 0xCA	; 202
    1eb6:	f5 e0       	ldi	r31, 0x05	; 5
    1eb8:	80 81       	ld	r24, Z
    1eba:	82 60       	ori	r24, 0x02	; 2
    1ebc:	80 83       	st	Z, r24
    1ebe:	08 95       	ret
    1ec0:	80 91 cb 05 	lds	r24, 0x05CB
    1ec4:	82 30       	cpi	r24, 0x02	; 2
    1ec6:	59 f4       	brne	.+22     	; 0x1ede <toggle_variation+0x56>
    1ec8:	ea ec       	ldi	r30, 0xCA	; 202
    1eca:	f5 e0       	ldi	r31, 0x05	; 5
    1ecc:	80 81       	ld	r24, Z
    1ece:	81 fb       	bst	r24, 1
    1ed0:	22 27       	eor	r18, r18
    1ed2:	20 f9       	bld	r18, 0
    1ed4:	91 e0       	ldi	r25, 0x01	; 1
    1ed6:	92 27       	eor	r25, r18
    1ed8:	90 fb       	bst	r25, 0
    1eda:	81 f9       	bld	r24, 1
    1edc:	80 83       	st	Z, r24
    1ede:	08 95       	ret

00001ee0 <read_next_pattern>:
    1ee0:	ef 92       	push	r14
    1ee2:	ff 92       	push	r15
    1ee4:	0f 93       	push	r16
    1ee6:	1f 93       	push	r17
    1ee8:	cf 93       	push	r28
    1eea:	df 93       	push	r29
    1eec:	cd b7       	in	r28, 0x3d	; 61
    1eee:	de b7       	in	r29, 0x3e	; 62
    1ef0:	cb 58       	subi	r28, 0x8B	; 139
    1ef2:	d1 09       	sbc	r29, r1
    1ef4:	0f b6       	in	r0, 0x3f	; 63
    1ef6:	f8 94       	cli
    1ef8:	de bf       	out	0x3e, r29	; 62
    1efa:	0f be       	out	0x3f, r0	; 63
    1efc:	cd bf       	out	0x3d, r28	; 61
    1efe:	46 2f       	mov	r20, r22
    1f00:	60 e0       	ldi	r22, 0x00	; 0
    1f02:	78 2f       	mov	r23, r24
    1f04:	ce 01       	movw	r24, r28
    1f06:	01 96       	adiw	r24, 0x01	; 1
    1f08:	0e 94 82 01 	call	0x304	; 0x304 <read_pattern>
    1f0c:	84 e4       	ldi	r24, 0x44	; 68
    1f0e:	fe 01       	movw	r30, r28
    1f10:	31 96       	adiw	r30, 0x01	; 1
    1f12:	ad ef       	ldi	r26, 0xFD	; 253
    1f14:	b4 e0       	ldi	r27, 0x04	; 4
    1f16:	01 90       	ld	r0, Z+
    1f18:	0d 92       	st	X+, r0
    1f1a:	8a 95       	dec	r24
    1f1c:	e1 f7       	brne	.-8      	; 0x1f16 <read_next_pattern+0x36>
    1f1e:	84 e4       	ldi	r24, 0x44	; 68
    1f20:	fe 01       	movw	r30, r28
    1f22:	eb 5b       	subi	r30, 0xBB	; 187
    1f24:	ff 4f       	sbci	r31, 0xFF	; 255
    1f26:	a1 e4       	ldi	r26, 0x41	; 65
    1f28:	b5 e0       	ldi	r27, 0x05	; 5
    1f2a:	01 90       	ld	r0, Z+
    1f2c:	0d 92       	st	X+, r0
    1f2e:	8a 95       	dec	r24
    1f30:	e1 f7       	brne	.-8      	; 0x1f2a <read_next_pattern+0x4a>
    1f32:	c6 57       	subi	r28, 0x76	; 118
    1f34:	df 4f       	sbci	r29, 0xFF	; 255
    1f36:	88 81       	ld	r24, Y
    1f38:	ca 58       	subi	r28, 0x8A	; 138
    1f3a:	d0 40       	sbci	r29, 0x00	; 0
    1f3c:	80 93 cc 05 	sts	0x05CC, r24
    1f40:	c5 57       	subi	r28, 0x75	; 117
    1f42:	df 4f       	sbci	r29, 0xFF	; 255
    1f44:	88 81       	ld	r24, Y
    1f46:	cb 58       	subi	r28, 0x8B	; 139
    1f48:	d0 40       	sbci	r29, 0x00	; 0
    1f4a:	80 93 cd 05 	sts	0x05CD, r24
    1f4e:	c7 57       	subi	r28, 0x77	; 119
    1f50:	df 4f       	sbci	r29, 0xFF	; 255
    1f52:	e8 81       	ld	r30, Y
    1f54:	c9 58       	subi	r28, 0x89	; 137
    1f56:	d0 40       	sbci	r29, 0x00	; 0
    1f58:	e3 70       	andi	r30, 0x03	; 3
    1f5a:	0f 2e       	mov	r0, r31
    1f5c:	fe ec       	ldi	r31, 0xCE	; 206
    1f5e:	ef 2e       	mov	r14, r31
    1f60:	f5 e0       	ldi	r31, 0x05	; 5
    1f62:	ff 2e       	mov	r15, r31
    1f64:	f0 2d       	mov	r31, r0
    1f66:	9e 2f       	mov	r25, r30
    1f68:	99 0f       	add	r25, r25
    1f6a:	99 0f       	add	r25, r25
    1f6c:	99 0f       	add	r25, r25
    1f6e:	d7 01       	movw	r26, r14
    1f70:	11 96       	adiw	r26, 0x01	; 1
    1f72:	8c 91       	ld	r24, X
    1f74:	11 97       	sbiw	r26, 0x01	; 1
    1f76:	87 7e       	andi	r24, 0xE7	; 231
    1f78:	89 2b       	or	r24, r25
    1f7a:	11 96       	adiw	r26, 0x01	; 1
    1f7c:	8c 93       	st	X, r24
    1f7e:	f0 e0       	ldi	r31, 0x00	; 0
    1f80:	ee 50       	subi	r30, 0x0E	; 14
    1f82:	fe 4f       	sbci	r31, 0xFE	; 254
    1f84:	80 81       	ld	r24, Z
    1f86:	80 93 fc 02 	sts	0x02FC, r24
    1f8a:	0e 94 a9 08 	call	0x1152	; 0x1152 <update_step_led_mask>
    1f8e:	0e 94 81 09 	call	0x1302	; 0x1302 <update_prescale_leds>
    1f92:	80 91 cf 05 	lds	r24, 0x05CF
    1f96:	82 fb       	bst	r24, 2
    1f98:	00 27       	eor	r16, r16
    1f9a:	00 f9       	bld	r16, 0
    1f9c:	10 e0       	ldi	r17, 0x00	; 0
    1f9e:	08 50       	subi	r16, 0x08	; 8
    1fa0:	1b 4f       	sbci	r17, 0xFB	; 251
    1fa2:	f8 01       	movw	r30, r16
    1fa4:	ec 52       	subi	r30, 0x2C	; 44
    1fa6:	ff 4f       	sbci	r31, 0xFF	; 255
    1fa8:	80 81       	ld	r24, Z
    1faa:	98 2f       	mov	r25, r24
    1fac:	9f 71       	andi	r25, 0x1F	; 31
    1fae:	f7 01       	movw	r30, r14
    1fb0:	80 81       	ld	r24, Z
    1fb2:	80 7e       	andi	r24, 0xE0	; 224
    1fb4:	89 2b       	or	r24, r25
    1fb6:	80 83       	st	Z, r24
    1fb8:	c5 57       	subi	r28, 0x75	; 117
    1fba:	df 4f       	sbci	r29, 0xFF	; 255
    1fbc:	0f b6       	in	r0, 0x3f	; 63
    1fbe:	f8 94       	cli
    1fc0:	de bf       	out	0x3e, r29	; 62
    1fc2:	0f be       	out	0x3f, r0	; 63
    1fc4:	cd bf       	out	0x3d, r28	; 61
    1fc6:	df 91       	pop	r29
    1fc8:	cf 91       	pop	r28
    1fca:	1f 91       	pop	r17
    1fcc:	0f 91       	pop	r16
    1fce:	ff 90       	pop	r15
    1fd0:	ef 90       	pop	r14
    1fd2:	08 95       	ret

00001fd4 <update_fill>:
    1fd4:	ef 92       	push	r14
    1fd6:	ff 92       	push	r15
    1fd8:	0f 93       	push	r16
    1fda:	1f 93       	push	r17
    1fdc:	cf 93       	push	r28
    1fde:	df 93       	push	r29
    1fe0:	80 91 fa 04 	lds	r24, 0x04FA
    1fe4:	8f 70       	andi	r24, 0x0F	; 15
    1fe6:	b9 f0       	breq	.+46     	; 0x2016 <update_fill+0x42>
    1fe8:	80 91 d1 05 	lds	r24, 0x05D1
    1fec:	86 95       	lsr	r24
    1fee:	8f 5f       	subi	r24, 0xFF	; 255
    1ff0:	8f 73       	andi	r24, 0x3F	; 63
    1ff2:	ee ec       	ldi	r30, 0xCE	; 206
    1ff4:	f5 e0       	ldi	r31, 0x05	; 5
    1ff6:	28 2f       	mov	r18, r24
    1ff8:	22 0f       	add	r18, r18
    1ffa:	93 81       	ldd	r25, Z+3	; 0x03
    1ffc:	91 78       	andi	r25, 0x81	; 129
    1ffe:	92 2b       	or	r25, r18
    2000:	93 83       	std	Z+3, r25	; 0x03
    2002:	90 91 fa 04 	lds	r25, 0x04FA
    2006:	9f 70       	andi	r25, 0x0F	; 15
    2008:	89 13       	cpse	r24, r25
    200a:	05 c0       	rjmp	.+10     	; 0x2016 <update_fill+0x42>
    200c:	e3 ee       	ldi	r30, 0xE3	; 227
    200e:	f2 e0       	ldi	r31, 0x02	; 2
    2010:	80 81       	ld	r24, Z
    2012:	80 61       	ori	r24, 0x10	; 16
    2014:	80 83       	st	Z, r24
    2016:	80 91 e3 02 	lds	r24, 0x02E3
    201a:	84 ff       	sbrs	r24, 4
    201c:	68 c0       	rjmp	.+208    	; 0x20ee <update_fill+0x11a>
    201e:	ce ec       	ldi	r28, 0xCE	; 206
    2020:	d5 e0       	ldi	r29, 0x05	; 5
    2022:	8b 81       	ldd	r24, Y+3	; 0x03
    2024:	81 78       	andi	r24, 0x81	; 129
    2026:	8b 83       	std	Y+3, r24	; 0x03
    2028:	e3 ee       	ldi	r30, 0xE3	; 227
    202a:	f2 e0       	ldi	r31, 0x02	; 2
    202c:	80 81       	ld	r24, Z
    202e:	8f 7e       	andi	r24, 0xEF	; 239
    2030:	80 83       	st	Z, r24
    2032:	80 81       	ld	r24, Z
    2034:	82 60       	ori	r24, 0x02	; 2
    2036:	80 83       	st	Z, r24
    2038:	60 91 85 05 	lds	r22, 0x0585
    203c:	6f 70       	andi	r22, 0x0F	; 15
    203e:	0f 2e       	mov	r0, r31
    2040:	f0 ed       	ldi	r31, 0xD0	; 208
    2042:	ef 2e       	mov	r14, r31
    2044:	f5 e0       	ldi	r31, 0x05	; 5
    2046:	ff 2e       	mov	r15, r31
    2048:	f0 2d       	mov	r31, r0
    204a:	f7 01       	movw	r30, r14
    204c:	90 81       	ld	r25, Z
    204e:	92 95       	swap	r25
    2050:	96 95       	lsr	r25
    2052:	97 70       	andi	r25, 0x07	; 7
    2054:	01 ed       	ldi	r16, 0xD1	; 209
    2056:	15 e0       	ldi	r17, 0x05	; 5
    2058:	f8 01       	movw	r30, r16
    205a:	80 81       	ld	r24, Z
    205c:	81 70       	andi	r24, 0x01	; 1
    205e:	88 0f       	add	r24, r24
    2060:	88 0f       	add	r24, r24
    2062:	88 0f       	add	r24, r24
    2064:	89 2b       	or	r24, r25
    2066:	0e 94 70 0f 	call	0x1ee0	; 0x1ee0 <read_next_pattern>
    206a:	89 81       	ldd	r24, Y+1	; 0x01
    206c:	8d 7f       	andi	r24, 0xFD	; 253
    206e:	89 83       	std	Y+1, r24	; 0x01
    2070:	8b e2       	ldi	r24, 0x2B	; 43
    2072:	0e 94 ae 07 	call	0xf5c	; 0xf5c <turn_off>
    2076:	8a e2       	ldi	r24, 0x2A	; 42
    2078:	0e 94 93 07 	call	0xf26	; 0xf26 <turn_on>
    207c:	80 91 cf 05 	lds	r24, 0x05CF
    2080:	28 2f       	mov	r18, r24
    2082:	22 95       	swap	r18
    2084:	26 95       	lsr	r18
    2086:	27 70       	andi	r18, 0x07	; 7
    2088:	f7 01       	movw	r30, r14
    208a:	80 81       	ld	r24, Z
    208c:	81 70       	andi	r24, 0x01	; 1
    208e:	88 0f       	add	r24, r24
    2090:	88 0f       	add	r24, r24
    2092:	88 0f       	add	r24, r24
    2094:	82 2b       	or	r24, r18
    2096:	98 2f       	mov	r25, r24
    2098:	99 0f       	add	r25, r25
    209a:	8a 81       	ldd	r24, Y+2	; 0x02
    209c:	81 7e       	andi	r24, 0xE1	; 225
    209e:	89 2b       	or	r24, r25
    20a0:	28 2f       	mov	r18, r24
    20a2:	22 95       	swap	r18
    20a4:	26 95       	lsr	r18
    20a6:	27 70       	andi	r18, 0x07	; 7
    20a8:	f8 01       	movw	r30, r16
    20aa:	90 81       	ld	r25, Z
    20ac:	91 70       	andi	r25, 0x01	; 1
    20ae:	99 0f       	add	r25, r25
    20b0:	99 0f       	add	r25, r25
    20b2:	99 0f       	add	r25, r25
    20b4:	92 2b       	or	r25, r18
    20b6:	39 2f       	mov	r19, r25
    20b8:	32 95       	swap	r19
    20ba:	33 0f       	add	r19, r19
    20bc:	30 7e       	andi	r19, 0xE0	; 224
    20be:	29 81       	ldd	r18, Y+1	; 0x01
    20c0:	2f 71       	andi	r18, 0x1F	; 31
    20c2:	23 2b       	or	r18, r19
    20c4:	29 83       	std	Y+1, r18	; 0x01
    20c6:	96 95       	lsr	r25
    20c8:	96 95       	lsr	r25
    20ca:	96 95       	lsr	r25
    20cc:	8e 7f       	andi	r24, 0xFE	; 254
    20ce:	89 2b       	or	r24, r25
    20d0:	8a 83       	std	Y+2, r24	; 0x02
    20d2:	ea ec       	ldi	r30, 0xCA	; 202
    20d4:	f5 e0       	ldi	r31, 0x05	; 5
    20d6:	80 81       	ld	r24, Z
    20d8:	82 fb       	bst	r24, 2
    20da:	99 27       	eor	r25, r25
    20dc:	90 f9       	bld	r25, 0
    20de:	90 fb       	bst	r25, 0
    20e0:	81 f9       	bld	r24, 1
    20e2:	80 83       	st	Z, r24
    20e4:	e1 ee       	ldi	r30, 0xE1	; 225
    20e6:	f2 e0       	ldi	r31, 0x02	; 2
    20e8:	80 81       	ld	r24, Z
    20ea:	80 62       	ori	r24, 0x20	; 32
    20ec:	80 83       	st	Z, r24
    20ee:	df 91       	pop	r29
    20f0:	cf 91       	pop	r28
    20f2:	1f 91       	pop	r17
    20f4:	0f 91       	pop	r16
    20f6:	ff 90       	pop	r15
    20f8:	ef 90       	pop	r14
    20fa:	08 95       	ret

000020fc <check_tap>:
    20fc:	0f 93       	push	r16
    20fe:	1f 93       	push	r17
    2100:	cf 93       	push	r28
    2102:	df 93       	push	r29
    2104:	80 91 e3 02 	lds	r24, 0x02E3
    2108:	82 ff       	sbrs	r24, 2
    210a:	22 c1       	rjmp	.+580    	; 0x2350 <check_tap+0x254>
    210c:	e3 ee       	ldi	r30, 0xE3	; 227
    210e:	f2 e0       	ldi	r31, 0x02	; 2
    2110:	80 81       	ld	r24, Z
    2112:	8b 7f       	andi	r24, 0xFB	; 251
    2114:	80 83       	st	Z, r24
    2116:	80 91 f8 04 	lds	r24, 0x04F8
    211a:	9f ef       	ldi	r25, 0xFF	; 255
    211c:	98 0f       	add	r25, r24
    211e:	92 30       	cpi	r25, 0x02	; 2
    2120:	08 f0       	brcs	.+2      	; 0x2124 <check_tap+0x28>
    2122:	9b c0       	rjmp	.+310    	; 0x225a <check_tap+0x15e>
    2124:	60 91 d4 05 	lds	r22, 0x05D4
    2128:	60 31       	cpi	r22, 0x10	; 16
    212a:	71 f5       	brne	.+92     	; 0x2188 <check_tap+0x8c>
    212c:	90 91 ca 05 	lds	r25, 0x05CA
    2130:	80 91 cf 05 	lds	r24, 0x05CF
    2134:	82 fb       	bst	r24, 2
    2136:	aa 27       	eor	r26, r26
    2138:	a0 f9       	bld	r26, 0
    213a:	b0 e0       	ldi	r27, 0x00	; 0
    213c:	96 95       	lsr	r25
    213e:	91 70       	andi	r25, 0x01	; 1
    2140:	fd 01       	movw	r30, r26
    2142:	22 e2       	ldi	r18, 0x22	; 34
    2144:	92 9f       	mul	r25, r18
    2146:	e0 0d       	add	r30, r0
    2148:	f1 1d       	adc	r31, r1
    214a:	11 24       	eor	r1, r1
    214c:	ee 0f       	add	r30, r30
    214e:	ff 1f       	adc	r31, r31
    2150:	e8 50       	subi	r30, 0x08	; 8
    2152:	fb 4f       	sbci	r31, 0xFB	; 251
    2154:	90 91 ce 05 	lds	r25, 0x05CE
    2158:	92 95       	swap	r25
    215a:	96 95       	lsr	r25
    215c:	97 70       	andi	r25, 0x07	; 7
    215e:	81 70       	andi	r24, 0x01	; 1
    2160:	88 0f       	add	r24, r24
    2162:	88 0f       	add	r24, r24
    2164:	88 0f       	add	r24, r24
    2166:	89 2b       	or	r24, r25
    2168:	21 e0       	ldi	r18, 0x01	; 1
    216a:	30 e0       	ldi	r19, 0x00	; 0
    216c:	d9 01       	movw	r26, r18
    216e:	02 c0       	rjmp	.+4      	; 0x2174 <check_tap+0x78>
    2170:	aa 0f       	add	r26, r26
    2172:	bb 1f       	adc	r27, r27
    2174:	8a 95       	dec	r24
    2176:	e2 f7       	brpl	.-8      	; 0x2170 <check_tap+0x74>
    2178:	cd 01       	movw	r24, r26
    217a:	25 81       	ldd	r18, Z+5	; 0x05
    217c:	36 81       	ldd	r19, Z+6	; 0x06
    217e:	82 2b       	or	r24, r18
    2180:	93 2b       	or	r25, r19
    2182:	96 83       	std	Z+6, r25	; 0x06
    2184:	85 83       	std	Z+5, r24	; 0x05
    2186:	35 c0       	rjmp	.+106    	; 0x21f2 <check_tap+0xf6>
    2188:	70 91 ca 05 	lds	r23, 0x05CA
    218c:	80 91 cf 05 	lds	r24, 0x05CF
    2190:	82 fb       	bst	r24, 2
    2192:	22 27       	eor	r18, r18
    2194:	20 f9       	bld	r18, 0
    2196:	30 e0       	ldi	r19, 0x00	; 0
    2198:	90 91 ce 05 	lds	r25, 0x05CE
    219c:	92 95       	swap	r25
    219e:	96 95       	lsr	r25
    21a0:	97 70       	andi	r25, 0x07	; 7
    21a2:	81 70       	andi	r24, 0x01	; 1
    21a4:	88 0f       	add	r24, r24
    21a6:	88 0f       	add	r24, r24
    21a8:	88 0f       	add	r24, r24
    21aa:	89 2b       	or	r24, r25
    21ac:	f9 01       	movw	r30, r18
    21ae:	e2 95       	swap	r30
    21b0:	f2 95       	swap	r31
    21b2:	f0 7f       	andi	r31, 0xF0	; 240
    21b4:	fe 27       	eor	r31, r30
    21b6:	e0 7f       	andi	r30, 0xF0	; 240
    21b8:	fe 27       	eor	r31, r30
    21ba:	71 fb       	bst	r23, 1
    21bc:	99 27       	eor	r25, r25
    21be:	90 f9       	bld	r25, 0
    21c0:	b2 e2       	ldi	r27, 0x22	; 34
    21c2:	9b 9f       	mul	r25, r27
    21c4:	e0 0d       	add	r30, r0
    21c6:	f1 1d       	adc	r31, r1
    21c8:	11 24       	eor	r1, r1
    21ca:	e8 0f       	add	r30, r24
    21cc:	f1 1d       	adc	r31, r1
    21ce:	ee 0f       	add	r30, r30
    21d0:	ff 1f       	adc	r31, r31
    21d2:	e4 50       	subi	r30, 0x04	; 4
    21d4:	fb 4f       	sbci	r31, 0xFB	; 251
    21d6:	81 e0       	ldi	r24, 0x01	; 1
    21d8:	90 e0       	ldi	r25, 0x00	; 0
    21da:	06 2e       	mov	r0, r22
    21dc:	02 c0       	rjmp	.+4      	; 0x21e2 <check_tap+0xe6>
    21de:	88 0f       	add	r24, r24
    21e0:	99 1f       	adc	r25, r25
    21e2:	0a 94       	dec	r0
    21e4:	e2 f7       	brpl	.-8      	; 0x21de <check_tap+0xe2>
    21e6:	25 81       	ldd	r18, Z+5	; 0x05
    21e8:	36 81       	ldd	r19, Z+6	; 0x06
    21ea:	82 2b       	or	r24, r18
    21ec:	93 2b       	or	r25, r19
    21ee:	96 83       	std	Z+6, r25	; 0x06
    21f0:	85 83       	std	Z+5, r24	; 0x05
    21f2:	80 91 ca 05 	lds	r24, 0x05CA
    21f6:	81 fb       	bst	r24, 1
    21f8:	44 27       	eor	r20, r20
    21fa:	40 f9       	bld	r20, 0
    21fc:	50 e0       	ldi	r21, 0x00	; 0
    21fe:	81 e1       	ldi	r24, 0x11	; 17
    2200:	84 9f       	mul	r24, r20
    2202:	f0 01       	movw	r30, r0
    2204:	85 9f       	mul	r24, r21
    2206:	f0 0d       	add	r31, r0
    2208:	11 24       	eor	r1, r1
    220a:	e6 0f       	add	r30, r22
    220c:	f1 1d       	adc	r31, r1
    220e:	ee 0f       	add	r30, r30
    2210:	ff 1f       	adc	r31, r31
    2212:	ea 57       	subi	r30, 0x7A	; 122
    2214:	fa 4f       	sbci	r31, 0xFA	; 250
    2216:	80 91 ce 05 	lds	r24, 0x05CE
    221a:	98 2f       	mov	r25, r24
    221c:	92 95       	swap	r25
    221e:	96 95       	lsr	r25
    2220:	97 70       	andi	r25, 0x07	; 7
    2222:	80 91 cf 05 	lds	r24, 0x05CF
    2226:	81 70       	andi	r24, 0x01	; 1
    2228:	88 0f       	add	r24, r24
    222a:	88 0f       	add	r24, r24
    222c:	88 0f       	add	r24, r24
    222e:	89 2b       	or	r24, r25
    2230:	21 e0       	ldi	r18, 0x01	; 1
    2232:	30 e0       	ldi	r19, 0x00	; 0
    2234:	a9 01       	movw	r20, r18
    2236:	02 c0       	rjmp	.+4      	; 0x223c <check_tap+0x140>
    2238:	44 0f       	add	r20, r20
    223a:	55 1f       	adc	r21, r21
    223c:	8a 95       	dec	r24
    223e:	e2 f7       	brpl	.-8      	; 0x2238 <check_tap+0x13c>
    2240:	ca 01       	movw	r24, r20
    2242:	20 81       	ld	r18, Z
    2244:	31 81       	ldd	r19, Z+1	; 0x01
    2246:	82 2b       	or	r24, r18
    2248:	93 2b       	or	r25, r19
    224a:	91 83       	std	Z+1, r25	; 0x01
    224c:	80 83       	st	Z, r24
    224e:	e1 ee       	ldi	r30, 0xE1	; 225
    2250:	f2 e0       	ldi	r31, 0x02	; 2
    2252:	80 81       	ld	r24, Z
    2254:	80 61       	ori	r24, 0x10	; 16
    2256:	80 83       	st	Z, r24
    2258:	7b c0       	rjmp	.+246    	; 0x2350 <check_tap+0x254>
    225a:	83 30       	cpi	r24, 0x03	; 3
    225c:	09 f0       	breq	.+2      	; 0x2260 <check_tap+0x164>
    225e:	78 c0       	rjmp	.+240    	; 0x2350 <check_tap+0x254>
    2260:	80 91 fa 04 	lds	r24, 0x04FA
    2264:	85 ff       	sbrs	r24, 5
    2266:	09 c0       	rjmp	.+18     	; 0x227a <check_tap+0x17e>
    2268:	8f 70       	andi	r24, 0x0F	; 15
    226a:	09 f0       	breq	.+2      	; 0x226e <check_tap+0x172>
    226c:	71 c0       	rjmp	.+226    	; 0x2350 <check_tap+0x254>
    226e:	e3 ee       	ldi	r30, 0xE3	; 227
    2270:	f2 e0       	ldi	r31, 0x02	; 2
    2272:	80 81       	ld	r24, Z
    2274:	80 61       	ori	r24, 0x10	; 16
    2276:	80 83       	st	Z, r24
    2278:	6b c0       	rjmp	.+214    	; 0x2350 <check_tap+0x254>
    227a:	e3 ee       	ldi	r30, 0xE3	; 227
    227c:	f2 e0       	ldi	r31, 0x02	; 2
    227e:	80 81       	ld	r24, Z
    2280:	83 fb       	bst	r24, 3
    2282:	99 27       	eor	r25, r25
    2284:	90 f9       	bld	r25, 0
    2286:	81 e0       	ldi	r24, 0x01	; 1
    2288:	89 27       	eor	r24, r25
    228a:	90 81       	ld	r25, Z
    228c:	80 fb       	bst	r24, 0
    228e:	93 f9       	bld	r25, 3
    2290:	90 83       	st	Z, r25
    2292:	80 81       	ld	r24, Z
    2294:	83 ff       	sbrs	r24, 3
    2296:	41 c0       	rjmp	.+130    	; 0x231a <check_tap+0x21e>
    2298:	60 91 85 05 	lds	r22, 0x0585
    229c:	6f 70       	andi	r22, 0x0F	; 15
    229e:	00 ed       	ldi	r16, 0xD0	; 208
    22a0:	15 e0       	ldi	r17, 0x05	; 5
    22a2:	d8 01       	movw	r26, r16
    22a4:	9c 91       	ld	r25, X
    22a6:	92 95       	swap	r25
    22a8:	96 95       	lsr	r25
    22aa:	97 70       	andi	r25, 0x07	; 7
    22ac:	c1 ed       	ldi	r28, 0xD1	; 209
    22ae:	d5 e0       	ldi	r29, 0x05	; 5
    22b0:	88 81       	ld	r24, Y
    22b2:	81 70       	andi	r24, 0x01	; 1
    22b4:	88 0f       	add	r24, r24
    22b6:	88 0f       	add	r24, r24
    22b8:	88 0f       	add	r24, r24
    22ba:	89 2b       	or	r24, r25
    22bc:	0e 94 70 0f 	call	0x1ee0	; 0x1ee0 <read_next_pattern>
    22c0:	80 91 cf 05 	lds	r24, 0x05CF
    22c4:	28 2f       	mov	r18, r24
    22c6:	22 95       	swap	r18
    22c8:	26 95       	lsr	r18
    22ca:	27 70       	andi	r18, 0x07	; 7
    22cc:	f8 01       	movw	r30, r16
    22ce:	80 81       	ld	r24, Z
    22d0:	81 70       	andi	r24, 0x01	; 1
    22d2:	88 0f       	add	r24, r24
    22d4:	88 0f       	add	r24, r24
    22d6:	88 0f       	add	r24, r24
    22d8:	ee ec       	ldi	r30, 0xCE	; 206
    22da:	f5 e0       	ldi	r31, 0x05	; 5
    22dc:	82 2b       	or	r24, r18
    22de:	98 2f       	mov	r25, r24
    22e0:	99 0f       	add	r25, r25
    22e2:	82 81       	ldd	r24, Z+2	; 0x02
    22e4:	81 7e       	andi	r24, 0xE1	; 225
    22e6:	89 2b       	or	r24, r25
    22e8:	28 2f       	mov	r18, r24
    22ea:	22 95       	swap	r18
    22ec:	26 95       	lsr	r18
    22ee:	27 70       	andi	r18, 0x07	; 7
    22f0:	98 81       	ld	r25, Y
    22f2:	91 70       	andi	r25, 0x01	; 1
    22f4:	99 0f       	add	r25, r25
    22f6:	99 0f       	add	r25, r25
    22f8:	99 0f       	add	r25, r25
    22fa:	92 2b       	or	r25, r18
    22fc:	39 2f       	mov	r19, r25
    22fe:	32 95       	swap	r19
    2300:	33 0f       	add	r19, r19
    2302:	30 7e       	andi	r19, 0xE0	; 224
    2304:	21 81       	ldd	r18, Z+1	; 0x01
    2306:	2f 71       	andi	r18, 0x1F	; 31
    2308:	23 2b       	or	r18, r19
    230a:	21 83       	std	Z+1, r18	; 0x01
    230c:	96 95       	lsr	r25
    230e:	96 95       	lsr	r25
    2310:	96 95       	lsr	r25
    2312:	8e 7f       	andi	r24, 0xFE	; 254
    2314:	89 2b       	or	r24, r25
    2316:	82 83       	std	Z+2, r24	; 0x02
    2318:	1b c0       	rjmp	.+54     	; 0x2350 <check_tap+0x254>
    231a:	80 91 d0 05 	lds	r24, 0x05D0
    231e:	86 95       	lsr	r24
    2320:	8f 70       	andi	r24, 0x0F	; 15
    2322:	ee ec       	ldi	r30, 0xCE	; 206
    2324:	f5 e0       	ldi	r31, 0x05	; 5
    2326:	28 2f       	mov	r18, r24
    2328:	22 95       	swap	r18
    232a:	22 0f       	add	r18, r18
    232c:	20 7e       	andi	r18, 0xE0	; 224
    232e:	91 81       	ldd	r25, Z+1	; 0x01
    2330:	9f 71       	andi	r25, 0x1F	; 31
    2332:	92 2b       	or	r25, r18
    2334:	91 83       	std	Z+1, r25	; 0x01
    2336:	28 2f       	mov	r18, r24
    2338:	26 95       	lsr	r18
    233a:	26 95       	lsr	r18
    233c:	26 95       	lsr	r18
    233e:	92 81       	ldd	r25, Z+2	; 0x02
    2340:	9e 7f       	andi	r25, 0xFE	; 254
    2342:	92 2b       	or	r25, r18
    2344:	92 83       	std	Z+2, r25	; 0x02
    2346:	60 91 85 05 	lds	r22, 0x0585
    234a:	6f 70       	andi	r22, 0x0F	; 15
    234c:	0e 94 70 0f 	call	0x1ee0	; 0x1ee0 <read_next_pattern>
    2350:	df 91       	pop	r29
    2352:	cf 91       	pop	r28
    2354:	1f 91       	pop	r17
    2356:	0f 91       	pop	r16
    2358:	08 95       	ret

0000235a <write_current_pattern>:
    235a:	cf 93       	push	r28
    235c:	df 93       	push	r29
    235e:	cd b7       	in	r28, 0x3d	; 61
    2360:	de b7       	in	r29, 0x3e	; 62
    2362:	cb 58       	subi	r28, 0x8B	; 139
    2364:	d1 09       	sbc	r29, r1
    2366:	0f b6       	in	r0, 0x3f	; 63
    2368:	f8 94       	cli
    236a:	de bf       	out	0x3e, r29	; 62
    236c:	0f be       	out	0x3f, r0	; 63
    236e:	cd bf       	out	0x3d, r28	; 61
    2370:	98 2f       	mov	r25, r24
    2372:	24 e4       	ldi	r18, 0x44	; 68
    2374:	ed ef       	ldi	r30, 0xFD	; 253
    2376:	f4 e0       	ldi	r31, 0x04	; 4
    2378:	de 01       	movw	r26, r28
    237a:	11 96       	adiw	r26, 0x01	; 1
    237c:	01 90       	ld	r0, Z+
    237e:	0d 92       	st	X+, r0
    2380:	2a 95       	dec	r18
    2382:	e1 f7       	brne	.-8      	; 0x237c <write_current_pattern+0x22>
    2384:	24 e4       	ldi	r18, 0x44	; 68
    2386:	e1 e4       	ldi	r30, 0x41	; 65
    2388:	f5 e0       	ldi	r31, 0x05	; 5
    238a:	de 01       	movw	r26, r28
    238c:	ab 5b       	subi	r26, 0xBB	; 187
    238e:	bf 4f       	sbci	r27, 0xFF	; 255
    2390:	01 90       	ld	r0, Z+
    2392:	0d 92       	st	X+, r0
    2394:	2a 95       	dec	r18
    2396:	e1 f7       	brne	.-8      	; 0x2390 <write_current_pattern+0x36>
    2398:	80 91 cc 05 	lds	r24, 0x05CC
    239c:	c6 57       	subi	r28, 0x76	; 118
    239e:	df 4f       	sbci	r29, 0xFF	; 255
    23a0:	88 83       	st	Y, r24
    23a2:	ca 58       	subi	r28, 0x8A	; 138
    23a4:	d0 40       	sbci	r29, 0x00	; 0
    23a6:	80 91 cd 05 	lds	r24, 0x05CD
    23aa:	c5 57       	subi	r28, 0x75	; 117
    23ac:	df 4f       	sbci	r29, 0xFF	; 255
    23ae:	88 83       	st	Y, r24
    23b0:	cb 58       	subi	r28, 0x8B	; 139
    23b2:	d0 40       	sbci	r29, 0x00	; 0
    23b4:	20 91 cf 05 	lds	r18, 0x05CF
    23b8:	26 95       	lsr	r18
    23ba:	26 95       	lsr	r18
    23bc:	26 95       	lsr	r18
    23be:	23 70       	andi	r18, 0x03	; 3
    23c0:	c7 57       	subi	r28, 0x77	; 119
    23c2:	df 4f       	sbci	r29, 0xFF	; 255
    23c4:	28 83       	st	Y, r18
    23c6:	c9 58       	subi	r28, 0x89	; 137
    23c8:	d0 40       	sbci	r29, 0x00	; 0
    23ca:	ae 01       	movw	r20, r28
    23cc:	4f 5f       	subi	r20, 0xFF	; 255
    23ce:	5f 4f       	sbci	r21, 0xFF	; 255
    23d0:	80 e0       	ldi	r24, 0x00	; 0
    23d2:	0e 94 b3 01 	call	0x366	; 0x366 <write_pattern>
    23d6:	c5 57       	subi	r28, 0x75	; 117
    23d8:	df 4f       	sbci	r29, 0xFF	; 255
    23da:	0f b6       	in	r0, 0x3f	; 63
    23dc:	f8 94       	cli
    23de:	de bf       	out	0x3e, r29	; 62
    23e0:	0f be       	out	0x3f, r0	; 63
    23e2:	cd bf       	out	0x3d, r28	; 61
    23e4:	df 91       	pop	r29
    23e6:	cf 91       	pop	r28
    23e8:	08 95       	ret

000023ea <process_new_measure>:
    23ea:	cf 93       	push	r28
    23ec:	df 93       	push	r29
    23ee:	ee ec       	ldi	r30, 0xCE	; 206
    23f0:	f5 e0       	ldi	r31, 0x05	; 5
    23f2:	80 81       	ld	r24, Z
    23f4:	8f 71       	andi	r24, 0x1F	; 31
    23f6:	80 83       	st	Z, r24
    23f8:	81 81       	ldd	r24, Z+1	; 0x01
    23fa:	8e 7f       	andi	r24, 0xFE	; 254
    23fc:	81 83       	std	Z+1, r24	; 0x01
    23fe:	80 91 e1 02 	lds	r24, 0x02E1
    2402:	84 ff       	sbrs	r24, 4
    2404:	16 c0       	rjmp	.+44     	; 0x2432 <process_new_measure+0x48>
    2406:	e1 ee       	ldi	r30, 0xE1	; 225
    2408:	f2 e0       	ldi	r31, 0x02	; 2
    240a:	80 81       	ld	r24, Z
    240c:	8f 7e       	andi	r24, 0xEF	; 239
    240e:	80 83       	st	Z, r24
    2410:	60 91 85 05 	lds	r22, 0x0585
    2414:	6f 70       	andi	r22, 0x0F	; 15
    2416:	90 91 cf 05 	lds	r25, 0x05CF
    241a:	92 95       	swap	r25
    241c:	96 95       	lsr	r25
    241e:	97 70       	andi	r25, 0x07	; 7
    2420:	80 91 d0 05 	lds	r24, 0x05D0
    2424:	81 70       	andi	r24, 0x01	; 1
    2426:	88 0f       	add	r24, r24
    2428:	88 0f       	add	r24, r24
    242a:	88 0f       	add	r24, r24
    242c:	89 2b       	or	r24, r25
    242e:	0e 94 ad 11 	call	0x235a	; 0x235a <write_current_pattern>
    2432:	80 91 f8 04 	lds	r24, 0x04F8
    2436:	84 30       	cpi	r24, 0x04	; 4
    2438:	e9 f5       	brne	.+122    	; 0x24b4 <process_new_measure+0xca>
    243a:	e0 91 d1 05 	lds	r30, 0x05D1
    243e:	8e 2f       	mov	r24, r30
    2440:	88 1f       	adc	r24, r24
    2442:	88 27       	eor	r24, r24
    2444:	88 1f       	adc	r24, r24
    2446:	e0 91 d2 05 	lds	r30, 0x05D2
    244a:	ef 73       	andi	r30, 0x3F	; 63
    244c:	ee 0f       	add	r30, r30
    244e:	e8 2b       	or	r30, r24
    2450:	ef 5f       	subi	r30, 0xFF	; 255
    2452:	ef 77       	andi	r30, 0x7F	; 127
    2454:	ae ec       	ldi	r26, 0xCE	; 206
    2456:	b5 e0       	ldi	r27, 0x05	; 5
    2458:	13 96       	adiw	r26, 0x03	; 3
    245a:	8c 91       	ld	r24, X
    245c:	13 97       	sbiw	r26, 0x03	; 3
    245e:	e0 fb       	bst	r30, 0
    2460:	87 f9       	bld	r24, 7
    2462:	13 96       	adiw	r26, 0x03	; 3
    2464:	8c 93       	st	X, r24
    2466:	13 97       	sbiw	r26, 0x03	; 3
    2468:	9e 2f       	mov	r25, r30
    246a:	96 95       	lsr	r25
    246c:	14 96       	adiw	r26, 0x04	; 4
    246e:	8c 91       	ld	r24, X
    2470:	14 97       	sbiw	r26, 0x04	; 4
    2472:	80 7c       	andi	r24, 0xC0	; 192
    2474:	89 2b       	or	r24, r25
    2476:	14 96       	adiw	r26, 0x04	; 4
    2478:	8c 93       	st	X, r24
    247a:	14 97       	sbiw	r26, 0x04	; 4
    247c:	f0 e0       	ldi	r31, 0x00	; 0
    247e:	e9 54       	subi	r30, 0x49	; 73
    2480:	fb 4f       	sbci	r31, 0xFB	; 251
    2482:	80 81       	ld	r24, Z
    2484:	98 2f       	mov	r25, r24
    2486:	9f 70       	andi	r25, 0x0F	; 15
    2488:	29 2f       	mov	r18, r25
    248a:	22 0f       	add	r18, r18
    248c:	12 96       	adiw	r26, 0x02	; 2
    248e:	9c 91       	ld	r25, X
    2490:	12 97       	sbiw	r26, 0x02	; 2
    2492:	91 7e       	andi	r25, 0xE1	; 225
    2494:	92 2b       	or	r25, r18
    2496:	12 96       	adiw	r26, 0x02	; 2
    2498:	9c 93       	st	X, r25
    249a:	e5 e8       	ldi	r30, 0x85	; 133
    249c:	f5 e0       	ldi	r31, 0x05	; 5
    249e:	82 95       	swap	r24
    24a0:	8f 70       	andi	r24, 0x0F	; 15
    24a2:	90 81       	ld	r25, Z
    24a4:	90 7f       	andi	r25, 0xF0	; 240
    24a6:	89 2b       	or	r24, r25
    24a8:	80 83       	st	Z, r24
    24aa:	e1 ee       	ldi	r30, 0xE1	; 225
    24ac:	f2 e0       	ldi	r31, 0x02	; 2
    24ae:	80 81       	ld	r24, Z
    24b0:	80 62       	ori	r24, 0x20	; 32
    24b2:	80 83       	st	Z, r24
    24b4:	80 91 cd 05 	lds	r24, 0x05CD
    24b8:	80 31       	cpi	r24, 0x10	; 16
    24ba:	09 f4       	brne	.+2      	; 0x24be <process_new_measure+0xd4>
    24bc:	74 c0       	rjmp	.+232    	; 0x25a6 <process_new_measure+0x1bc>
    24be:	80 91 cf 05 	lds	r24, 0x05CF
    24c2:	81 ff       	sbrs	r24, 1
    24c4:	5c c0       	rjmp	.+184    	; 0x257e <process_new_measure+0x194>
    24c6:	81 fb       	bst	r24, 1
    24c8:	99 27       	eor	r25, r25
    24ca:	90 f9       	bld	r25, 0
    24cc:	81 e0       	ldi	r24, 0x01	; 1
    24ce:	89 27       	eor	r24, r25
    24d0:	ee ec       	ldi	r30, 0xCE	; 206
    24d2:	f5 e0       	ldi	r31, 0x05	; 5
    24d4:	91 81       	ldd	r25, Z+1	; 0x01
    24d6:	80 fb       	bst	r24, 0
    24d8:	91 f9       	bld	r25, 1
    24da:	91 83       	std	Z+1, r25	; 0x01
    24dc:	8b e2       	ldi	r24, 0x2B	; 43
    24de:	0e 94 ae 07 	call	0xf5c	; 0xf5c <turn_off>
    24e2:	8a e2       	ldi	r24, 0x2A	; 42
    24e4:	0e 94 93 07 	call	0xf26	; 0xf26 <turn_on>
    24e8:	0e 94 44 0f 	call	0x1e88	; 0x1e88 <toggle_variation>
    24ec:	80 91 e1 02 	lds	r24, 0x02E1
    24f0:	85 ff       	sbrs	r24, 5
    24f2:	3d c0       	rjmp	.+122    	; 0x256e <process_new_measure+0x184>
    24f4:	e1 ee       	ldi	r30, 0xE1	; 225
    24f6:	f2 e0       	ldi	r31, 0x02	; 2
    24f8:	80 81       	ld	r24, Z
    24fa:	8f 7d       	andi	r24, 0xDF	; 223
    24fc:	80 83       	st	Z, r24
    24fe:	e3 ee       	ldi	r30, 0xE3	; 227
    2500:	f2 e0       	ldi	r31, 0x02	; 2
    2502:	80 81       	ld	r24, Z
    2504:	82 60       	ori	r24, 0x02	; 2
    2506:	80 83       	st	Z, r24
    2508:	80 91 d0 05 	lds	r24, 0x05D0
    250c:	86 95       	lsr	r24
    250e:	8f 70       	andi	r24, 0x0F	; 15
    2510:	ee ec       	ldi	r30, 0xCE	; 206
    2512:	f5 e0       	ldi	r31, 0x05	; 5
    2514:	28 2f       	mov	r18, r24
    2516:	22 95       	swap	r18
    2518:	22 0f       	add	r18, r18
    251a:	20 7e       	andi	r18, 0xE0	; 224
    251c:	91 81       	ldd	r25, Z+1	; 0x01
    251e:	9f 71       	andi	r25, 0x1F	; 31
    2520:	92 2b       	or	r25, r18
    2522:	91 83       	std	Z+1, r25	; 0x01
    2524:	28 2f       	mov	r18, r24
    2526:	26 95       	lsr	r18
    2528:	26 95       	lsr	r18
    252a:	26 95       	lsr	r18
    252c:	92 81       	ldd	r25, Z+2	; 0x02
    252e:	9e 7f       	andi	r25, 0xFE	; 254
    2530:	92 2b       	or	r25, r18
    2532:	92 83       	std	Z+2, r25	; 0x02
    2534:	60 91 85 05 	lds	r22, 0x0585
    2538:	6f 70       	andi	r22, 0x0F	; 15
    253a:	0e 94 70 0f 	call	0x1ee0	; 0x1ee0 <read_next_pattern>
    253e:	ea ec       	ldi	r30, 0xCA	; 202
    2540:	f5 e0       	ldi	r31, 0x05	; 5
    2542:	80 81       	ld	r24, Z
    2544:	8d 7f       	andi	r24, 0xFD	; 253
    2546:	80 83       	st	Z, r24
    2548:	80 91 cb 05 	lds	r24, 0x05CB
    254c:	81 30       	cpi	r24, 0x01	; 1
    254e:	19 f4       	brne	.+6      	; 0x2556 <process_new_measure+0x16c>
    2550:	80 81       	ld	r24, Z
    2552:	82 60       	ori	r24, 0x02	; 2
    2554:	80 83       	st	Z, r24
    2556:	ee ec       	ldi	r30, 0xCE	; 206
    2558:	f5 e0       	ldi	r31, 0x05	; 5
    255a:	81 81       	ldd	r24, Z+1	; 0x01
    255c:	8d 7f       	andi	r24, 0xFD	; 253
    255e:	81 83       	std	Z+1, r24	; 0x01
    2560:	8b e2       	ldi	r24, 0x2B	; 43
    2562:	0e 94 ae 07 	call	0xf5c	; 0xf5c <turn_off>
    2566:	8a e2       	ldi	r24, 0x2A	; 42
    2568:	0e 94 93 07 	call	0xf26	; 0xf26 <turn_on>
    256c:	65 c0       	rjmp	.+202    	; 0x2638 <process_new_measure+0x24e>
    256e:	80 91 f8 04 	lds	r24, 0x04F8
    2572:	83 30       	cpi	r24, 0x03	; 3
    2574:	09 f0       	breq	.+2      	; 0x2578 <process_new_measure+0x18e>
    2576:	60 c0       	rjmp	.+192    	; 0x2638 <process_new_measure+0x24e>
    2578:	0e 94 ea 0f 	call	0x1fd4	; 0x1fd4 <update_fill>
    257c:	5d c0       	rjmp	.+186    	; 0x2638 <process_new_measure+0x24e>
    257e:	8a e2       	ldi	r24, 0x2A	; 42
    2580:	0e 94 ae 07 	call	0xf5c	; 0xf5c <turn_off>
    2584:	8b e2       	ldi	r24, 0x2B	; 43
    2586:	0e 94 93 07 	call	0xf26	; 0xf26 <turn_on>
    258a:	80 91 cf 05 	lds	r24, 0x05CF
    258e:	81 fb       	bst	r24, 1
    2590:	99 27       	eor	r25, r25
    2592:	90 f9       	bld	r25, 0
    2594:	81 e0       	ldi	r24, 0x01	; 1
    2596:	89 27       	eor	r24, r25
    2598:	ee ec       	ldi	r30, 0xCE	; 206
    259a:	f5 e0       	ldi	r31, 0x05	; 5
    259c:	91 81       	ldd	r25, Z+1	; 0x01
    259e:	80 fb       	bst	r24, 0
    25a0:	91 f9       	bld	r25, 1
    25a2:	91 83       	std	Z+1, r25	; 0x01
    25a4:	49 c0       	rjmp	.+146    	; 0x2638 <process_new_measure+0x24e>
    25a6:	0e 94 44 0f 	call	0x1e88	; 0x1e88 <toggle_variation>
    25aa:	80 91 e1 02 	lds	r24, 0x02E1
    25ae:	85 ff       	sbrs	r24, 5
    25b0:	3d c0       	rjmp	.+122    	; 0x262c <process_new_measure+0x242>
    25b2:	e1 ee       	ldi	r30, 0xE1	; 225
    25b4:	f2 e0       	ldi	r31, 0x02	; 2
    25b6:	80 81       	ld	r24, Z
    25b8:	8f 7d       	andi	r24, 0xDF	; 223
    25ba:	80 83       	st	Z, r24
    25bc:	e3 ee       	ldi	r30, 0xE3	; 227
    25be:	f2 e0       	ldi	r31, 0x02	; 2
    25c0:	80 81       	ld	r24, Z
    25c2:	82 60       	ori	r24, 0x02	; 2
    25c4:	80 83       	st	Z, r24
    25c6:	80 91 d0 05 	lds	r24, 0x05D0
    25ca:	86 95       	lsr	r24
    25cc:	8f 70       	andi	r24, 0x0F	; 15
    25ce:	ee ec       	ldi	r30, 0xCE	; 206
    25d0:	f5 e0       	ldi	r31, 0x05	; 5
    25d2:	28 2f       	mov	r18, r24
    25d4:	22 95       	swap	r18
    25d6:	22 0f       	add	r18, r18
    25d8:	20 7e       	andi	r18, 0xE0	; 224
    25da:	91 81       	ldd	r25, Z+1	; 0x01
    25dc:	9f 71       	andi	r25, 0x1F	; 31
    25de:	92 2b       	or	r25, r18
    25e0:	91 83       	std	Z+1, r25	; 0x01
    25e2:	28 2f       	mov	r18, r24
    25e4:	26 95       	lsr	r18
    25e6:	26 95       	lsr	r18
    25e8:	26 95       	lsr	r18
    25ea:	92 81       	ldd	r25, Z+2	; 0x02
    25ec:	9e 7f       	andi	r25, 0xFE	; 254
    25ee:	92 2b       	or	r25, r18
    25f0:	92 83       	std	Z+2, r25	; 0x02
    25f2:	60 91 85 05 	lds	r22, 0x0585
    25f6:	6f 70       	andi	r22, 0x0F	; 15
    25f8:	0e 94 70 0f 	call	0x1ee0	; 0x1ee0 <read_next_pattern>
    25fc:	ea ec       	ldi	r30, 0xCA	; 202
    25fe:	f5 e0       	ldi	r31, 0x05	; 5
    2600:	80 81       	ld	r24, Z
    2602:	8d 7f       	andi	r24, 0xFD	; 253
    2604:	80 83       	st	Z, r24
    2606:	80 91 cb 05 	lds	r24, 0x05CB
    260a:	81 30       	cpi	r24, 0x01	; 1
    260c:	19 f4       	brne	.+6      	; 0x2614 <process_new_measure+0x22a>
    260e:	80 81       	ld	r24, Z
    2610:	82 60       	ori	r24, 0x02	; 2
    2612:	80 83       	st	Z, r24
    2614:	ee ec       	ldi	r30, 0xCE	; 206
    2616:	f5 e0       	ldi	r31, 0x05	; 5
    2618:	81 81       	ldd	r24, Z+1	; 0x01
    261a:	8d 7f       	andi	r24, 0xFD	; 253
    261c:	81 83       	std	Z+1, r24	; 0x01
    261e:	8b e2       	ldi	r24, 0x2B	; 43
    2620:	0e 94 ae 07 	call	0xf5c	; 0xf5c <turn_off>
    2624:	8a e2       	ldi	r24, 0x2A	; 42
    2626:	0e 94 93 07 	call	0xf26	; 0xf26 <turn_on>
    262a:	06 c0       	rjmp	.+12     	; 0x2638 <process_new_measure+0x24e>
    262c:	80 91 f8 04 	lds	r24, 0x04F8
    2630:	83 30       	cpi	r24, 0x03	; 3
    2632:	11 f4       	brne	.+4      	; 0x2638 <process_new_measure+0x24e>
    2634:	0e 94 ea 0f 	call	0x1fd4	; 0x1fd4 <update_fill>
    2638:	80 91 f8 04 	lds	r24, 0x04F8
    263c:	81 50       	subi	r24, 0x01	; 1
    263e:	82 30       	cpi	r24, 0x02	; 2
    2640:	90 f4       	brcc	.+36     	; 0x2666 <process_new_measure+0x27c>
    2642:	80 91 cf 05 	lds	r24, 0x05CF
    2646:	82 fb       	bst	r24, 2
    2648:	88 27       	eor	r24, r24
    264a:	80 f9       	bld	r24, 0
    264c:	c8 2f       	mov	r28, r24
    264e:	80 e0       	ldi	r24, 0x00	; 0
    2650:	d8 2f       	mov	r29, r24
    2652:	c8 50       	subi	r28, 0x08	; 8
    2654:	db 4f       	sbci	r29, 0xFB	; 251
    2656:	cc 52       	subi	r28, 0x2C	; 44
    2658:	df 4f       	sbci	r29, 0xFF	; 255
    265a:	80 91 ce 05 	lds	r24, 0x05CE
    265e:	8f 71       	andi	r24, 0x1F	; 31
    2660:	88 83       	st	Y, r24
    2662:	0e 94 a9 08 	call	0x1152	; 0x1152 <update_step_led_mask>
    2666:	80 91 e3 02 	lds	r24, 0x02E3
    266a:	81 ff       	sbrs	r24, 1
    266c:	16 c0       	rjmp	.+44     	; 0x269a <process_new_measure+0x2b0>
    266e:	e3 ee       	ldi	r30, 0xE3	; 227
    2670:	f2 e0       	ldi	r31, 0x02	; 2
    2672:	80 81       	ld	r24, Z
    2674:	8d 7f       	andi	r24, 0xFD	; 253
    2676:	80 83       	st	Z, r24
    2678:	ea ef       	ldi	r30, 0xFA	; 250
    267a:	f4 e0       	ldi	r31, 0x04	; 4
    267c:	81 81       	ldd	r24, Z+1	; 0x01
    267e:	81 7f       	andi	r24, 0xF1	; 241
    2680:	81 83       	std	Z+1, r24	; 0x01
    2682:	e0 91 cf 05 	lds	r30, 0x05CF
    2686:	e6 95       	lsr	r30
    2688:	e6 95       	lsr	r30
    268a:	e6 95       	lsr	r30
    268c:	e3 70       	andi	r30, 0x03	; 3
    268e:	f0 e0       	ldi	r31, 0x00	; 0
    2690:	ee 50       	subi	r30, 0x0E	; 14
    2692:	fe 4f       	sbci	r31, 0xFE	; 254
    2694:	80 81       	ld	r24, Z
    2696:	80 93 fc 02 	sts	0x02FC, r24
    269a:	df 91       	pop	r29
    269c:	cf 91       	pop	r28
    269e:	08 95       	ret

000026a0 <process_step>:
    26a0:	cf 92       	push	r12
    26a2:	df 92       	push	r13
    26a4:	ef 92       	push	r14
    26a6:	ff 92       	push	r15
    26a8:	0f 93       	push	r16
    26aa:	1f 93       	push	r17
    26ac:	cf 93       	push	r28
    26ae:	df 93       	push	r29
    26b0:	80 91 e1 02 	lds	r24, 0x02E1
    26b4:	80 ff       	sbrs	r24, 0
    26b6:	ea c0       	rjmp	.+468    	; 0x288c <process_step+0x1ec>
    26b8:	e1 ee       	ldi	r30, 0xE1	; 225
    26ba:	f2 e0       	ldi	r31, 0x02	; 2
    26bc:	80 81       	ld	r24, Z
    26be:	8e 7f       	andi	r24, 0xFE	; 254
    26c0:	80 83       	st	Z, r24
    26c2:	80 91 fa 04 	lds	r24, 0x04FA
    26c6:	85 ff       	sbrs	r24, 5
    26c8:	ef c2       	rjmp	.+1502   	; 0x2ca8 <process_step+0x608>
    26ca:	80 91 e3 02 	lds	r24, 0x02E3
    26ce:	80 ff       	sbrs	r24, 0
    26d0:	07 c0       	rjmp	.+14     	; 0x26e0 <process_step+0x40>
    26d2:	e3 ee       	ldi	r30, 0xE3	; 227
    26d4:	f2 e0       	ldi	r31, 0x02	; 2
    26d6:	80 81       	ld	r24, Z
    26d8:	8e 7f       	andi	r24, 0xFE	; 254
    26da:	80 83       	st	Z, r24
    26dc:	0e 94 f5 11 	call	0x23ea	; 0x23ea <process_new_measure>
    26e0:	80 91 f8 04 	lds	r24, 0x04F8
    26e4:	83 30       	cpi	r24, 0x03	; 3
    26e6:	09 f4       	brne	.+2      	; 0x26ea <process_step+0x4a>
    26e8:	4e c0       	rjmp	.+156    	; 0x2786 <process_step+0xe6>
    26ea:	20 f0       	brcs	.+8      	; 0x26f4 <process_step+0x54>
    26ec:	86 30       	cpi	r24, 0x06	; 6
    26ee:	08 f0       	brcs	.+2      	; 0x26f2 <process_step+0x52>
    26f0:	ca c0       	rjmp	.+404    	; 0x2886 <process_step+0x1e6>
    26f2:	93 c0       	rjmp	.+294    	; 0x281a <process_step+0x17a>
    26f4:	0e 94 7e 10 	call	0x20fc	; 0x20fc <check_tap>
    26f8:	80 91 fa 04 	lds	r24, 0x04FA
    26fc:	84 fd       	sbrc	r24, 4
    26fe:	c3 c0       	rjmp	.+390    	; 0x2886 <process_step+0x1e6>
    2700:	80 91 cf 05 	lds	r24, 0x05CF
    2704:	82 fb       	bst	r24, 2
    2706:	99 27       	eor	r25, r25
    2708:	90 f9       	bld	r25, 0
    270a:	86 95       	lsr	r24
    270c:	81 70       	andi	r24, 0x01	; 1
    270e:	98 13       	cpse	r25, r24
    2710:	ba c0       	rjmp	.+372    	; 0x2886 <process_step+0x1e6>
    2712:	80 91 ce 05 	lds	r24, 0x05CE
    2716:	98 2f       	mov	r25, r24
    2718:	92 95       	swap	r25
    271a:	96 95       	lsr	r25
    271c:	97 70       	andi	r25, 0x07	; 7
    271e:	80 91 cf 05 	lds	r24, 0x05CF
    2722:	81 70       	andi	r24, 0x01	; 1
    2724:	88 0f       	add	r24, r24
    2726:	88 0f       	add	r24, r24
    2728:	88 0f       	add	r24, r24
    272a:	89 2b       	or	r24, r25
    272c:	21 e0       	ldi	r18, 0x01	; 1
    272e:	30 e0       	ldi	r19, 0x00	; 0
    2730:	02 c0       	rjmp	.+4      	; 0x2736 <process_step+0x96>
    2732:	22 0f       	add	r18, r18
    2734:	33 1f       	adc	r19, r19
    2736:	8a 95       	dec	r24
    2738:	e2 f7       	brpl	.-8      	; 0x2732 <process_step+0x92>
    273a:	80 91 ca 05 	lds	r24, 0x05CA
    273e:	86 95       	lsr	r24
    2740:	81 70       	andi	r24, 0x01	; 1
    2742:	c8 2f       	mov	r28, r24
    2744:	40 e0       	ldi	r20, 0x00	; 0
    2746:	d4 2f       	mov	r29, r20
    2748:	80 91 d4 05 	lds	r24, 0x05D4
    274c:	91 e1       	ldi	r25, 0x11	; 17
    274e:	9c 9f       	mul	r25, r28
    2750:	f0 01       	movw	r30, r0
    2752:	9d 9f       	mul	r25, r29
    2754:	f0 0d       	add	r31, r0
    2756:	11 24       	eor	r1, r1
    2758:	e8 0f       	add	r30, r24
    275a:	f1 1d       	adc	r31, r1
    275c:	ee 0f       	add	r30, r30
    275e:	ff 1f       	adc	r31, r31
    2760:	ea 57       	subi	r30, 0x7A	; 122
    2762:	fa 4f       	sbci	r31, 0xFA	; 250
    2764:	90 81       	ld	r25, Z
    2766:	81 81       	ldd	r24, Z+1	; 0x01
    2768:	e1 e4       	ldi	r30, 0x41	; 65
    276a:	f2 e0       	ldi	r31, 0x02	; 2
    276c:	49 2f       	mov	r20, r25
    276e:	42 23       	and	r20, r18
    2770:	40 95       	com	r20
    2772:	92 2b       	or	r25, r18
    2774:	94 23       	and	r25, r20
    2776:	91 83       	std	Z+1, r25	; 0x01
    2778:	98 2f       	mov	r25, r24
    277a:	93 23       	and	r25, r19
    277c:	90 95       	com	r25
    277e:	83 2b       	or	r24, r19
    2780:	89 23       	and	r24, r25
    2782:	80 83       	st	Z, r24
    2784:	80 c0       	rjmp	.+256    	; 0x2886 <process_step+0x1e6>
    2786:	0e 94 7e 10 	call	0x20fc	; 0x20fc <check_tap>
    278a:	80 91 fa 04 	lds	r24, 0x04FA
    278e:	84 fd       	sbrc	r24, 4
    2790:	7a c0       	rjmp	.+244    	; 0x2886 <process_step+0x1e6>
    2792:	20 91 ce 05 	lds	r18, 0x05CE
    2796:	82 2f       	mov	r24, r18
    2798:	82 95       	swap	r24
    279a:	86 95       	lsr	r24
    279c:	87 70       	andi	r24, 0x07	; 7
    279e:	20 91 cf 05 	lds	r18, 0x05CF
    27a2:	21 70       	andi	r18, 0x01	; 1
    27a4:	22 0f       	add	r18, r18
    27a6:	22 0f       	add	r18, r18
    27a8:	22 0f       	add	r18, r18
    27aa:	28 2b       	or	r18, r24
    27ac:	81 e0       	ldi	r24, 0x01	; 1
    27ae:	90 e0       	ldi	r25, 0x00	; 0
    27b0:	ac 01       	movw	r20, r24
    27b2:	02 c0       	rjmp	.+4      	; 0x27b8 <process_step+0x118>
    27b4:	44 0f       	add	r20, r20
    27b6:	55 1f       	adc	r21, r21
    27b8:	2a 95       	dec	r18
    27ba:	e2 f7       	brpl	.-8      	; 0x27b4 <process_step+0x114>
    27bc:	20 91 d0 05 	lds	r18, 0x05D0
    27c0:	32 2f       	mov	r19, r18
    27c2:	36 95       	lsr	r19
    27c4:	3f 70       	andi	r19, 0x0F	; 15
    27c6:	bc 01       	movw	r22, r24
    27c8:	02 c0       	rjmp	.+4      	; 0x27ce <process_step+0x12e>
    27ca:	66 0f       	add	r22, r22
    27cc:	77 1f       	adc	r23, r23
    27ce:	3a 95       	dec	r19
    27d0:	e2 f7       	brpl	.-8      	; 0x27ca <process_step+0x12a>
    27d2:	e1 e4       	ldi	r30, 0x41	; 65
    27d4:	f2 e0       	ldi	r31, 0x02	; 2
    27d6:	36 2f       	mov	r19, r22
    27d8:	34 23       	and	r19, r20
    27da:	30 95       	com	r19
    27dc:	46 2b       	or	r20, r22
    27de:	34 23       	and	r19, r20
    27e0:	31 83       	std	Z+1, r19	; 0x01
    27e2:	22 95       	swap	r18
    27e4:	26 95       	lsr	r18
    27e6:	27 70       	andi	r18, 0x07	; 7
    27e8:	30 91 d1 05 	lds	r19, 0x05D1
    27ec:	31 70       	andi	r19, 0x01	; 1
    27ee:	33 0f       	add	r19, r19
    27f0:	33 0f       	add	r19, r19
    27f2:	33 0f       	add	r19, r19
    27f4:	23 2b       	or	r18, r19
    27f6:	02 c0       	rjmp	.+4      	; 0x27fc <process_step+0x15c>
    27f8:	88 0f       	add	r24, r24
    27fa:	99 1f       	adc	r25, r25
    27fc:	2a 95       	dec	r18
    27fe:	e2 f7       	brpl	.-8      	; 0x27f8 <process_step+0x158>
    2800:	9c 01       	movw	r18, r24
    2802:	26 2b       	or	r18, r22
    2804:	37 2b       	or	r19, r23
    2806:	83 2f       	mov	r24, r19
    2808:	85 23       	and	r24, r21
    280a:	28 2f       	mov	r18, r24
    280c:	20 95       	com	r18
    280e:	87 2f       	mov	r24, r23
    2810:	85 2b       	or	r24, r21
    2812:	89 2b       	or	r24, r25
    2814:	82 23       	and	r24, r18
    2816:	80 83       	st	Z, r24
    2818:	36 c0       	rjmp	.+108    	; 0x2886 <process_step+0x1e6>
    281a:	80 91 fb 04 	lds	r24, 0x04FB
    281e:	80 fd       	sbrc	r24, 0
    2820:	32 c0       	rjmp	.+100    	; 0x2886 <process_step+0x1e6>
    2822:	80 91 fa 04 	lds	r24, 0x04FA
    2826:	88 23       	and	r24, r24
    2828:	74 f1       	brlt	.+92     	; 0x2886 <process_step+0x1e6>
    282a:	20 91 ce 05 	lds	r18, 0x05CE
    282e:	82 2f       	mov	r24, r18
    2830:	82 95       	swap	r24
    2832:	86 95       	lsr	r24
    2834:	87 70       	andi	r24, 0x07	; 7
    2836:	20 91 cf 05 	lds	r18, 0x05CF
    283a:	21 70       	andi	r18, 0x01	; 1
    283c:	22 0f       	add	r18, r18
    283e:	22 0f       	add	r18, r18
    2840:	22 0f       	add	r18, r18
    2842:	28 2b       	or	r18, r24
    2844:	81 e0       	ldi	r24, 0x01	; 1
    2846:	90 e0       	ldi	r25, 0x00	; 0
    2848:	ac 01       	movw	r20, r24
    284a:	02 c0       	rjmp	.+4      	; 0x2850 <process_step+0x1b0>
    284c:	44 0f       	add	r20, r20
    284e:	55 1f       	adc	r21, r21
    2850:	2a 95       	dec	r18
    2852:	e2 f7       	brpl	.-8      	; 0x284c <process_step+0x1ac>
    2854:	20 91 d0 05 	lds	r18, 0x05D0
    2858:	26 95       	lsr	r18
    285a:	2f 70       	andi	r18, 0x0F	; 15
    285c:	02 c0       	rjmp	.+4      	; 0x2862 <process_step+0x1c2>
    285e:	88 0f       	add	r24, r24
    2860:	99 1f       	adc	r25, r25
    2862:	2a 95       	dec	r18
    2864:	e2 f7       	brpl	.-8      	; 0x285e <process_step+0x1be>
    2866:	e1 e4       	ldi	r30, 0x41	; 65
    2868:	f2 e0       	ldi	r31, 0x02	; 2
    286a:	38 2f       	mov	r19, r24
    286c:	34 23       	and	r19, r20
    286e:	30 95       	com	r19
    2870:	28 2f       	mov	r18, r24
    2872:	24 2b       	or	r18, r20
    2874:	83 2f       	mov	r24, r19
    2876:	82 23       	and	r24, r18
    2878:	81 83       	std	Z+1, r24	; 0x01
    287a:	89 2f       	mov	r24, r25
    287c:	85 23       	and	r24, r21
    287e:	80 95       	com	r24
    2880:	95 2b       	or	r25, r21
    2882:	89 23       	and	r24, r25
    2884:	80 83       	st	Z, r24
    2886:	0e 94 75 03 	call	0x6ea	; 0x6ea <trigger_step>
    288a:	0e c2       	rjmp	.+1052   	; 0x2ca8 <process_step+0x608>
    288c:	80 91 e1 02 	lds	r24, 0x02E1
    2890:	81 ff       	sbrs	r24, 1
    2892:	e5 c1       	rjmp	.+970    	; 0x2c5e <process_step+0x5be>
    2894:	e1 ee       	ldi	r30, 0xE1	; 225
    2896:	f2 e0       	ldi	r31, 0x02	; 2
    2898:	80 81       	ld	r24, Z
    289a:	8d 7f       	andi	r24, 0xFD	; 253
    289c:	80 83       	st	Z, r24
    289e:	0e 94 d9 07 	call	0xfb2	; 0xfb2 <turn_off_all_inst_leds>
    28a2:	30 91 cb 01 	lds	r19, 0x01CB
    28a6:	20 91 cd 01 	lds	r18, 0x01CD
    28aa:	e1 e4       	ldi	r30, 0x41	; 65
    28ac:	f2 e0       	ldi	r31, 0x02	; 2
    28ae:	82 2f       	mov	r24, r18
    28b0:	83 2b       	or	r24, r19
    28b2:	80 95       	com	r24
    28b4:	95 81       	ldd	r25, Z+5	; 0x05
    28b6:	89 23       	and	r24, r25
    28b8:	85 83       	std	Z+5, r24	; 0x05
    28ba:	80 91 fa 04 	lds	r24, 0x04FA
    28be:	85 ff       	sbrs	r24, 5
    28c0:	34 c1       	rjmp	.+616    	; 0x2b2a <process_step+0x48a>
    28c2:	11 82       	std	Z+1, r1	; 0x01
    28c4:	10 82       	st	Z, r1
    28c6:	80 91 fc 04 	lds	r24, 0x04FC
    28ca:	88 73       	andi	r24, 0x38	; 56
    28cc:	88 32       	cpi	r24, 0x28	; 40
    28ce:	29 f4       	brne	.+10     	; 0x28da <process_step+0x23a>
    28d0:	60 e0       	ldi	r22, 0x00	; 0
    28d2:	80 91 d4 05 	lds	r24, 0x05D4
    28d6:	0e 94 af 02 	call	0x55e	; 0x55e <trigger_drum>
    28da:	80 91 f8 04 	lds	r24, 0x04F8
    28de:	83 30       	cpi	r24, 0x03	; 3
    28e0:	09 f4       	brne	.+2      	; 0x28e4 <process_step+0x244>
    28e2:	42 c0       	rjmp	.+132    	; 0x2968 <process_step+0x2c8>
    28e4:	20 f0       	brcs	.+8      	; 0x28ee <process_step+0x24e>
    28e6:	86 30       	cpi	r24, 0x06	; 6
    28e8:	08 f0       	brcs	.+2      	; 0x28ec <process_step+0x24c>
    28ea:	a6 c0       	rjmp	.+332    	; 0x2a38 <process_step+0x398>
    28ec:	7f c0       	rjmp	.+254    	; 0x29ec <process_step+0x34c>
    28ee:	80 91 fa 04 	lds	r24, 0x04FA
    28f2:	84 ff       	sbrs	r24, 4
    28f4:	13 c0       	rjmp	.+38     	; 0x291c <process_step+0x27c>
    28f6:	80 91 fb 04 	lds	r24, 0x04FB
    28fa:	80 fd       	sbrc	r24, 0
    28fc:	9d c0       	rjmp	.+314    	; 0x2a38 <process_step+0x398>
    28fe:	82 95       	swap	r24
    2900:	8f 70       	andi	r24, 0x0F	; 15
    2902:	87 70       	andi	r24, 0x07	; 7
    2904:	0e 94 93 07 	call	0xf26	; 0xf26 <turn_on>
    2908:	80 91 fc 04 	lds	r24, 0x04FC
    290c:	86 95       	lsr	r24
    290e:	86 95       	lsr	r24
    2910:	86 95       	lsr	r24
    2912:	87 70       	andi	r24, 0x07	; 7
    2914:	88 5f       	subi	r24, 0xF8	; 248
    2916:	0e 94 93 07 	call	0xf26	; 0xf26 <turn_on>
    291a:	8e c0       	rjmp	.+284    	; 0x2a38 <process_step+0x398>
    291c:	c4 ed       	ldi	r28, 0xD4	; 212
    291e:	d5 e0       	ldi	r29, 0x05	; 5
    2920:	e8 81       	ld	r30, Y
    2922:	57 e0       	ldi	r21, 0x07	; 7
    2924:	e5 9f       	mul	r30, r21
    2926:	f0 01       	movw	r30, r0
    2928:	11 24       	eor	r1, r1
    292a:	e0 50       	subi	r30, 0x00	; 0
    292c:	ff 4f       	sbci	r31, 0xFF	; 255
    292e:	85 81       	ldd	r24, Z+5	; 0x05
    2930:	0e 94 93 07 	call	0xf26	; 0xf26 <turn_on>
    2934:	80 91 ca 05 	lds	r24, 0x05CA
    2938:	81 fb       	bst	r24, 1
    293a:	cc 24       	eor	r12, r12
    293c:	c0 f8       	bld	r12, 0
    293e:	d1 2c       	mov	r13, r1
    2940:	88 81       	ld	r24, Y
    2942:	91 e1       	ldi	r25, 0x11	; 17
    2944:	9c 9d       	mul	r25, r12
    2946:	f0 01       	movw	r30, r0
    2948:	9d 9d       	mul	r25, r13
    294a:	f0 0d       	add	r31, r0
    294c:	11 24       	eor	r1, r1
    294e:	e8 0f       	add	r30, r24
    2950:	f1 1d       	adc	r31, r1
    2952:	ee 0f       	add	r30, r30
    2954:	ff 1f       	adc	r31, r31
    2956:	ea 57       	subi	r30, 0x7A	; 122
    2958:	fa 4f       	sbci	r31, 0xFA	; 250
    295a:	90 81       	ld	r25, Z
    295c:	81 81       	ldd	r24, Z+1	; 0x01
    295e:	e1 e4       	ldi	r30, 0x41	; 65
    2960:	f2 e0       	ldi	r31, 0x02	; 2
    2962:	91 83       	std	Z+1, r25	; 0x01
    2964:	80 83       	st	Z, r24
    2966:	68 c0       	rjmp	.+208    	; 0x2a38 <process_step+0x398>
    2968:	80 91 fa 04 	lds	r24, 0x04FA
    296c:	84 ff       	sbrs	r24, 4
    296e:	1b c0       	rjmp	.+54     	; 0x29a6 <process_step+0x306>
    2970:	80 91 fb 04 	lds	r24, 0x04FB
    2974:	80 ff       	sbrs	r24, 0
    2976:	06 c0       	rjmp	.+12     	; 0x2984 <process_step+0x2e4>
    2978:	80 91 85 05 	lds	r24, 0x0585
    297c:	8f 70       	andi	r24, 0x0F	; 15
    297e:	0e 94 93 07 	call	0xf26	; 0xf26 <turn_on>
    2982:	5a c0       	rjmp	.+180    	; 0x2a38 <process_step+0x398>
    2984:	80 91 fb 04 	lds	r24, 0x04FB
    2988:	82 95       	swap	r24
    298a:	8f 70       	andi	r24, 0x0F	; 15
    298c:	87 70       	andi	r24, 0x07	; 7
    298e:	0e 94 93 07 	call	0xf26	; 0xf26 <turn_on>
    2992:	80 91 fc 04 	lds	r24, 0x04FC
    2996:	86 95       	lsr	r24
    2998:	86 95       	lsr	r24
    299a:	86 95       	lsr	r24
    299c:	87 70       	andi	r24, 0x07	; 7
    299e:	88 5f       	subi	r24, 0xF8	; 248
    29a0:	0e 94 93 07 	call	0xf26	; 0xf26 <turn_on>
    29a4:	49 c0       	rjmp	.+146    	; 0x2a38 <process_step+0x398>
    29a6:	80 91 d0 05 	lds	r24, 0x05D0
    29aa:	98 2f       	mov	r25, r24
    29ac:	96 95       	lsr	r25
    29ae:	9f 70       	andi	r25, 0x0F	; 15
    29b0:	21 e0       	ldi	r18, 0x01	; 1
    29b2:	30 e0       	ldi	r19, 0x00	; 0
    29b4:	a9 01       	movw	r20, r18
    29b6:	02 c0       	rjmp	.+4      	; 0x29bc <process_step+0x31c>
    29b8:	44 0f       	add	r20, r20
    29ba:	55 1f       	adc	r21, r21
    29bc:	9a 95       	dec	r25
    29be:	e2 f7       	brpl	.-8      	; 0x29b8 <process_step+0x318>
    29c0:	e1 e4       	ldi	r30, 0x41	; 65
    29c2:	f2 e0       	ldi	r31, 0x02	; 2
    29c4:	41 83       	std	Z+1, r20	; 0x01
    29c6:	82 95       	swap	r24
    29c8:	86 95       	lsr	r24
    29ca:	87 70       	andi	r24, 0x07	; 7
    29cc:	90 91 d1 05 	lds	r25, 0x05D1
    29d0:	91 70       	andi	r25, 0x01	; 1
    29d2:	99 0f       	add	r25, r25
    29d4:	99 0f       	add	r25, r25
    29d6:	99 0f       	add	r25, r25
    29d8:	89 2b       	or	r24, r25
    29da:	02 c0       	rjmp	.+4      	; 0x29e0 <process_step+0x340>
    29dc:	22 0f       	add	r18, r18
    29de:	33 1f       	adc	r19, r19
    29e0:	8a 95       	dec	r24
    29e2:	e2 f7       	brpl	.-8      	; 0x29dc <process_step+0x33c>
    29e4:	85 2f       	mov	r24, r21
    29e6:	83 2b       	or	r24, r19
    29e8:	80 83       	st	Z, r24
    29ea:	26 c0       	rjmp	.+76     	; 0x2a38 <process_step+0x398>
    29ec:	80 91 fb 04 	lds	r24, 0x04FB
    29f0:	80 ff       	sbrs	r24, 0
    29f2:	0a c0       	rjmp	.+20     	; 0x2a08 <process_step+0x368>
    29f4:	80 91 fa 04 	lds	r24, 0x04FA
    29f8:	84 fd       	sbrc	r24, 4
    29fa:	06 c0       	rjmp	.+12     	; 0x2a08 <process_step+0x368>
    29fc:	80 91 85 05 	lds	r24, 0x0585
    2a00:	8f 70       	andi	r24, 0x0F	; 15
    2a02:	0e 94 93 07 	call	0xf26	; 0xf26 <turn_on>
    2a06:	18 c0       	rjmp	.+48     	; 0x2a38 <process_step+0x398>
    2a08:	80 91 fa 04 	lds	r24, 0x04FA
    2a0c:	88 23       	and	r24, r24
    2a0e:	1c f4       	brge	.+6      	; 0x2a16 <process_step+0x376>
    2a10:	0e 94 06 0d 	call	0x1a0c	; 0x1a0c <show_current_measure>
    2a14:	11 c0       	rjmp	.+34     	; 0x2a38 <process_step+0x398>
    2a16:	80 91 d0 05 	lds	r24, 0x05D0
    2a1a:	86 95       	lsr	r24
    2a1c:	8f 70       	andi	r24, 0x0F	; 15
    2a1e:	21 e0       	ldi	r18, 0x01	; 1
    2a20:	30 e0       	ldi	r19, 0x00	; 0
    2a22:	a9 01       	movw	r20, r18
    2a24:	02 c0       	rjmp	.+4      	; 0x2a2a <process_step+0x38a>
    2a26:	44 0f       	add	r20, r20
    2a28:	55 1f       	adc	r21, r21
    2a2a:	8a 95       	dec	r24
    2a2c:	e2 f7       	brpl	.-8      	; 0x2a26 <process_step+0x386>
    2a2e:	ca 01       	movw	r24, r20
    2a30:	e1 e4       	ldi	r30, 0x41	; 65
    2a32:	f2 e0       	ldi	r31, 0x02	; 2
    2a34:	41 83       	std	Z+1, r20	; 0x01
    2a36:	90 83       	st	Z, r25
    2a38:	80 91 cb 01 	lds	r24, 0x01CB
    2a3c:	80 93 d5 05 	sts	0x05D5, r24
    2a40:	80 91 ca 05 	lds	r24, 0x05CA
    2a44:	81 fb       	bst	r24, 1
    2a46:	00 27       	eor	r16, r16
    2a48:	00 f9       	bld	r16, 0
    2a4a:	10 e0       	ldi	r17, 0x00	; 0
    2a4c:	80 91 cb 05 	lds	r24, 0x05CB
    2a50:	90 e0       	ldi	r25, 0x00	; 0
    2a52:	08 17       	cp	r16, r24
    2a54:	19 07       	cpc	r17, r25
    2a56:	69 f4       	brne	.+26     	; 0x2a72 <process_step+0x3d2>
    2a58:	80 91 ca 05 	lds	r24, 0x05CA
    2a5c:	81 ff       	sbrs	r24, 1
    2a5e:	11 c0       	rjmp	.+34     	; 0x2a82 <process_step+0x3e2>
    2a60:	80 91 e1 02 	lds	r24, 0x02E1
    2a64:	82 fd       	sbrc	r24, 2
    2a66:	0d c0       	rjmp	.+26     	; 0x2a82 <process_step+0x3e2>
    2a68:	80 91 cd 01 	lds	r24, 0x01CD
    2a6c:	80 93 d5 05 	sts	0x05D5, r24
    2a70:	08 c0       	rjmp	.+16     	; 0x2a82 <process_step+0x3e2>
    2a72:	80 91 ca 05 	lds	r24, 0x05CA
    2a76:	81 ff       	sbrs	r24, 1
    2a78:	04 c0       	rjmp	.+8      	; 0x2a82 <process_step+0x3e2>
    2a7a:	80 91 cd 01 	lds	r24, 0x01CD
    2a7e:	80 93 d5 05 	sts	0x05D5, r24
    2a82:	80 91 fe 02 	lds	r24, 0x02FE
    2a86:	82 95       	swap	r24
    2a88:	86 95       	lsr	r24
    2a8a:	86 95       	lsr	r24
    2a8c:	83 70       	andi	r24, 0x03	; 3
    2a8e:	90 e0       	ldi	r25, 0x00	; 0
    2a90:	02 97       	sbiw	r24, 0x02	; 2
    2a92:	0c f0       	brlt	.+2      	; 0x2a96 <process_step+0x3f6>
    2a94:	09 c1       	rjmp	.+530    	; 0x2ca8 <process_step+0x608>
    2a96:	80 91 f8 04 	lds	r24, 0x04F8
    2a9a:	83 30       	cpi	r24, 0x03	; 3
    2a9c:	b0 f4       	brcc	.+44     	; 0x2aca <process_step+0x42a>
    2a9e:	80 91 fa 04 	lds	r24, 0x04FA
    2aa2:	84 ff       	sbrs	r24, 4
    2aa4:	12 c0       	rjmp	.+36     	; 0x2aca <process_step+0x42a>
    2aa6:	80 91 fb 04 	lds	r24, 0x04FB
    2aaa:	80 ff       	sbrs	r24, 0
    2aac:	07 c0       	rjmp	.+14     	; 0x2abc <process_step+0x41c>
    2aae:	80 91 d0 05 	lds	r24, 0x05D0
    2ab2:	86 95       	lsr	r24
    2ab4:	8f 70       	andi	r24, 0x0F	; 15
    2ab6:	0e 94 93 07 	call	0xf26	; 0xf26 <turn_on>
    2aba:	07 c0       	rjmp	.+14     	; 0x2aca <process_step+0x42a>
    2abc:	80 91 fb 04 	lds	r24, 0x04FB
    2ac0:	82 95       	swap	r24
    2ac2:	8f 70       	andi	r24, 0x0F	; 15
    2ac4:	87 70       	andi	r24, 0x07	; 7
    2ac6:	0e 94 93 07 	call	0xf26	; 0xf26 <turn_on>
    2aca:	80 91 ca 05 	lds	r24, 0x05CA
    2ace:	81 fb       	bst	r24, 1
    2ad0:	ee 24       	eor	r14, r14
    2ad2:	e0 f8       	bld	r14, 0
    2ad4:	f1 2c       	mov	r15, r1
    2ad6:	80 91 cb 05 	lds	r24, 0x05CB
    2ada:	90 e0       	ldi	r25, 0x00	; 0
    2adc:	e8 16       	cp	r14, r24
    2ade:	f9 06       	cpc	r15, r25
    2ae0:	a1 f0       	breq	.+40     	; 0x2b0a <process_step+0x46a>
    2ae2:	80 91 ca 05 	lds	r24, 0x05CA
    2ae6:	81 fd       	sbrc	r24, 1
    2ae8:	08 c0       	rjmp	.+16     	; 0x2afa <process_step+0x45a>
    2aea:	e5 ed       	ldi	r30, 0xD5	; 213
    2aec:	f5 e0       	ldi	r31, 0x05	; 5
    2aee:	90 91 cd 01 	lds	r25, 0x01CD
    2af2:	80 81       	ld	r24, Z
    2af4:	89 2b       	or	r24, r25
    2af6:	80 83       	st	Z, r24
    2af8:	d7 c0       	rjmp	.+430    	; 0x2ca8 <process_step+0x608>
    2afa:	e5 ed       	ldi	r30, 0xD5	; 213
    2afc:	f5 e0       	ldi	r31, 0x05	; 5
    2afe:	90 91 cb 01 	lds	r25, 0x01CB
    2b02:	80 81       	ld	r24, Z
    2b04:	89 2b       	or	r24, r25
    2b06:	80 83       	st	Z, r24
    2b08:	cf c0       	rjmp	.+414    	; 0x2ca8 <process_step+0x608>
    2b0a:	80 91 ca 05 	lds	r24, 0x05CA
    2b0e:	81 fd       	sbrc	r24, 1
    2b10:	cb c0       	rjmp	.+406    	; 0x2ca8 <process_step+0x608>
    2b12:	80 91 e1 02 	lds	r24, 0x02E1
    2b16:	82 ff       	sbrs	r24, 2
    2b18:	c7 c0       	rjmp	.+398    	; 0x2ca8 <process_step+0x608>
    2b1a:	e5 ed       	ldi	r30, 0xD5	; 213
    2b1c:	f5 e0       	ldi	r31, 0x05	; 5
    2b1e:	90 91 cd 01 	lds	r25, 0x01CD
    2b22:	80 81       	ld	r24, Z
    2b24:	89 2b       	or	r24, r25
    2b26:	80 83       	st	Z, r24
    2b28:	bf c0       	rjmp	.+382    	; 0x2ca8 <process_step+0x608>
    2b2a:	e1 e4       	ldi	r30, 0x41	; 65
    2b2c:	f2 e0       	ldi	r31, 0x02	; 2
    2b2e:	11 82       	std	Z+1, r1	; 0x01
    2b30:	10 82       	st	Z, r1
    2b32:	90 91 cb 05 	lds	r25, 0x05CB
    2b36:	91 30       	cpi	r25, 0x01	; 1
    2b38:	31 f0       	breq	.+12     	; 0x2b46 <process_step+0x4a6>
    2b3a:	10 f0       	brcs	.+4      	; 0x2b40 <process_step+0x4a0>
    2b3c:	92 30       	cpi	r25, 0x02	; 2
    2b3e:	29 f4       	brne	.+10     	; 0x2b4a <process_step+0x4aa>
    2b40:	30 93 d5 05 	sts	0x05D5, r19
    2b44:	02 c0       	rjmp	.+4      	; 0x2b4a <process_step+0x4aa>
    2b46:	20 93 d5 05 	sts	0x05D5, r18
    2b4a:	90 91 f8 04 	lds	r25, 0x04F8
    2b4e:	93 30       	cpi	r25, 0x03	; 3
    2b50:	29 f0       	breq	.+10     	; 0x2b5c <process_step+0x4bc>
    2b52:	50 f1       	brcs	.+84     	; 0x2ba8 <process_step+0x508>
    2b54:	96 30       	cpi	r25, 0x06	; 6
    2b56:	08 f0       	brcs	.+2      	; 0x2b5a <process_step+0x4ba>
    2b58:	4b c0       	rjmp	.+150    	; 0x2bf0 <process_step+0x550>
    2b5a:	3a c0       	rjmp	.+116    	; 0x2bd0 <process_step+0x530>
    2b5c:	84 ff       	sbrs	r24, 4
    2b5e:	0a c0       	rjmp	.+20     	; 0x2b74 <process_step+0x4d4>
    2b60:	80 91 fb 04 	lds	r24, 0x04FB
    2b64:	80 ff       	sbrs	r24, 0
    2b66:	44 c0       	rjmp	.+136    	; 0x2bf0 <process_step+0x550>
    2b68:	80 91 85 05 	lds	r24, 0x0585
    2b6c:	8f 70       	andi	r24, 0x0F	; 15
    2b6e:	0e 94 93 07 	call	0xf26	; 0xf26 <turn_on>
    2b72:	3e c0       	rjmp	.+124    	; 0x2bf0 <process_step+0x550>
    2b74:	80 91 e3 02 	lds	r24, 0x02E3
    2b78:	83 ff       	sbrs	r24, 3
    2b7a:	07 c0       	rjmp	.+14     	; 0x2b8a <process_step+0x4ea>
    2b7c:	80 91 d0 05 	lds	r24, 0x05D0
    2b80:	86 95       	lsr	r24
    2b82:	8f 70       	andi	r24, 0x0F	; 15
    2b84:	0e 94 93 07 	call	0xf26	; 0xf26 <turn_on>
    2b88:	33 c0       	rjmp	.+102    	; 0x2bf0 <process_step+0x550>
    2b8a:	90 91 d0 05 	lds	r25, 0x05D0
    2b8e:	92 95       	swap	r25
    2b90:	96 95       	lsr	r25
    2b92:	97 70       	andi	r25, 0x07	; 7
    2b94:	80 91 d1 05 	lds	r24, 0x05D1
    2b98:	81 70       	andi	r24, 0x01	; 1
    2b9a:	88 0f       	add	r24, r24
    2b9c:	88 0f       	add	r24, r24
    2b9e:	88 0f       	add	r24, r24
    2ba0:	89 2b       	or	r24, r25
    2ba2:	0e 94 93 07 	call	0xf26	; 0xf26 <turn_on>
    2ba6:	24 c0       	rjmp	.+72     	; 0x2bf0 <process_step+0x550>
    2ba8:	84 ff       	sbrs	r24, 4
    2baa:	22 c0       	rjmp	.+68     	; 0x2bf0 <process_step+0x550>
    2bac:	80 91 fb 04 	lds	r24, 0x04FB
    2bb0:	80 ff       	sbrs	r24, 0
    2bb2:	08 c0       	rjmp	.+16     	; 0x2bc4 <process_step+0x524>
    2bb4:	80 91 d7 05 	lds	r24, 0x05D7
    2bb8:	86 95       	lsr	r24
    2bba:	86 95       	lsr	r24
    2bbc:	8f 70       	andi	r24, 0x0F	; 15
    2bbe:	0e 94 93 07 	call	0xf26	; 0xf26 <turn_on>
    2bc2:	16 c0       	rjmp	.+44     	; 0x2bf0 <process_step+0x550>
    2bc4:	80 91 85 05 	lds	r24, 0x0585
    2bc8:	8f 70       	andi	r24, 0x0F	; 15
    2bca:	0e 94 93 07 	call	0xf26	; 0xf26 <turn_on>
    2bce:	10 c0       	rjmp	.+32     	; 0x2bf0 <process_step+0x550>
    2bd0:	90 91 fb 04 	lds	r25, 0x04FB
    2bd4:	90 ff       	sbrs	r25, 0
    2bd6:	08 c0       	rjmp	.+16     	; 0x2be8 <process_step+0x548>
    2bd8:	84 fd       	sbrc	r24, 4
    2bda:	06 c0       	rjmp	.+12     	; 0x2be8 <process_step+0x548>
    2bdc:	80 91 85 05 	lds	r24, 0x0585
    2be0:	8f 70       	andi	r24, 0x0F	; 15
    2be2:	0e 94 93 07 	call	0xf26	; 0xf26 <turn_on>
    2be6:	04 c0       	rjmp	.+8      	; 0x2bf0 <process_step+0x550>
    2be8:	88 23       	and	r24, r24
    2bea:	14 f4       	brge	.+4      	; 0x2bf0 <process_step+0x550>
    2bec:	0e 94 06 0d 	call	0x1a0c	; 0x1a0c <show_current_measure>
    2bf0:	80 91 fe 02 	lds	r24, 0x02FE
    2bf4:	82 95       	swap	r24
    2bf6:	86 95       	lsr	r24
    2bf8:	86 95       	lsr	r24
    2bfa:	83 70       	andi	r24, 0x03	; 3
    2bfc:	90 e0       	ldi	r25, 0x00	; 0
    2bfe:	02 97       	sbiw	r24, 0x02	; 2
    2c00:	0c f0       	brlt	.+2      	; 0x2c04 <process_step+0x564>
    2c02:	52 c0       	rjmp	.+164    	; 0x2ca8 <process_step+0x608>
    2c04:	80 91 fa 04 	lds	r24, 0x04FA
    2c08:	80 79       	andi	r24, 0x90	; 144
    2c0a:	09 f0       	breq	.+2      	; 0x2c0e <process_step+0x56e>
    2c0c:	4d c0       	rjmp	.+154    	; 0x2ca8 <process_step+0x608>
    2c0e:	80 91 fb 04 	lds	r24, 0x04FB
    2c12:	80 fd       	sbrc	r24, 0
    2c14:	49 c0       	rjmp	.+146    	; 0x2ca8 <process_step+0x608>
    2c16:	80 91 cb 05 	lds	r24, 0x05CB
    2c1a:	82 30       	cpi	r24, 0x02	; 2
    2c1c:	39 f4       	brne	.+14     	; 0x2c2c <process_step+0x58c>
    2c1e:	e5 ed       	ldi	r30, 0xD5	; 213
    2c20:	f5 e0       	ldi	r31, 0x05	; 5
    2c22:	90 91 cd 01 	lds	r25, 0x01CD
    2c26:	80 81       	ld	r24, Z
    2c28:	89 2b       	or	r24, r25
    2c2a:	80 83       	st	Z, r24
    2c2c:	80 91 d0 05 	lds	r24, 0x05D0
    2c30:	86 95       	lsr	r24
    2c32:	8f 70       	andi	r24, 0x0F	; 15
    2c34:	0e 94 93 07 	call	0xf26	; 0xf26 <turn_on>
    2c38:	80 91 f8 04 	lds	r24, 0x04F8
    2c3c:	83 30       	cpi	r24, 0x03	; 3
    2c3e:	a1 f5       	brne	.+104    	; 0x2ca8 <process_step+0x608>
    2c40:	90 91 d0 05 	lds	r25, 0x05D0
    2c44:	92 95       	swap	r25
    2c46:	96 95       	lsr	r25
    2c48:	97 70       	andi	r25, 0x07	; 7
    2c4a:	80 91 d1 05 	lds	r24, 0x05D1
    2c4e:	81 70       	andi	r24, 0x01	; 1
    2c50:	88 0f       	add	r24, r24
    2c52:	88 0f       	add	r24, r24
    2c54:	88 0f       	add	r24, r24
    2c56:	89 2b       	or	r24, r25
    2c58:	0e 94 93 07 	call	0xf26	; 0xf26 <turn_on>
    2c5c:	25 c0       	rjmp	.+74     	; 0x2ca8 <process_step+0x608>
    2c5e:	80 91 04 03 	lds	r24, 0x0304
    2c62:	81 30       	cpi	r24, 0x01	; 1
    2c64:	09 f5       	brne	.+66     	; 0x2ca8 <process_step+0x608>
    2c66:	80 91 fa 04 	lds	r24, 0x04FA
    2c6a:	85 fd       	sbrc	r24, 5
    2c6c:	1d c0       	rjmp	.+58     	; 0x2ca8 <process_step+0x608>
    2c6e:	30 91 cb 01 	lds	r19, 0x01CB
    2c72:	20 91 cd 01 	lds	r18, 0x01CD
    2c76:	92 2f       	mov	r25, r18
    2c78:	93 2b       	or	r25, r19
    2c7a:	e1 e4       	ldi	r30, 0x41	; 65
    2c7c:	f2 e0       	ldi	r31, 0x02	; 2
    2c7e:	49 2f       	mov	r20, r25
    2c80:	40 95       	com	r20
    2c82:	85 81       	ldd	r24, Z+5	; 0x05
    2c84:	84 23       	and	r24, r20
    2c86:	85 83       	std	Z+5, r24	; 0x05
    2c88:	80 91 cb 05 	lds	r24, 0x05CB
    2c8c:	81 30       	cpi	r24, 0x01	; 1
    2c8e:	39 f0       	breq	.+14     	; 0x2c9e <process_step+0x5fe>
    2c90:	18 f0       	brcs	.+6      	; 0x2c98 <process_step+0x5f8>
    2c92:	82 30       	cpi	r24, 0x02	; 2
    2c94:	39 f0       	breq	.+14     	; 0x2ca4 <process_step+0x604>
    2c96:	08 c0       	rjmp	.+16     	; 0x2ca8 <process_step+0x608>
    2c98:	30 93 d5 05 	sts	0x05D5, r19
    2c9c:	05 c0       	rjmp	.+10     	; 0x2ca8 <process_step+0x608>
    2c9e:	20 93 d5 05 	sts	0x05D5, r18
    2ca2:	02 c0       	rjmp	.+4      	; 0x2ca8 <process_step+0x608>
    2ca4:	90 93 d5 05 	sts	0x05D5, r25
    2ca8:	e1 e4       	ldi	r30, 0x41	; 65
    2caa:	f2 e0       	ldi	r31, 0x02	; 2
    2cac:	90 91 d5 05 	lds	r25, 0x05D5
    2cb0:	85 81       	ldd	r24, Z+5	; 0x05
    2cb2:	89 2b       	or	r24, r25
    2cb4:	85 83       	std	Z+5, r24	; 0x05
    2cb6:	df 91       	pop	r29
    2cb8:	cf 91       	pop	r28
    2cba:	1f 91       	pop	r17
    2cbc:	0f 91       	pop	r16
    2cbe:	ff 90       	pop	r15
    2cc0:	ef 90       	pop	r14
    2cc2:	df 90       	pop	r13
    2cc4:	cf 90       	pop	r12
    2cc6:	08 95       	ret

00002cc8 <update_step_board>:
    2cc8:	6f 92       	push	r6
    2cca:	7f 92       	push	r7
    2ccc:	8f 92       	push	r8
    2cce:	9f 92       	push	r9
    2cd0:	af 92       	push	r10
    2cd2:	bf 92       	push	r11
    2cd4:	cf 92       	push	r12
    2cd6:	df 92       	push	r13
    2cd8:	ef 92       	push	r14
    2cda:	ff 92       	push	r15
    2cdc:	0f 93       	push	r16
    2cde:	1f 93       	push	r17
    2ce0:	cf 93       	push	r28
    2ce2:	df 93       	push	r29
    2ce4:	80 91 fa 04 	lds	r24, 0x04FA
    2ce8:	85 ff       	sbrs	r24, 5
    2cea:	b1 c1       	rjmp	.+866    	; 0x304e <update_step_board+0x386>
    2cec:	0e 94 9c 1c 	call	0x3938	; 0x3938 <check_step_press>
    2cf0:	18 2f       	mov	r17, r24
    2cf2:	8f 3f       	cpi	r24, 0xFF	; 255
    2cf4:	09 f4       	brne	.+2      	; 0x2cf8 <update_step_board+0x30>
    2cf6:	2b c3       	rjmp	.+1622   	; 0x334e <update_step_board+0x686>
    2cf8:	80 91 f8 04 	lds	r24, 0x04F8
    2cfc:	83 30       	cpi	r24, 0x03	; 3
    2cfe:	09 f4       	brne	.+2      	; 0x2d02 <update_step_board+0x3a>
    2d00:	0d c1       	rjmp	.+538    	; 0x2f1c <update_step_board+0x254>
    2d02:	18 f4       	brcc	.+6      	; 0x2d0a <update_step_board+0x42>
    2d04:	81 30       	cpi	r24, 0x01	; 1
    2d06:	28 f4       	brcc	.+10     	; 0x2d12 <update_step_board+0x4a>
    2d08:	22 c3       	rjmp	.+1604   	; 0x334e <update_step_board+0x686>
    2d0a:	85 30       	cpi	r24, 0x05	; 5
    2d0c:	09 f4       	brne	.+2      	; 0x2d10 <update_step_board+0x48>
    2d0e:	5f c1       	rjmp	.+702    	; 0x2fce <update_step_board+0x306>
    2d10:	1e c3       	rjmp	.+1596   	; 0x334e <update_step_board+0x686>
    2d12:	80 91 fa 04 	lds	r24, 0x04FA
    2d16:	84 ff       	sbrs	r24, 4
    2d18:	37 c0       	rjmp	.+110    	; 0x2d88 <update_step_board+0xc0>
    2d1a:	0e 94 ca 09 	call	0x1394	; 0x1394 <refresh_step_leds>
    2d1e:	80 91 fb 04 	lds	r24, 0x04FB
    2d22:	80 ff       	sbrs	r24, 0
    2d24:	2d c0       	rjmp	.+90     	; 0x2d80 <update_step_board+0xb8>
    2d26:	80 91 cf 05 	lds	r24, 0x05CF
    2d2a:	98 2f       	mov	r25, r24
    2d2c:	92 95       	swap	r25
    2d2e:	96 95       	lsr	r25
    2d30:	97 70       	andi	r25, 0x07	; 7
    2d32:	80 91 d0 05 	lds	r24, 0x05D0
    2d36:	81 70       	andi	r24, 0x01	; 1
    2d38:	88 0f       	add	r24, r24
    2d3a:	88 0f       	add	r24, r24
    2d3c:	88 0f       	add	r24, r24
    2d3e:	89 2b       	or	r24, r25
    2d40:	48 2f       	mov	r20, r24
    2d42:	50 e0       	ldi	r21, 0x00	; 0
    2d44:	21 2f       	mov	r18, r17
    2d46:	30 e0       	ldi	r19, 0x00	; 0
    2d48:	42 17       	cp	r20, r18
    2d4a:	53 07       	cpc	r21, r19
    2d4c:	09 f4       	brne	.+2      	; 0x2d50 <update_step_board+0x88>
    2d4e:	ff c2       	rjmp	.+1534   	; 0x334e <update_step_board+0x686>
    2d50:	e1 ee       	ldi	r30, 0xE1	; 225
    2d52:	f2 e0       	ldi	r31, 0x02	; 2
    2d54:	90 81       	ld	r25, Z
    2d56:	90 62       	ori	r25, 0x20	; 32
    2d58:	90 83       	st	Z, r25
    2d5a:	ee ec       	ldi	r30, 0xCE	; 206
    2d5c:	f5 e0       	ldi	r31, 0x05	; 5
    2d5e:	91 2f       	mov	r25, r17
    2d60:	9f 70       	andi	r25, 0x0F	; 15
    2d62:	79 2e       	mov	r7, r25
    2d64:	77 0c       	add	r7, r7
    2d66:	92 81       	ldd	r25, Z+2	; 0x02
    2d68:	91 7e       	andi	r25, 0xE1	; 225
    2d6a:	97 29       	or	r25, r7
    2d6c:	92 83       	std	Z+2, r25	; 0x02
    2d6e:	0e 94 ae 07 	call	0xf5c	; 0xf5c <turn_off>
    2d72:	80 91 d0 05 	lds	r24, 0x05D0
    2d76:	86 95       	lsr	r24
    2d78:	8f 70       	andi	r24, 0x0F	; 15
    2d7a:	0e 94 93 07 	call	0xf26	; 0xf26 <turn_on>
    2d7e:	e7 c2       	rjmp	.+1486   	; 0x334e <update_step_board+0x686>
    2d80:	81 2f       	mov	r24, r17
    2d82:	0e 94 e2 0e 	call	0x1dc4	; 0x1dc4 <update_shuffle>
    2d86:	e3 c2       	rjmp	.+1478   	; 0x334e <update_step_board+0x686>
    2d88:	86 ff       	sbrs	r24, 6
    2d8a:	0f c0       	rjmp	.+30     	; 0x2daa <update_step_board+0xe2>
    2d8c:	e8 e1       	ldi	r30, 0x18	; 24
    2d8e:	f2 e0       	ldi	r31, 0x02	; 2
    2d90:	80 81       	ld	r24, Z
    2d92:	8f 7b       	andi	r24, 0xBF	; 191
    2d94:	80 83       	st	Z, r24
    2d96:	ee ec       	ldi	r30, 0xCE	; 206
    2d98:	f5 e0       	ldi	r31, 0x05	; 5
    2d9a:	81 2f       	mov	r24, r17
    2d9c:	8f 71       	andi	r24, 0x1F	; 31
    2d9e:	90 81       	ld	r25, Z
    2da0:	90 7e       	andi	r25, 0xE0	; 224
    2da2:	79 2e       	mov	r7, r25
    2da4:	78 2a       	or	r7, r24
    2da6:	70 82       	st	Z, r7
    2da8:	d2 c2       	rjmp	.+1444   	; 0x334e <update_step_board+0x686>
    2daa:	80 91 d4 05 	lds	r24, 0x05D4
    2dae:	80 31       	cpi	r24, 0x10	; 16
    2db0:	09 f0       	breq	.+2      	; 0x2db4 <update_step_board+0xec>
    2db2:	52 c0       	rjmp	.+164    	; 0x2e58 <update_step_board+0x190>
    2db4:	80 91 cf 05 	lds	r24, 0x05CF
    2db8:	82 fb       	bst	r24, 2
    2dba:	66 24       	eor	r6, r6
    2dbc:	60 f8       	bld	r6, 0
    2dbe:	71 2c       	mov	r7, r1
    2dc0:	c3 01       	movw	r24, r6
    2dc2:	88 50       	subi	r24, 0x08	; 8
    2dc4:	9b 4f       	sbci	r25, 0xFB	; 251
    2dc6:	fc 01       	movw	r30, r24
    2dc8:	ec 52       	subi	r30, 0x2C	; 44
    2dca:	ff 4f       	sbci	r31, 0xFF	; 255
    2dcc:	80 81       	ld	r24, Z
    2dce:	81 17       	cp	r24, r17
    2dd0:	08 f4       	brcc	.+2      	; 0x2dd4 <update_step_board+0x10c>
    2dd2:	bd c2       	rjmp	.+1402   	; 0x334e <update_step_board+0x686>
    2dd4:	81 2f       	mov	r24, r17
    2dd6:	0e 94 ca 07 	call	0xf94	; 0xf94 <toggle>
    2dda:	80 91 ca 05 	lds	r24, 0x05CA
    2dde:	81 fb       	bst	r24, 1
    2de0:	aa 24       	eor	r10, r10
    2de2:	a0 f8       	bld	r10, 0
    2de4:	b1 2c       	mov	r11, r1
    2de6:	80 91 cf 05 	lds	r24, 0x05CF
    2dea:	82 fb       	bst	r24, 2
    2dec:	88 24       	eor	r8, r8
    2dee:	80 f8       	bld	r8, 0
    2df0:	91 2c       	mov	r9, r1
    2df2:	81 e0       	ldi	r24, 0x01	; 1
    2df4:	90 e0       	ldi	r25, 0x00	; 0
    2df6:	02 c0       	rjmp	.+4      	; 0x2dfc <update_step_board+0x134>
    2df8:	88 0f       	add	r24, r24
    2dfa:	99 1f       	adc	r25, r25
    2dfc:	1a 95       	dec	r17
    2dfe:	e2 f7       	brpl	.-8      	; 0x2df8 <update_step_board+0x130>
    2e00:	22 e2       	ldi	r18, 0x22	; 34
    2e02:	2a 9d       	mul	r18, r10
    2e04:	f0 01       	movw	r30, r0
    2e06:	2b 9d       	mul	r18, r11
    2e08:	f0 0d       	add	r31, r0
    2e0a:	11 24       	eor	r1, r1
    2e0c:	e8 0d       	add	r30, r8
    2e0e:	f9 1d       	adc	r31, r9
    2e10:	ee 0f       	add	r30, r30
    2e12:	ff 1f       	adc	r31, r31
    2e14:	e8 50       	subi	r30, 0x08	; 8
    2e16:	fb 4f       	sbci	r31, 0xFB	; 251
    2e18:	25 81       	ldd	r18, Z+5	; 0x05
    2e1a:	36 81       	ldd	r19, Z+6	; 0x06
    2e1c:	28 27       	eor	r18, r24
    2e1e:	39 27       	eor	r19, r25
    2e20:	36 83       	std	Z+6, r19	; 0x06
    2e22:	25 83       	std	Z+5, r18	; 0x05
    2e24:	20 91 d4 05 	lds	r18, 0x05D4
    2e28:	31 e1       	ldi	r19, 0x11	; 17
    2e2a:	3a 9d       	mul	r19, r10
    2e2c:	f0 01       	movw	r30, r0
    2e2e:	3b 9d       	mul	r19, r11
    2e30:	f0 0d       	add	r31, r0
    2e32:	11 24       	eor	r1, r1
    2e34:	e2 0f       	add	r30, r18
    2e36:	f1 1d       	adc	r31, r1
    2e38:	ee 0f       	add	r30, r30
    2e3a:	ff 1f       	adc	r31, r31
    2e3c:	ea 57       	subi	r30, 0x7A	; 122
    2e3e:	fa 4f       	sbci	r31, 0xFA	; 250
    2e40:	20 81       	ld	r18, Z
    2e42:	31 81       	ldd	r19, Z+1	; 0x01
    2e44:	82 27       	eor	r24, r18
    2e46:	93 27       	eor	r25, r19
    2e48:	91 83       	std	Z+1, r25	; 0x01
    2e4a:	80 83       	st	Z, r24
    2e4c:	e1 ee       	ldi	r30, 0xE1	; 225
    2e4e:	f2 e0       	ldi	r31, 0x02	; 2
    2e50:	80 81       	ld	r24, Z
    2e52:	80 61       	ori	r24, 0x10	; 16
    2e54:	80 83       	st	Z, r24
    2e56:	7b c2       	rjmp	.+1270   	; 0x334e <update_step_board+0x686>
    2e58:	80 91 cf 05 	lds	r24, 0x05CF
    2e5c:	82 fb       	bst	r24, 2
    2e5e:	88 27       	eor	r24, r24
    2e60:	80 f9       	bld	r24, 0
    2e62:	c8 2f       	mov	r28, r24
    2e64:	80 e0       	ldi	r24, 0x00	; 0
    2e66:	d8 2f       	mov	r29, r24
    2e68:	c8 50       	subi	r28, 0x08	; 8
    2e6a:	db 4f       	sbci	r29, 0xFB	; 251
    2e6c:	cc 52       	subi	r28, 0x2C	; 44
    2e6e:	df 4f       	sbci	r29, 0xFF	; 255
    2e70:	88 81       	ld	r24, Y
    2e72:	81 17       	cp	r24, r17
    2e74:	08 f4       	brcc	.+2      	; 0x2e78 <update_step_board+0x1b0>
    2e76:	6b c2       	rjmp	.+1238   	; 0x334e <update_step_board+0x686>
    2e78:	81 2f       	mov	r24, r17
    2e7a:	0e 94 ca 07 	call	0xf94	; 0xf94 <toggle>
    2e7e:	80 91 ca 05 	lds	r24, 0x05CA
    2e82:	81 fb       	bst	r24, 1
    2e84:	cc 24       	eor	r12, r12
    2e86:	c0 f8       	bld	r12, 0
    2e88:	d1 2c       	mov	r13, r1
    2e8a:	80 91 cf 05 	lds	r24, 0x05CF
    2e8e:	82 fb       	bst	r24, 2
    2e90:	ee 24       	eor	r14, r14
    2e92:	e0 f8       	bld	r14, 0
    2e94:	f1 2c       	mov	r15, r1
    2e96:	40 91 d4 05 	lds	r20, 0x05D4
    2e9a:	f7 01       	movw	r30, r14
    2e9c:	e2 95       	swap	r30
    2e9e:	f2 95       	swap	r31
    2ea0:	f0 7f       	andi	r31, 0xF0	; 240
    2ea2:	fe 27       	eor	r31, r30
    2ea4:	e0 7f       	andi	r30, 0xF0	; 240
    2ea6:	fe 27       	eor	r31, r30
    2ea8:	22 e2       	ldi	r18, 0x22	; 34
    2eaa:	2c 9d       	mul	r18, r12
    2eac:	c0 01       	movw	r24, r0
    2eae:	2d 9d       	mul	r18, r13
    2eb0:	90 0d       	add	r25, r0
    2eb2:	11 24       	eor	r1, r1
    2eb4:	e8 0f       	add	r30, r24
    2eb6:	f9 1f       	adc	r31, r25
    2eb8:	e1 0f       	add	r30, r17
    2eba:	f1 1d       	adc	r31, r1
    2ebc:	ee 0f       	add	r30, r30
    2ebe:	ff 1f       	adc	r31, r31
    2ec0:	e4 50       	subi	r30, 0x04	; 4
    2ec2:	fb 4f       	sbci	r31, 0xFB	; 251
    2ec4:	81 e0       	ldi	r24, 0x01	; 1
    2ec6:	90 e0       	ldi	r25, 0x00	; 0
    2ec8:	9c 01       	movw	r18, r24
    2eca:	04 2e       	mov	r0, r20
    2ecc:	02 c0       	rjmp	.+4      	; 0x2ed2 <update_step_board+0x20a>
    2ece:	22 0f       	add	r18, r18
    2ed0:	33 1f       	adc	r19, r19
    2ed2:	0a 94       	dec	r0
    2ed4:	e2 f7       	brpl	.-8      	; 0x2ece <update_step_board+0x206>
    2ed6:	65 81       	ldd	r22, Z+5	; 0x05
    2ed8:	76 81       	ldd	r23, Z+6	; 0x06
    2eda:	26 27       	eor	r18, r22
    2edc:	37 27       	eor	r19, r23
    2ede:	36 83       	std	Z+6, r19	; 0x06
    2ee0:	25 83       	std	Z+5, r18	; 0x05
    2ee2:	21 e1       	ldi	r18, 0x11	; 17
    2ee4:	2c 9d       	mul	r18, r12
    2ee6:	f0 01       	movw	r30, r0
    2ee8:	2d 9d       	mul	r18, r13
    2eea:	f0 0d       	add	r31, r0
    2eec:	11 24       	eor	r1, r1
    2eee:	e4 0f       	add	r30, r20
    2ef0:	f1 1d       	adc	r31, r1
    2ef2:	ee 0f       	add	r30, r30
    2ef4:	ff 1f       	adc	r31, r31
    2ef6:	ea 57       	subi	r30, 0x7A	; 122
    2ef8:	fa 4f       	sbci	r31, 0xFA	; 250
    2efa:	02 c0       	rjmp	.+4      	; 0x2f00 <update_step_board+0x238>
    2efc:	88 0f       	add	r24, r24
    2efe:	99 1f       	adc	r25, r25
    2f00:	1a 95       	dec	r17
    2f02:	e2 f7       	brpl	.-8      	; 0x2efc <update_step_board+0x234>
    2f04:	20 81       	ld	r18, Z
    2f06:	31 81       	ldd	r19, Z+1	; 0x01
    2f08:	82 27       	eor	r24, r18
    2f0a:	93 27       	eor	r25, r19
    2f0c:	91 83       	std	Z+1, r25	; 0x01
    2f0e:	80 83       	st	Z, r24
    2f10:	e1 ee       	ldi	r30, 0xE1	; 225
    2f12:	f2 e0       	ldi	r31, 0x02	; 2
    2f14:	80 81       	ld	r24, Z
    2f16:	80 61       	ori	r24, 0x10	; 16
    2f18:	80 83       	st	Z, r24
    2f1a:	19 c2       	rjmp	.+1074   	; 0x334e <update_step_board+0x686>
    2f1c:	80 91 fa 04 	lds	r24, 0x04FA
    2f20:	84 ff       	sbrs	r24, 4
    2f22:	23 c0       	rjmp	.+70     	; 0x2f6a <update_step_board+0x2a2>
    2f24:	80 91 fb 04 	lds	r24, 0x04FB
    2f28:	80 ff       	sbrs	r24, 0
    2f2a:	1b c0       	rjmp	.+54     	; 0x2f62 <update_step_board+0x29a>
    2f2c:	1c 30       	cpi	r17, 0x0C	; 12
    2f2e:	08 f0       	brcs	.+2      	; 0x2f32 <update_step_board+0x26a>
    2f30:	0e c2       	rjmp	.+1052   	; 0x334e <update_step_board+0x686>
    2f32:	80 91 85 05 	lds	r24, 0x0585
    2f36:	8f 70       	andi	r24, 0x0F	; 15
    2f38:	81 17       	cp	r24, r17
    2f3a:	09 f4       	brne	.+2      	; 0x2f3e <update_step_board+0x276>
    2f3c:	08 c2       	rjmp	.+1040   	; 0x334e <update_step_board+0x686>
    2f3e:	0e 94 ae 07 	call	0xf5c	; 0xf5c <turn_off>
    2f42:	e5 e8       	ldi	r30, 0x85	; 133
    2f44:	f5 e0       	ldi	r31, 0x05	; 5
    2f46:	81 2f       	mov	r24, r17
    2f48:	8f 70       	andi	r24, 0x0F	; 15
    2f4a:	90 81       	ld	r25, Z
    2f4c:	90 7f       	andi	r25, 0xF0	; 240
    2f4e:	98 2b       	or	r25, r24
    2f50:	90 83       	st	Z, r25
    2f52:	0e 94 93 07 	call	0xf26	; 0xf26 <turn_on>
    2f56:	e1 ee       	ldi	r30, 0xE1	; 225
    2f58:	f2 e0       	ldi	r31, 0x02	; 2
    2f5a:	80 81       	ld	r24, Z
    2f5c:	80 62       	ori	r24, 0x20	; 32
    2f5e:	80 83       	st	Z, r24
    2f60:	f6 c1       	rjmp	.+1004   	; 0x334e <update_step_board+0x686>
    2f62:	81 2f       	mov	r24, r17
    2f64:	0e 94 e2 0e 	call	0x1dc4	; 0x1dc4 <update_shuffle>
    2f68:	f2 c1       	rjmp	.+996    	; 0x334e <update_step_board+0x686>
    2f6a:	1c 30       	cpi	r17, 0x0C	; 12
    2f6c:	e8 f4       	brcc	.+58     	; 0x2fa8 <update_step_board+0x2e0>
    2f6e:	81 2f       	mov	r24, r17
    2f70:	8f 70       	andi	r24, 0x0F	; 15
    2f72:	ee ec       	ldi	r30, 0xCE	; 206
    2f74:	f5 e0       	ldi	r31, 0x05	; 5
    2f76:	28 2f       	mov	r18, r24
    2f78:	22 0f       	add	r18, r18
    2f7a:	92 81       	ldd	r25, Z+2	; 0x02
    2f7c:	91 7e       	andi	r25, 0xE1	; 225
    2f7e:	92 2b       	or	r25, r18
    2f80:	92 83       	std	Z+2, r25	; 0x02
    2f82:	20 91 cf 05 	lds	r18, 0x05CF
    2f86:	22 95       	swap	r18
    2f88:	26 95       	lsr	r18
    2f8a:	27 70       	andi	r18, 0x07	; 7
    2f8c:	91 70       	andi	r25, 0x01	; 1
    2f8e:	99 0f       	add	r25, r25
    2f90:	99 0f       	add	r25, r25
    2f92:	99 0f       	add	r25, r25
    2f94:	92 2b       	or	r25, r18
    2f96:	89 17       	cp	r24, r25
    2f98:	09 f4       	brne	.+2      	; 0x2f9c <update_step_board+0x2d4>
    2f9a:	d9 c1       	rjmp	.+946    	; 0x334e <update_step_board+0x686>
    2f9c:	e1 ee       	ldi	r30, 0xE1	; 225
    2f9e:	f2 e0       	ldi	r31, 0x02	; 2
    2fa0:	80 81       	ld	r24, Z
    2fa2:	80 62       	ori	r24, 0x20	; 32
    2fa4:	80 83       	st	Z, r24
    2fa6:	d3 c1       	rjmp	.+934    	; 0x334e <update_step_board+0x686>
    2fa8:	ee ec       	ldi	r30, 0xCE	; 206
    2faa:	f5 e0       	ldi	r31, 0x05	; 5
    2fac:	91 2f       	mov	r25, r17
    2fae:	92 95       	swap	r25
    2fb0:	99 0f       	add	r25, r25
    2fb2:	90 7e       	andi	r25, 0xE0	; 224
    2fb4:	82 81       	ldd	r24, Z+2	; 0x02
    2fb6:	8f 71       	andi	r24, 0x1F	; 31
    2fb8:	89 2b       	or	r24, r25
    2fba:	82 83       	std	Z+2, r24	; 0x02
    2fbc:	13 fb       	bst	r17, 3
    2fbe:	88 27       	eor	r24, r24
    2fc0:	80 f9       	bld	r24, 0
    2fc2:	93 81       	ldd	r25, Z+3	; 0x03
    2fc4:	9e 7f       	andi	r25, 0xFE	; 254
    2fc6:	79 2e       	mov	r7, r25
    2fc8:	78 2a       	or	r7, r24
    2fca:	73 82       	std	Z+3, r7	; 0x03
    2fcc:	c0 c1       	rjmp	.+896    	; 0x334e <update_step_board+0x686>
    2fce:	80 91 fb 04 	lds	r24, 0x04FB
    2fd2:	80 ff       	sbrs	r24, 0
    2fd4:	1f c0       	rjmp	.+62     	; 0x3014 <update_step_board+0x34c>
    2fd6:	80 91 fa 04 	lds	r24, 0x04FA
    2fda:	84 fd       	sbrc	r24, 4
    2fdc:	1b c0       	rjmp	.+54     	; 0x3014 <update_step_board+0x34c>
    2fde:	1c 30       	cpi	r17, 0x0C	; 12
    2fe0:	08 f0       	brcs	.+2      	; 0x2fe4 <update_step_board+0x31c>
    2fe2:	b5 c1       	rjmp	.+874    	; 0x334e <update_step_board+0x686>
    2fe4:	80 91 85 05 	lds	r24, 0x0585
    2fe8:	8f 70       	andi	r24, 0x0F	; 15
    2fea:	81 17       	cp	r24, r17
    2fec:	09 f4       	brne	.+2      	; 0x2ff0 <update_step_board+0x328>
    2fee:	af c1       	rjmp	.+862    	; 0x334e <update_step_board+0x686>
    2ff0:	0e 94 ae 07 	call	0xf5c	; 0xf5c <turn_off>
    2ff4:	e5 e8       	ldi	r30, 0x85	; 133
    2ff6:	f5 e0       	ldi	r31, 0x05	; 5
    2ff8:	81 2f       	mov	r24, r17
    2ffa:	8f 70       	andi	r24, 0x0F	; 15
    2ffc:	90 81       	ld	r25, Z
    2ffe:	90 7f       	andi	r25, 0xF0	; 240
    3000:	98 2b       	or	r25, r24
    3002:	90 83       	st	Z, r25
    3004:	0e 94 93 07 	call	0xf26	; 0xf26 <turn_on>
    3008:	e1 ee       	ldi	r30, 0xE1	; 225
    300a:	f2 e0       	ldi	r31, 0x02	; 2
    300c:	80 81       	ld	r24, Z
    300e:	80 62       	ori	r24, 0x20	; 32
    3010:	80 83       	st	Z, r24
    3012:	9d c1       	rjmp	.+826    	; 0x334e <update_step_board+0x686>
    3014:	81 2f       	mov	r24, r17
    3016:	8f 70       	andi	r24, 0x0F	; 15
    3018:	ee ec       	ldi	r30, 0xCE	; 206
    301a:	f5 e0       	ldi	r31, 0x05	; 5
    301c:	28 2f       	mov	r18, r24
    301e:	22 0f       	add	r18, r18
    3020:	92 81       	ldd	r25, Z+2	; 0x02
    3022:	91 7e       	andi	r25, 0xE1	; 225
    3024:	92 2b       	or	r25, r18
    3026:	92 83       	std	Z+2, r25	; 0x02
    3028:	20 91 cf 05 	lds	r18, 0x05CF
    302c:	22 95       	swap	r18
    302e:	26 95       	lsr	r18
    3030:	27 70       	andi	r18, 0x07	; 7
    3032:	91 70       	andi	r25, 0x01	; 1
    3034:	99 0f       	add	r25, r25
    3036:	99 0f       	add	r25, r25
    3038:	99 0f       	add	r25, r25
    303a:	92 2b       	or	r25, r18
    303c:	89 17       	cp	r24, r25
    303e:	09 f4       	brne	.+2      	; 0x3042 <update_step_board+0x37a>
    3040:	86 c1       	rjmp	.+780    	; 0x334e <update_step_board+0x686>
    3042:	e1 ee       	ldi	r30, 0xE1	; 225
    3044:	f2 e0       	ldi	r31, 0x02	; 2
    3046:	80 81       	ld	r24, Z
    3048:	80 62       	ori	r24, 0x20	; 32
    304a:	80 83       	st	Z, r24
    304c:	80 c1       	rjmp	.+768    	; 0x334e <update_step_board+0x686>
    304e:	80 91 f8 04 	lds	r24, 0x04F8
    3052:	83 30       	cpi	r24, 0x03	; 3
    3054:	11 f4       	brne	.+4      	; 0x305a <update_step_board+0x392>
    3056:	0e 94 7e 10 	call	0x20fc	; 0x20fc <check_tap>
    305a:	0e 94 9c 1c 	call	0x3938	; 0x3938 <check_step_press>
    305e:	c8 2f       	mov	r28, r24
    3060:	8f 3f       	cpi	r24, 0xFF	; 255
    3062:	09 f4       	brne	.+2      	; 0x3066 <update_step_board+0x39e>
    3064:	74 c1       	rjmp	.+744    	; 0x334e <update_step_board+0x686>
    3066:	80 91 f8 04 	lds	r24, 0x04F8
    306a:	83 30       	cpi	r24, 0x03	; 3
    306c:	09 f4       	brne	.+2      	; 0x3070 <update_step_board+0x3a8>
    306e:	a6 c0       	rjmp	.+332    	; 0x31bc <update_step_board+0x4f4>
    3070:	20 f0       	brcs	.+8      	; 0x307a <update_step_board+0x3b2>
    3072:	85 30       	cpi	r24, 0x05	; 5
    3074:	09 f4       	brne	.+2      	; 0x3078 <update_step_board+0x3b0>
    3076:	11 c1       	rjmp	.+546    	; 0x329a <update_step_board+0x5d2>
    3078:	6a c1       	rjmp	.+724    	; 0x334e <update_step_board+0x686>
    307a:	80 91 fa 04 	lds	r24, 0x04FA
    307e:	84 ff       	sbrs	r24, 4
    3080:	58 c0       	rjmp	.+176    	; 0x3132 <update_step_board+0x46a>
    3082:	80 91 fb 04 	lds	r24, 0x04FB
    3086:	80 ff       	sbrs	r24, 0
    3088:	15 c0       	rjmp	.+42     	; 0x30b4 <update_step_board+0x3ec>
    308a:	80 91 d7 05 	lds	r24, 0x05D7
    308e:	86 95       	lsr	r24
    3090:	86 95       	lsr	r24
    3092:	8f 70       	andi	r24, 0x0F	; 15
    3094:	0e 94 ae 07 	call	0xf5c	; 0xf5c <turn_off>
    3098:	e6 ed       	ldi	r30, 0xD6	; 214
    309a:	f5 e0       	ldi	r31, 0x05	; 5
    309c:	8c 2f       	mov	r24, r28
    309e:	8f 70       	andi	r24, 0x0F	; 15
    30a0:	28 2f       	mov	r18, r24
    30a2:	22 0f       	add	r18, r18
    30a4:	22 0f       	add	r18, r18
    30a6:	91 81       	ldd	r25, Z+1	; 0x01
    30a8:	93 7c       	andi	r25, 0xC3	; 195
    30aa:	92 2b       	or	r25, r18
    30ac:	91 83       	std	Z+1, r25	; 0x01
    30ae:	0e 94 93 07 	call	0xf26	; 0xf26 <turn_on>
    30b2:	4d c1       	rjmp	.+666    	; 0x334e <update_step_board+0x686>
    30b4:	cc 30       	cpi	r28, 0x0C	; 12
    30b6:	08 f0       	brcs	.+2      	; 0x30ba <update_step_board+0x3f2>
    30b8:	4a c1       	rjmp	.+660    	; 0x334e <update_step_board+0x686>
    30ba:	80 91 e1 02 	lds	r24, 0x02E1
    30be:	84 ff       	sbrs	r24, 4
    30c0:	16 c0       	rjmp	.+44     	; 0x30ee <update_step_board+0x426>
    30c2:	e1 ee       	ldi	r30, 0xE1	; 225
    30c4:	f2 e0       	ldi	r31, 0x02	; 2
    30c6:	80 81       	ld	r24, Z
    30c8:	8f 7e       	andi	r24, 0xEF	; 239
    30ca:	80 83       	st	Z, r24
    30cc:	60 91 85 05 	lds	r22, 0x0585
    30d0:	6f 70       	andi	r22, 0x0F	; 15
    30d2:	90 91 cf 05 	lds	r25, 0x05CF
    30d6:	92 95       	swap	r25
    30d8:	96 95       	lsr	r25
    30da:	97 70       	andi	r25, 0x07	; 7
    30dc:	80 91 d0 05 	lds	r24, 0x05D0
    30e0:	81 70       	andi	r24, 0x01	; 1
    30e2:	88 0f       	add	r24, r24
    30e4:	88 0f       	add	r24, r24
    30e6:	88 0f       	add	r24, r24
    30e8:	89 2b       	or	r24, r25
    30ea:	0e 94 ad 11 	call	0x235a	; 0x235a <write_current_pattern>
    30ee:	05 e8       	ldi	r16, 0x85	; 133
    30f0:	15 e0       	ldi	r17, 0x05	; 5
    30f2:	f8 01       	movw	r30, r16
    30f4:	80 81       	ld	r24, Z
    30f6:	8f 70       	andi	r24, 0x0F	; 15
    30f8:	0e 94 ae 07 	call	0xf5c	; 0xf5c <turn_off>
    30fc:	8c 2f       	mov	r24, r28
    30fe:	8f 70       	andi	r24, 0x0F	; 15
    3100:	f8 01       	movw	r30, r16
    3102:	90 81       	ld	r25, Z
    3104:	90 7f       	andi	r25, 0xF0	; 240
    3106:	98 2b       	or	r25, r24
    3108:	90 83       	st	Z, r25
    310a:	0e 94 93 07 	call	0xf26	; 0xf26 <turn_on>
    310e:	f8 01       	movw	r30, r16
    3110:	60 81       	ld	r22, Z
    3112:	6f 70       	andi	r22, 0x0F	; 15
    3114:	90 91 cf 05 	lds	r25, 0x05CF
    3118:	92 95       	swap	r25
    311a:	96 95       	lsr	r25
    311c:	97 70       	andi	r25, 0x07	; 7
    311e:	80 91 d0 05 	lds	r24, 0x05D0
    3122:	81 70       	andi	r24, 0x01	; 1
    3124:	88 0f       	add	r24, r24
    3126:	88 0f       	add	r24, r24
    3128:	88 0f       	add	r24, r24
    312a:	89 2b       	or	r24, r25
    312c:	0e 94 70 0f 	call	0x1ee0	; 0x1ee0 <read_next_pattern>
    3130:	0e c1       	rjmp	.+540    	; 0x334e <update_step_board+0x686>
    3132:	86 ff       	sbrs	r24, 6
    3134:	1a c0       	rjmp	.+52     	; 0x316a <update_step_board+0x4a2>
    3136:	80 91 cf 05 	lds	r24, 0x05CF
    313a:	98 2f       	mov	r25, r24
    313c:	92 95       	swap	r25
    313e:	96 95       	lsr	r25
    3140:	97 70       	andi	r25, 0x07	; 7
    3142:	80 91 d0 05 	lds	r24, 0x05D0
    3146:	81 70       	andi	r24, 0x01	; 1
    3148:	88 0f       	add	r24, r24
    314a:	88 0f       	add	r24, r24
    314c:	88 0f       	add	r24, r24
    314e:	89 2b       	or	r24, r25
    3150:	90 e0       	ldi	r25, 0x00	; 0
    3152:	2c 2f       	mov	r18, r28
    3154:	30 e0       	ldi	r19, 0x00	; 0
    3156:	82 17       	cp	r24, r18
    3158:	93 07       	cpc	r25, r19
    315a:	69 f0       	breq	.+26     	; 0x3176 <update_step_board+0x4ae>
    315c:	60 91 85 05 	lds	r22, 0x0585
    3160:	6f 70       	andi	r22, 0x0F	; 15
    3162:	8c 2f       	mov	r24, r28
    3164:	0e 94 ad 11 	call	0x235a	; 0x235a <write_current_pattern>
    3168:	06 c0       	rjmp	.+12     	; 0x3176 <update_step_board+0x4ae>
    316a:	60 91 85 05 	lds	r22, 0x0585
    316e:	6f 70       	andi	r22, 0x0F	; 15
    3170:	8c 2f       	mov	r24, r28
    3172:	0e 94 70 0f 	call	0x1ee0	; 0x1ee0 <read_next_pattern>
    3176:	9c 2f       	mov	r25, r28
    3178:	9f 70       	andi	r25, 0x0F	; 15
    317a:	ee ec       	ldi	r30, 0xCE	; 206
    317c:	f5 e0       	ldi	r31, 0x05	; 5
    317e:	39 2f       	mov	r19, r25
    3180:	33 0f       	add	r19, r19
    3182:	42 81       	ldd	r20, Z+2	; 0x02
    3184:	40 7e       	andi	r20, 0xE0	; 224
    3186:	8c 2f       	mov	r24, r28
    3188:	82 95       	swap	r24
    318a:	88 0f       	add	r24, r24
    318c:	80 7e       	andi	r24, 0xE0	; 224
    318e:	c1 81       	ldd	r28, Z+1	; 0x01
    3190:	29 2f       	mov	r18, r25
    3192:	26 95       	lsr	r18
    3194:	26 95       	lsr	r18
    3196:	26 95       	lsr	r18
    3198:	94 2f       	mov	r25, r20
    319a:	93 2b       	or	r25, r19
    319c:	92 2b       	or	r25, r18
    319e:	92 83       	std	Z+2, r25	; 0x02
    31a0:	cc 71       	andi	r28, 0x1C	; 28
    31a2:	90 81       	ld	r25, Z
    31a4:	9f 71       	andi	r25, 0x1F	; 31
    31a6:	90 83       	st	Z, r25
    31a8:	c8 2b       	or	r28, r24
    31aa:	c1 83       	std	Z+1, r28	; 0x01
    31ac:	10 92 fd 02 	sts	0x02FD, r1
    31b0:	ee ef       	ldi	r30, 0xFE	; 254
    31b2:	f2 e0       	ldi	r31, 0x02	; 2
    31b4:	80 81       	ld	r24, Z
    31b6:	8f 73       	andi	r24, 0x3F	; 63
    31b8:	80 83       	st	Z, r24
    31ba:	c9 c0       	rjmp	.+402    	; 0x334e <update_step_board+0x686>
    31bc:	80 91 fa 04 	lds	r24, 0x04FA
    31c0:	84 ff       	sbrs	r24, 4
    31c2:	2c c0       	rjmp	.+88     	; 0x321c <update_step_board+0x554>
    31c4:	80 91 fb 04 	lds	r24, 0x04FB
    31c8:	80 ff       	sbrs	r24, 0
    31ca:	c1 c0       	rjmp	.+386    	; 0x334e <update_step_board+0x686>
    31cc:	cc 30       	cpi	r28, 0x0C	; 12
    31ce:	08 f0       	brcs	.+2      	; 0x31d2 <update_step_board+0x50a>
    31d0:	be c0       	rjmp	.+380    	; 0x334e <update_step_board+0x686>
    31d2:	80 91 85 05 	lds	r24, 0x0585
    31d6:	8f 70       	andi	r24, 0x0F	; 15
    31d8:	8c 17       	cp	r24, r28
    31da:	09 f4       	brne	.+2      	; 0x31de <update_step_board+0x516>
    31dc:	b8 c0       	rjmp	.+368    	; 0x334e <update_step_board+0x686>
    31de:	0e 94 ae 07 	call	0xf5c	; 0xf5c <turn_off>
    31e2:	05 e8       	ldi	r16, 0x85	; 133
    31e4:	15 e0       	ldi	r17, 0x05	; 5
    31e6:	8c 2f       	mov	r24, r28
    31e8:	8f 70       	andi	r24, 0x0F	; 15
    31ea:	f8 01       	movw	r30, r16
    31ec:	90 81       	ld	r25, Z
    31ee:	90 7f       	andi	r25, 0xF0	; 240
    31f0:	98 2b       	or	r25, r24
    31f2:	90 83       	st	Z, r25
    31f4:	0e 94 93 07 	call	0xf26	; 0xf26 <turn_on>
    31f8:	f8 01       	movw	r30, r16
    31fa:	60 81       	ld	r22, Z
    31fc:	6f 70       	andi	r22, 0x0F	; 15
    31fe:	90 91 cf 05 	lds	r25, 0x05CF
    3202:	92 95       	swap	r25
    3204:	96 95       	lsr	r25
    3206:	97 70       	andi	r25, 0x07	; 7
    3208:	80 91 d0 05 	lds	r24, 0x05D0
    320c:	81 70       	andi	r24, 0x01	; 1
    320e:	88 0f       	add	r24, r24
    3210:	88 0f       	add	r24, r24
    3212:	88 0f       	add	r24, r24
    3214:	89 2b       	or	r24, r25
    3216:	0e 94 70 0f 	call	0x1ee0	; 0x1ee0 <read_next_pattern>
    321a:	99 c0       	rjmp	.+306    	; 0x334e <update_step_board+0x686>
    321c:	cc 30       	cpi	r28, 0x0C	; 12
    321e:	58 f5       	brcc	.+86     	; 0x3276 <update_step_board+0x5ae>
    3220:	8c 2f       	mov	r24, r28
    3222:	8f 70       	andi	r24, 0x0F	; 15
    3224:	0e ec       	ldi	r16, 0xCE	; 206
    3226:	15 e0       	ldi	r17, 0x05	; 5
    3228:	38 2f       	mov	r19, r24
    322a:	33 0f       	add	r19, r19
    322c:	f8 01       	movw	r30, r16
    322e:	92 81       	ldd	r25, Z+2	; 0x02
    3230:	90 7e       	andi	r25, 0xE0	; 224
    3232:	c2 95       	swap	r28
    3234:	cc 0f       	add	r28, r28
    3236:	c0 7e       	andi	r28, 0xE0	; 224
    3238:	21 81       	ldd	r18, Z+1	; 0x01
    323a:	2f 71       	andi	r18, 0x1F	; 31
    323c:	c2 2b       	or	r28, r18
    323e:	c1 83       	std	Z+1, r28	; 0x01
    3240:	28 2f       	mov	r18, r24
    3242:	26 95       	lsr	r18
    3244:	26 95       	lsr	r18
    3246:	26 95       	lsr	r18
    3248:	93 2b       	or	r25, r19
    324a:	92 2b       	or	r25, r18
    324c:	92 83       	std	Z+2, r25	; 0x02
    324e:	60 91 85 05 	lds	r22, 0x0585
    3252:	6f 70       	andi	r22, 0x0F	; 15
    3254:	0e 94 70 0f 	call	0x1ee0	; 0x1ee0 <read_next_pattern>
    3258:	f8 01       	movw	r30, r16
    325a:	81 81       	ldd	r24, Z+1	; 0x01
    325c:	90 81       	ld	r25, Z
    325e:	9f 71       	andi	r25, 0x1F	; 31
    3260:	90 83       	st	Z, r25
    3262:	8c 7f       	andi	r24, 0xFC	; 252
    3264:	81 83       	std	Z+1, r24	; 0x01
    3266:	10 92 fd 02 	sts	0x02FD, r1
    326a:	ee ef       	ldi	r30, 0xFE	; 254
    326c:	f2 e0       	ldi	r31, 0x02	; 2
    326e:	80 81       	ld	r24, Z
    3270:	8f 73       	andi	r24, 0x3F	; 63
    3272:	80 83       	st	Z, r24
    3274:	6c c0       	rjmp	.+216    	; 0x334e <update_step_board+0x686>
    3276:	ee ec       	ldi	r30, 0xCE	; 206
    3278:	f5 e0       	ldi	r31, 0x05	; 5
    327a:	9c 2f       	mov	r25, r28
    327c:	92 95       	swap	r25
    327e:	99 0f       	add	r25, r25
    3280:	90 7e       	andi	r25, 0xE0	; 224
    3282:	82 81       	ldd	r24, Z+2	; 0x02
    3284:	8f 71       	andi	r24, 0x1F	; 31
    3286:	89 2b       	or	r24, r25
    3288:	82 83       	std	Z+2, r24	; 0x02
    328a:	c3 fb       	bst	r28, 3
    328c:	88 27       	eor	r24, r24
    328e:	80 f9       	bld	r24, 0
    3290:	c3 81       	ldd	r28, Z+3	; 0x03
    3292:	ce 7f       	andi	r28, 0xFE	; 254
    3294:	c8 2b       	or	r28, r24
    3296:	c3 83       	std	Z+3, r28	; 0x03
    3298:	5a c0       	rjmp	.+180    	; 0x334e <update_step_board+0x686>
    329a:	80 91 fb 04 	lds	r24, 0x04FB
    329e:	80 ff       	sbrs	r24, 0
    32a0:	2c c0       	rjmp	.+88     	; 0x32fa <update_step_board+0x632>
    32a2:	80 91 fa 04 	lds	r24, 0x04FA
    32a6:	84 fd       	sbrc	r24, 4
    32a8:	28 c0       	rjmp	.+80     	; 0x32fa <update_step_board+0x632>
    32aa:	cc 30       	cpi	r28, 0x0C	; 12
    32ac:	08 f0       	brcs	.+2      	; 0x32b0 <update_step_board+0x5e8>
    32ae:	4f c0       	rjmp	.+158    	; 0x334e <update_step_board+0x686>
    32b0:	80 91 85 05 	lds	r24, 0x0585
    32b4:	8f 70       	andi	r24, 0x0F	; 15
    32b6:	8c 17       	cp	r24, r28
    32b8:	09 f4       	brne	.+2      	; 0x32bc <update_step_board+0x5f4>
    32ba:	49 c0       	rjmp	.+146    	; 0x334e <update_step_board+0x686>
    32bc:	0e 94 ae 07 	call	0xf5c	; 0xf5c <turn_off>
    32c0:	05 e8       	ldi	r16, 0x85	; 133
    32c2:	15 e0       	ldi	r17, 0x05	; 5
    32c4:	8c 2f       	mov	r24, r28
    32c6:	8f 70       	andi	r24, 0x0F	; 15
    32c8:	f8 01       	movw	r30, r16
    32ca:	90 81       	ld	r25, Z
    32cc:	90 7f       	andi	r25, 0xF0	; 240
    32ce:	98 2b       	or	r25, r24
    32d0:	90 83       	st	Z, r25
    32d2:	0e 94 93 07 	call	0xf26	; 0xf26 <turn_on>
    32d6:	f8 01       	movw	r30, r16
    32d8:	60 81       	ld	r22, Z
    32da:	6f 70       	andi	r22, 0x0F	; 15
    32dc:	90 91 cf 05 	lds	r25, 0x05CF
    32e0:	92 95       	swap	r25
    32e2:	96 95       	lsr	r25
    32e4:	97 70       	andi	r25, 0x07	; 7
    32e6:	80 91 d0 05 	lds	r24, 0x05D0
    32ea:	81 70       	andi	r24, 0x01	; 1
    32ec:	88 0f       	add	r24, r24
    32ee:	88 0f       	add	r24, r24
    32f0:	88 0f       	add	r24, r24
    32f2:	89 2b       	or	r24, r25
    32f4:	0e 94 70 0f 	call	0x1ee0	; 0x1ee0 <read_next_pattern>
    32f8:	2a c0       	rjmp	.+84     	; 0x334e <update_step_board+0x686>
    32fa:	8c 2f       	mov	r24, r28
    32fc:	8f 70       	andi	r24, 0x0F	; 15
    32fe:	0e ec       	ldi	r16, 0xCE	; 206
    3300:	15 e0       	ldi	r17, 0x05	; 5
    3302:	38 2f       	mov	r19, r24
    3304:	33 0f       	add	r19, r19
    3306:	f8 01       	movw	r30, r16
    3308:	92 81       	ldd	r25, Z+2	; 0x02
    330a:	90 7e       	andi	r25, 0xE0	; 224
    330c:	c2 95       	swap	r28
    330e:	cc 0f       	add	r28, r28
    3310:	c0 7e       	andi	r28, 0xE0	; 224
    3312:	21 81       	ldd	r18, Z+1	; 0x01
    3314:	2f 71       	andi	r18, 0x1F	; 31
    3316:	c2 2b       	or	r28, r18
    3318:	c1 83       	std	Z+1, r28	; 0x01
    331a:	28 2f       	mov	r18, r24
    331c:	26 95       	lsr	r18
    331e:	26 95       	lsr	r18
    3320:	26 95       	lsr	r18
    3322:	93 2b       	or	r25, r19
    3324:	92 2b       	or	r25, r18
    3326:	92 83       	std	Z+2, r25	; 0x02
    3328:	60 91 85 05 	lds	r22, 0x0585
    332c:	6f 70       	andi	r22, 0x0F	; 15
    332e:	0e 94 70 0f 	call	0x1ee0	; 0x1ee0 <read_next_pattern>
    3332:	f8 01       	movw	r30, r16
    3334:	81 81       	ldd	r24, Z+1	; 0x01
    3336:	90 81       	ld	r25, Z
    3338:	9f 71       	andi	r25, 0x1F	; 31
    333a:	90 83       	st	Z, r25
    333c:	8c 7f       	andi	r24, 0xFC	; 252
    333e:	81 83       	std	Z+1, r24	; 0x01
    3340:	10 92 fd 02 	sts	0x02FD, r1
    3344:	ee ef       	ldi	r30, 0xFE	; 254
    3346:	f2 e0       	ldi	r31, 0x02	; 2
    3348:	80 81       	ld	r24, Z
    334a:	8f 73       	andi	r24, 0x3F	; 63
    334c:	80 83       	st	Z, r24
    334e:	df 91       	pop	r29
    3350:	cf 91       	pop	r28
    3352:	1f 91       	pop	r17
    3354:	0f 91       	pop	r16
    3356:	ff 90       	pop	r15
    3358:	ef 90       	pop	r14
    335a:	df 90       	pop	r13
    335c:	cf 90       	pop	r12
    335e:	bf 90       	pop	r11
    3360:	af 90       	pop	r10
    3362:	9f 90       	pop	r9
    3364:	8f 90       	pop	r8
    3366:	7f 90       	pop	r7
    3368:	6f 90       	pop	r6
    336a:	08 95       	ret

0000336c <read_rhythm_track>:
    336c:	cf 93       	push	r28
    336e:	df 93       	push	r29
    3370:	cd b7       	in	r28, 0x3d	; 61
    3372:	de b7       	in	r29, 0x3e	; 62
    3374:	c1 54       	subi	r28, 0x41	; 65
    3376:	d1 09       	sbc	r29, r1
    3378:	0f b6       	in	r0, 0x3f	; 63
    337a:	f8 94       	cli
    337c:	de bf       	out	0x3e, r29	; 62
    337e:	0f be       	out	0x3f, r0	; 63
    3380:	cd bf       	out	0x3d, r28	; 61
    3382:	60 91 d2 05 	lds	r22, 0x05D2
    3386:	86 2f       	mov	r24, r22
    3388:	82 95       	swap	r24
    338a:	86 95       	lsr	r24
    338c:	86 95       	lsr	r24
    338e:	83 70       	andi	r24, 0x03	; 3
    3390:	60 91 d3 05 	lds	r22, 0x05D3
    3394:	63 70       	andi	r22, 0x03	; 3
    3396:	66 0f       	add	r22, r22
    3398:	66 0f       	add	r22, r22
    339a:	68 2b       	or	r22, r24
    339c:	70 e0       	ldi	r23, 0x00	; 0
    339e:	ce 01       	movw	r24, r28
    33a0:	01 96       	adiw	r24, 0x01	; 1
    33a2:	0e 94 04 02 	call	0x408	; 0x408 <eeprom_read_rhythm_track>
    33a6:	22 96       	adiw	r28, 0x02	; 2
    33a8:	6f ad       	ldd	r22, Y+63	; 0x3f
    33aa:	22 97       	sbiw	r28, 0x02	; 2
    33ac:	46 2f       	mov	r20, r22
    33ae:	50 e0       	ldi	r21, 0x00	; 0
    33b0:	20 e0       	ldi	r18, 0x00	; 0
    33b2:	30 e0       	ldi	r19, 0x00	; 0
    33b4:	d9 01       	movw	r26, r18
    33b6:	a9 54       	subi	r26, 0x49	; 73
    33b8:	bb 4f       	sbci	r27, 0xFB	; 251
    33ba:	e1 e0       	ldi	r30, 0x01	; 1
    33bc:	f0 e0       	ldi	r31, 0x00	; 0
    33be:	ec 0f       	add	r30, r28
    33c0:	fd 1f       	adc	r31, r29
    33c2:	e2 0f       	add	r30, r18
    33c4:	f3 1f       	adc	r31, r19
    33c6:	80 81       	ld	r24, Z
    33c8:	98 2f       	mov	r25, r24
    33ca:	9f 70       	andi	r25, 0x0F	; 15
    33cc:	80 7f       	andi	r24, 0xF0	; 240
    33ce:	89 2b       	or	r24, r25
    33d0:	8c 93       	st	X, r24
    33d2:	2f 5f       	subi	r18, 0xFF	; 255
    33d4:	3f 4f       	sbci	r19, 0xFF	; 255
    33d6:	42 17       	cp	r20, r18
    33d8:	53 07       	cpc	r21, r19
    33da:	64 f7       	brge	.-40     	; 0x33b4 <read_rhythm_track+0x48>
    33dc:	60 93 f7 04 	sts	0x04F7, r22
    33e0:	e1 ee       	ldi	r30, 0xE1	; 225
    33e2:	f2 e0       	ldi	r31, 0x02	; 2
    33e4:	80 81       	ld	r24, Z
    33e6:	80 62       	ori	r24, 0x20	; 32
    33e8:	80 83       	st	Z, r24
    33ea:	cf 5b       	subi	r28, 0xBF	; 191
    33ec:	df 4f       	sbci	r29, 0xFF	; 255
    33ee:	0f b6       	in	r0, 0x3f	; 63
    33f0:	f8 94       	cli
    33f2:	de bf       	out	0x3e, r29	; 62
    33f4:	0f be       	out	0x3f, r0	; 63
    33f6:	cd bf       	out	0x3d, r28	; 61
    33f8:	df 91       	pop	r29
    33fa:	cf 91       	pop	r28
    33fc:	08 95       	ret

000033fe <write_rhythm_track>:
    33fe:	cf 93       	push	r28
    3400:	df 93       	push	r29
    3402:	cd b7       	in	r28, 0x3d	; 61
    3404:	de b7       	in	r29, 0x3e	; 62
    3406:	c1 54       	subi	r28, 0x41	; 65
    3408:	d1 09       	sbc	r29, r1
    340a:	0f b6       	in	r0, 0x3f	; 63
    340c:	f8 94       	cli
    340e:	de bf       	out	0x3e, r29	; 62
    3410:	0f be       	out	0x3f, r0	; 63
    3412:	cd bf       	out	0x3d, r28	; 61
    3414:	40 91 d1 05 	lds	r20, 0x05D1
    3418:	84 2f       	mov	r24, r20
    341a:	88 1f       	adc	r24, r24
    341c:	88 27       	eor	r24, r24
    341e:	88 1f       	adc	r24, r24
    3420:	40 91 d2 05 	lds	r20, 0x05D2
    3424:	4f 73       	andi	r20, 0x3F	; 63
    3426:	44 0f       	add	r20, r20
    3428:	48 2b       	or	r20, r24
    342a:	50 e0       	ldi	r21, 0x00	; 0
    342c:	20 e0       	ldi	r18, 0x00	; 0
    342e:	30 e0       	ldi	r19, 0x00	; 0
    3430:	a1 e0       	ldi	r26, 0x01	; 1
    3432:	b0 e0       	ldi	r27, 0x00	; 0
    3434:	ac 0f       	add	r26, r28
    3436:	bd 1f       	adc	r27, r29
    3438:	a2 0f       	add	r26, r18
    343a:	b3 1f       	adc	r27, r19
    343c:	f9 01       	movw	r30, r18
    343e:	e9 54       	subi	r30, 0x49	; 73
    3440:	fb 4f       	sbci	r31, 0xFB	; 251
    3442:	80 81       	ld	r24, Z
    3444:	98 2f       	mov	r25, r24
    3446:	9f 70       	andi	r25, 0x0F	; 15
    3448:	80 7f       	andi	r24, 0xF0	; 240
    344a:	89 2b       	or	r24, r25
    344c:	8c 93       	st	X, r24
    344e:	2f 5f       	subi	r18, 0xFF	; 255
    3450:	3f 4f       	sbci	r19, 0xFF	; 255
    3452:	42 17       	cp	r20, r18
    3454:	53 07       	cpc	r21, r19
    3456:	64 f7       	brge	.-40     	; 0x3430 <write_rhythm_track+0x32>
    3458:	80 91 f7 04 	lds	r24, 0x04F7
    345c:	22 96       	adiw	r28, 0x02	; 2
    345e:	8f af       	std	Y+63, r24	; 0x3f
    3460:	22 97       	sbiw	r28, 0x02	; 2
    3462:	80 91 d2 05 	lds	r24, 0x05D2
    3466:	98 2f       	mov	r25, r24
    3468:	92 95       	swap	r25
    346a:	96 95       	lsr	r25
    346c:	96 95       	lsr	r25
    346e:	93 70       	andi	r25, 0x03	; 3
    3470:	80 91 d3 05 	lds	r24, 0x05D3
    3474:	83 70       	andi	r24, 0x03	; 3
    3476:	88 0f       	add	r24, r24
    3478:	88 0f       	add	r24, r24
    347a:	89 2b       	or	r24, r25
    347c:	be 01       	movw	r22, r28
    347e:	6f 5f       	subi	r22, 0xFF	; 255
    3480:	7f 4f       	sbci	r23, 0xFF	; 255
    3482:	90 e0       	ldi	r25, 0x00	; 0
    3484:	0e 94 35 02 	call	0x46a	; 0x46a <eeprom_write_rhythm_track>
    3488:	cf 5b       	subi	r28, 0xBF	; 191
    348a:	df 4f       	sbci	r29, 0xFF	; 255
    348c:	0f b6       	in	r0, 0x3f	; 63
    348e:	f8 94       	cli
    3490:	de bf       	out	0x3e, r29	; 62
    3492:	0f be       	out	0x3f, r0	; 63
    3494:	cd bf       	out	0x3d, r28	; 61
    3496:	df 91       	pop	r29
    3498:	cf 91       	pop	r28
    349a:	08 95       	ret

0000349c <spi_shift_byte>:
    349c:	80 93 ae 00 	sts	0x00AE, r24
    34a0:	ed ea       	ldi	r30, 0xAD	; 173
    34a2:	f0 e0       	ldi	r31, 0x00	; 0
    34a4:	80 81       	ld	r24, Z
    34a6:	88 23       	and	r24, r24
    34a8:	ec f7       	brge	.-6      	; 0x34a4 <spi_shift_byte+0x8>
    34aa:	80 91 ae 00 	lds	r24, 0x00AE
    34ae:	08 95       	ret

000034b0 <update_spi>:
    34b0:	cf 93       	push	r28
    34b2:	df 93       	push	r29
    34b4:	c1 e4       	ldi	r28, 0x41	; 65
    34b6:	d2 e0       	ldi	r29, 0x02	; 2
    34b8:	88 81       	ld	r24, Y
    34ba:	0e 94 4e 1a 	call	0x349c	; 0x349c <spi_shift_byte>
    34be:	89 81       	ldd	r24, Y+1	; 0x01
    34c0:	0e 94 4e 1a 	call	0x349c	; 0x349c <spi_shift_byte>
    34c4:	8a 81       	ldd	r24, Y+2	; 0x02
    34c6:	0e 94 4e 1a 	call	0x349c	; 0x349c <spi_shift_byte>
    34ca:	8b 81       	ldd	r24, Y+3	; 0x03
    34cc:	0e 94 4e 1a 	call	0x349c	; 0x349c <spi_shift_byte>
    34d0:	8c 81       	ldd	r24, Y+4	; 0x04
    34d2:	0e 94 4e 1a 	call	0x349c	; 0x349c <spi_shift_byte>
    34d6:	8d 81       	ldd	r24, Y+5	; 0x05
    34d8:	0e 94 4e 1a 	call	0x349c	; 0x349c <spi_shift_byte>
    34dc:	8e 81       	ldd	r24, Y+6	; 0x06
    34de:	0e 94 4e 1a 	call	0x349c	; 0x349c <spi_shift_byte>
    34e2:	8f 81       	ldd	r24, Y+7	; 0x07
    34e4:	0e 94 4e 1a 	call	0x349c	; 0x349c <spi_shift_byte>
    34e8:	88 85       	ldd	r24, Y+8	; 0x08
    34ea:	0e 94 4e 1a 	call	0x349c	; 0x349c <spi_shift_byte>
    34ee:	71 98       	cbi	0x0e, 1	; 14
    34f0:	71 9a       	sbi	0x0e, 1	; 14
    34f2:	df 91       	pop	r29
    34f4:	cf 91       	pop	r28
    34f6:	08 95       	ret

000034f8 <read_switches>:
    34f8:	cf 93       	push	r28
    34fa:	df 93       	push	r29
    34fc:	70 9a       	sbi	0x0e, 0	; 14
    34fe:	80 e0       	ldi	r24, 0x00	; 0
    3500:	0e 94 4e 1a 	call	0x349c	; 0x349c <spi_shift_byte>
    3504:	cc e3       	ldi	r28, 0x3C	; 60
    3506:	d2 e0       	ldi	r29, 0x02	; 2
    3508:	88 83       	st	Y, r24
    350a:	80 e0       	ldi	r24, 0x00	; 0
    350c:	0e 94 4e 1a 	call	0x349c	; 0x349c <spi_shift_byte>
    3510:	89 83       	std	Y+1, r24	; 0x01
    3512:	80 e0       	ldi	r24, 0x00	; 0
    3514:	0e 94 4e 1a 	call	0x349c	; 0x349c <spi_shift_byte>
    3518:	8a 83       	std	Y+2, r24	; 0x02
    351a:	80 e0       	ldi	r24, 0x00	; 0
    351c:	0e 94 4e 1a 	call	0x349c	; 0x349c <spi_shift_byte>
    3520:	8b 83       	std	Y+3, r24	; 0x03
    3522:	80 e0       	ldi	r24, 0x00	; 0
    3524:	0e 94 4e 1a 	call	0x349c	; 0x349c <spi_shift_byte>
    3528:	8c 83       	std	Y+4, r24	; 0x04
    352a:	70 98       	cbi	0x0e, 0	; 14
    352c:	98 81       	ld	r25, Y
    352e:	29 2f       	mov	r18, r25
    3530:	26 95       	lsr	r18
    3532:	ea ef       	ldi	r30, 0xFA	; 250
    3534:	f4 e0       	ldi	r31, 0x04	; 4
    3536:	30 81       	ld	r19, Z
    3538:	20 fb       	bst	r18, 0
    353a:	34 f9       	bld	r19, 4
    353c:	49 2f       	mov	r20, r25
    353e:	46 95       	lsr	r20
    3540:	46 95       	lsr	r20
    3542:	21 81       	ldd	r18, Z+1	; 0x01
    3544:	40 fb       	bst	r20, 0
    3546:	20 f9       	bld	r18, 0
    3548:	21 83       	std	Z+1, r18	; 0x01
    354a:	2a 81       	ldd	r18, Y+2	; 0x02
    354c:	42 2f       	mov	r20, r18
    354e:	42 95       	swap	r20
    3550:	4f 70       	andi	r20, 0x0F	; 15
    3552:	40 fb       	bst	r20, 0
    3554:	36 f9       	bld	r19, 6
    3556:	30 83       	st	Z, r19
    3558:	e7 e3       	ldi	r30, 0x37	; 55
    355a:	f2 e0       	ldi	r31, 0x02	; 2
    355c:	30 81       	ld	r19, Z
    355e:	93 27       	eor	r25, r19
    3560:	39 27       	eor	r19, r25
    3562:	30 83       	st	Z, r19
    3564:	93 23       	and	r25, r19
    3566:	98 83       	st	Y, r25
    3568:	31 81       	ldd	r19, Z+1	; 0x01
    356a:	99 81       	ldd	r25, Y+1	; 0x01
    356c:	93 27       	eor	r25, r19
    356e:	39 27       	eor	r19, r25
    3570:	31 83       	std	Z+1, r19	; 0x01
    3572:	93 23       	and	r25, r19
    3574:	99 83       	std	Y+1, r25	; 0x01
    3576:	32 81       	ldd	r19, Z+2	; 0x02
    3578:	93 2f       	mov	r25, r19
    357a:	92 27       	eor	r25, r18
    357c:	29 2f       	mov	r18, r25
    357e:	23 27       	eor	r18, r19
    3580:	22 83       	std	Z+2, r18	; 0x02
    3582:	92 23       	and	r25, r18
    3584:	9a 83       	std	Y+2, r25	; 0x02
    3586:	23 81       	ldd	r18, Z+3	; 0x03
    3588:	9b 81       	ldd	r25, Y+3	; 0x03
    358a:	92 27       	eor	r25, r18
    358c:	29 27       	eor	r18, r25
    358e:	23 83       	std	Z+3, r18	; 0x03
    3590:	92 23       	and	r25, r18
    3592:	9b 83       	std	Y+3, r25	; 0x03
    3594:	94 81       	ldd	r25, Z+4	; 0x04
    3596:	89 27       	eor	r24, r25
    3598:	98 27       	eor	r25, r24
    359a:	94 83       	std	Z+4, r25	; 0x04
    359c:	89 23       	and	r24, r25
    359e:	8c 83       	std	Y+4, r24	; 0x04
    35a0:	df 91       	pop	r29
    35a2:	cf 91       	pop	r28
    35a4:	08 95       	ret

000035a6 <parse_switch_data>:
    35a6:	40 e0       	ldi	r20, 0x00	; 0
    35a8:	50 e0       	ldi	r21, 0x00	; 0
    35aa:	da 01       	movw	r26, r20
    35ac:	aa 50       	subi	r26, 0x0A	; 10
    35ae:	be 4f       	sbci	r27, 0xFE	; 254
    35b0:	8c 91       	ld	r24, X
    35b2:	e8 2f       	mov	r30, r24
    35b4:	e6 95       	lsr	r30
    35b6:	e6 95       	lsr	r30
    35b8:	e6 95       	lsr	r30
    35ba:	e7 70       	andi	r30, 0x07	; 7
    35bc:	f0 e0       	ldi	r31, 0x00	; 0
    35be:	e4 5c       	subi	r30, 0xC4	; 196
    35c0:	fd 4f       	sbci	r31, 0xFD	; 253
    35c2:	20 81       	ld	r18, Z
    35c4:	30 e0       	ldi	r19, 0x00	; 0
    35c6:	98 2f       	mov	r25, r24
    35c8:	97 70       	andi	r25, 0x07	; 7
    35ca:	02 c0       	rjmp	.+4      	; 0x35d0 <parse_switch_data+0x2a>
    35cc:	35 95       	asr	r19
    35ce:	27 95       	ror	r18
    35d0:	9a 95       	dec	r25
    35d2:	e2 f7       	brpl	.-8      	; 0x35cc <parse_switch_data+0x26>
    35d4:	21 70       	andi	r18, 0x01	; 1
    35d6:	86 fb       	bst	r24, 6
    35d8:	99 27       	eor	r25, r25
    35da:	90 f9       	bld	r25, 0
    35dc:	29 27       	eor	r18, r25
    35de:	20 fb       	bst	r18, 0
    35e0:	86 f9       	bld	r24, 6
    35e2:	8c 93       	st	X, r24
    35e4:	4f 5f       	subi	r20, 0xFF	; 255
    35e6:	5f 4f       	sbci	r21, 0xFF	; 255
    35e8:	43 32       	cpi	r20, 0x23	; 35
    35ea:	51 05       	cpc	r21, r1
    35ec:	f1 f6       	brne	.-68     	; 0x35aa <parse_switch_data+0x4>
    35ee:	08 95       	ret

000035f0 <check_write_sw>:
    35f0:	80 91 12 02 	lds	r24, 0x0212
    35f4:	86 ff       	sbrs	r24, 6
    35f6:	44 c0       	rjmp	.+136    	; 0x3680 <check_write_sw+0x90>
    35f8:	80 91 f8 04 	lds	r24, 0x04F8
    35fc:	85 30       	cpi	r24, 0x05	; 5
    35fe:	09 f0       	breq	.+2      	; 0x3602 <check_write_sw+0x12>
    3600:	3f c0       	rjmp	.+126    	; 0x3680 <check_write_sw+0x90>
    3602:	e2 e1       	ldi	r30, 0x12	; 18
    3604:	f2 e0       	ldi	r31, 0x02	; 2
    3606:	80 81       	ld	r24, Z
    3608:	8f 7b       	andi	r24, 0xBF	; 191
    360a:	80 83       	st	Z, r24
    360c:	80 91 fb 04 	lds	r24, 0x04FB
    3610:	80 fd       	sbrc	r24, 0
    3612:	36 c0       	rjmp	.+108    	; 0x3680 <check_write_sw+0x90>
    3614:	80 91 d1 05 	lds	r24, 0x05D1
    3618:	98 2f       	mov	r25, r24
    361a:	99 1f       	adc	r25, r25
    361c:	99 27       	eor	r25, r25
    361e:	99 1f       	adc	r25, r25
    3620:	80 91 d2 05 	lds	r24, 0x05D2
    3624:	8f 73       	andi	r24, 0x3F	; 63
    3626:	88 0f       	add	r24, r24
    3628:	89 2b       	or	r24, r25
    362a:	e8 2f       	mov	r30, r24
    362c:	f0 e0       	ldi	r31, 0x00	; 0
    362e:	e9 54       	subi	r30, 0x49	; 73
    3630:	fb 4f       	sbci	r31, 0xFB	; 251
    3632:	90 91 85 05 	lds	r25, 0x0585
    3636:	20 91 d0 05 	lds	r18, 0x05D0
    363a:	26 95       	lsr	r18
    363c:	2f 70       	andi	r18, 0x0F	; 15
    363e:	92 95       	swap	r25
    3640:	90 7f       	andi	r25, 0xF0	; 240
    3642:	92 2b       	or	r25, r18
    3644:	90 83       	st	Z, r25
    3646:	80 93 f7 04 	sts	0x04F7, r24
    364a:	8f 5f       	subi	r24, 0xFF	; 255
    364c:	8f 77       	andi	r24, 0x7F	; 127
    364e:	80 34       	cpi	r24, 0x40	; 64
    3650:	61 f0       	breq	.+24     	; 0x366a <check_write_sw+0x7a>
    3652:	ee ec       	ldi	r30, 0xCE	; 206
    3654:	f5 e0       	ldi	r31, 0x05	; 5
    3656:	93 81       	ldd	r25, Z+3	; 0x03
    3658:	80 fb       	bst	r24, 0
    365a:	97 f9       	bld	r25, 7
    365c:	93 83       	std	Z+3, r25	; 0x03
    365e:	86 95       	lsr	r24
    3660:	94 81       	ldd	r25, Z+4	; 0x04
    3662:	90 7c       	andi	r25, 0xC0	; 192
    3664:	89 2b       	or	r24, r25
    3666:	84 83       	std	Z+4, r24	; 0x04
    3668:	09 c0       	rjmp	.+18     	; 0x367c <check_write_sw+0x8c>
    366a:	ee ec       	ldi	r30, 0xCE	; 206
    366c:	f5 e0       	ldi	r31, 0x05	; 5
    366e:	83 81       	ldd	r24, Z+3	; 0x03
    3670:	80 68       	ori	r24, 0x80	; 128
    3672:	83 83       	std	Z+3, r24	; 0x03
    3674:	84 81       	ldd	r24, Z+4	; 0x04
    3676:	80 7c       	andi	r24, 0xC0	; 192
    3678:	8f 61       	ori	r24, 0x1F	; 31
    367a:	84 83       	std	Z+4, r24	; 0x04
    367c:	0e 94 ff 19 	call	0x33fe	; 0x33fe <write_rhythm_track>
    3680:	08 95       	ret

00003682 <check_start_stop_tap>:
    3682:	93 b1       	in	r25, 0x03	; 3
    3684:	29 2f       	mov	r18, r25
    3686:	26 95       	lsr	r18
    3688:	26 95       	lsr	r18
    368a:	ea ef       	ldi	r30, 0xFA	; 250
    368c:	f4 e0       	ldi	r31, 0x04	; 4
    368e:	80 81       	ld	r24, Z
    3690:	20 fb       	bst	r18, 0
    3692:	87 f9       	bld	r24, 7
    3694:	80 83       	st	Z, r24
    3696:	80 91 4a 02 	lds	r24, 0x024A
    369a:	98 27       	eor	r25, r24
    369c:	89 27       	eor	r24, r25
    369e:	80 93 4a 02 	sts	0x024A, r24
    36a2:	89 23       	and	r24, r25
    36a4:	82 fd       	sbrc	r24, 2
    36a6:	03 c0       	rjmp	.+6      	; 0x36ae <check_start_stop_tap+0x2c>
    36a8:	80 93 4b 02 	sts	0x024B, r24
    36ac:	09 c0       	rjmp	.+18     	; 0x36c0 <check_start_stop_tap+0x3e>
    36ae:	94 e0       	ldi	r25, 0x04	; 4
    36b0:	89 27       	eor	r24, r25
    36b2:	80 93 4b 02 	sts	0x024B, r24
    36b6:	e3 ee       	ldi	r30, 0xE3	; 227
    36b8:	f2 e0       	ldi	r31, 0x02	; 2
    36ba:	80 81       	ld	r24, Z
    36bc:	84 60       	ori	r24, 0x04	; 4
    36be:	80 83       	st	Z, r24
    36c0:	80 91 04 03 	lds	r24, 0x0304
    36c4:	81 30       	cpi	r24, 0x01	; 1
    36c6:	c9 f0       	breq	.+50     	; 0x36fa <check_start_stop_tap+0x78>
    36c8:	ea ef       	ldi	r30, 0xFA	; 250
    36ca:	f4 e0       	ldi	r31, 0x04	; 4
    36cc:	80 81       	ld	r24, Z
    36ce:	85 fb       	bst	r24, 5
    36d0:	22 27       	eor	r18, r18
    36d2:	20 f9       	bld	r18, 0
    36d4:	90 91 4b 02 	lds	r25, 0x024B
    36d8:	96 95       	lsr	r25
    36da:	92 27       	eor	r25, r18
    36dc:	90 fb       	bst	r25, 0
    36de:	85 f9       	bld	r24, 5
    36e0:	80 83       	st	Z, r24
    36e2:	85 ff       	sbrs	r24, 5
    36e4:	08 c0       	rjmp	.+16     	; 0x36f6 <check_start_stop_tap+0x74>
    36e6:	21 11       	cpse	r18, r1
    36e8:	08 c0       	rjmp	.+16     	; 0x36fa <check_start_stop_tap+0x78>
    36ea:	0e 94 11 0e 	call	0x1c22	; 0x1c22 <process_start>
    36ee:	08 95       	ret
    36f0:	0e 94 78 0e 	call	0x1cf0	; 0x1cf0 <process_stop>
    36f4:	08 95       	ret
    36f6:	21 30       	cpi	r18, 0x01	; 1
    36f8:	d9 f3       	breq	.-10     	; 0x36f0 <check_start_stop_tap+0x6e>
    36fa:	08 95       	ret

000036fc <check_variation_switches>:
    36fc:	80 91 14 02 	lds	r24, 0x0214
    3700:	86 ff       	sbrs	r24, 6
    3702:	29 c0       	rjmp	.+82     	; 0x3756 <check_variation_switches+0x5a>
    3704:	90 91 fa 04 	lds	r25, 0x04FA
    3708:	94 fd       	sbrc	r25, 4
    370a:	25 c0       	rjmp	.+74     	; 0x3756 <check_variation_switches+0x5a>
    370c:	e4 e1       	ldi	r30, 0x14	; 20
    370e:	f2 e0       	ldi	r31, 0x02	; 2
    3710:	8f 7b       	andi	r24, 0xBF	; 191
    3712:	80 83       	st	Z, r24
    3714:	eb ec       	ldi	r30, 0xCB	; 203
    3716:	f5 e0       	ldi	r31, 0x05	; 5
    3718:	80 81       	ld	r24, Z
    371a:	8f 5f       	subi	r24, 0xFF	; 255
    371c:	80 83       	st	Z, r24
    371e:	83 30       	cpi	r24, 0x03	; 3
    3720:	29 f4       	brne	.+10     	; 0x372c <check_variation_switches+0x30>
    3722:	10 92 cb 05 	sts	0x05CB, r1
    3726:	95 ff       	sbrs	r25, 5
    3728:	0b c0       	rjmp	.+22     	; 0x3740 <check_variation_switches+0x44>
    372a:	02 c0       	rjmp	.+4      	; 0x3730 <check_variation_switches+0x34>
    372c:	95 ff       	sbrs	r25, 5
    372e:	06 c0       	rjmp	.+12     	; 0x373c <check_variation_switches+0x40>
    3730:	e1 ee       	ldi	r30, 0xE1	; 225
    3732:	f2 e0       	ldi	r31, 0x02	; 2
    3734:	80 81       	ld	r24, Z
    3736:	84 60       	ori	r24, 0x04	; 4
    3738:	80 83       	st	Z, r24
    373a:	08 95       	ret
    373c:	8d 7f       	andi	r24, 0xFD	; 253
    373e:	31 f4       	brne	.+12     	; 0x374c <check_variation_switches+0x50>
    3740:	ea ec       	ldi	r30, 0xCA	; 202
    3742:	f5 e0       	ldi	r31, 0x05	; 5
    3744:	80 81       	ld	r24, Z
    3746:	8d 7f       	andi	r24, 0xFD	; 253
    3748:	80 83       	st	Z, r24
    374a:	08 95       	ret
    374c:	ea ec       	ldi	r30, 0xCA	; 202
    374e:	f5 e0       	ldi	r31, 0x05	; 5
    3750:	80 81       	ld	r24, Z
    3752:	82 60       	ori	r24, 0x02	; 2
    3754:	80 83       	st	Z, r24
    3756:	08 95       	ret

00003758 <check_clear_switch>:
    3758:	cf 92       	push	r12
    375a:	df 92       	push	r13
    375c:	ef 92       	push	r14
    375e:	ff 92       	push	r15
    3760:	0f 93       	push	r16
    3762:	1f 93       	push	r17
    3764:	cf 93       	push	r28
    3766:	df 93       	push	r29
    3768:	80 91 fa 04 	lds	r24, 0x04FA
    376c:	84 fd       	sbrc	r24, 4
    376e:	db c0       	rjmp	.+438    	; 0x3926 <check_clear_switch+0x1ce>
    3770:	86 ff       	sbrs	r24, 6
    3772:	b8 c0       	rjmp	.+368    	; 0x38e4 <check_clear_switch+0x18c>
    3774:	e8 e1       	ldi	r30, 0x18	; 24
    3776:	f2 e0       	ldi	r31, 0x02	; 2
    3778:	80 81       	ld	r24, Z
    377a:	8f 7b       	andi	r24, 0xBF	; 191
    377c:	80 83       	st	Z, r24
    377e:	80 91 f8 04 	lds	r24, 0x04F8
    3782:	88 23       	and	r24, r24
    3784:	21 f0       	breq	.+8      	; 0x378e <check_clear_switch+0x36>
    3786:	85 30       	cpi	r24, 0x05	; 5
    3788:	09 f4       	brne	.+2      	; 0x378c <check_clear_switch+0x34>
    378a:	7d c0       	rjmp	.+250    	; 0x3886 <check_clear_switch+0x12e>
    378c:	cc c0       	rjmp	.+408    	; 0x3926 <check_clear_switch+0x1ce>
    378e:	e1 eb       	ldi	r30, 0xB1	; 177
    3790:	f0 e0       	ldi	r31, 0x00	; 0
    3792:	80 81       	ld	r24, Z
    3794:	87 60       	ori	r24, 0x07	; 7
    3796:	80 83       	st	Z, r24
    3798:	a0 eb       	ldi	r26, 0xB0	; 176
    379a:	b0 e0       	ldi	r27, 0x00	; 0
    379c:	8c 91       	ld	r24, X
    379e:	8c 93       	st	X, r24
    37a0:	20 e7       	ldi	r18, 0x70	; 112
    37a2:	30 e0       	ldi	r19, 0x00	; 0
    37a4:	e9 01       	movw	r28, r18
    37a6:	88 81       	ld	r24, Y
    37a8:	82 60       	ori	r24, 0x02	; 2
    37aa:	88 83       	st	Y, r24
    37ac:	8c 91       	ld	r24, X
    37ae:	81 60       	ori	r24, 0x01	; 1
    37b0:	8c 93       	st	X, r24
    37b2:	80 81       	ld	r24, Z
    37b4:	88 60       	ori	r24, 0x08	; 8
    37b6:	80 83       	st	Z, r24
    37b8:	8c e8       	ldi	r24, 0x8C	; 140
    37ba:	80 93 b3 00 	sts	0x00B3, r24
    37be:	80 91 e4 02 	lds	r24, 0x02E4
    37c2:	80 ff       	sbrs	r24, 0
    37c4:	08 c0       	rjmp	.+16     	; 0x37d6 <check_clear_switch+0x7e>
    37c6:	e3 ee       	ldi	r30, 0xE3	; 227
    37c8:	f2 e0       	ldi	r31, 0x02	; 2
    37ca:	81 81       	ldd	r24, Z+1	; 0x01
    37cc:	8e 7f       	andi	r24, 0xFE	; 254
    37ce:	81 83       	std	Z+1, r24	; 0x01
    37d0:	8c e1       	ldi	r24, 0x1C	; 28
    37d2:	0e 94 ca 07 	call	0xf94	; 0xf94 <toggle>
    37d6:	ea ec       	ldi	r30, 0xCA	; 202
    37d8:	f5 e0       	ldi	r31, 0x05	; 5
    37da:	80 81       	ld	r24, Z
    37dc:	81 fb       	bst	r24, 1
    37de:	ee 24       	eor	r14, r14
    37e0:	e0 f8       	bld	r14, 0
    37e2:	f1 2c       	mov	r15, r1
    37e4:	84 e4       	ldi	r24, 0x44	; 68
    37e6:	8e 9d       	mul	r24, r14
    37e8:	d0 01       	movw	r26, r0
    37ea:	8f 9d       	mul	r24, r15
    37ec:	b0 0d       	add	r27, r0
    37ee:	11 24       	eor	r1, r1
    37f0:	af 5f       	subi	r26, 0xFF	; 255
    37f2:	ba 4f       	sbci	r27, 0xFA	; 250
    37f4:	90 e4       	ldi	r25, 0x40	; 64
    37f6:	ed 01       	movw	r28, r26
    37f8:	19 92       	st	Y+, r1
    37fa:	9a 95       	dec	r25
    37fc:	e9 f7       	brne	.-6      	; 0x37f8 <check_clear_switch+0xa0>
    37fe:	90 81       	ld	r25, Z
    3800:	91 fb       	bst	r25, 1
    3802:	00 27       	eor	r16, r16
    3804:	00 f9       	bld	r16, 0
    3806:	10 e0       	ldi	r17, 0x00	; 0
    3808:	92 e2       	ldi	r25, 0x22	; 34
    380a:	90 9f       	mul	r25, r16
    380c:	d0 01       	movw	r26, r0
    380e:	91 9f       	mul	r25, r17
    3810:	b0 0d       	add	r27, r0
    3812:	11 24       	eor	r1, r1
    3814:	aa 57       	subi	r26, 0x7A	; 122
    3816:	ba 4f       	sbci	r27, 0xFA	; 250
    3818:	ed 01       	movw	r28, r26
    381a:	19 92       	st	Y+, r1
    381c:	9a 95       	dec	r25
    381e:	e9 f7       	brne	.-6      	; 0x381a <check_clear_switch+0xc2>
    3820:	90 81       	ld	r25, Z
    3822:	91 fb       	bst	r25, 1
    3824:	cc 24       	eor	r12, r12
    3826:	c0 f8       	bld	r12, 0
    3828:	d1 2c       	mov	r13, r1
    382a:	8c 9d       	mul	r24, r12
    382c:	f0 01       	movw	r30, r0
    382e:	8d 9d       	mul	r24, r13
    3830:	f0 0d       	add	r31, r0
    3832:	11 24       	eor	r1, r1
    3834:	e8 50       	subi	r30, 0x08	; 8
    3836:	fb 4f       	sbci	r31, 0xFB	; 251
    3838:	16 82       	std	Z+6, r1	; 0x06
    383a:	15 82       	std	Z+5, r1	; 0x05
    383c:	10 86       	std	Z+8, r1	; 0x08
    383e:	17 82       	std	Z+7, r1	; 0x07
    3840:	8f e0       	ldi	r24, 0x0F	; 15
    3842:	80 93 cc 05 	sts	0x05CC, r24
    3846:	80 e1       	ldi	r24, 0x10	; 16
    3848:	80 93 cd 05 	sts	0x05CD, r24
    384c:	ee ec       	ldi	r30, 0xCE	; 206
    384e:	f5 e0       	ldi	r31, 0x05	; 5
    3850:	81 81       	ldd	r24, Z+1	; 0x01
    3852:	87 7e       	andi	r24, 0xE7	; 231
    3854:	88 60       	ori	r24, 0x08	; 8
    3856:	81 83       	std	Z+1, r24	; 0x01
    3858:	88 e1       	ldi	r24, 0x18	; 24
    385a:	80 93 fc 02 	sts	0x02FC, r24
    385e:	0e 94 81 09 	call	0x1302	; 0x1302 <update_prescale_leds>
    3862:	60 91 85 05 	lds	r22, 0x0585
    3866:	6f 70       	andi	r22, 0x0F	; 15
    3868:	90 91 cf 05 	lds	r25, 0x05CF
    386c:	92 95       	swap	r25
    386e:	96 95       	lsr	r25
    3870:	97 70       	andi	r25, 0x07	; 7
    3872:	80 91 d0 05 	lds	r24, 0x05D0
    3876:	81 70       	andi	r24, 0x01	; 1
    3878:	88 0f       	add	r24, r24
    387a:	88 0f       	add	r24, r24
    387c:	88 0f       	add	r24, r24
    387e:	89 2b       	or	r24, r25
    3880:	0e 94 ad 11 	call	0x235a	; 0x235a <write_current_pattern>
    3884:	50 c0       	rjmp	.+160    	; 0x3926 <check_clear_switch+0x1ce>
    3886:	e1 eb       	ldi	r30, 0xB1	; 177
    3888:	f0 e0       	ldi	r31, 0x00	; 0
    388a:	80 81       	ld	r24, Z
    388c:	87 60       	ori	r24, 0x07	; 7
    388e:	80 83       	st	Z, r24
    3890:	a0 eb       	ldi	r26, 0xB0	; 176
    3892:	b0 e0       	ldi	r27, 0x00	; 0
    3894:	8c 91       	ld	r24, X
    3896:	8c 93       	st	X, r24
    3898:	c0 e7       	ldi	r28, 0x70	; 112
    389a:	d0 e0       	ldi	r29, 0x00	; 0
    389c:	88 81       	ld	r24, Y
    389e:	82 60       	ori	r24, 0x02	; 2
    38a0:	88 83       	st	Y, r24
    38a2:	8c 91       	ld	r24, X
    38a4:	81 60       	ori	r24, 0x01	; 1
    38a6:	8c 93       	st	X, r24
    38a8:	80 81       	ld	r24, Z
    38aa:	88 60       	ori	r24, 0x08	; 8
    38ac:	80 83       	st	Z, r24
    38ae:	8c e8       	ldi	r24, 0x8C	; 140
    38b0:	80 93 b3 00 	sts	0x00B3, r24
    38b4:	80 91 e4 02 	lds	r24, 0x02E4
    38b8:	80 ff       	sbrs	r24, 0
    38ba:	08 c0       	rjmp	.+16     	; 0x38cc <check_clear_switch+0x174>
    38bc:	e3 ee       	ldi	r30, 0xE3	; 227
    38be:	f2 e0       	ldi	r31, 0x02	; 2
    38c0:	81 81       	ldd	r24, Z+1	; 0x01
    38c2:	8e 7f       	andi	r24, 0xFE	; 254
    38c4:	81 83       	std	Z+1, r24	; 0x01
    38c6:	81 e2       	ldi	r24, 0x21	; 33
    38c8:	0e 94 ca 07 	call	0xf94	; 0xf94 <toggle>
    38cc:	80 e4       	ldi	r24, 0x40	; 64
    38ce:	e7 eb       	ldi	r30, 0xB7	; 183
    38d0:	f4 e0       	ldi	r31, 0x04	; 4
    38d2:	df 01       	movw	r26, r30
    38d4:	1d 92       	st	X+, r1
    38d6:	8a 95       	dec	r24
    38d8:	e9 f7       	brne	.-6      	; 0x38d4 <check_clear_switch+0x17c>
    38da:	10 92 f7 04 	sts	0x04F7, r1
    38de:	0e 94 ff 19 	call	0x33fe	; 0x33fe <write_rhythm_track>
    38e2:	21 c0       	rjmp	.+66     	; 0x3926 <check_clear_switch+0x1ce>
    38e4:	80 91 f8 04 	lds	r24, 0x04F8
    38e8:	81 11       	cpse	r24, r1
    38ea:	0e c0       	rjmp	.+28     	; 0x3908 <check_clear_switch+0x1b0>
    38ec:	10 92 b0 00 	sts	0x00B0, r1
    38f0:	e0 e7       	ldi	r30, 0x70	; 112
    38f2:	f0 e0       	ldi	r31, 0x00	; 0
    38f4:	80 81       	ld	r24, Z
    38f6:	8d 7f       	andi	r24, 0xFD	; 253
    38f8:	80 83       	st	Z, r24
    38fa:	86 e4       	ldi	r24, 0x46	; 70
    38fc:	80 93 b3 00 	sts	0x00B3, r24
    3900:	8c e1       	ldi	r24, 0x1C	; 28
    3902:	0e 94 93 07 	call	0xf26	; 0xf26 <turn_on>
    3906:	0f c0       	rjmp	.+30     	; 0x3926 <check_clear_switch+0x1ce>
    3908:	85 30       	cpi	r24, 0x05	; 5
    390a:	69 f4       	brne	.+26     	; 0x3926 <check_clear_switch+0x1ce>
    390c:	10 92 b0 00 	sts	0x00B0, r1
    3910:	e0 e7       	ldi	r30, 0x70	; 112
    3912:	f0 e0       	ldi	r31, 0x00	; 0
    3914:	80 81       	ld	r24, Z
    3916:	8d 7f       	andi	r24, 0xFD	; 253
    3918:	80 83       	st	Z, r24
    391a:	86 e4       	ldi	r24, 0x46	; 70
    391c:	80 93 b3 00 	sts	0x00B3, r24
    3920:	81 e2       	ldi	r24, 0x21	; 33
    3922:	0e 94 93 07 	call	0xf26	; 0xf26 <turn_on>
    3926:	df 91       	pop	r29
    3928:	cf 91       	pop	r28
    392a:	1f 91       	pop	r17
    392c:	0f 91       	pop	r16
    392e:	ff 90       	pop	r15
    3930:	ef 90       	pop	r14
    3932:	df 90       	pop	r13
    3934:	cf 90       	pop	r12
    3936:	08 95       	ret

00003938 <check_step_press>:
    3938:	80 91 f6 01 	lds	r24, 0x01F6
    393c:	86 fd       	sbrc	r24, 6
    393e:	09 c0       	rjmp	.+18     	; 0x3952 <check_step_press+0x1a>
    3940:	81 e0       	ldi	r24, 0x01	; 1
    3942:	90 e0       	ldi	r25, 0x00	; 0
    3944:	fc 01       	movw	r30, r24
    3946:	ea 50       	subi	r30, 0x0A	; 10
    3948:	fe 4f       	sbci	r31, 0xFE	; 254
    394a:	20 81       	ld	r18, Z
    394c:	26 ff       	sbrs	r18, 6
    394e:	0a c0       	rjmp	.+20     	; 0x3964 <check_step_press+0x2c>
    3950:	02 c0       	rjmp	.+4      	; 0x3956 <check_step_press+0x1e>
    3952:	80 e0       	ldi	r24, 0x00	; 0
    3954:	90 e0       	ldi	r25, 0x00	; 0
    3956:	fc 01       	movw	r30, r24
    3958:	ea 50       	subi	r30, 0x0A	; 10
    395a:	fe 4f       	sbci	r31, 0xFE	; 254
    395c:	90 81       	ld	r25, Z
    395e:	9f 7b       	andi	r25, 0xBF	; 191
    3960:	90 83       	st	Z, r25
    3962:	08 95       	ret
    3964:	01 96       	adiw	r24, 0x01	; 1
    3966:	80 31       	cpi	r24, 0x10	; 16
    3968:	91 05       	cpc	r25, r1
    396a:	61 f7       	brne	.-40     	; 0x3944 <check_step_press+0xc>
    396c:	8f ef       	ldi	r24, 0xFF	; 255
    396e:	08 95       	ret

00003970 <check_intro_fill_variation_switch>:
    3970:	80 91 13 02 	lds	r24, 0x0213
    3974:	86 ff       	sbrs	r24, 6
    3976:	3d c0       	rjmp	.+122    	; 0x39f2 <check_intro_fill_variation_switch+0x82>
    3978:	e3 e1       	ldi	r30, 0x13	; 19
    397a:	f2 e0       	ldi	r31, 0x02	; 2
    397c:	8f 7b       	andi	r24, 0xBF	; 191
    397e:	80 83       	st	Z, r24
    3980:	80 91 fa 04 	lds	r24, 0x04FA
    3984:	84 ff       	sbrs	r24, 4
    3986:	24 c0       	rjmp	.+72     	; 0x39d0 <check_intro_fill_variation_switch+0x60>
    3988:	80 91 f8 04 	lds	r24, 0x04F8
    398c:	85 30       	cpi	r24, 0x05	; 5
    398e:	01 f5       	brne	.+64     	; 0x39d0 <check_intro_fill_variation_switch+0x60>
    3990:	80 91 d1 05 	lds	r24, 0x05D1
    3994:	98 2f       	mov	r25, r24
    3996:	99 1f       	adc	r25, r25
    3998:	99 27       	eor	r25, r25
    399a:	99 1f       	adc	r25, r25
    399c:	80 91 d2 05 	lds	r24, 0x05D2
    39a0:	8f 73       	andi	r24, 0x3F	; 63
    39a2:	88 0f       	add	r24, r24
    39a4:	89 2b       	or	r24, r25
    39a6:	71 f0       	breq	.+28     	; 0x39c4 <check_intro_fill_variation_switch+0x54>
    39a8:	81 58       	subi	r24, 0x81	; 129
    39aa:	98 2f       	mov	r25, r24
    39ac:	9f 77       	andi	r25, 0x7F	; 127
    39ae:	ee ec       	ldi	r30, 0xCE	; 206
    39b0:	f5 e0       	ldi	r31, 0x05	; 5
    39b2:	23 81       	ldd	r18, Z+3	; 0x03
    39b4:	80 fb       	bst	r24, 0
    39b6:	27 f9       	bld	r18, 7
    39b8:	23 83       	std	Z+3, r18	; 0x03
    39ba:	96 95       	lsr	r25
    39bc:	84 81       	ldd	r24, Z+4	; 0x04
    39be:	80 7c       	andi	r24, 0xC0	; 192
    39c0:	89 2b       	or	r24, r25
    39c2:	84 83       	std	Z+4, r24	; 0x04
    39c4:	e1 ee       	ldi	r30, 0xE1	; 225
    39c6:	f2 e0       	ldi	r31, 0x02	; 2
    39c8:	80 81       	ld	r24, Z
    39ca:	80 62       	ori	r24, 0x20	; 32
    39cc:	80 83       	st	Z, r24
    39ce:	08 95       	ret
    39d0:	8e e2       	ldi	r24, 0x2E	; 46
    39d2:	0e 94 ca 07 	call	0xf94	; 0xf94 <toggle>
    39d6:	8f e2       	ldi	r24, 0x2F	; 47
    39d8:	0e 94 ca 07 	call	0xf94	; 0xf94 <toggle>
    39dc:	ea ec       	ldi	r30, 0xCA	; 202
    39de:	f5 e0       	ldi	r31, 0x05	; 5
    39e0:	80 81       	ld	r24, Z
    39e2:	82 fb       	bst	r24, 2
    39e4:	22 27       	eor	r18, r18
    39e6:	20 f9       	bld	r18, 0
    39e8:	91 e0       	ldi	r25, 0x01	; 1
    39ea:	92 27       	eor	r25, r18
    39ec:	90 fb       	bst	r25, 0
    39ee:	82 f9       	bld	r24, 2
    39f0:	80 83       	st	Z, r24
    39f2:	08 95       	ret

000039f4 <assign_triggers>:
    39f4:	90 91 ca 05 	lds	r25, 0x05CA
    39f8:	92 fd       	sbrc	r25, 2
    39fa:	39 c0       	rjmp	.+114    	; 0x3a6e <assign_triggers+0x7a>
    39fc:	48 2f       	mov	r20, r24
    39fe:	50 e0       	ldi	r21, 0x00	; 0
    3a00:	97 e0       	ldi	r25, 0x07	; 7
    3a02:	89 9f       	mul	r24, r25
    3a04:	f0 01       	movw	r30, r0
    3a06:	11 24       	eor	r1, r1
    3a08:	e0 50       	subi	r30, 0x00	; 0
    3a0a:	ff 4f       	sbci	r31, 0xFF	; 255
    3a0c:	93 81       	ldd	r25, Z+3	; 0x03
    3a0e:	9f 3f       	cpi	r25, 0xFF	; 255
    3a10:	c1 f0       	breq	.+48     	; 0x3a42 <assign_triggers+0x4e>
    3a12:	20 91 d6 05 	lds	r18, 0x05D6
    3a16:	2f 71       	andi	r18, 0x1F	; 31
    3a18:	30 e0       	ldi	r19, 0x00	; 0
    3a1a:	42 17       	cp	r20, r18
    3a1c:	53 07       	cpc	r21, r19
    3a1e:	49 f4       	brne	.+18     	; 0x3a32 <assign_triggers+0x3e>
    3a20:	87 5f       	subi	r24, 0xF7	; 247
    3a22:	e6 ed       	ldi	r30, 0xD6	; 214
    3a24:	f5 e0       	ldi	r31, 0x05	; 5
    3a26:	8f 71       	andi	r24, 0x1F	; 31
    3a28:	90 81       	ld	r25, Z
    3a2a:	90 7e       	andi	r25, 0xE0	; 224
    3a2c:	89 2b       	or	r24, r25
    3a2e:	80 83       	st	Z, r24
    3a30:	08 95       	ret
    3a32:	e6 ed       	ldi	r30, 0xD6	; 214
    3a34:	f5 e0       	ldi	r31, 0x05	; 5
    3a36:	8f 71       	andi	r24, 0x1F	; 31
    3a38:	90 81       	ld	r25, Z
    3a3a:	90 7e       	andi	r25, 0xE0	; 224
    3a3c:	89 2b       	or	r24, r25
    3a3e:	80 83       	st	Z, r24
    3a40:	08 95       	ret
    3a42:	90 91 d6 05 	lds	r25, 0x05D6
    3a46:	9f 71       	andi	r25, 0x1F	; 31
    3a48:	96 30       	cpi	r25, 0x06	; 6
    3a4a:	49 f4       	brne	.+18     	; 0x3a5e <assign_triggers+0x6a>
    3a4c:	86 30       	cpi	r24, 0x06	; 6
    3a4e:	39 f4       	brne	.+14     	; 0x3a5e <assign_triggers+0x6a>
    3a50:	e6 ed       	ldi	r30, 0xD6	; 214
    3a52:	f5 e0       	ldi	r31, 0x05	; 5
    3a54:	80 81       	ld	r24, Z
    3a56:	80 7e       	andi	r24, 0xE0	; 224
    3a58:	8f 60       	ori	r24, 0x0F	; 15
    3a5a:	80 83       	st	Z, r24
    3a5c:	08 95       	ret
    3a5e:	e6 ed       	ldi	r30, 0xD6	; 214
    3a60:	f5 e0       	ldi	r31, 0x05	; 5
    3a62:	8f 71       	andi	r24, 0x1F	; 31
    3a64:	90 81       	ld	r25, Z
    3a66:	90 7e       	andi	r25, 0xE0	; 224
    3a68:	89 2b       	or	r24, r25
    3a6a:	80 83       	st	Z, r24
    3a6c:	08 95       	ret
    3a6e:	48 2f       	mov	r20, r24
    3a70:	50 e0       	ldi	r21, 0x00	; 0
    3a72:	97 e0       	ldi	r25, 0x07	; 7
    3a74:	89 9f       	mul	r24, r25
    3a76:	f0 01       	movw	r30, r0
    3a78:	11 24       	eor	r1, r1
    3a7a:	e0 50       	subi	r30, 0x00	; 0
    3a7c:	ff 4f       	sbci	r31, 0xFF	; 255
    3a7e:	93 81       	ldd	r25, Z+3	; 0x03
    3a80:	9f 3f       	cpi	r25, 0xFF	; 255
    3a82:	c1 f1       	breq	.+112    	; 0x3af4 <assign_triggers+0x100>
    3a84:	20 91 d6 05 	lds	r18, 0x05D6
    3a88:	92 2f       	mov	r25, r18
    3a8a:	92 95       	swap	r25
    3a8c:	96 95       	lsr	r25
    3a8e:	97 70       	andi	r25, 0x07	; 7
    3a90:	20 91 d7 05 	lds	r18, 0x05D7
    3a94:	23 70       	andi	r18, 0x03	; 3
    3a96:	22 0f       	add	r18, r18
    3a98:	22 0f       	add	r18, r18
    3a9a:	22 0f       	add	r18, r18
    3a9c:	29 2b       	or	r18, r25
    3a9e:	30 e0       	ldi	r19, 0x00	; 0
    3aa0:	42 17       	cp	r20, r18
    3aa2:	53 07       	cpc	r21, r19
    3aa4:	a1 f4       	brne	.+40     	; 0x3ace <assign_triggers+0xda>
    3aa6:	87 5f       	subi	r24, 0xF7	; 247
    3aa8:	e6 ed       	ldi	r30, 0xD6	; 214
    3aaa:	f5 e0       	ldi	r31, 0x05	; 5
    3aac:	28 2f       	mov	r18, r24
    3aae:	22 95       	swap	r18
    3ab0:	22 0f       	add	r18, r18
    3ab2:	20 7e       	andi	r18, 0xE0	; 224
    3ab4:	90 81       	ld	r25, Z
    3ab6:	9f 71       	andi	r25, 0x1F	; 31
    3ab8:	92 2b       	or	r25, r18
    3aba:	90 83       	st	Z, r25
    3abc:	86 95       	lsr	r24
    3abe:	86 95       	lsr	r24
    3ac0:	86 95       	lsr	r24
    3ac2:	83 70       	andi	r24, 0x03	; 3
    3ac4:	91 81       	ldd	r25, Z+1	; 0x01
    3ac6:	9c 7f       	andi	r25, 0xFC	; 252
    3ac8:	89 2b       	or	r24, r25
    3aca:	81 83       	std	Z+1, r24	; 0x01
    3acc:	08 95       	ret
    3ace:	e6 ed       	ldi	r30, 0xD6	; 214
    3ad0:	f5 e0       	ldi	r31, 0x05	; 5
    3ad2:	28 2f       	mov	r18, r24
    3ad4:	22 95       	swap	r18
    3ad6:	22 0f       	add	r18, r18
    3ad8:	20 7e       	andi	r18, 0xE0	; 224
    3ada:	90 81       	ld	r25, Z
    3adc:	9f 71       	andi	r25, 0x1F	; 31
    3ade:	92 2b       	or	r25, r18
    3ae0:	90 83       	st	Z, r25
    3ae2:	86 95       	lsr	r24
    3ae4:	86 95       	lsr	r24
    3ae6:	86 95       	lsr	r24
    3ae8:	83 70       	andi	r24, 0x03	; 3
    3aea:	91 81       	ldd	r25, Z+1	; 0x01
    3aec:	9c 7f       	andi	r25, 0xFC	; 252
    3aee:	89 2b       	or	r24, r25
    3af0:	81 83       	std	Z+1, r24	; 0x01
    3af2:	08 95       	ret
    3af4:	90 91 d6 05 	lds	r25, 0x05D6
    3af8:	29 2f       	mov	r18, r25
    3afa:	22 95       	swap	r18
    3afc:	26 95       	lsr	r18
    3afe:	27 70       	andi	r18, 0x07	; 7
    3b00:	90 91 d7 05 	lds	r25, 0x05D7
    3b04:	93 70       	andi	r25, 0x03	; 3
    3b06:	99 0f       	add	r25, r25
    3b08:	99 0f       	add	r25, r25
    3b0a:	99 0f       	add	r25, r25
    3b0c:	92 2b       	or	r25, r18
    3b0e:	96 30       	cpi	r25, 0x06	; 6
    3b10:	61 f4       	brne	.+24     	; 0x3b2a <assign_triggers+0x136>
    3b12:	86 30       	cpi	r24, 0x06	; 6
    3b14:	51 f4       	brne	.+20     	; 0x3b2a <assign_triggers+0x136>
    3b16:	e6 ed       	ldi	r30, 0xD6	; 214
    3b18:	f5 e0       	ldi	r31, 0x05	; 5
    3b1a:	80 81       	ld	r24, Z
    3b1c:	80 6e       	ori	r24, 0xE0	; 224
    3b1e:	80 83       	st	Z, r24
    3b20:	81 81       	ldd	r24, Z+1	; 0x01
    3b22:	8c 7f       	andi	r24, 0xFC	; 252
    3b24:	81 60       	ori	r24, 0x01	; 1
    3b26:	81 83       	std	Z+1, r24	; 0x01
    3b28:	08 95       	ret
    3b2a:	e6 ed       	ldi	r30, 0xD6	; 214
    3b2c:	f5 e0       	ldi	r31, 0x05	; 5
    3b2e:	28 2f       	mov	r18, r24
    3b30:	22 95       	swap	r18
    3b32:	22 0f       	add	r18, r18
    3b34:	20 7e       	andi	r18, 0xE0	; 224
    3b36:	90 81       	ld	r25, Z
    3b38:	9f 71       	andi	r25, 0x1F	; 31
    3b3a:	92 2b       	or	r25, r18
    3b3c:	90 83       	st	Z, r25
    3b3e:	86 95       	lsr	r24
    3b40:	86 95       	lsr	r24
    3b42:	86 95       	lsr	r24
    3b44:	83 70       	andi	r24, 0x03	; 3
    3b46:	91 81       	ldd	r25, Z+1	; 0x01
    3b48:	9c 7f       	andi	r25, 0xFC	; 252
    3b4a:	89 2b       	or	r24, r25
    3b4c:	81 83       	std	Z+1, r24	; 0x01
    3b4e:	08 95       	ret

00003b50 <assign_mutes>:
    3b50:	48 2f       	mov	r20, r24
    3b52:	50 e0       	ldi	r21, 0x00	; 0
    3b54:	97 e0       	ldi	r25, 0x07	; 7
    3b56:	89 9f       	mul	r24, r25
    3b58:	f0 01       	movw	r30, r0
    3b5a:	11 24       	eor	r1, r1
    3b5c:	e0 50       	subi	r30, 0x00	; 0
    3b5e:	ff 4f       	sbci	r31, 0xFF	; 255
    3b60:	93 81       	ldd	r25, Z+3	; 0x03
    3b62:	9f 3f       	cpi	r25, 0xFF	; 255
    3b64:	19 f4       	brne	.+6      	; 0x3b6c <assign_mutes+0x1c>
    3b66:	86 30       	cpi	r24, 0x06	; 6
    3b68:	09 f0       	breq	.+2      	; 0x3b6c <assign_mutes+0x1c>
    3b6a:	9e c0       	rjmp	.+316    	; 0x3ca8 <assign_mutes+0x158>
    3b6c:	ca 01       	movw	r24, r20
    3b6e:	09 96       	adiw	r24, 0x09	; 9
    3b70:	fc 01       	movw	r30, r24
    3b72:	ee 0f       	add	r30, r30
    3b74:	ff 1f       	adc	r31, r31
    3b76:	ee 0f       	add	r30, r30
    3b78:	ff 1f       	adc	r31, r31
    3b7a:	ee 0f       	add	r30, r30
    3b7c:	ff 1f       	adc	r31, r31
    3b7e:	e8 1b       	sub	r30, r24
    3b80:	f9 0b       	sbc	r31, r25
    3b82:	ea 5f       	subi	r30, 0xFA	; 250
    3b84:	fe 4f       	sbci	r31, 0xFE	; 254
    3b86:	60 81       	ld	r22, Z
    3b88:	26 2f       	mov	r18, r22
    3b8a:	21 70       	andi	r18, 0x01	; 1
    3b8c:	30 e0       	ldi	r19, 0x00	; 0
    3b8e:	22 0f       	add	r18, r18
    3b90:	33 1f       	adc	r19, r19
    3b92:	fa 01       	movw	r30, r20
    3b94:	ee 0f       	add	r30, r30
    3b96:	ff 1f       	adc	r31, r31
    3b98:	ee 0f       	add	r30, r30
    3b9a:	ff 1f       	adc	r31, r31
    3b9c:	ee 0f       	add	r30, r30
    3b9e:	ff 1f       	adc	r31, r31
    3ba0:	e4 1b       	sub	r30, r20
    3ba2:	f5 0b       	sbc	r31, r21
    3ba4:	ea 5f       	subi	r30, 0xFA	; 250
    3ba6:	fe 4f       	sbci	r31, 0xFE	; 254
    3ba8:	30 81       	ld	r19, Z
    3baa:	31 70       	andi	r19, 0x01	; 1
    3bac:	23 2b       	or	r18, r19
    3bae:	21 30       	cpi	r18, 0x01	; 1
    3bb0:	21 f1       	breq	.+72     	; 0x3bfa <assign_mutes+0xaa>
    3bb2:	30 f0       	brcs	.+12     	; 0x3bc0 <assign_mutes+0x70>
    3bb4:	22 30       	cpi	r18, 0x02	; 2
    3bb6:	f1 f1       	breq	.+124    	; 0x3c34 <assign_mutes+0xe4>
    3bb8:	23 30       	cpi	r18, 0x03	; 3
    3bba:	09 f4       	brne	.+2      	; 0x3bbe <assign_mutes+0x6e>
    3bbc:	58 c0       	rjmp	.+176    	; 0x3c6e <assign_mutes+0x11e>
    3bbe:	08 95       	ret
    3bc0:	fa 01       	movw	r30, r20
    3bc2:	ee 0f       	add	r30, r30
    3bc4:	ff 1f       	adc	r31, r31
    3bc6:	ee 0f       	add	r30, r30
    3bc8:	ff 1f       	adc	r31, r31
    3bca:	ee 0f       	add	r30, r30
    3bcc:	ff 1f       	adc	r31, r31
    3bce:	e4 1b       	sub	r30, r20
    3bd0:	f5 0b       	sbc	r31, r21
    3bd2:	ea 5f       	subi	r30, 0xFA	; 250
    3bd4:	fe 4f       	sbci	r31, 0xFE	; 254
    3bd6:	20 81       	ld	r18, Z
    3bd8:	21 60       	ori	r18, 0x01	; 1
    3bda:	20 83       	st	Z, r18
    3bdc:	fc 01       	movw	r30, r24
    3bde:	ee 0f       	add	r30, r30
    3be0:	ff 1f       	adc	r31, r31
    3be2:	ee 0f       	add	r30, r30
    3be4:	ff 1f       	adc	r31, r31
    3be6:	ee 0f       	add	r30, r30
    3be8:	ff 1f       	adc	r31, r31
    3bea:	e8 1b       	sub	r30, r24
    3bec:	f9 0b       	sbc	r31, r25
    3bee:	ea 5f       	subi	r30, 0xFA	; 250
    3bf0:	fe 4f       	sbci	r31, 0xFE	; 254
    3bf2:	80 81       	ld	r24, Z
    3bf4:	8e 7f       	andi	r24, 0xFE	; 254
    3bf6:	80 83       	st	Z, r24
    3bf8:	08 95       	ret
    3bfa:	fa 01       	movw	r30, r20
    3bfc:	ee 0f       	add	r30, r30
    3bfe:	ff 1f       	adc	r31, r31
    3c00:	ee 0f       	add	r30, r30
    3c02:	ff 1f       	adc	r31, r31
    3c04:	ee 0f       	add	r30, r30
    3c06:	ff 1f       	adc	r31, r31
    3c08:	e4 1b       	sub	r30, r20
    3c0a:	f5 0b       	sbc	r31, r21
    3c0c:	ea 5f       	subi	r30, 0xFA	; 250
    3c0e:	fe 4f       	sbci	r31, 0xFE	; 254
    3c10:	20 81       	ld	r18, Z
    3c12:	2e 7f       	andi	r18, 0xFE	; 254
    3c14:	20 83       	st	Z, r18
    3c16:	fc 01       	movw	r30, r24
    3c18:	ee 0f       	add	r30, r30
    3c1a:	ff 1f       	adc	r31, r31
    3c1c:	ee 0f       	add	r30, r30
    3c1e:	ff 1f       	adc	r31, r31
    3c20:	ee 0f       	add	r30, r30
    3c22:	ff 1f       	adc	r31, r31
    3c24:	e8 1b       	sub	r30, r24
    3c26:	f9 0b       	sbc	r31, r25
    3c28:	ea 5f       	subi	r30, 0xFA	; 250
    3c2a:	fe 4f       	sbci	r31, 0xFE	; 254
    3c2c:	80 81       	ld	r24, Z
    3c2e:	81 60       	ori	r24, 0x01	; 1
    3c30:	80 83       	st	Z, r24
    3c32:	08 95       	ret
    3c34:	fa 01       	movw	r30, r20
    3c36:	ee 0f       	add	r30, r30
    3c38:	ff 1f       	adc	r31, r31
    3c3a:	ee 0f       	add	r30, r30
    3c3c:	ff 1f       	adc	r31, r31
    3c3e:	ee 0f       	add	r30, r30
    3c40:	ff 1f       	adc	r31, r31
    3c42:	e4 1b       	sub	r30, r20
    3c44:	f5 0b       	sbc	r31, r21
    3c46:	ea 5f       	subi	r30, 0xFA	; 250
    3c48:	fe 4f       	sbci	r31, 0xFE	; 254
    3c4a:	20 81       	ld	r18, Z
    3c4c:	21 60       	ori	r18, 0x01	; 1
    3c4e:	20 83       	st	Z, r18
    3c50:	fc 01       	movw	r30, r24
    3c52:	ee 0f       	add	r30, r30
    3c54:	ff 1f       	adc	r31, r31
    3c56:	ee 0f       	add	r30, r30
    3c58:	ff 1f       	adc	r31, r31
    3c5a:	ee 0f       	add	r30, r30
    3c5c:	ff 1f       	adc	r31, r31
    3c5e:	e8 1b       	sub	r30, r24
    3c60:	f9 0b       	sbc	r31, r25
    3c62:	ea 5f       	subi	r30, 0xFA	; 250
    3c64:	fe 4f       	sbci	r31, 0xFE	; 254
    3c66:	80 81       	ld	r24, Z
    3c68:	81 60       	ori	r24, 0x01	; 1
    3c6a:	80 83       	st	Z, r24
    3c6c:	08 95       	ret
    3c6e:	fa 01       	movw	r30, r20
    3c70:	ee 0f       	add	r30, r30
    3c72:	ff 1f       	adc	r31, r31
    3c74:	ee 0f       	add	r30, r30
    3c76:	ff 1f       	adc	r31, r31
    3c78:	ee 0f       	add	r30, r30
    3c7a:	ff 1f       	adc	r31, r31
    3c7c:	e4 1b       	sub	r30, r20
    3c7e:	f5 0b       	sbc	r31, r21
    3c80:	ea 5f       	subi	r30, 0xFA	; 250
    3c82:	fe 4f       	sbci	r31, 0xFE	; 254
    3c84:	20 81       	ld	r18, Z
    3c86:	2e 7f       	andi	r18, 0xFE	; 254
    3c88:	20 83       	st	Z, r18
    3c8a:	fc 01       	movw	r30, r24
    3c8c:	ee 0f       	add	r30, r30
    3c8e:	ff 1f       	adc	r31, r31
    3c90:	ee 0f       	add	r30, r30
    3c92:	ff 1f       	adc	r31, r31
    3c94:	ee 0f       	add	r30, r30
    3c96:	ff 1f       	adc	r31, r31
    3c98:	e8 1b       	sub	r30, r24
    3c9a:	f9 0b       	sbc	r31, r25
    3c9c:	ea 5f       	subi	r30, 0xFA	; 250
    3c9e:	fe 4f       	sbci	r31, 0xFE	; 254
    3ca0:	80 81       	ld	r24, Z
    3ca2:	8e 7f       	andi	r24, 0xFE	; 254
    3ca4:	80 83       	st	Z, r24
    3ca6:	08 95       	ret
    3ca8:	fa 01       	movw	r30, r20
    3caa:	ee 0f       	add	r30, r30
    3cac:	ff 1f       	adc	r31, r31
    3cae:	ee 0f       	add	r30, r30
    3cb0:	ff 1f       	adc	r31, r31
    3cb2:	ee 0f       	add	r30, r30
    3cb4:	ff 1f       	adc	r31, r31
    3cb6:	e4 1b       	sub	r30, r20
    3cb8:	f5 0b       	sbc	r31, r21
    3cba:	ea 5f       	subi	r30, 0xFA	; 250
    3cbc:	fe 4f       	sbci	r31, 0xFE	; 254
    3cbe:	80 81       	ld	r24, Z
    3cc0:	98 2f       	mov	r25, r24
    3cc2:	90 95       	com	r25
    3cc4:	90 fb       	bst	r25, 0
    3cc6:	80 f9       	bld	r24, 0
    3cc8:	80 83       	st	Z, r24
    3cca:	08 95       	ret

00003ccc <process_inst_press>:
    3ccc:	cf 93       	push	r28
    3cce:	c8 2f       	mov	r28, r24
    3cd0:	80 91 fa 04 	lds	r24, 0x04FA
    3cd4:	84 fd       	sbrc	r24, 4
    3cd6:	23 c0       	rjmp	.+70     	; 0x3d1e <process_inst_press+0x52>
    3cd8:	0e 94 d9 07 	call	0xfb2	; 0xfb2 <turn_off_all_inst_leds>
    3cdc:	87 e0       	ldi	r24, 0x07	; 7
    3cde:	c8 9f       	mul	r28, r24
    3ce0:	f0 01       	movw	r30, r0
    3ce2:	11 24       	eor	r1, r1
    3ce4:	e0 50       	subi	r30, 0x00	; 0
    3ce6:	ff 4f       	sbci	r31, 0xFF	; 255
    3ce8:	83 81       	ldd	r24, Z+3	; 0x03
    3cea:	8f 3f       	cpi	r24, 0xFF	; 255
    3cec:	59 f0       	breq	.+22     	; 0x3d04 <process_inst_press+0x38>
    3cee:	80 91 d4 05 	lds	r24, 0x05D4
    3cf2:	8c 13       	cpse	r24, r28
    3cf4:	04 c0       	rjmp	.+8      	; 0x3cfe <process_inst_press+0x32>
    3cf6:	87 5f       	subi	r24, 0xF7	; 247
    3cf8:	80 93 d4 05 	sts	0x05D4, r24
    3cfc:	1d c0       	rjmp	.+58     	; 0x3d38 <process_inst_press+0x6c>
    3cfe:	c0 93 d4 05 	sts	0x05D4, r28
    3d02:	1a c0       	rjmp	.+52     	; 0x3d38 <process_inst_press+0x6c>
    3d04:	80 91 d4 05 	lds	r24, 0x05D4
    3d08:	86 30       	cpi	r24, 0x06	; 6
    3d0a:	31 f4       	brne	.+12     	; 0x3d18 <process_inst_press+0x4c>
    3d0c:	c6 30       	cpi	r28, 0x06	; 6
    3d0e:	21 f4       	brne	.+8      	; 0x3d18 <process_inst_press+0x4c>
    3d10:	8f e0       	ldi	r24, 0x0F	; 15
    3d12:	80 93 d4 05 	sts	0x05D4, r24
    3d16:	10 c0       	rjmp	.+32     	; 0x3d38 <process_inst_press+0x6c>
    3d18:	c0 93 d4 05 	sts	0x05D4, r28
    3d1c:	0d c0       	rjmp	.+26     	; 0x3d38 <process_inst_press+0x6c>
    3d1e:	80 91 fb 04 	lds	r24, 0x04FB
    3d22:	80 ff       	sbrs	r24, 0
    3d24:	06 c0       	rjmp	.+12     	; 0x3d32 <process_inst_press+0x66>
    3d26:	0e 94 d9 07 	call	0xfb2	; 0xfb2 <turn_off_all_inst_leds>
    3d2a:	8c 2f       	mov	r24, r28
    3d2c:	0e 94 fa 1c 	call	0x39f4	; 0x39f4 <assign_triggers>
    3d30:	03 c0       	rjmp	.+6      	; 0x3d38 <process_inst_press+0x6c>
    3d32:	8c 2f       	mov	r24, r28
    3d34:	0e 94 a8 1d 	call	0x3b50	; 0x3b50 <assign_mutes>
    3d38:	cf 91       	pop	r28
    3d3a:	08 95       	ret

00003d3c <check_inst_switches>:
    3d3c:	0f 93       	push	r16
    3d3e:	1f 93       	push	r17
    3d40:	cf 93       	push	r28
    3d42:	df 93       	push	r29
    3d44:	80 91 06 02 	lds	r24, 0x0206
    3d48:	86 fd       	sbrc	r24, 6
    3d4a:	07 c0       	rjmp	.+14     	; 0x3d5a <check_inst_switches+0x1e>
    3d4c:	80 91 07 02 	lds	r24, 0x0207
    3d50:	86 fd       	sbrc	r24, 6
    3d52:	a0 c0       	rjmp	.+320    	; 0x3e94 <check_inst_switches+0x158>
    3d54:	22 e1       	ldi	r18, 0x12	; 18
    3d56:	30 e0       	ldi	r19, 0x00	; 0
    3d58:	94 c0       	rjmp	.+296    	; 0x3e82 <check_inst_switches+0x146>
    3d5a:	e6 e0       	ldi	r30, 0x06	; 6
    3d5c:	f2 e0       	ldi	r31, 0x02	; 2
    3d5e:	80 81       	ld	r24, Z
    3d60:	8f 7b       	andi	r24, 0xBF	; 191
    3d62:	80 83       	st	Z, r24
    3d64:	80 91 f8 04 	lds	r24, 0x04F8
    3d68:	81 30       	cpi	r24, 0x01	; 1
    3d6a:	08 f4       	brcc	.+2      	; 0x3d6e <check_inst_switches+0x32>
    3d6c:	35 c1       	rjmp	.+618    	; 0x3fd8 <check_inst_switches+0x29c>
    3d6e:	83 30       	cpi	r24, 0x03	; 3
    3d70:	20 f0       	brcs	.+8      	; 0x3d7a <check_inst_switches+0x3e>
    3d72:	84 50       	subi	r24, 0x04	; 4
    3d74:	82 30       	cpi	r24, 0x02	; 2
    3d76:	60 f1       	brcs	.+88     	; 0x3dd0 <check_inst_switches+0x94>
    3d78:	2f c1       	rjmp	.+606    	; 0x3fd8 <check_inst_switches+0x29c>
    3d7a:	80 91 fa 04 	lds	r24, 0x04FA
    3d7e:	84 fd       	sbrc	r24, 4
    3d80:	09 c0       	rjmp	.+18     	; 0x3d94 <check_inst_switches+0x58>
    3d82:	0e 94 d9 07 	call	0xfb2	; 0xfb2 <turn_off_all_inst_leds>
    3d86:	84 e1       	ldi	r24, 0x14	; 20
    3d88:	0e 94 93 07 	call	0xf26	; 0xf26 <turn_on>
    3d8c:	80 e1       	ldi	r24, 0x10	; 16
    3d8e:	80 93 d4 05 	sts	0x05D4, r24
    3d92:	22 c1       	rjmp	.+580    	; 0x3fd8 <check_inst_switches+0x29c>
    3d94:	80 91 fb 04 	lds	r24, 0x04FB
    3d98:	80 ff       	sbrs	r24, 0
    3d9a:	1e c1       	rjmp	.+572    	; 0x3fd8 <check_inst_switches+0x29c>
    3d9c:	0e 94 d9 07 	call	0xfb2	; 0xfb2 <turn_off_all_inst_leds>
    3da0:	84 e1       	ldi	r24, 0x14	; 20
    3da2:	0e 94 93 07 	call	0xf26	; 0xf26 <turn_on>
    3da6:	80 91 ca 05 	lds	r24, 0x05CA
    3daa:	82 fd       	sbrc	r24, 2
    3dac:	07 c0       	rjmp	.+14     	; 0x3dbc <check_inst_switches+0x80>
    3dae:	e6 ed       	ldi	r30, 0xD6	; 214
    3db0:	f5 e0       	ldi	r31, 0x05	; 5
    3db2:	80 81       	ld	r24, Z
    3db4:	80 7e       	andi	r24, 0xE0	; 224
    3db6:	80 61       	ori	r24, 0x10	; 16
    3db8:	80 83       	st	Z, r24
    3dba:	0e c1       	rjmp	.+540    	; 0x3fd8 <check_inst_switches+0x29c>
    3dbc:	e6 ed       	ldi	r30, 0xD6	; 214
    3dbe:	f5 e0       	ldi	r31, 0x05	; 5
    3dc0:	80 81       	ld	r24, Z
    3dc2:	8f 71       	andi	r24, 0x1F	; 31
    3dc4:	80 83       	st	Z, r24
    3dc6:	81 81       	ldd	r24, Z+1	; 0x01
    3dc8:	8c 7f       	andi	r24, 0xFC	; 252
    3dca:	82 60       	ori	r24, 0x02	; 2
    3dcc:	81 83       	std	Z+1, r24	; 0x01
    3dce:	04 c1       	rjmp	.+520    	; 0x3fd8 <check_inst_switches+0x29c>
    3dd0:	80 91 d2 05 	lds	r24, 0x05D2
    3dd4:	98 2f       	mov	r25, r24
    3dd6:	92 95       	swap	r25
    3dd8:	96 95       	lsr	r25
    3dda:	96 95       	lsr	r25
    3ddc:	93 70       	andi	r25, 0x03	; 3
    3dde:	80 91 d3 05 	lds	r24, 0x05D3
    3de2:	83 70       	andi	r24, 0x03	; 3
    3de4:	88 0f       	add	r24, r24
    3de6:	88 0f       	add	r24, r24
    3de8:	89 2b       	or	r24, r25
    3dea:	09 f4       	brne	.+2      	; 0x3dee <check_inst_switches+0xb2>
    3dec:	f5 c0       	rjmp	.+490    	; 0x3fd8 <check_inst_switches+0x29c>
    3dee:	81 e0       	ldi	r24, 0x01	; 1
    3df0:	80 93 e2 02 	sts	0x02E2, r24
    3df4:	ce ec       	ldi	r28, 0xCE	; 206
    3df6:	d5 e0       	ldi	r29, 0x05	; 5
    3df8:	8b 81       	ldd	r24, Y+3	; 0x03
    3dfa:	8f 77       	andi	r24, 0x7F	; 127
    3dfc:	8b 83       	std	Y+3, r24	; 0x03
    3dfe:	1c 82       	std	Y+4, r1	; 0x04
    3e00:	8d 81       	ldd	r24, Y+5	; 0x05
    3e02:	8c 7f       	andi	r24, 0xFC	; 252
    3e04:	8d 83       	std	Y+5, r24	; 0x05
    3e06:	84 e1       	ldi	r24, 0x14	; 20
    3e08:	0e 94 93 07 	call	0xf26	; 0xf26 <turn_on>
    3e0c:	0e 94 b6 19 	call	0x336c	; 0x336c <read_rhythm_track>
    3e10:	e0 91 d1 05 	lds	r30, 0x05D1
    3e14:	8e 2f       	mov	r24, r30
    3e16:	88 1f       	adc	r24, r24
    3e18:	88 27       	eor	r24, r24
    3e1a:	88 1f       	adc	r24, r24
    3e1c:	e0 91 d2 05 	lds	r30, 0x05D2
    3e20:	ef 73       	andi	r30, 0x3F	; 63
    3e22:	ee 0f       	add	r30, r30
    3e24:	e8 2b       	or	r30, r24
    3e26:	f0 e0       	ldi	r31, 0x00	; 0
    3e28:	e9 54       	subi	r30, 0x49	; 73
    3e2a:	fb 4f       	sbci	r31, 0xFB	; 251
    3e2c:	60 81       	ld	r22, Z
    3e2e:	86 2f       	mov	r24, r22
    3e30:	8f 70       	andi	r24, 0x0F	; 15
    3e32:	38 2f       	mov	r19, r24
    3e34:	33 0f       	add	r19, r19
    3e36:	9a 81       	ldd	r25, Y+2	; 0x02
    3e38:	90 7e       	andi	r25, 0xE0	; 224
    3e3a:	46 2f       	mov	r20, r22
    3e3c:	42 95       	swap	r20
    3e3e:	44 0f       	add	r20, r20
    3e40:	40 7e       	andi	r20, 0xE0	; 224
    3e42:	29 81       	ldd	r18, Y+1	; 0x01
    3e44:	2f 71       	andi	r18, 0x1F	; 31
    3e46:	24 2b       	or	r18, r20
    3e48:	29 83       	std	Y+1, r18	; 0x01
    3e4a:	28 2f       	mov	r18, r24
    3e4c:	26 95       	lsr	r18
    3e4e:	26 95       	lsr	r18
    3e50:	26 95       	lsr	r18
    3e52:	93 2b       	or	r25, r19
    3e54:	92 2b       	or	r25, r18
    3e56:	9a 83       	std	Y+2, r25	; 0x02
    3e58:	62 95       	swap	r22
    3e5a:	6f 70       	andi	r22, 0x0F	; 15
    3e5c:	e5 e8       	ldi	r30, 0x85	; 133
    3e5e:	f5 e0       	ldi	r31, 0x05	; 5
    3e60:	90 81       	ld	r25, Z
    3e62:	90 7f       	andi	r25, 0xF0	; 240
    3e64:	96 2b       	or	r25, r22
    3e66:	90 83       	st	Z, r25
    3e68:	90 91 fa 04 	lds	r25, 0x04FA
    3e6c:	95 ff       	sbrs	r25, 5
    3e6e:	06 c0       	rjmp	.+12     	; 0x3e7c <check_inst_switches+0x140>
    3e70:	e1 ee       	ldi	r30, 0xE1	; 225
    3e72:	f2 e0       	ldi	r31, 0x02	; 2
    3e74:	80 81       	ld	r24, Z
    3e76:	80 62       	ori	r24, 0x20	; 32
    3e78:	80 83       	st	Z, r24
    3e7a:	ae c0       	rjmp	.+348    	; 0x3fd8 <check_inst_switches+0x29c>
    3e7c:	0e 94 70 0f 	call	0x1ee0	; 0x1ee0 <read_next_pattern>
    3e80:	ab c0       	rjmp	.+342    	; 0x3fd8 <check_inst_switches+0x29c>
    3e82:	f9 01       	movw	r30, r18
    3e84:	ea 50       	subi	r30, 0x0A	; 10
    3e86:	fe 4f       	sbci	r31, 0xFE	; 254
    3e88:	80 81       	ld	r24, Z
    3e8a:	86 ff       	sbrs	r24, 6
    3e8c:	9f c0       	rjmp	.+318    	; 0x3fcc <check_inst_switches+0x290>
    3e8e:	e9 01       	movw	r28, r18
    3e90:	61 97       	sbiw	r28, 0x11	; 17
    3e92:	04 c0       	rjmp	.+8      	; 0x3e9c <check_inst_switches+0x160>
    3e94:	c0 e0       	ldi	r28, 0x00	; 0
    3e96:	d0 e0       	ldi	r29, 0x00	; 0
    3e98:	21 e1       	ldi	r18, 0x11	; 17
    3e9a:	30 e0       	ldi	r19, 0x00	; 0
    3e9c:	f9 01       	movw	r30, r18
    3e9e:	ea 50       	subi	r30, 0x0A	; 10
    3ea0:	fe 4f       	sbci	r31, 0xFE	; 254
    3ea2:	90 81       	ld	r25, Z
    3ea4:	9f 7b       	andi	r25, 0xBF	; 191
    3ea6:	90 83       	st	Z, r25
    3ea8:	90 91 f8 04 	lds	r25, 0x04F8
    3eac:	91 30       	cpi	r25, 0x01	; 1
    3eae:	08 f4       	brcc	.+2      	; 0x3eb2 <check_inst_switches+0x176>
    3eb0:	93 c0       	rjmp	.+294    	; 0x3fd8 <check_inst_switches+0x29c>
    3eb2:	93 30       	cpi	r25, 0x03	; 3
    3eb4:	18 f0       	brcs	.+6      	; 0x3ebc <check_inst_switches+0x180>
    3eb6:	96 30       	cpi	r25, 0x06	; 6
    3eb8:	28 f0       	brcs	.+10     	; 0x3ec4 <check_inst_switches+0x188>
    3eba:	8e c0       	rjmp	.+284    	; 0x3fd8 <check_inst_switches+0x29c>
    3ebc:	8c 2f       	mov	r24, r28
    3ebe:	0e 94 66 1e 	call	0x3ccc	; 0x3ccc <process_inst_press>
    3ec2:	8a c0       	rjmp	.+276    	; 0x3fd8 <check_inst_switches+0x29c>
    3ec4:	80 91 fa 04 	lds	r24, 0x04FA
    3ec8:	84 ff       	sbrs	r24, 4
    3eca:	04 c0       	rjmp	.+8      	; 0x3ed4 <check_inst_switches+0x198>
    3ecc:	8c 2f       	mov	r24, r28
    3ece:	0e 94 a8 1d 	call	0x3b50	; 0x3b50 <assign_mutes>
    3ed2:	82 c0       	rjmp	.+260    	; 0x3fd8 <check_inst_switches+0x29c>
    3ed4:	80 91 d2 05 	lds	r24, 0x05D2
    3ed8:	98 2f       	mov	r25, r24
    3eda:	92 95       	swap	r25
    3edc:	96 95       	lsr	r25
    3ede:	96 95       	lsr	r25
    3ee0:	93 70       	andi	r25, 0x03	; 3
    3ee2:	80 91 d3 05 	lds	r24, 0x05D3
    3ee6:	83 70       	andi	r24, 0x03	; 3
    3ee8:	88 0f       	add	r24, r24
    3eea:	88 0f       	add	r24, r24
    3eec:	89 2b       	or	r24, r25
    3eee:	90 e0       	ldi	r25, 0x00	; 0
    3ef0:	20 51       	subi	r18, 0x10	; 16
    3ef2:	31 09       	sbc	r19, r1
    3ef4:	82 17       	cp	r24, r18
    3ef6:	93 07       	cpc	r25, r19
    3ef8:	09 f4       	brne	.+2      	; 0x3efc <check_inst_switches+0x1c0>
    3efa:	6e c0       	rjmp	.+220    	; 0x3fd8 <check_inst_switches+0x29c>
    3efc:	21 e0       	ldi	r18, 0x01	; 1
    3efe:	20 93 e2 02 	sts	0x02E2, r18
    3f02:	0e ec       	ldi	r16, 0xCE	; 206
    3f04:	15 e0       	ldi	r17, 0x05	; 5
    3f06:	f8 01       	movw	r30, r16
    3f08:	23 81       	ldd	r18, Z+3	; 0x03
    3f0a:	2f 77       	andi	r18, 0x7F	; 127
    3f0c:	23 83       	std	Z+3, r18	; 0x03
    3f0e:	24 81       	ldd	r18, Z+4	; 0x04
    3f10:	20 7c       	andi	r18, 0xC0	; 192
    3f12:	24 83       	std	Z+4, r18	; 0x04
    3f14:	fc 01       	movw	r30, r24
    3f16:	e9 58       	subi	r30, 0x89	; 137
    3f18:	fe 4f       	sbci	r31, 0xFE	; 254
    3f1a:	80 81       	ld	r24, Z
    3f1c:	0e 94 ae 07 	call	0xf5c	; 0xf5c <turn_off>
    3f20:	cf 5f       	subi	r28, 0xFF	; 255
    3f22:	cf 70       	andi	r28, 0x0F	; 15
    3f24:	9c 2f       	mov	r25, r28
    3f26:	92 95       	swap	r25
    3f28:	99 0f       	add	r25, r25
    3f2a:	99 0f       	add	r25, r25
    3f2c:	90 7c       	andi	r25, 0xC0	; 192
    3f2e:	f8 01       	movw	r30, r16
    3f30:	84 81       	ldd	r24, Z+4	; 0x04
    3f32:	8f 73       	andi	r24, 0x3F	; 63
    3f34:	89 2b       	or	r24, r25
    3f36:	84 83       	std	Z+4, r24	; 0x04
    3f38:	9c 2f       	mov	r25, r28
    3f3a:	96 95       	lsr	r25
    3f3c:	96 95       	lsr	r25
    3f3e:	85 81       	ldd	r24, Z+5	; 0x05
    3f40:	8c 7f       	andi	r24, 0xFC	; 252
    3f42:	89 2b       	or	r24, r25
    3f44:	85 83       	std	Z+5, r24	; 0x05
    3f46:	ec 2f       	mov	r30, r28
    3f48:	f0 e0       	ldi	r31, 0x00	; 0
    3f4a:	e9 58       	subi	r30, 0x89	; 137
    3f4c:	fe 4f       	sbci	r31, 0xFE	; 254
    3f4e:	80 81       	ld	r24, Z
    3f50:	0e 94 93 07 	call	0xf26	; 0xf26 <turn_on>
    3f54:	0e 94 b6 19 	call	0x336c	; 0x336c <read_rhythm_track>
    3f58:	e0 91 d1 05 	lds	r30, 0x05D1
    3f5c:	8e 2f       	mov	r24, r30
    3f5e:	88 1f       	adc	r24, r24
    3f60:	88 27       	eor	r24, r24
    3f62:	88 1f       	adc	r24, r24
    3f64:	e0 91 d2 05 	lds	r30, 0x05D2
    3f68:	ef 73       	andi	r30, 0x3F	; 63
    3f6a:	ee 0f       	add	r30, r30
    3f6c:	e8 2b       	or	r30, r24
    3f6e:	f0 e0       	ldi	r31, 0x00	; 0
    3f70:	e9 54       	subi	r30, 0x49	; 73
    3f72:	fb 4f       	sbci	r31, 0xFB	; 251
    3f74:	60 81       	ld	r22, Z
    3f76:	86 2f       	mov	r24, r22
    3f78:	8f 70       	andi	r24, 0x0F	; 15
    3f7a:	38 2f       	mov	r19, r24
    3f7c:	33 0f       	add	r19, r19
    3f7e:	f8 01       	movw	r30, r16
    3f80:	92 81       	ldd	r25, Z+2	; 0x02
    3f82:	90 7e       	andi	r25, 0xE0	; 224
    3f84:	46 2f       	mov	r20, r22
    3f86:	42 95       	swap	r20
    3f88:	44 0f       	add	r20, r20
    3f8a:	40 7e       	andi	r20, 0xE0	; 224
    3f8c:	21 81       	ldd	r18, Z+1	; 0x01
    3f8e:	2f 71       	andi	r18, 0x1F	; 31
    3f90:	24 2b       	or	r18, r20
    3f92:	21 83       	std	Z+1, r18	; 0x01
    3f94:	28 2f       	mov	r18, r24
    3f96:	26 95       	lsr	r18
    3f98:	26 95       	lsr	r18
    3f9a:	26 95       	lsr	r18
    3f9c:	93 2b       	or	r25, r19
    3f9e:	92 2b       	or	r25, r18
    3fa0:	92 83       	std	Z+2, r25	; 0x02
    3fa2:	62 95       	swap	r22
    3fa4:	6f 70       	andi	r22, 0x0F	; 15
    3fa6:	e5 e8       	ldi	r30, 0x85	; 133
    3fa8:	f5 e0       	ldi	r31, 0x05	; 5
    3faa:	90 81       	ld	r25, Z
    3fac:	90 7f       	andi	r25, 0xF0	; 240
    3fae:	96 2b       	or	r25, r22
    3fb0:	90 83       	st	Z, r25
    3fb2:	90 91 fa 04 	lds	r25, 0x04FA
    3fb6:	95 ff       	sbrs	r25, 5
    3fb8:	06 c0       	rjmp	.+12     	; 0x3fc6 <check_inst_switches+0x28a>
    3fba:	e1 ee       	ldi	r30, 0xE1	; 225
    3fbc:	f2 e0       	ldi	r31, 0x02	; 2
    3fbe:	80 81       	ld	r24, Z
    3fc0:	80 62       	ori	r24, 0x20	; 32
    3fc2:	80 83       	st	Z, r24
    3fc4:	09 c0       	rjmp	.+18     	; 0x3fd8 <check_inst_switches+0x29c>
    3fc6:	0e 94 70 0f 	call	0x1ee0	; 0x1ee0 <read_next_pattern>
    3fca:	06 c0       	rjmp	.+12     	; 0x3fd8 <check_inst_switches+0x29c>
    3fcc:	2f 5f       	subi	r18, 0xFF	; 255
    3fce:	3f 4f       	sbci	r19, 0xFF	; 255
    3fd0:	2c 31       	cpi	r18, 0x1C	; 28
    3fd2:	31 05       	cpc	r19, r1
    3fd4:	09 f0       	breq	.+2      	; 0x3fd8 <check_inst_switches+0x29c>
    3fd6:	55 cf       	rjmp	.-342    	; 0x3e82 <check_inst_switches+0x146>
    3fd8:	df 91       	pop	r29
    3fda:	cf 91       	pop	r28
    3fdc:	1f 91       	pop	r17
    3fde:	0f 91       	pop	r16
    3fe0:	08 95       	ret

00003fe2 <TWI_init>:
    3fe2:	cf 92       	push	r12
    3fe4:	df 92       	push	r13
    3fe6:	ef 92       	push	r14
    3fe8:	ff 92       	push	r15
    3fea:	0f 93       	push	r16
    3fec:	1f 93       	push	r17
    3fee:	d0 92 eb 02 	sts	0x02EB, r13
    3ff2:	c0 92 ea 02 	sts	0x02EA, r12
    3ff6:	10 93 e6 02 	sts	0x02E6, r17
    3ffa:	00 93 e5 02 	sts	0x02E5, r16
    3ffe:	f0 92 4f 02 	sts	0x024F, r15
    4002:	e0 92 4e 02 	sts	0x024E, r14
    4006:	0e 94 47 25 	call	0x4a8e	; 0x4a8e <__divmodsi4>
    400a:	ba 01       	movw	r22, r20
    400c:	a9 01       	movw	r20, r18
    400e:	40 51       	subi	r20, 0x10	; 16
    4010:	51 09       	sbc	r21, r1
    4012:	61 09       	sbc	r22, r1
    4014:	71 09       	sbc	r23, r1
    4016:	db 01       	movw	r26, r22
    4018:	ca 01       	movw	r24, r20
    401a:	1a f4       	brpl	.+6      	; 0x4022 <TWI_init+0x40>
    401c:	01 96       	adiw	r24, 0x01	; 1
    401e:	a1 1d       	adc	r26, r1
    4020:	b1 1d       	adc	r27, r1
    4022:	b5 95       	asr	r27
    4024:	a7 95       	ror	r26
    4026:	97 95       	ror	r25
    4028:	87 95       	ror	r24
    402a:	80 93 b8 00 	sts	0x00B8, r24
    402e:	10 92 b9 00 	sts	0x00B9, r1
    4032:	10 92 f0 02 	sts	0x02F0, r1
    4036:	1f 91       	pop	r17
    4038:	0f 91       	pop	r16
    403a:	ff 90       	pop	r15
    403c:	ef 90       	pop	r14
    403e:	df 90       	pop	r13
    4040:	cf 90       	pop	r12
    4042:	08 95       	ret

00004044 <TWI_master_start_write>:
    4044:	91 e0       	ldi	r25, 0x01	; 1
    4046:	90 93 f0 02 	sts	0x02F0, r25
    404a:	20 91 4e 02 	lds	r18, 0x024E
    404e:	30 91 4f 02 	lds	r19, 0x024F
    4052:	26 17       	cp	r18, r22
    4054:	37 07       	cpc	r19, r23
    4056:	48 f4       	brcc	.+18     	; 0x406a <TWI_master_start_write+0x26>
    4058:	20 91 4e 02 	lds	r18, 0x024E
    405c:	30 91 4f 02 	lds	r19, 0x024F
    4060:	30 93 4d 02 	sts	0x024D, r19
    4064:	20 93 4c 02 	sts	0x024C, r18
    4068:	04 c0       	rjmp	.+8      	; 0x4072 <TWI_master_start_write+0x2e>
    406a:	70 93 4d 02 	sts	0x024D, r23
    406e:	60 93 4c 02 	sts	0x024C, r22
    4072:	91 e0       	ldi	r25, 0x01	; 1
    4074:	90 93 f1 02 	sts	0x02F1, r25
    4078:	90 93 dd 02 	sts	0x02DD, r25
    407c:	80 93 ec 02 	sts	0x02EC, r24
    4080:	85 ea       	ldi	r24, 0xA5	; 165
    4082:	80 93 bc 00 	sts	0x00BC, r24
    4086:	08 95       	ret

00004088 <TWI_master_start_write_then_read>:
    4088:	91 e0       	ldi	r25, 0x01	; 1
    408a:	90 93 f0 02 	sts	0x02F0, r25
    408e:	20 91 4e 02 	lds	r18, 0x024E
    4092:	30 91 4f 02 	lds	r19, 0x024F
    4096:	26 17       	cp	r18, r22
    4098:	37 07       	cpc	r19, r23
    409a:	48 f4       	brcc	.+18     	; 0x40ae <TWI_master_start_write_then_read+0x26>
    409c:	20 91 4e 02 	lds	r18, 0x024E
    40a0:	30 91 4f 02 	lds	r19, 0x024F
    40a4:	30 93 4d 02 	sts	0x024D, r19
    40a8:	20 93 4c 02 	sts	0x024C, r18
    40ac:	04 c0       	rjmp	.+8      	; 0x40b6 <TWI_master_start_write_then_read+0x2e>
    40ae:	70 93 4d 02 	sts	0x024D, r23
    40b2:	60 93 4c 02 	sts	0x024C, r22
    40b6:	20 91 4e 02 	lds	r18, 0x024E
    40ba:	30 91 4f 02 	lds	r19, 0x024F
    40be:	24 17       	cp	r18, r20
    40c0:	35 07       	cpc	r19, r21
    40c2:	48 f4       	brcc	.+18     	; 0x40d6 <TWI_master_start_write_then_read+0x4e>
    40c4:	20 91 4e 02 	lds	r18, 0x024E
    40c8:	30 91 4f 02 	lds	r19, 0x024F
    40cc:	30 93 e9 02 	sts	0x02E9, r19
    40d0:	20 93 e8 02 	sts	0x02E8, r18
    40d4:	04 c0       	rjmp	.+8      	; 0x40de <TWI_master_start_write_then_read+0x56>
    40d6:	50 93 e9 02 	sts	0x02E9, r21
    40da:	40 93 e8 02 	sts	0x02E8, r20
    40de:	93 e0       	ldi	r25, 0x03	; 3
    40e0:	90 93 f1 02 	sts	0x02F1, r25
    40e4:	91 e0       	ldi	r25, 0x01	; 1
    40e6:	90 93 dd 02 	sts	0x02DD, r25
    40ea:	80 93 ec 02 	sts	0x02EC, r24
    40ee:	85 ea       	ldi	r24, 0xA5	; 165
    40f0:	80 93 bc 00 	sts	0x00BC, r24
    40f4:	08 95       	ret

000040f6 <__vector_24>:
    40f6:	1f 92       	push	r1
    40f8:	0f 92       	push	r0
    40fa:	0f b6       	in	r0, 0x3f	; 63
    40fc:	0f 92       	push	r0
    40fe:	11 24       	eor	r1, r1
    4100:	2f 93       	push	r18
    4102:	3f 93       	push	r19
    4104:	4f 93       	push	r20
    4106:	5f 93       	push	r21
    4108:	6f 93       	push	r22
    410a:	7f 93       	push	r23
    410c:	8f 93       	push	r24
    410e:	9f 93       	push	r25
    4110:	af 93       	push	r26
    4112:	bf 93       	push	r27
    4114:	ef 93       	push	r30
    4116:	ff 93       	push	r31
    4118:	80 91 b9 00 	lds	r24, 0x00B9
    411c:	88 7f       	andi	r24, 0xF8	; 248
    411e:	80 93 e0 02 	sts	0x02E0, r24
    4122:	e0 91 e0 02 	lds	r30, 0x02E0
    4126:	8e 2f       	mov	r24, r30
    4128:	90 e0       	ldi	r25, 0x00	; 0
    412a:	fc 01       	movw	r30, r24
    412c:	38 97       	sbiw	r30, 0x08	; 8
    412e:	e1 3c       	cpi	r30, 0xC1	; 193
    4130:	f1 05       	cpc	r31, r1
    4132:	08 f0       	brcs	.+2      	; 0x4136 <__vector_24+0x40>
    4134:	25 c1       	rjmp	.+586    	; 0x4380 <__vector_24+0x28a>
    4136:	e6 5a       	subi	r30, 0xA6	; 166
    4138:	ff 4f       	sbci	r31, 0xFF	; 255
    413a:	0c 94 66 25 	jmp	0x4acc	; 0x4acc <__tablejump2__>
    413e:	80 91 dd 02 	lds	r24, 0x02DD
    4142:	81 30       	cpi	r24, 0x01	; 1
    4144:	19 f0       	breq	.+6      	; 0x414c <__vector_24+0x56>
    4146:	82 30       	cpi	r24, 0x02	; 2
    4148:	59 f0       	breq	.+22     	; 0x4160 <__vector_24+0x6a>
    414a:	14 c0       	rjmp	.+40     	; 0x4174 <__vector_24+0x7e>
    414c:	10 92 f9 02 	sts	0x02F9, r1
    4150:	10 92 f8 02 	sts	0x02F8, r1
    4154:	80 91 ec 02 	lds	r24, 0x02EC
    4158:	88 0f       	add	r24, r24
    415a:	80 93 bb 00 	sts	0x00BB, r24
    415e:	0a c0       	rjmp	.+20     	; 0x4174 <__vector_24+0x7e>
    4160:	10 92 f9 02 	sts	0x02F9, r1
    4164:	10 92 f8 02 	sts	0x02F8, r1
    4168:	80 91 ec 02 	lds	r24, 0x02EC
    416c:	88 0f       	add	r24, r24
    416e:	81 60       	ori	r24, 0x01	; 1
    4170:	80 93 bb 00 	sts	0x00BB, r24
    4174:	85 ec       	ldi	r24, 0xC5	; 197
    4176:	80 93 bc 00 	sts	0x00BC, r24
    417a:	0d c1       	rjmp	.+538    	; 0x4396 <__vector_24+0x2a0>
    417c:	20 91 f8 02 	lds	r18, 0x02F8
    4180:	30 91 f9 02 	lds	r19, 0x02F9
    4184:	80 91 4c 02 	lds	r24, 0x024C
    4188:	90 91 4d 02 	lds	r25, 0x024D
    418c:	28 17       	cp	r18, r24
    418e:	39 07       	cpc	r19, r25
    4190:	f1 f4       	brne	.+60     	; 0x41ce <__vector_24+0xd8>
    4192:	80 91 f1 02 	lds	r24, 0x02F1
    4196:	83 30       	cpi	r24, 0x03	; 3
    4198:	39 f4       	brne	.+14     	; 0x41a8 <__vector_24+0xb2>
    419a:	82 e0       	ldi	r24, 0x02	; 2
    419c:	80 93 dd 02 	sts	0x02DD, r24
    41a0:	85 ea       	ldi	r24, 0xA5	; 165
    41a2:	80 93 bc 00 	sts	0x00BC, r24
    41a6:	f7 c0       	rjmp	.+494    	; 0x4396 <__vector_24+0x2a0>
    41a8:	e0 91 ea 02 	lds	r30, 0x02EA
    41ac:	f0 91 eb 02 	lds	r31, 0x02EB
    41b0:	30 97       	sbiw	r30, 0x00	; 0
    41b2:	11 f0       	breq	.+4      	; 0x41b8 <__vector_24+0xc2>
    41b4:	80 e0       	ldi	r24, 0x00	; 0
    41b6:	09 95       	icall
    41b8:	85 e9       	ldi	r24, 0x95	; 149
    41ba:	80 93 bc 00 	sts	0x00BC, r24
    41be:	ec eb       	ldi	r30, 0xBC	; 188
    41c0:	f0 e0       	ldi	r31, 0x00	; 0
    41c2:	80 81       	ld	r24, Z
    41c4:	84 fd       	sbrc	r24, 4
    41c6:	fd cf       	rjmp	.-6      	; 0x41c2 <__vector_24+0xcc>
    41c8:	10 92 f0 02 	sts	0x02F0, r1
    41cc:	e4 c0       	rjmp	.+456    	; 0x4396 <__vector_24+0x2a0>
    41ce:	20 91 e5 02 	lds	r18, 0x02E5
    41d2:	30 91 e6 02 	lds	r19, 0x02E6
    41d6:	80 91 f8 02 	lds	r24, 0x02F8
    41da:	90 91 f9 02 	lds	r25, 0x02F9
    41de:	ac 01       	movw	r20, r24
    41e0:	4f 5f       	subi	r20, 0xFF	; 255
    41e2:	5f 4f       	sbci	r21, 0xFF	; 255
    41e4:	50 93 f9 02 	sts	0x02F9, r21
    41e8:	40 93 f8 02 	sts	0x02F8, r20
    41ec:	f9 01       	movw	r30, r18
    41ee:	e8 0f       	add	r30, r24
    41f0:	f9 1f       	adc	r31, r25
    41f2:	80 81       	ld	r24, Z
    41f4:	80 93 bb 00 	sts	0x00BB, r24
    41f8:	85 e8       	ldi	r24, 0x85	; 133
    41fa:	80 93 bc 00 	sts	0x00BC, r24
    41fe:	cb c0       	rjmp	.+406    	; 0x4396 <__vector_24+0x2a0>
    4200:	20 91 e5 02 	lds	r18, 0x02E5
    4204:	30 91 e6 02 	lds	r19, 0x02E6
    4208:	80 91 f8 02 	lds	r24, 0x02F8
    420c:	90 91 f9 02 	lds	r25, 0x02F9
    4210:	ac 01       	movw	r20, r24
    4212:	4f 5f       	subi	r20, 0xFF	; 255
    4214:	5f 4f       	sbci	r21, 0xFF	; 255
    4216:	50 93 f9 02 	sts	0x02F9, r21
    421a:	40 93 f8 02 	sts	0x02F8, r20
    421e:	f9 01       	movw	r30, r18
    4220:	e8 0f       	add	r30, r24
    4222:	f9 1f       	adc	r31, r25
    4224:	20 91 bb 00 	lds	r18, 0x00BB
    4228:	20 83       	st	Z, r18
    422a:	80 91 e8 02 	lds	r24, 0x02E8
    422e:	90 91 e9 02 	lds	r25, 0x02E9
    4232:	20 91 f8 02 	lds	r18, 0x02F8
    4236:	30 91 f9 02 	lds	r19, 0x02F9
    423a:	01 97       	sbiw	r24, 0x01	; 1
    423c:	82 17       	cp	r24, r18
    423e:	93 07       	cpc	r25, r19
    4240:	21 f4       	brne	.+8      	; 0x424a <__vector_24+0x154>
    4242:	85 e8       	ldi	r24, 0x85	; 133
    4244:	80 93 bc 00 	sts	0x00BC, r24
    4248:	a6 c0       	rjmp	.+332    	; 0x4396 <__vector_24+0x2a0>
    424a:	85 ec       	ldi	r24, 0xC5	; 197
    424c:	80 93 bc 00 	sts	0x00BC, r24
    4250:	a2 c0       	rjmp	.+324    	; 0x4396 <__vector_24+0x2a0>
    4252:	20 91 e5 02 	lds	r18, 0x02E5
    4256:	30 91 e6 02 	lds	r19, 0x02E6
    425a:	80 91 f8 02 	lds	r24, 0x02F8
    425e:	90 91 f9 02 	lds	r25, 0x02F9
    4262:	ac 01       	movw	r20, r24
    4264:	4f 5f       	subi	r20, 0xFF	; 255
    4266:	5f 4f       	sbci	r21, 0xFF	; 255
    4268:	50 93 f9 02 	sts	0x02F9, r21
    426c:	40 93 f8 02 	sts	0x02F8, r20
    4270:	f9 01       	movw	r30, r18
    4272:	e8 0f       	add	r30, r24
    4274:	f9 1f       	adc	r31, r25
    4276:	20 91 bb 00 	lds	r18, 0x00BB
    427a:	20 83       	st	Z, r18
    427c:	e0 91 ea 02 	lds	r30, 0x02EA
    4280:	f0 91 eb 02 	lds	r31, 0x02EB
    4284:	30 97       	sbiw	r30, 0x00	; 0
    4286:	11 f0       	breq	.+4      	; 0x428c <__vector_24+0x196>
    4288:	80 e0       	ldi	r24, 0x00	; 0
    428a:	09 95       	icall
    428c:	85 e9       	ldi	r24, 0x95	; 149
    428e:	80 93 bc 00 	sts	0x00BC, r24
    4292:	ec eb       	ldi	r30, 0xBC	; 188
    4294:	f0 e0       	ldi	r31, 0x00	; 0
    4296:	80 81       	ld	r24, Z
    4298:	84 fd       	sbrc	r24, 4
    429a:	fd cf       	rjmp	.-6      	; 0x4296 <__vector_24+0x1a0>
    429c:	10 92 f0 02 	sts	0x02F0, r1
    42a0:	7a c0       	rjmp	.+244    	; 0x4396 <__vector_24+0x2a0>
    42a2:	10 92 f9 02 	sts	0x02F9, r1
    42a6:	10 92 f8 02 	sts	0x02F8, r1
    42aa:	85 ec       	ldi	r24, 0xC5	; 197
    42ac:	80 93 bc 00 	sts	0x00BC, r24
    42b0:	72 c0       	rjmp	.+228    	; 0x4396 <__vector_24+0x2a0>
    42b2:	20 91 f8 02 	lds	r18, 0x02F8
    42b6:	30 91 f9 02 	lds	r19, 0x02F9
    42ba:	80 91 4e 02 	lds	r24, 0x024E
    42be:	90 91 4f 02 	lds	r25, 0x024F
    42c2:	28 17       	cp	r18, r24
    42c4:	39 07       	cpc	r19, r25
    42c6:	a8 f4       	brcc	.+42     	; 0x42f2 <__vector_24+0x1fc>
    42c8:	20 91 e5 02 	lds	r18, 0x02E5
    42cc:	30 91 e6 02 	lds	r19, 0x02E6
    42d0:	80 91 f8 02 	lds	r24, 0x02F8
    42d4:	90 91 f9 02 	lds	r25, 0x02F9
    42d8:	ac 01       	movw	r20, r24
    42da:	4f 5f       	subi	r20, 0xFF	; 255
    42dc:	5f 4f       	sbci	r21, 0xFF	; 255
    42de:	50 93 f9 02 	sts	0x02F9, r21
    42e2:	40 93 f8 02 	sts	0x02F8, r20
    42e6:	f9 01       	movw	r30, r18
    42e8:	e8 0f       	add	r30, r24
    42ea:	f9 1f       	adc	r31, r25
    42ec:	20 91 bb 00 	lds	r18, 0x00BB
    42f0:	20 83       	st	Z, r18
    42f2:	85 ec       	ldi	r24, 0xC5	; 197
    42f4:	80 93 bc 00 	sts	0x00BC, r24
    42f8:	4e c0       	rjmp	.+156    	; 0x4396 <__vector_24+0x2a0>
    42fa:	80 91 f8 02 	lds	r24, 0x02F8
    42fe:	90 91 f9 02 	lds	r25, 0x02F9
    4302:	80 93 ed 02 	sts	0x02ED, r24
    4306:	e0 91 ea 02 	lds	r30, 0x02EA
    430a:	f0 91 eb 02 	lds	r31, 0x02EB
    430e:	30 97       	sbiw	r30, 0x00	; 0
    4310:	11 f0       	breq	.+4      	; 0x4316 <__vector_24+0x220>
    4312:	80 e0       	ldi	r24, 0x00	; 0
    4314:	09 95       	icall
    4316:	85 ec       	ldi	r24, 0xC5	; 197
    4318:	80 93 bc 00 	sts	0x00BC, r24
    431c:	3c c0       	rjmp	.+120    	; 0x4396 <__vector_24+0x2a0>
    431e:	10 92 f9 02 	sts	0x02F9, r1
    4322:	10 92 f8 02 	sts	0x02F8, r1
    4326:	20 91 f8 02 	lds	r18, 0x02F8
    432a:	30 91 f9 02 	lds	r19, 0x02F9
    432e:	80 91 4e 02 	lds	r24, 0x024E
    4332:	90 91 4f 02 	lds	r25, 0x024F
    4336:	28 17       	cp	r18, r24
    4338:	39 07       	cpc	r19, r25
    433a:	a8 f4       	brcc	.+42     	; 0x4366 <__vector_24+0x270>
    433c:	20 91 e5 02 	lds	r18, 0x02E5
    4340:	30 91 e6 02 	lds	r19, 0x02E6
    4344:	80 91 f8 02 	lds	r24, 0x02F8
    4348:	90 91 f9 02 	lds	r25, 0x02F9
    434c:	ac 01       	movw	r20, r24
    434e:	4f 5f       	subi	r20, 0xFF	; 255
    4350:	5f 4f       	sbci	r21, 0xFF	; 255
    4352:	50 93 f9 02 	sts	0x02F9, r21
    4356:	40 93 f8 02 	sts	0x02F8, r20
    435a:	f9 01       	movw	r30, r18
    435c:	e8 0f       	add	r30, r24
    435e:	f9 1f       	adc	r31, r25
    4360:	80 81       	ld	r24, Z
    4362:	80 93 bb 00 	sts	0x00BB, r24
    4366:	85 ec       	ldi	r24, 0xC5	; 197
    4368:	80 93 bc 00 	sts	0x00BC, r24
    436c:	14 c0       	rjmp	.+40     	; 0x4396 <__vector_24+0x2a0>
    436e:	e0 91 ea 02 	lds	r30, 0x02EA
    4372:	f0 91 eb 02 	lds	r31, 0x02EB
    4376:	30 97       	sbiw	r30, 0x00	; 0
    4378:	19 f0       	breq	.+6      	; 0x4380 <__vector_24+0x28a>
    437a:	80 91 e0 02 	lds	r24, 0x02E0
    437e:	09 95       	icall
    4380:	85 e9       	ldi	r24, 0x95	; 149
    4382:	80 93 bc 00 	sts	0x00BC, r24
    4386:	ec eb       	ldi	r30, 0xBC	; 188
    4388:	f0 e0       	ldi	r31, 0x00	; 0
    438a:	80 81       	ld	r24, Z
    438c:	84 fd       	sbrc	r24, 4
    438e:	fd cf       	rjmp	.-6      	; 0x438a <__vector_24+0x294>
    4390:	85 ea       	ldi	r24, 0xA5	; 165
    4392:	80 93 bc 00 	sts	0x00BC, r24
    4396:	ff 91       	pop	r31
    4398:	ef 91       	pop	r30
    439a:	bf 91       	pop	r27
    439c:	af 91       	pop	r26
    439e:	9f 91       	pop	r25
    43a0:	8f 91       	pop	r24
    43a2:	7f 91       	pop	r23
    43a4:	6f 91       	pop	r22
    43a6:	5f 91       	pop	r21
    43a8:	4f 91       	pop	r20
    43aa:	3f 91       	pop	r19
    43ac:	2f 91       	pop	r18
    43ae:	0f 90       	pop	r0
    43b0:	0f be       	out	0x3f, r0	; 63
    43b2:	0f 90       	pop	r0
    43b4:	1f 90       	pop	r1
    43b6:	18 95       	reti

000043b8 <bytequeue_init>:
    43b8:	fc 01       	movw	r30, r24
    43ba:	42 83       	std	Z+2, r20	; 0x02
    43bc:	74 83       	std	Z+4, r23	; 0x04
    43be:	63 83       	std	Z+3, r22	; 0x03
    43c0:	11 82       	std	Z+1, r1	; 0x01
    43c2:	10 82       	st	Z, r1
    43c4:	08 95       	ret

000043c6 <bytequeue_enqueue>:
    43c6:	ff 92       	push	r15
    43c8:	0f 93       	push	r16
    43ca:	1f 93       	push	r17
    43cc:	cf 93       	push	r28
    43ce:	df 93       	push	r29
    43d0:	ec 01       	movw	r28, r24
    43d2:	06 2f       	mov	r16, r22
    43d4:	0e 94 5c 22 	call	0x44b8	; 0x44b8 <store_and_clear_interrupt>
    43d8:	18 2f       	mov	r17, r24
    43da:	f9 80       	ldd	r15, Y+1	; 0x01
    43dc:	4f 2d       	mov	r20, r15
    43de:	50 e0       	ldi	r21, 0x00	; 0
    43e0:	ca 01       	movw	r24, r20
    43e2:	01 96       	adiw	r24, 0x01	; 1
    43e4:	2a 81       	ldd	r18, Y+2	; 0x02
    43e6:	62 2f       	mov	r22, r18
    43e8:	70 e0       	ldi	r23, 0x00	; 0
    43ea:	0e 94 33 25 	call	0x4a66	; 0x4a66 <__divmodhi4>
    43ee:	28 81       	ld	r18, Y
    43f0:	30 e0       	ldi	r19, 0x00	; 0
    43f2:	82 17       	cp	r24, r18
    43f4:	93 07       	cpc	r25, r19
    43f6:	29 f4       	brne	.+10     	; 0x4402 <bytequeue_enqueue+0x3c>
    43f8:	81 2f       	mov	r24, r17
    43fa:	0e 94 5f 22 	call	0x44be	; 0x44be <restore_interrupt_setting>
    43fe:	80 e0       	ldi	r24, 0x00	; 0
    4400:	12 c0       	rjmp	.+36     	; 0x4426 <bytequeue_enqueue+0x60>
    4402:	eb 81       	ldd	r30, Y+3	; 0x03
    4404:	fc 81       	ldd	r31, Y+4	; 0x04
    4406:	ef 0d       	add	r30, r15
    4408:	f1 1d       	adc	r31, r1
    440a:	00 83       	st	Z, r16
    440c:	29 81       	ldd	r18, Y+1	; 0x01
    440e:	30 e0       	ldi	r19, 0x00	; 0
    4410:	c9 01       	movw	r24, r18
    4412:	01 96       	adiw	r24, 0x01	; 1
    4414:	6a 81       	ldd	r22, Y+2	; 0x02
    4416:	70 e0       	ldi	r23, 0x00	; 0
    4418:	0e 94 33 25 	call	0x4a66	; 0x4a66 <__divmodhi4>
    441c:	89 83       	std	Y+1, r24	; 0x01
    441e:	81 2f       	mov	r24, r17
    4420:	0e 94 5f 22 	call	0x44be	; 0x44be <restore_interrupt_setting>
    4424:	81 e0       	ldi	r24, 0x01	; 1
    4426:	df 91       	pop	r29
    4428:	cf 91       	pop	r28
    442a:	1f 91       	pop	r17
    442c:	0f 91       	pop	r16
    442e:	ff 90       	pop	r15
    4430:	08 95       	ret

00004432 <bytequeue_length>:
    4432:	cf 93       	push	r28
    4434:	df 93       	push	r29
    4436:	ec 01       	movw	r28, r24
    4438:	0e 94 5c 22 	call	0x44b8	; 0x44b8 <store_and_clear_interrupt>
    443c:	39 81       	ldd	r19, Y+1	; 0x01
    443e:	28 81       	ld	r18, Y
    4440:	32 17       	cp	r19, r18
    4442:	18 f0       	brcs	.+6      	; 0x444a <bytequeue_length+0x18>
    4444:	c3 2f       	mov	r28, r19
    4446:	c2 1b       	sub	r28, r18
    4448:	04 c0       	rjmp	.+8      	; 0x4452 <bytequeue_length+0x20>
    444a:	9a 81       	ldd	r25, Y+2	; 0x02
    444c:	c3 2f       	mov	r28, r19
    444e:	c9 0f       	add	r28, r25
    4450:	c2 1b       	sub	r28, r18
    4452:	0e 94 5f 22 	call	0x44be	; 0x44be <restore_interrupt_setting>
    4456:	8c 2f       	mov	r24, r28
    4458:	df 91       	pop	r29
    445a:	cf 91       	pop	r28
    445c:	08 95       	ret

0000445e <bytequeue_get>:
    445e:	fc 01       	movw	r30, r24
    4460:	80 81       	ld	r24, Z
    4462:	70 e0       	ldi	r23, 0x00	; 0
    4464:	9b 01       	movw	r18, r22
    4466:	28 0f       	add	r18, r24
    4468:	31 1d       	adc	r19, r1
    446a:	c9 01       	movw	r24, r18
    446c:	62 81       	ldd	r22, Z+2	; 0x02
    446e:	70 e0       	ldi	r23, 0x00	; 0
    4470:	0e 94 33 25 	call	0x4a66	; 0x4a66 <__divmodhi4>
    4474:	03 80       	ldd	r0, Z+3	; 0x03
    4476:	f4 81       	ldd	r31, Z+4	; 0x04
    4478:	e0 2d       	mov	r30, r0
    447a:	e8 0f       	add	r30, r24
    447c:	f9 1f       	adc	r31, r25
    447e:	80 81       	ld	r24, Z
    4480:	08 95       	ret

00004482 <bytequeue_remove>:
    4482:	1f 93       	push	r17
    4484:	cf 93       	push	r28
    4486:	df 93       	push	r29
    4488:	ec 01       	movw	r28, r24
    448a:	16 2f       	mov	r17, r22
    448c:	0e 94 5c 22 	call	0x44b8	; 0x44b8 <store_and_clear_interrupt>
    4490:	48 2f       	mov	r20, r24
    4492:	88 81       	ld	r24, Y
    4494:	21 2f       	mov	r18, r17
    4496:	30 e0       	ldi	r19, 0x00	; 0
    4498:	b9 01       	movw	r22, r18
    449a:	68 0f       	add	r22, r24
    449c:	71 1d       	adc	r23, r1
    449e:	cb 01       	movw	r24, r22
    44a0:	6a 81       	ldd	r22, Y+2	; 0x02
    44a2:	70 e0       	ldi	r23, 0x00	; 0
    44a4:	0e 94 33 25 	call	0x4a66	; 0x4a66 <__divmodhi4>
    44a8:	88 83       	st	Y, r24
    44aa:	84 2f       	mov	r24, r20
    44ac:	0e 94 5f 22 	call	0x44be	; 0x44be <restore_interrupt_setting>
    44b0:	df 91       	pop	r29
    44b2:	cf 91       	pop	r28
    44b4:	1f 91       	pop	r17
    44b6:	08 95       	ret

000044b8 <store_and_clear_interrupt>:
    44b8:	8f b7       	in	r24, 0x3f	; 63
    44ba:	f8 94       	cli
    44bc:	08 95       	ret

000044be <restore_interrupt_setting>:
    44be:	8f bf       	out	0x3f, r24	; 63
    44c0:	08 95       	ret

000044c2 <midi_is_statusbyte>:
    44c2:	88 1f       	adc	r24, r24
    44c4:	88 27       	eor	r24, r24
    44c6:	88 1f       	adc	r24, r24
    44c8:	08 95       	ret

000044ca <midi_is_realtime>:
    44ca:	91 e0       	ldi	r25, 0x01	; 1
    44cc:	88 3f       	cpi	r24, 0xF8	; 248
    44ce:	08 f4       	brcc	.+2      	; 0x44d2 <midi_is_realtime+0x8>
    44d0:	90 e0       	ldi	r25, 0x00	; 0
    44d2:	89 2f       	mov	r24, r25
    44d4:	08 95       	ret

000044d6 <midi_packet_length>:
    44d6:	98 2f       	mov	r25, r24
    44d8:	90 7f       	andi	r25, 0xF0	; 240
    44da:	90 3c       	cpi	r25, 0xC0	; 192
    44dc:	b1 f0       	breq	.+44     	; 0x450a <midi_packet_length+0x34>
    44de:	58 f4       	brcc	.+22     	; 0x44f6 <midi_packet_length+0x20>
    44e0:	90 39       	cpi	r25, 0x90	; 144
    44e2:	41 f1       	breq	.+80     	; 0x4534 <midi_packet_length+0x5e>
    44e4:	18 f4       	brcc	.+6      	; 0x44ec <midi_packet_length+0x16>
    44e6:	90 38       	cpi	r25, 0x80	; 128
    44e8:	19 f5       	brne	.+70     	; 0x4530 <midi_packet_length+0x5a>
    44ea:	24 c0       	rjmp	.+72     	; 0x4534 <midi_packet_length+0x5e>
    44ec:	90 3a       	cpi	r25, 0xA0	; 160
    44ee:	11 f1       	breq	.+68     	; 0x4534 <midi_packet_length+0x5e>
    44f0:	90 3b       	cpi	r25, 0xB0	; 176
    44f2:	f1 f4       	brne	.+60     	; 0x4530 <midi_packet_length+0x5a>
    44f4:	1f c0       	rjmp	.+62     	; 0x4534 <midi_packet_length+0x5e>
    44f6:	90 3e       	cpi	r25, 0xE0	; 224
    44f8:	e9 f0       	breq	.+58     	; 0x4534 <midi_packet_length+0x5e>
    44fa:	18 f4       	brcc	.+6      	; 0x4502 <midi_packet_length+0x2c>
    44fc:	90 3d       	cpi	r25, 0xD0	; 208
    44fe:	29 f0       	breq	.+10     	; 0x450a <midi_packet_length+0x34>
    4500:	17 c0       	rjmp	.+46     	; 0x4530 <midi_packet_length+0x5a>
    4502:	90 3f       	cpi	r25, 0xF0	; 240
    4504:	21 f0       	breq	.+8      	; 0x450e <midi_packet_length+0x38>
    4506:	93 3f       	cpi	r25, 0xF3	; 243
    4508:	99 f4       	brne	.+38     	; 0x4530 <midi_packet_length+0x5a>
    450a:	82 e0       	ldi	r24, 0x02	; 2
    450c:	08 95       	ret
    450e:	90 e0       	ldi	r25, 0x00	; 0
    4510:	fc 01       	movw	r30, r24
    4512:	e1 5f       	subi	r30, 0xF1	; 241
    4514:	f1 09       	sbc	r31, r1
    4516:	ef 30       	cpi	r30, 0x0F	; 15
    4518:	f1 05       	cpc	r31, r1
    451a:	40 f4       	brcc	.+16     	; 0x452c <midi_packet_length+0x56>
    451c:	e5 5e       	subi	r30, 0xE5	; 229
    451e:	fe 4f       	sbci	r31, 0xFE	; 254
    4520:	0c 94 66 25 	jmp	0x4acc	; 0x4acc <__tablejump2__>
    4524:	83 e0       	ldi	r24, 0x03	; 3
    4526:	08 95       	ret
    4528:	82 e0       	ldi	r24, 0x02	; 2
    452a:	08 95       	ret
    452c:	80 e0       	ldi	r24, 0x00	; 0
    452e:	08 95       	ret
    4530:	80 e0       	ldi	r24, 0x00	; 0
    4532:	08 95       	ret
    4534:	83 e0       	ldi	r24, 0x03	; 3
    4536:	08 95       	ret
    4538:	81 e0       	ldi	r24, 0x01	; 1
    453a:	08 95       	ret

0000453c <midi_send_clock>:
    453c:	0f 93       	push	r16
    453e:	dc 01       	movw	r26, r24
    4540:	ed 91       	ld	r30, X+
    4542:	fc 91       	ld	r31, X
    4544:	00 e0       	ldi	r16, 0x00	; 0
    4546:	20 e0       	ldi	r18, 0x00	; 0
    4548:	48 ef       	ldi	r20, 0xF8	; 248
    454a:	61 e0       	ldi	r22, 0x01	; 1
    454c:	70 e0       	ldi	r23, 0x00	; 0
    454e:	09 95       	icall
    4550:	0f 91       	pop	r16
    4552:	08 95       	ret

00004554 <midi_send_start>:
    4554:	0f 93       	push	r16
    4556:	dc 01       	movw	r26, r24
    4558:	ed 91       	ld	r30, X+
    455a:	fc 91       	ld	r31, X
    455c:	00 e0       	ldi	r16, 0x00	; 0
    455e:	20 e0       	ldi	r18, 0x00	; 0
    4560:	4a ef       	ldi	r20, 0xFA	; 250
    4562:	61 e0       	ldi	r22, 0x01	; 1
    4564:	70 e0       	ldi	r23, 0x00	; 0
    4566:	09 95       	icall
    4568:	0f 91       	pop	r16
    456a:	08 95       	ret

0000456c <midi_send_stop>:
    456c:	0f 93       	push	r16
    456e:	dc 01       	movw	r26, r24
    4570:	ed 91       	ld	r30, X+
    4572:	fc 91       	ld	r31, X
    4574:	00 e0       	ldi	r16, 0x00	; 0
    4576:	20 e0       	ldi	r18, 0x00	; 0
    4578:	4c ef       	ldi	r20, 0xFC	; 252
    457a:	61 e0       	ldi	r22, 0x01	; 1
    457c:	70 e0       	ldi	r23, 0x00	; 0
    457e:	09 95       	icall
    4580:	0f 91       	pop	r16
    4582:	08 95       	ret

00004584 <midi_register_noteon_callback>:
    4584:	fc 01       	movw	r30, r24
    4586:	75 83       	std	Z+5, r23	; 0x05
    4588:	64 83       	std	Z+4, r22	; 0x04
    458a:	08 95       	ret

0000458c <midi_register_noteoff_callback>:
    458c:	fc 01       	movw	r30, r24
    458e:	77 83       	std	Z+7, r23	; 0x07
    4590:	66 83       	std	Z+6, r22	; 0x06
    4592:	08 95       	ret

00004594 <midi_register_realtime_callback>:
    4594:	fc 01       	movw	r30, r24
    4596:	77 8b       	std	Z+23, r23	; 0x17
    4598:	66 8b       	std	Z+22, r22	; 0x16
    459a:	08 95       	ret

0000459c <midi_device_init>:
    459c:	cf 93       	push	r28
    459e:	df 93       	push	r29
    45a0:	ec 01       	movw	r28, r24
    45a2:	1d a2       	std	Y+37, r1	; 0x25
    45a4:	1f a2       	std	Y+39, r1	; 0x27
    45a6:	1e a2       	std	Y+38, r1	; 0x26
    45a8:	bc 01       	movw	r22, r24
    45aa:	68 5d       	subi	r22, 0xD8	; 216
    45ac:	7f 4f       	sbci	r23, 0xFF	; 255
    45ae:	40 ec       	ldi	r20, 0xC0	; 192
    45b0:	88 51       	subi	r24, 0x18	; 24
    45b2:	9f 4f       	sbci	r25, 0xFF	; 255
    45b4:	0e 94 dc 21 	call	0x43b8	; 0x43b8 <bytequeue_init>
    45b8:	1b 82       	std	Y+3, r1	; 0x03
    45ba:	1a 82       	std	Y+2, r1	; 0x02
    45bc:	1d 82       	std	Y+5, r1	; 0x05
    45be:	1c 82       	std	Y+4, r1	; 0x04
    45c0:	1f 82       	std	Y+7, r1	; 0x07
    45c2:	1e 82       	std	Y+6, r1	; 0x06
    45c4:	19 86       	std	Y+9, r1	; 0x09
    45c6:	18 86       	std	Y+8, r1	; 0x08
    45c8:	1b 86       	std	Y+11, r1	; 0x0b
    45ca:	1a 86       	std	Y+10, r1	; 0x0a
    45cc:	1d 86       	std	Y+13, r1	; 0x0d
    45ce:	1c 86       	std	Y+12, r1	; 0x0c
    45d0:	1f 86       	std	Y+15, r1	; 0x0f
    45d2:	1e 86       	std	Y+14, r1	; 0x0e
    45d4:	19 8a       	std	Y+17, r1	; 0x11
    45d6:	18 8a       	std	Y+16, r1	; 0x10
    45d8:	1b 8a       	std	Y+19, r1	; 0x13
    45da:	1a 8a       	std	Y+18, r1	; 0x12
    45dc:	1d 8a       	std	Y+21, r1	; 0x15
    45de:	1c 8a       	std	Y+20, r1	; 0x14
    45e0:	1f 8a       	std	Y+23, r1	; 0x17
    45e2:	1e 8a       	std	Y+22, r1	; 0x16
    45e4:	19 8e       	std	Y+25, r1	; 0x19
    45e6:	18 8e       	std	Y+24, r1	; 0x18
    45e8:	1b 8e       	std	Y+27, r1	; 0x1b
    45ea:	1a 8e       	std	Y+26, r1	; 0x1a
    45ec:	1d 8e       	std	Y+29, r1	; 0x1d
    45ee:	1c 8e       	std	Y+28, r1	; 0x1c
    45f0:	1f 8e       	std	Y+31, r1	; 0x1f
    45f2:	1e 8e       	std	Y+30, r1	; 0x1e
    45f4:	19 a2       	std	Y+33, r1	; 0x21
    45f6:	18 a2       	std	Y+32, r1	; 0x20
    45f8:	df 91       	pop	r29
    45fa:	cf 91       	pop	r28
    45fc:	08 95       	ret

000045fe <midi_device_input>:
    45fe:	ef 92       	push	r14
    4600:	ff 92       	push	r15
    4602:	0f 93       	push	r16
    4604:	1f 93       	push	r17
    4606:	cf 93       	push	r28
    4608:	df 93       	push	r29
    460a:	66 23       	and	r22, r22
    460c:	99 f0       	breq	.+38     	; 0x4634 <midi_device_input+0x36>
    460e:	ea 01       	movw	r28, r20
    4610:	61 50       	subi	r22, 0x01	; 1
    4612:	06 2f       	mov	r16, r22
    4614:	10 e0       	ldi	r17, 0x00	; 0
    4616:	0f 5f       	subi	r16, 0xFF	; 255
    4618:	1f 4f       	sbci	r17, 0xFF	; 255
    461a:	04 0f       	add	r16, r20
    461c:	15 1f       	adc	r17, r21
    461e:	7c 01       	movw	r14, r24
    4620:	28 ee       	ldi	r18, 0xE8	; 232
    4622:	e2 0e       	add	r14, r18
    4624:	f1 1c       	adc	r15, r1
    4626:	69 91       	ld	r22, Y+
    4628:	c7 01       	movw	r24, r14
    462a:	0e 94 e3 21 	call	0x43c6	; 0x43c6 <bytequeue_enqueue>
    462e:	c0 17       	cp	r28, r16
    4630:	d1 07       	cpc	r29, r17
    4632:	c9 f7       	brne	.-14     	; 0x4626 <midi_device_input+0x28>
    4634:	df 91       	pop	r29
    4636:	cf 91       	pop	r28
    4638:	1f 91       	pop	r17
    463a:	0f 91       	pop	r16
    463c:	ff 90       	pop	r15
    463e:	ef 90       	pop	r14
    4640:	08 95       	ret

00004642 <midi_device_set_send_func>:
    4642:	fc 01       	movw	r30, r24
    4644:	71 83       	std	Z+1, r23	; 0x01
    4646:	60 83       	st	Z, r22
    4648:	08 95       	ret

0000464a <midi_input_callbacks>:
    464a:	af 92       	push	r10
    464c:	bf 92       	push	r11
    464e:	cf 92       	push	r12
    4650:	df 92       	push	r13
    4652:	ef 92       	push	r14
    4654:	ff 92       	push	r15
    4656:	0f 93       	push	r16
    4658:	1f 93       	push	r17
    465a:	cf 93       	push	r28
    465c:	df 93       	push	r29
    465e:	00 d0       	rcall	.+0      	; 0x4660 <midi_input_callbacks+0x16>
    4660:	1f 92       	push	r1
    4662:	cd b7       	in	r28, 0x3d	; 61
    4664:	de b7       	in	r29, 0x3e	; 62
    4666:	7c 01       	movw	r14, r24
    4668:	6b 01       	movw	r12, r22
    466a:	14 2f       	mov	r17, r20
    466c:	b2 2e       	mov	r11, r18
    466e:	a0 2e       	mov	r10, r16
    4670:	dc 01       	movw	r26, r24
    4672:	95 96       	adiw	r26, 0x25	; 37
    4674:	8c 91       	ld	r24, X
    4676:	95 97       	sbiw	r26, 0x25	; 37
    4678:	84 30       	cpi	r24, 0x04	; 4
    467a:	11 f5       	brne	.+68     	; 0x46c0 <midi_input_callbacks+0x76>
    467c:	5a 96       	adiw	r26, 0x1a	; 26
    467e:	ed 91       	ld	r30, X+
    4680:	fc 91       	ld	r31, X
    4682:	5b 97       	sbiw	r26, 0x1b	; 27
    4684:	30 97       	sbiw	r30, 0x00	; 0
    4686:	09 f4       	brne	.+2      	; 0x468a <midi_input_callbacks+0x40>
    4688:	cc c0       	rjmp	.+408    	; 0x4822 <midi_input_callbacks+0x1d8>
    468a:	9b 01       	movw	r18, r22
    468c:	21 50       	subi	r18, 0x01	; 1
    468e:	31 09       	sbc	r19, r1
    4690:	ab ea       	ldi	r26, 0xAB	; 171
    4692:	ba ea       	ldi	r27, 0xAA	; 170
    4694:	0e 94 6c 25 	call	0x4ad8	; 0x4ad8 <__umulhisi3>
    4698:	96 95       	lsr	r25
    469a:	87 95       	ror	r24
    469c:	9c 01       	movw	r18, r24
    469e:	22 0f       	add	r18, r18
    46a0:	33 1f       	adc	r19, r19
    46a2:	82 0f       	add	r24, r18
    46a4:	93 1f       	adc	r25, r19
    46a6:	49 83       	std	Y+1, r20	; 0x01
    46a8:	ba 82       	std	Y+2, r11	; 0x02
    46aa:	0b 83       	std	Y+3, r16	; 0x03
    46ac:	4c 2d       	mov	r20, r12
    46ae:	48 1b       	sub	r20, r24
    46b0:	9e 01       	movw	r18, r28
    46b2:	2f 5f       	subi	r18, 0xFF	; 255
    46b4:	3f 4f       	sbci	r19, 0xFF	; 255
    46b6:	68 2f       	mov	r22, r24
    46b8:	79 2f       	mov	r23, r25
    46ba:	c7 01       	movw	r24, r14
    46bc:	09 95       	icall
    46be:	be c0       	rjmp	.+380    	; 0x483c <midi_input_callbacks+0x1f2>
    46c0:	62 30       	cpi	r22, 0x02	; 2
    46c2:	71 05       	cpc	r23, r1
    46c4:	09 f4       	brne	.+2      	; 0x46c8 <midi_input_callbacks+0x7e>
    46c6:	55 c0       	rjmp	.+170    	; 0x4772 <midi_input_callbacks+0x128>
    46c8:	63 30       	cpi	r22, 0x03	; 3
    46ca:	71 05       	cpc	r23, r1
    46cc:	29 f0       	breq	.+10     	; 0x46d8 <midi_input_callbacks+0x8e>
    46ce:	61 30       	cpi	r22, 0x01	; 1
    46d0:	71 05       	cpc	r23, r1
    46d2:	09 f0       	breq	.+2      	; 0x46d6 <midi_input_callbacks+0x8c>
    46d4:	a1 c0       	rjmp	.+322    	; 0x4818 <midi_input_callbacks+0x1ce>
    46d6:	88 c0       	rjmp	.+272    	; 0x47e8 <midi_input_callbacks+0x19e>
    46d8:	84 2f       	mov	r24, r20
    46da:	80 7f       	andi	r24, 0xF0	; 240
    46dc:	80 3a       	cpi	r24, 0xA0	; 160
    46de:	f1 f0       	breq	.+60     	; 0x471c <midi_input_callbacks+0xd2>
    46e0:	28 f4       	brcc	.+10     	; 0x46ec <midi_input_callbacks+0xa2>
    46e2:	80 38       	cpi	r24, 0x80	; 128
    46e4:	a9 f0       	breq	.+42     	; 0x4710 <midi_input_callbacks+0xc6>
    46e6:	80 39       	cpi	r24, 0x90	; 144
    46e8:	69 f0       	breq	.+26     	; 0x4704 <midi_input_callbacks+0xba>
    46ea:	2f c0       	rjmp	.+94     	; 0x474a <midi_input_callbacks+0x100>
    46ec:	80 3e       	cpi	r24, 0xE0	; 224
    46ee:	e1 f0       	breq	.+56     	; 0x4728 <midi_input_callbacks+0xde>
    46f0:	80 3f       	cpi	r24, 0xF0	; 240
    46f2:	01 f1       	breq	.+64     	; 0x4734 <midi_input_callbacks+0xea>
    46f4:	80 3b       	cpi	r24, 0xB0	; 176
    46f6:	49 f5       	brne	.+82     	; 0x474a <midi_input_callbacks+0x100>
    46f8:	d7 01       	movw	r26, r14
    46fa:	12 96       	adiw	r26, 0x02	; 2
    46fc:	ed 91       	ld	r30, X+
    46fe:	fc 91       	ld	r31, X
    4700:	13 97       	sbiw	r26, 0x03	; 3
    4702:	25 c0       	rjmp	.+74     	; 0x474e <midi_input_callbacks+0x104>
    4704:	d7 01       	movw	r26, r14
    4706:	14 96       	adiw	r26, 0x04	; 4
    4708:	ed 91       	ld	r30, X+
    470a:	fc 91       	ld	r31, X
    470c:	15 97       	sbiw	r26, 0x05	; 5
    470e:	1f c0       	rjmp	.+62     	; 0x474e <midi_input_callbacks+0x104>
    4710:	d7 01       	movw	r26, r14
    4712:	16 96       	adiw	r26, 0x06	; 6
    4714:	ed 91       	ld	r30, X+
    4716:	fc 91       	ld	r31, X
    4718:	17 97       	sbiw	r26, 0x07	; 7
    471a:	19 c0       	rjmp	.+50     	; 0x474e <midi_input_callbacks+0x104>
    471c:	d7 01       	movw	r26, r14
    471e:	18 96       	adiw	r26, 0x08	; 8
    4720:	ed 91       	ld	r30, X+
    4722:	fc 91       	ld	r31, X
    4724:	19 97       	sbiw	r26, 0x09	; 9
    4726:	13 c0       	rjmp	.+38     	; 0x474e <midi_input_callbacks+0x104>
    4728:	d7 01       	movw	r26, r14
    472a:	1a 96       	adiw	r26, 0x0a	; 10
    472c:	ed 91       	ld	r30, X+
    472e:	fc 91       	ld	r31, X
    4730:	1b 97       	sbiw	r26, 0x0b	; 11
    4732:	0d c0       	rjmp	.+26     	; 0x474e <midi_input_callbacks+0x104>
    4734:	42 3f       	cpi	r20, 0xF2	; 242
    4736:	09 f0       	breq	.+2      	; 0x473a <midi_input_callbacks+0xf0>
    4738:	74 c0       	rjmp	.+232    	; 0x4822 <midi_input_callbacks+0x1d8>
    473a:	d7 01       	movw	r26, r14
    473c:	1c 96       	adiw	r26, 0x0c	; 12
    473e:	ed 91       	ld	r30, X+
    4740:	fc 91       	ld	r31, X
    4742:	1d 97       	sbiw	r26, 0x0d	; 13
    4744:	30 97       	sbiw	r30, 0x00	; 0
    4746:	41 f4       	brne	.+16     	; 0x4758 <midi_input_callbacks+0x10e>
    4748:	6c c0       	rjmp	.+216    	; 0x4822 <midi_input_callbacks+0x1d8>
    474a:	e0 e0       	ldi	r30, 0x00	; 0
    474c:	f0 e0       	ldi	r31, 0x00	; 0
    474e:	30 97       	sbiw	r30, 0x00	; 0
    4750:	09 f4       	brne	.+2      	; 0x4754 <midi_input_callbacks+0x10a>
    4752:	67 c0       	rjmp	.+206    	; 0x4822 <midi_input_callbacks+0x1d8>
    4754:	12 3f       	cpi	r17, 0xF2	; 242
    4756:	31 f4       	brne	.+12     	; 0x4764 <midi_input_callbacks+0x11a>
    4758:	2a 2d       	mov	r18, r10
    475a:	4b 2d       	mov	r20, r11
    475c:	62 ef       	ldi	r22, 0xF2	; 242
    475e:	c7 01       	movw	r24, r14
    4760:	09 95       	icall
    4762:	6c c0       	rjmp	.+216    	; 0x483c <midi_input_callbacks+0x1f2>
    4764:	2a 2d       	mov	r18, r10
    4766:	4b 2d       	mov	r20, r11
    4768:	61 2f       	mov	r22, r17
    476a:	6f 70       	andi	r22, 0x0F	; 15
    476c:	c7 01       	movw	r24, r14
    476e:	09 95       	icall
    4770:	65 c0       	rjmp	.+202    	; 0x483c <midi_input_callbacks+0x1f2>
    4772:	84 2f       	mov	r24, r20
    4774:	80 7f       	andi	r24, 0xF0	; 240
    4776:	80 3d       	cpi	r24, 0xD0	; 208
    4778:	51 f0       	breq	.+20     	; 0x478e <midi_input_callbacks+0x144>
    477a:	80 3f       	cpi	r24, 0xF0	; 240
    477c:	71 f0       	breq	.+28     	; 0x479a <midi_input_callbacks+0x150>
    477e:	80 3c       	cpi	r24, 0xC0	; 192
    4780:	01 f5       	brne	.+64     	; 0x47c2 <midi_input_callbacks+0x178>
    4782:	d7 01       	movw	r26, r14
    4784:	1e 96       	adiw	r26, 0x0e	; 14
    4786:	ed 91       	ld	r30, X+
    4788:	fc 91       	ld	r31, X
    478a:	1f 97       	sbiw	r26, 0x0f	; 15
    478c:	1c c0       	rjmp	.+56     	; 0x47c6 <midi_input_callbacks+0x17c>
    478e:	d7 01       	movw	r26, r14
    4790:	50 96       	adiw	r26, 0x10	; 16
    4792:	ed 91       	ld	r30, X+
    4794:	fc 91       	ld	r31, X
    4796:	51 97       	sbiw	r26, 0x11	; 17
    4798:	16 c0       	rjmp	.+44     	; 0x47c6 <midi_input_callbacks+0x17c>
    479a:	43 3f       	cpi	r20, 0xF3	; 243
    479c:	41 f4       	brne	.+16     	; 0x47ae <midi_input_callbacks+0x164>
    479e:	d7 01       	movw	r26, r14
    47a0:	52 96       	adiw	r26, 0x12	; 18
    47a2:	ed 91       	ld	r30, X+
    47a4:	fc 91       	ld	r31, X
    47a6:	53 97       	sbiw	r26, 0x13	; 19
    47a8:	30 97       	sbiw	r30, 0x00	; 0
    47aa:	99 f4       	brne	.+38     	; 0x47d2 <midi_input_callbacks+0x188>
    47ac:	3a c0       	rjmp	.+116    	; 0x4822 <midi_input_callbacks+0x1d8>
    47ae:	41 3f       	cpi	r20, 0xF1	; 241
    47b0:	c1 f5       	brne	.+112    	; 0x4822 <midi_input_callbacks+0x1d8>
    47b2:	d7 01       	movw	r26, r14
    47b4:	54 96       	adiw	r26, 0x14	; 20
    47b6:	ed 91       	ld	r30, X+
    47b8:	fc 91       	ld	r31, X
    47ba:	55 97       	sbiw	r26, 0x15	; 21
    47bc:	30 97       	sbiw	r30, 0x00	; 0
    47be:	49 f4       	brne	.+18     	; 0x47d2 <midi_input_callbacks+0x188>
    47c0:	30 c0       	rjmp	.+96     	; 0x4822 <midi_input_callbacks+0x1d8>
    47c2:	e0 e0       	ldi	r30, 0x00	; 0
    47c4:	f0 e0       	ldi	r31, 0x00	; 0
    47c6:	30 97       	sbiw	r30, 0x00	; 0
    47c8:	61 f1       	breq	.+88     	; 0x4822 <midi_input_callbacks+0x1d8>
    47ca:	81 2f       	mov	r24, r17
    47cc:	8d 7f       	andi	r24, 0xFD	; 253
    47ce:	81 3f       	cpi	r24, 0xF1	; 241
    47d0:	29 f4       	brne	.+10     	; 0x47dc <midi_input_callbacks+0x192>
    47d2:	4b 2d       	mov	r20, r11
    47d4:	61 2f       	mov	r22, r17
    47d6:	c7 01       	movw	r24, r14
    47d8:	09 95       	icall
    47da:	30 c0       	rjmp	.+96     	; 0x483c <midi_input_callbacks+0x1f2>
    47dc:	4b 2d       	mov	r20, r11
    47de:	61 2f       	mov	r22, r17
    47e0:	6f 70       	andi	r22, 0x0F	; 15
    47e2:	c7 01       	movw	r24, r14
    47e4:	09 95       	icall
    47e6:	2a c0       	rjmp	.+84     	; 0x483c <midi_input_callbacks+0x1f2>
    47e8:	84 2f       	mov	r24, r20
    47ea:	0e 94 65 22 	call	0x44ca	; 0x44ca <midi_is_realtime>
    47ee:	88 23       	and	r24, r24
    47f0:	31 f0       	breq	.+12     	; 0x47fe <midi_input_callbacks+0x1b4>
    47f2:	d7 01       	movw	r26, r14
    47f4:	56 96       	adiw	r26, 0x16	; 22
    47f6:	ed 91       	ld	r30, X+
    47f8:	fc 91       	ld	r31, X
    47fa:	57 97       	sbiw	r26, 0x17	; 23
    47fc:	07 c0       	rjmp	.+14     	; 0x480c <midi_input_callbacks+0x1c2>
    47fe:	16 3f       	cpi	r17, 0xF6	; 246
    4800:	81 f4       	brne	.+32     	; 0x4822 <midi_input_callbacks+0x1d8>
    4802:	d7 01       	movw	r26, r14
    4804:	58 96       	adiw	r26, 0x18	; 24
    4806:	ed 91       	ld	r30, X+
    4808:	fc 91       	ld	r31, X
    480a:	59 97       	sbiw	r26, 0x19	; 25
    480c:	30 97       	sbiw	r30, 0x00	; 0
    480e:	49 f0       	breq	.+18     	; 0x4822 <midi_input_callbacks+0x1d8>
    4810:	61 2f       	mov	r22, r17
    4812:	c7 01       	movw	r24, r14
    4814:	09 95       	icall
    4816:	12 c0       	rjmp	.+36     	; 0x483c <midi_input_callbacks+0x1f2>
    4818:	64 30       	cpi	r22, 0x04	; 4
    481a:	71 05       	cpc	r23, r1
    481c:	10 f0       	brcs	.+4      	; 0x4822 <midi_input_callbacks+0x1d8>
    481e:	c1 2c       	mov	r12, r1
    4820:	d1 2c       	mov	r13, r1
    4822:	d7 01       	movw	r26, r14
    4824:	5c 96       	adiw	r26, 0x1c	; 28
    4826:	ed 91       	ld	r30, X+
    4828:	fc 91       	ld	r31, X
    482a:	5d 97       	sbiw	r26, 0x1d	; 29
    482c:	30 97       	sbiw	r30, 0x00	; 0
    482e:	31 f0       	breq	.+12     	; 0x483c <midi_input_callbacks+0x1f2>
    4830:	0a 2d       	mov	r16, r10
    4832:	2b 2d       	mov	r18, r11
    4834:	41 2f       	mov	r20, r17
    4836:	b6 01       	movw	r22, r12
    4838:	c7 01       	movw	r24, r14
    483a:	09 95       	icall
    483c:	d7 01       	movw	r26, r14
    483e:	5e 96       	adiw	r26, 0x1e	; 30
    4840:	ed 91       	ld	r30, X+
    4842:	fc 91       	ld	r31, X
    4844:	5f 97       	sbiw	r26, 0x1f	; 31
    4846:	30 97       	sbiw	r30, 0x00	; 0
    4848:	31 f0       	breq	.+12     	; 0x4856 <midi_input_callbacks+0x20c>
    484a:	0a 2d       	mov	r16, r10
    484c:	2b 2d       	mov	r18, r11
    484e:	41 2f       	mov	r20, r17
    4850:	b6 01       	movw	r22, r12
    4852:	c7 01       	movw	r24, r14
    4854:	09 95       	icall
    4856:	0f 90       	pop	r0
    4858:	0f 90       	pop	r0
    485a:	0f 90       	pop	r0
    485c:	df 91       	pop	r29
    485e:	cf 91       	pop	r28
    4860:	1f 91       	pop	r17
    4862:	0f 91       	pop	r16
    4864:	ff 90       	pop	r15
    4866:	ef 90       	pop	r14
    4868:	df 90       	pop	r13
    486a:	cf 90       	pop	r12
    486c:	bf 90       	pop	r11
    486e:	af 90       	pop	r10
    4870:	08 95       	ret

00004872 <midi_process_byte>:
    4872:	ff 92       	push	r15
    4874:	0f 93       	push	r16
    4876:	1f 93       	push	r17
    4878:	cf 93       	push	r28
    487a:	df 93       	push	r29
    487c:	ec 01       	movw	r28, r24
    487e:	16 2f       	mov	r17, r22
    4880:	86 2f       	mov	r24, r22
    4882:	0e 94 65 22 	call	0x44ca	; 0x44ca <midi_is_realtime>
    4886:	88 23       	and	r24, r24
    4888:	69 f0       	breq	.+26     	; 0x48a4 <midi_process_byte+0x32>
    488a:	fd a0       	ldd	r15, Y+37	; 0x25
    488c:	81 e0       	ldi	r24, 0x01	; 1
    488e:	8d a3       	std	Y+37, r24	; 0x25
    4890:	00 e0       	ldi	r16, 0x00	; 0
    4892:	20 e0       	ldi	r18, 0x00	; 0
    4894:	41 2f       	mov	r20, r17
    4896:	61 e0       	ldi	r22, 0x01	; 1
    4898:	70 e0       	ldi	r23, 0x00	; 0
    489a:	ce 01       	movw	r24, r28
    489c:	0e 94 25 23 	call	0x464a	; 0x464a <midi_input_callbacks>
    48a0:	fd a2       	std	Y+37, r15	; 0x25
    48a2:	a4 c0       	rjmp	.+328    	; 0x49ec <midi_process_byte+0x17a>
    48a4:	81 2f       	mov	r24, r17
    48a6:	0e 94 61 22 	call	0x44c2	; 0x44c2 <midi_is_statusbyte>
    48aa:	88 23       	and	r24, r24
    48ac:	09 f4       	brne	.+2      	; 0x48b0 <midi_process_byte+0x3e>
    48ae:	5d c0       	rjmp	.+186    	; 0x496a <midi_process_byte+0xf8>
    48b0:	8d a1       	ldd	r24, Y+37	; 0x25
    48b2:	84 30       	cpi	r24, 0x04	; 4
    48b4:	29 f0       	breq	.+10     	; 0x48c0 <midi_process_byte+0x4e>
    48b6:	1a a3       	std	Y+34, r17	; 0x22
    48b8:	81 e0       	ldi	r24, 0x01	; 1
    48ba:	90 e0       	ldi	r25, 0x00	; 0
    48bc:	9f a3       	std	Y+39, r25	; 0x27
    48be:	8e a3       	std	Y+38, r24	; 0x26
    48c0:	81 2f       	mov	r24, r17
    48c2:	0e 94 6b 22 	call	0x44d6	; 0x44d6 <midi_packet_length>
    48c6:	81 30       	cpi	r24, 0x01	; 1
    48c8:	31 f0       	breq	.+12     	; 0x48d6 <midi_process_byte+0x64>
    48ca:	b8 f0       	brcs	.+46     	; 0x48fa <midi_process_byte+0x88>
    48cc:	82 30       	cpi	r24, 0x02	; 2
    48ce:	79 f0       	breq	.+30     	; 0x48ee <midi_process_byte+0x7c>
    48d0:	83 30       	cpi	r24, 0x03	; 3
    48d2:	81 f0       	breq	.+32     	; 0x48f4 <midi_process_byte+0x82>
    48d4:	46 c0       	rjmp	.+140    	; 0x4962 <midi_process_byte+0xf0>
    48d6:	81 e0       	ldi	r24, 0x01	; 1
    48d8:	8d a3       	std	Y+37, r24	; 0x25
    48da:	00 e0       	ldi	r16, 0x00	; 0
    48dc:	20 e0       	ldi	r18, 0x00	; 0
    48de:	41 2f       	mov	r20, r17
    48e0:	61 e0       	ldi	r22, 0x01	; 1
    48e2:	70 e0       	ldi	r23, 0x00	; 0
    48e4:	ce 01       	movw	r24, r28
    48e6:	0e 94 25 23 	call	0x464a	; 0x464a <midi_input_callbacks>
    48ea:	1d a2       	std	Y+37, r1	; 0x25
    48ec:	7f c0       	rjmp	.+254    	; 0x49ec <midi_process_byte+0x17a>
    48ee:	82 e0       	ldi	r24, 0x02	; 2
    48f0:	8d a3       	std	Y+37, r24	; 0x25
    48f2:	7c c0       	rjmp	.+248    	; 0x49ec <midi_process_byte+0x17a>
    48f4:	83 e0       	ldi	r24, 0x03	; 3
    48f6:	8d a3       	std	Y+37, r24	; 0x25
    48f8:	79 c0       	rjmp	.+242    	; 0x49ec <midi_process_byte+0x17a>
    48fa:	10 3f       	cpi	r17, 0xF0	; 240
    48fc:	19 f0       	breq	.+6      	; 0x4904 <midi_process_byte+0x92>
    48fe:	17 3f       	cpi	r17, 0xF7	; 247
    4900:	51 f0       	breq	.+20     	; 0x4916 <midi_process_byte+0xa4>
    4902:	2b c0       	rjmp	.+86     	; 0x495a <midi_process_byte+0xe8>
    4904:	84 e0       	ldi	r24, 0x04	; 4
    4906:	8d a3       	std	Y+37, r24	; 0x25
    4908:	80 ef       	ldi	r24, 0xF0	; 240
    490a:	8a a3       	std	Y+34, r24	; 0x22
    490c:	81 e0       	ldi	r24, 0x01	; 1
    490e:	90 e0       	ldi	r25, 0x00	; 0
    4910:	9f a3       	std	Y+39, r25	; 0x27
    4912:	8e a3       	std	Y+38, r24	; 0x26
    4914:	6b c0       	rjmp	.+214    	; 0x49ec <midi_process_byte+0x17a>
    4916:	4e a1       	ldd	r20, Y+38	; 0x26
    4918:	5f a1       	ldd	r21, Y+39	; 0x27
    491a:	9a 01       	movw	r18, r20
    491c:	ab ea       	ldi	r26, 0xAB	; 171
    491e:	ba ea       	ldi	r27, 0xAA	; 170
    4920:	0e 94 6c 25 	call	0x4ad8	; 0x4ad8 <__umulhisi3>
    4924:	96 95       	lsr	r25
    4926:	87 95       	ror	r24
    4928:	9c 01       	movw	r18, r24
    492a:	22 0f       	add	r18, r18
    492c:	33 1f       	adc	r19, r19
    492e:	82 0f       	add	r24, r18
    4930:	93 1f       	adc	r25, r19
    4932:	fa 01       	movw	r30, r20
    4934:	e8 1b       	sub	r30, r24
    4936:	f9 0b       	sbc	r31, r25
    4938:	ec 0f       	add	r30, r28
    493a:	fd 1f       	adc	r31, r29
    493c:	87 ef       	ldi	r24, 0xF7	; 247
    493e:	82 a3       	std	Z+34, r24	; 0x22
    4940:	ba 01       	movw	r22, r20
    4942:	6f 5f       	subi	r22, 0xFF	; 255
    4944:	7f 4f       	sbci	r23, 0xFF	; 255
    4946:	7f a3       	std	Y+39, r23	; 0x27
    4948:	6e a3       	std	Y+38, r22	; 0x26
    494a:	0c a1       	ldd	r16, Y+36	; 0x24
    494c:	2b a1       	ldd	r18, Y+35	; 0x23
    494e:	4a a1       	ldd	r20, Y+34	; 0x22
    4950:	ce 01       	movw	r24, r28
    4952:	0e 94 25 23 	call	0x464a	; 0x464a <midi_input_callbacks>
    4956:	1d a2       	std	Y+37, r1	; 0x25
    4958:	49 c0       	rjmp	.+146    	; 0x49ec <midi_process_byte+0x17a>
    495a:	1d a2       	std	Y+37, r1	; 0x25
    495c:	1f a2       	std	Y+39, r1	; 0x27
    495e:	1e a2       	std	Y+38, r1	; 0x26
    4960:	45 c0       	rjmp	.+138    	; 0x49ec <midi_process_byte+0x17a>
    4962:	1d a2       	std	Y+37, r1	; 0x25
    4964:	1f a2       	std	Y+39, r1	; 0x27
    4966:	1e a2       	std	Y+38, r1	; 0x26
    4968:	41 c0       	rjmp	.+130    	; 0x49ec <midi_process_byte+0x17a>
    496a:	ed a1       	ldd	r30, Y+37	; 0x25
    496c:	ee 23       	and	r30, r30
    496e:	f1 f1       	breq	.+124    	; 0x49ec <midi_process_byte+0x17a>
    4970:	4e a1       	ldd	r20, Y+38	; 0x26
    4972:	5f a1       	ldd	r21, Y+39	; 0x27
    4974:	9a 01       	movw	r18, r20
    4976:	ab ea       	ldi	r26, 0xAB	; 171
    4978:	ba ea       	ldi	r27, 0xAA	; 170
    497a:	0e 94 6c 25 	call	0x4ad8	; 0x4ad8 <__umulhisi3>
    497e:	96 95       	lsr	r25
    4980:	87 95       	ror	r24
    4982:	9c 01       	movw	r18, r24
    4984:	22 0f       	add	r18, r18
    4986:	33 1f       	adc	r19, r19
    4988:	82 0f       	add	r24, r18
    498a:	93 1f       	adc	r25, r19
    498c:	9a 01       	movw	r18, r20
    498e:	28 1b       	sub	r18, r24
    4990:	39 0b       	sbc	r19, r25
    4992:	de 01       	movw	r26, r28
    4994:	a2 0f       	add	r26, r18
    4996:	b3 1f       	adc	r27, r19
    4998:	92 96       	adiw	r26, 0x22	; 34
    499a:	1c 93       	st	X, r17
    499c:	ba 01       	movw	r22, r20
    499e:	6f 5f       	subi	r22, 0xFF	; 255
    49a0:	7f 4f       	sbci	r23, 0xFF	; 255
    49a2:	7f a3       	std	Y+39, r23	; 0x27
    49a4:	6e a3       	std	Y+38, r22	; 0x26
    49a6:	21 30       	cpi	r18, 0x01	; 1
    49a8:	31 05       	cpc	r19, r1
    49aa:	89 f0       	breq	.+34     	; 0x49ce <midi_process_byte+0x15c>
    49ac:	22 30       	cpi	r18, 0x02	; 2
    49ae:	31 05       	cpc	r19, r1
    49b0:	e9 f4       	brne	.+58     	; 0x49ec <midi_process_byte+0x17a>
    49b2:	0c a1       	ldd	r16, Y+36	; 0x24
    49b4:	2b a1       	ldd	r18, Y+35	; 0x23
    49b6:	4a a1       	ldd	r20, Y+34	; 0x22
    49b8:	ce 01       	movw	r24, r28
    49ba:	0e 94 25 23 	call	0x464a	; 0x464a <midi_input_callbacks>
    49be:	8d a1       	ldd	r24, Y+37	; 0x25
    49c0:	84 30       	cpi	r24, 0x04	; 4
    49c2:	a1 f0       	breq	.+40     	; 0x49ec <midi_process_byte+0x17a>
    49c4:	81 e0       	ldi	r24, 0x01	; 1
    49c6:	90 e0       	ldi	r25, 0x00	; 0
    49c8:	9f a3       	std	Y+39, r25	; 0x27
    49ca:	8e a3       	std	Y+38, r24	; 0x26
    49cc:	0f c0       	rjmp	.+30     	; 0x49ec <midi_process_byte+0x17a>
    49ce:	e2 30       	cpi	r30, 0x02	; 2
    49d0:	69 f4       	brne	.+26     	; 0x49ec <midi_process_byte+0x17a>
    49d2:	00 e0       	ldi	r16, 0x00	; 0
    49d4:	2b a1       	ldd	r18, Y+35	; 0x23
    49d6:	4a a1       	ldd	r20, Y+34	; 0x22
    49d8:	ce 01       	movw	r24, r28
    49da:	0e 94 25 23 	call	0x464a	; 0x464a <midi_input_callbacks>
    49de:	8d a1       	ldd	r24, Y+37	; 0x25
    49e0:	84 30       	cpi	r24, 0x04	; 4
    49e2:	21 f0       	breq	.+8      	; 0x49ec <midi_process_byte+0x17a>
    49e4:	81 e0       	ldi	r24, 0x01	; 1
    49e6:	90 e0       	ldi	r25, 0x00	; 0
    49e8:	9f a3       	std	Y+39, r25	; 0x27
    49ea:	8e a3       	std	Y+38, r24	; 0x26
    49ec:	df 91       	pop	r29
    49ee:	cf 91       	pop	r28
    49f0:	1f 91       	pop	r17
    49f2:	0f 91       	pop	r16
    49f4:	ff 90       	pop	r15
    49f6:	08 95       	ret

000049f8 <midi_device_process>:
    49f8:	cf 92       	push	r12
    49fa:	df 92       	push	r13
    49fc:	ef 92       	push	r14
    49fe:	ff 92       	push	r15
    4a00:	0f 93       	push	r16
    4a02:	1f 93       	push	r17
    4a04:	cf 93       	push	r28
    4a06:	df 93       	push	r29
    4a08:	6c 01       	movw	r12, r24
    4a0a:	dc 01       	movw	r26, r24
    4a0c:	90 96       	adiw	r26, 0x20	; 32
    4a0e:	ed 91       	ld	r30, X+
    4a10:	fc 91       	ld	r31, X
    4a12:	91 97       	sbiw	r26, 0x21	; 33
    4a14:	30 97       	sbiw	r30, 0x00	; 0
    4a16:	09 f0       	breq	.+2      	; 0x4a1a <midi_device_process+0x22>
    4a18:	09 95       	icall
    4a1a:	86 01       	movw	r16, r12
    4a1c:	08 51       	subi	r16, 0x18	; 24
    4a1e:	1f 4f       	sbci	r17, 0xFF	; 255
    4a20:	c8 01       	movw	r24, r16
    4a22:	0e 94 19 22 	call	0x4432	; 0x4432 <bytequeue_length>
    4a26:	e8 2e       	mov	r14, r24
    4a28:	f1 2c       	mov	r15, r1
    4a2a:	e1 14       	cp	r14, r1
    4a2c:	f1 04       	cpc	r15, r1
    4a2e:	91 f0       	breq	.+36     	; 0x4a54 <midi_device_process+0x5c>
    4a30:	c0 e0       	ldi	r28, 0x00	; 0
    4a32:	d0 e0       	ldi	r29, 0x00	; 0
    4a34:	60 e0       	ldi	r22, 0x00	; 0
    4a36:	c8 01       	movw	r24, r16
    4a38:	0e 94 2f 22 	call	0x445e	; 0x445e <bytequeue_get>
    4a3c:	68 2f       	mov	r22, r24
    4a3e:	c6 01       	movw	r24, r12
    4a40:	0e 94 39 24 	call	0x4872	; 0x4872 <midi_process_byte>
    4a44:	61 e0       	ldi	r22, 0x01	; 1
    4a46:	c8 01       	movw	r24, r16
    4a48:	0e 94 41 22 	call	0x4482	; 0x4482 <bytequeue_remove>
    4a4c:	21 96       	adiw	r28, 0x01	; 1
    4a4e:	ce 15       	cp	r28, r14
    4a50:	df 05       	cpc	r29, r15
    4a52:	81 f7       	brne	.-32     	; 0x4a34 <midi_device_process+0x3c>
    4a54:	df 91       	pop	r29
    4a56:	cf 91       	pop	r28
    4a58:	1f 91       	pop	r17
    4a5a:	0f 91       	pop	r16
    4a5c:	ff 90       	pop	r15
    4a5e:	ef 90       	pop	r14
    4a60:	df 90       	pop	r13
    4a62:	cf 90       	pop	r12
    4a64:	08 95       	ret

00004a66 <__divmodhi4>:
    4a66:	97 fb       	bst	r25, 7
    4a68:	07 2e       	mov	r0, r23
    4a6a:	16 f4       	brtc	.+4      	; 0x4a70 <__divmodhi4+0xa>
    4a6c:	00 94       	com	r0
    4a6e:	07 d0       	rcall	.+14     	; 0x4a7e <__divmodhi4_neg1>
    4a70:	77 fd       	sbrc	r23, 7
    4a72:	09 d0       	rcall	.+18     	; 0x4a86 <__divmodhi4_neg2>
    4a74:	0e 94 7b 25 	call	0x4af6	; 0x4af6 <__udivmodhi4>
    4a78:	07 fc       	sbrc	r0, 7
    4a7a:	05 d0       	rcall	.+10     	; 0x4a86 <__divmodhi4_neg2>
    4a7c:	3e f4       	brtc	.+14     	; 0x4a8c <__divmodhi4_exit>

00004a7e <__divmodhi4_neg1>:
    4a7e:	90 95       	com	r25
    4a80:	81 95       	neg	r24
    4a82:	9f 4f       	sbci	r25, 0xFF	; 255
    4a84:	08 95       	ret

00004a86 <__divmodhi4_neg2>:
    4a86:	70 95       	com	r23
    4a88:	61 95       	neg	r22
    4a8a:	7f 4f       	sbci	r23, 0xFF	; 255

00004a8c <__divmodhi4_exit>:
    4a8c:	08 95       	ret

00004a8e <__divmodsi4>:
    4a8e:	05 2e       	mov	r0, r21
    4a90:	97 fb       	bst	r25, 7
    4a92:	1e f4       	brtc	.+6      	; 0x4a9a <__divmodsi4+0xc>
    4a94:	00 94       	com	r0
    4a96:	0e 94 5e 25 	call	0x4abc	; 0x4abc <__negsi2>
    4a9a:	57 fd       	sbrc	r21, 7
    4a9c:	07 d0       	rcall	.+14     	; 0x4aac <__divmodsi4_neg2>
    4a9e:	0e 94 8f 25 	call	0x4b1e	; 0x4b1e <__udivmodsi4>
    4aa2:	07 fc       	sbrc	r0, 7
    4aa4:	03 d0       	rcall	.+6      	; 0x4aac <__divmodsi4_neg2>
    4aa6:	4e f4       	brtc	.+18     	; 0x4aba <__divmodsi4_exit>
    4aa8:	0c 94 5e 25 	jmp	0x4abc	; 0x4abc <__negsi2>

00004aac <__divmodsi4_neg2>:
    4aac:	50 95       	com	r21
    4aae:	40 95       	com	r20
    4ab0:	30 95       	com	r19
    4ab2:	21 95       	neg	r18
    4ab4:	3f 4f       	sbci	r19, 0xFF	; 255
    4ab6:	4f 4f       	sbci	r20, 0xFF	; 255
    4ab8:	5f 4f       	sbci	r21, 0xFF	; 255

00004aba <__divmodsi4_exit>:
    4aba:	08 95       	ret

00004abc <__negsi2>:
    4abc:	90 95       	com	r25
    4abe:	80 95       	com	r24
    4ac0:	70 95       	com	r23
    4ac2:	61 95       	neg	r22
    4ac4:	7f 4f       	sbci	r23, 0xFF	; 255
    4ac6:	8f 4f       	sbci	r24, 0xFF	; 255
    4ac8:	9f 4f       	sbci	r25, 0xFF	; 255
    4aca:	08 95       	ret

00004acc <__tablejump2__>:
    4acc:	ee 0f       	add	r30, r30
    4ace:	ff 1f       	adc	r31, r31
    4ad0:	05 90       	lpm	r0, Z+
    4ad2:	f4 91       	lpm	r31, Z
    4ad4:	e0 2d       	mov	r30, r0
    4ad6:	09 94       	ijmp

00004ad8 <__umulhisi3>:
    4ad8:	a2 9f       	mul	r26, r18
    4ada:	b0 01       	movw	r22, r0
    4adc:	b3 9f       	mul	r27, r19
    4ade:	c0 01       	movw	r24, r0
    4ae0:	a3 9f       	mul	r26, r19
    4ae2:	70 0d       	add	r23, r0
    4ae4:	81 1d       	adc	r24, r1
    4ae6:	11 24       	eor	r1, r1
    4ae8:	91 1d       	adc	r25, r1
    4aea:	b2 9f       	mul	r27, r18
    4aec:	70 0d       	add	r23, r0
    4aee:	81 1d       	adc	r24, r1
    4af0:	11 24       	eor	r1, r1
    4af2:	91 1d       	adc	r25, r1
    4af4:	08 95       	ret

00004af6 <__udivmodhi4>:
    4af6:	aa 1b       	sub	r26, r26
    4af8:	bb 1b       	sub	r27, r27
    4afa:	51 e1       	ldi	r21, 0x11	; 17
    4afc:	07 c0       	rjmp	.+14     	; 0x4b0c <__udivmodhi4_ep>

00004afe <__udivmodhi4_loop>:
    4afe:	aa 1f       	adc	r26, r26
    4b00:	bb 1f       	adc	r27, r27
    4b02:	a6 17       	cp	r26, r22
    4b04:	b7 07       	cpc	r27, r23
    4b06:	10 f0       	brcs	.+4      	; 0x4b0c <__udivmodhi4_ep>
    4b08:	a6 1b       	sub	r26, r22
    4b0a:	b7 0b       	sbc	r27, r23

00004b0c <__udivmodhi4_ep>:
    4b0c:	88 1f       	adc	r24, r24
    4b0e:	99 1f       	adc	r25, r25
    4b10:	5a 95       	dec	r21
    4b12:	a9 f7       	brne	.-22     	; 0x4afe <__udivmodhi4_loop>
    4b14:	80 95       	com	r24
    4b16:	90 95       	com	r25
    4b18:	bc 01       	movw	r22, r24
    4b1a:	cd 01       	movw	r24, r26
    4b1c:	08 95       	ret

00004b1e <__udivmodsi4>:
    4b1e:	a1 e2       	ldi	r26, 0x21	; 33
    4b20:	1a 2e       	mov	r1, r26
    4b22:	aa 1b       	sub	r26, r26
    4b24:	bb 1b       	sub	r27, r27
    4b26:	fd 01       	movw	r30, r26
    4b28:	0d c0       	rjmp	.+26     	; 0x4b44 <__udivmodsi4_ep>

00004b2a <__udivmodsi4_loop>:
    4b2a:	aa 1f       	adc	r26, r26
    4b2c:	bb 1f       	adc	r27, r27
    4b2e:	ee 1f       	adc	r30, r30
    4b30:	ff 1f       	adc	r31, r31
    4b32:	a2 17       	cp	r26, r18
    4b34:	b3 07       	cpc	r27, r19
    4b36:	e4 07       	cpc	r30, r20
    4b38:	f5 07       	cpc	r31, r21
    4b3a:	20 f0       	brcs	.+8      	; 0x4b44 <__udivmodsi4_ep>
    4b3c:	a2 1b       	sub	r26, r18
    4b3e:	b3 0b       	sbc	r27, r19
    4b40:	e4 0b       	sbc	r30, r20
    4b42:	f5 0b       	sbc	r31, r21

00004b44 <__udivmodsi4_ep>:
    4b44:	66 1f       	adc	r22, r22
    4b46:	77 1f       	adc	r23, r23
    4b48:	88 1f       	adc	r24, r24
    4b4a:	99 1f       	adc	r25, r25
    4b4c:	1a 94       	dec	r1
    4b4e:	69 f7       	brne	.-38     	; 0x4b2a <__udivmodsi4_loop>
    4b50:	60 95       	com	r22
    4b52:	70 95       	com	r23
    4b54:	80 95       	com	r24
    4b56:	90 95       	com	r25
    4b58:	9b 01       	movw	r18, r22
    4b5a:	ac 01       	movw	r20, r24
    4b5c:	bd 01       	movw	r22, r26
    4b5e:	cf 01       	movw	r24, r30
    4b60:	08 95       	ret

00004b62 <_exit>:
    4b62:	f8 94       	cli

00004b64 <__stop_program>:
    4b64:	ff cf       	rjmp	.-2      	; 0x4b64 <__stop_program>
