
TR-808-firmware.elf:     file format elf32-avr

Sections:
Idx Name          Size      VMA       LMA       File off  Algn
  0 .data         00000134  00800100  000053f8  0000548c  2**0
                  CONTENTS, ALLOC, LOAD, DATA
  1 .text         000053f8  00000000  00000000  00000094  2**1
                  CONTENTS, ALLOC, LOAD, READONLY, CODE
  2 .bss          0000036a  00800234  00800234  000055c0  2**0
                  ALLOC
  3 .comment      00000030  00000000  00000000  000055c0  2**0
                  CONTENTS, READONLY
  4 .note.gnu.avr.deviceinfo 00000040  00000000  00000000  000055f0  2**2
                  CONTENTS, READONLY

Disassembly of section .text:

00000000 <__vectors>:
       0:	0c 94 2a 01 	jmp	0x254	; 0x254 <__ctors_end>
       4:	0c 94 48 06 	jmp	0xc90	; 0xc90 <__vector_1>
       8:	0c 94 0b 06 	jmp	0xc16	; 0xc16 <__vector_2>
       c:	0c 94 47 01 	jmp	0x28e	; 0x28e <__bad_interrupt>
      10:	0c 94 47 01 	jmp	0x28e	; 0x28e <__bad_interrupt>
      14:	0c 94 75 06 	jmp	0xcea	; 0xcea <__vector_5>
      18:	0c 94 47 01 	jmp	0x28e	; 0x28e <__bad_interrupt>
      1c:	0c 94 0f 07 	jmp	0xe1e	; 0xe1e <__vector_7>
      20:	0c 94 47 01 	jmp	0x28e	; 0x28e <__bad_interrupt>
      24:	0c 94 47 01 	jmp	0x28e	; 0x28e <__bad_interrupt>
      28:	0c 94 47 01 	jmp	0x28e	; 0x28e <__bad_interrupt>
      2c:	0c 94 38 07 	jmp	0xe70	; 0xe70 <__vector_11>
      30:	0c 94 47 01 	jmp	0x28e	; 0x28e <__bad_interrupt>
      34:	0c 94 47 01 	jmp	0x28e	; 0x28e <__bad_interrupt>
      38:	0c 94 a8 06 	jmp	0xd50	; 0xd50 <__vector_14>
      3c:	0c 94 47 01 	jmp	0x28e	; 0x28e <__bad_interrupt>
      40:	0c 94 47 01 	jmp	0x28e	; 0x28e <__bad_interrupt>
      44:	0c 94 47 01 	jmp	0x28e	; 0x28e <__bad_interrupt>
      48:	0c 94 bb 07 	jmp	0xf76	; 0xf76 <__vector_18>
      4c:	0c 94 f0 07 	jmp	0xfe0	; 0xfe0 <__vector_19>
      50:	0c 94 47 01 	jmp	0x28e	; 0x28e <__bad_interrupt>
      54:	0c 94 47 01 	jmp	0x28e	; 0x28e <__bad_interrupt>
      58:	0c 94 47 01 	jmp	0x28e	; 0x28e <__bad_interrupt>
      5c:	0c 94 47 01 	jmp	0x28e	; 0x28e <__bad_interrupt>
      60:	0c 94 c4 24 	jmp	0x4988	; 0x4988 <__vector_24>
      64:	0c 94 47 01 	jmp	0x28e	; 0x28e <__bad_interrupt>
      68:	0c 94 47 01 	jmp	0x28e	; 0x28e <__bad_interrupt>
      6c:	0c 94 47 01 	jmp	0x28e	; 0x28e <__bad_interrupt>
      70:	0c 94 47 01 	jmp	0x28e	; 0x28e <__bad_interrupt>
      74:	0c 94 47 01 	jmp	0x28e	; 0x28e <__bad_interrupt>
      78:	0c 94 47 01 	jmp	0x28e	; 0x28e <__bad_interrupt>
      7c:	0c 94 47 01 	jmp	0x28e	; 0x28e <__bad_interrupt>
      80:	0c 94 47 01 	jmp	0x28e	; 0x28e <__bad_interrupt>
      84:	0c 94 24 07 	jmp	0xe48	; 0xe48 <__vector_33>
      88:	0c 94 47 01 	jmp	0x28e	; 0x28e <__bad_interrupt>
      8c:	0c 94 47 01 	jmp	0x28e	; 0x28e <__bad_interrupt>
      90:	0c 94 47 01 	jmp	0x28e	; 0x28e <__bad_interrupt>
      94:	0c 94 47 01 	jmp	0x28e	; 0x28e <__bad_interrupt>
      98:	0c 94 47 01 	jmp	0x28e	; 0x28e <__bad_interrupt>
      9c:	0c 94 47 01 	jmp	0x28e	; 0x28e <__bad_interrupt>
      a0:	0c 94 47 01 	jmp	0x28e	; 0x28e <__bad_interrupt>
      a4:	0c 94 47 01 	jmp	0x28e	; 0x28e <__bad_interrupt>
      a8:	0c 94 2e 07 	jmp	0xe5c	; 0xe5c <__vector_42>
      ac:	0c 94 47 01 	jmp	0x28e	; 0x28e <__bad_interrupt>
      b0:	0c 94 47 01 	jmp	0x28e	; 0x28e <__bad_interrupt>
      b4:	e8 24       	eor	r14, r8
      b6:	09 26       	eor	r0, r25
      b8:	09 26       	eor	r0, r25
      ba:	09 26       	eor	r0, r25
      bc:	09 26       	eor	r0, r25
      be:	09 26       	eor	r0, r25
      c0:	09 26       	eor	r0, r25
      c2:	09 26       	eor	r0, r25
      c4:	e8 24       	eor	r14, r8
      c6:	09 26       	eor	r0, r25
      c8:	09 26       	eor	r0, r25
      ca:	09 26       	eor	r0, r25
      cc:	09 26       	eor	r0, r25
      ce:	09 26       	eor	r0, r25
      d0:	09 26       	eor	r0, r25
      d2:	09 26       	eor	r0, r25
      d4:	07 25       	eor	r16, r7
      d6:	09 26       	eor	r0, r25
      d8:	09 26       	eor	r0, r25
      da:	09 26       	eor	r0, r25
      dc:	09 26       	eor	r0, r25
      de:	09 26       	eor	r0, r25
      e0:	09 26       	eor	r0, r25
      e2:	09 26       	eor	r0, r25
      e4:	00 26       	eor	r0, r16
      e6:	09 26       	eor	r0, r25
      e8:	09 26       	eor	r0, r25
      ea:	09 26       	eor	r0, r25
      ec:	09 26       	eor	r0, r25
      ee:	09 26       	eor	r0, r25
      f0:	09 26       	eor	r0, r25
      f2:	09 26       	eor	r0, r25
      f4:	07 25       	eor	r16, r7
      f6:	09 26       	eor	r0, r25
      f8:	09 26       	eor	r0, r25
      fa:	09 26       	eor	r0, r25
      fc:	09 26       	eor	r0, r25
      fe:	09 26       	eor	r0, r25
     100:	09 26       	eor	r0, r25
     102:	09 26       	eor	r0, r25
     104:	00 26       	eor	r0, r16
     106:	09 26       	eor	r0, r25
     108:	09 26       	eor	r0, r25
     10a:	09 26       	eor	r0, r25
     10c:	09 26       	eor	r0, r25
     10e:	09 26       	eor	r0, r25
     110:	09 26       	eor	r0, r25
     112:	09 26       	eor	r0, r25
     114:	09 26       	eor	r0, r25
     116:	09 26       	eor	r0, r25
     118:	09 26       	eor	r0, r25
     11a:	09 26       	eor	r0, r25
     11c:	09 26       	eor	r0, r25
     11e:	09 26       	eor	r0, r25
     120:	09 26       	eor	r0, r25
     122:	09 26       	eor	r0, r25
     124:	5e 25       	eor	r21, r14
     126:	09 26       	eor	r0, r25
     128:	09 26       	eor	r0, r25
     12a:	09 26       	eor	r0, r25
     12c:	09 26       	eor	r0, r25
     12e:	09 26       	eor	r0, r25
     130:	09 26       	eor	r0, r25
     132:	09 26       	eor	r0, r25
     134:	00 26       	eor	r0, r16
     136:	09 26       	eor	r0, r25
     138:	09 26       	eor	r0, r25
     13a:	09 26       	eor	r0, r25
     13c:	09 26       	eor	r0, r25
     13e:	09 26       	eor	r0, r25
     140:	09 26       	eor	r0, r25
     142:	09 26       	eor	r0, r25
     144:	49 25       	eor	r20, r9
     146:	09 26       	eor	r0, r25
     148:	09 26       	eor	r0, r25
     14a:	09 26       	eor	r0, r25
     14c:	09 26       	eor	r0, r25
     14e:	09 26       	eor	r0, r25
     150:	09 26       	eor	r0, r25
     152:	09 26       	eor	r0, r25
     154:	72 25       	eor	r23, r2
     156:	09 26       	eor	r0, r25
     158:	09 26       	eor	r0, r25
     15a:	09 26       	eor	r0, r25
     15c:	09 26       	eor	r0, r25
     15e:	09 26       	eor	r0, r25
     160:	09 26       	eor	r0, r25
     162:	09 26       	eor	r0, r25
     164:	9a 25       	eor	r25, r10
     166:	09 26       	eor	r0, r25
     168:	09 26       	eor	r0, r25
     16a:	09 26       	eor	r0, r25
     16c:	09 26       	eor	r0, r25
     16e:	09 26       	eor	r0, r25
     170:	09 26       	eor	r0, r25
     172:	09 26       	eor	r0, r25
     174:	9a 25       	eor	r25, r10
     176:	09 26       	eor	r0, r25
     178:	09 26       	eor	r0, r25
     17a:	09 26       	eor	r0, r25
     17c:	09 26       	eor	r0, r25
     17e:	09 26       	eor	r0, r25
     180:	09 26       	eor	r0, r25
     182:	09 26       	eor	r0, r25
     184:	9a 25       	eor	r25, r10
     186:	09 26       	eor	r0, r25
     188:	09 26       	eor	r0, r25
     18a:	09 26       	eor	r0, r25
     18c:	09 26       	eor	r0, r25
     18e:	09 26       	eor	r0, r25
     190:	09 26       	eor	r0, r25
     192:	09 26       	eor	r0, r25
     194:	9a 25       	eor	r25, r10
     196:	09 26       	eor	r0, r25
     198:	09 26       	eor	r0, r25
     19a:	09 26       	eor	r0, r25
     19c:	09 26       	eor	r0, r25
     19e:	09 26       	eor	r0, r25
     1a0:	09 26       	eor	r0, r25
     1a2:	09 26       	eor	r0, r25
     1a4:	a2 25       	eor	r26, r2
     1a6:	09 26       	eor	r0, r25
     1a8:	09 26       	eor	r0, r25
     1aa:	09 26       	eor	r0, r25
     1ac:	09 26       	eor	r0, r25
     1ae:	09 26       	eor	r0, r25
     1b0:	09 26       	eor	r0, r25
     1b2:	09 26       	eor	r0, r25
     1b4:	fc 25       	eor	r31, r12
     1b6:	09 26       	eor	r0, r25
     1b8:	09 26       	eor	r0, r25
     1ba:	09 26       	eor	r0, r25
     1bc:	09 26       	eor	r0, r25
     1be:	09 26       	eor	r0, r25
     1c0:	09 26       	eor	r0, r25
     1c2:	09 26       	eor	r0, r25
     1c4:	a2 25       	eor	r26, r2
     1c6:	09 26       	eor	r0, r25
     1c8:	09 26       	eor	r0, r25
     1ca:	09 26       	eor	r0, r25
     1cc:	09 26       	eor	r0, r25
     1ce:	09 26       	eor	r0, r25
     1d0:	09 26       	eor	r0, r25
     1d2:	09 26       	eor	r0, r25
     1d4:	fc 25       	eor	r31, r12
     1d6:	09 26       	eor	r0, r25
     1d8:	09 26       	eor	r0, r25
     1da:	09 26       	eor	r0, r25
     1dc:	09 26       	eor	r0, r25
     1de:	09 26       	eor	r0, r25
     1e0:	09 26       	eor	r0, r25
     1e2:	09 26       	eor	r0, r25
     1e4:	c6 25       	eor	r28, r6
     1e6:	09 26       	eor	r0, r25
     1e8:	09 26       	eor	r0, r25
     1ea:	09 26       	eor	r0, r25
     1ec:	09 26       	eor	r0, r25
     1ee:	09 26       	eor	r0, r25
     1f0:	09 26       	eor	r0, r25
     1f2:	09 26       	eor	r0, r25
     1f4:	d8 25       	eor	r29, r8
     1f6:	09 26       	eor	r0, r25
     1f8:	09 26       	eor	r0, r25
     1fa:	09 26       	eor	r0, r25
     1fc:	09 26       	eor	r0, r25
     1fe:	09 26       	eor	r0, r25
     200:	09 26       	eor	r0, r25
     202:	09 26       	eor	r0, r25
     204:	d8 25       	eor	r29, r8
     206:	09 26       	eor	r0, r25
     208:	09 26       	eor	r0, r25
     20a:	09 26       	eor	r0, r25
     20c:	09 26       	eor	r0, r25
     20e:	09 26       	eor	r0, r25
     210:	09 26       	eor	r0, r25
     212:	09 26       	eor	r0, r25
     214:	dc 25       	eor	r29, r12
     216:	09 26       	eor	r0, r25
     218:	09 26       	eor	r0, r25
     21a:	09 26       	eor	r0, r25
     21c:	09 26       	eor	r0, r25
     21e:	09 26       	eor	r0, r25
     220:	09 26       	eor	r0, r25
     222:	09 26       	eor	r0, r25
     224:	fc 25       	eor	r31, r12
     226:	09 26       	eor	r0, r25
     228:	09 26       	eor	r0, r25
     22a:	09 26       	eor	r0, r25
     22c:	09 26       	eor	r0, r25
     22e:	09 26       	eor	r0, r25
     230:	09 26       	eor	r0, r25
     232:	09 26       	eor	r0, r25
     234:	fc 25       	eor	r31, r12
     236:	dd 26       	eor	r13, r29
     238:	db 26       	eor	r13, r27
     23a:	dd 26       	eor	r13, r29
     23c:	df 26       	eor	r13, r31
     23e:	df 26       	eor	r13, r31
     240:	e5 26       	eor	r14, r21
     242:	df 26       	eor	r13, r31
     244:	e5 26       	eor	r14, r21
     246:	e5 26       	eor	r14, r21
     248:	e5 26       	eor	r14, r21
     24a:	e5 26       	eor	r14, r21
     24c:	e5 26       	eor	r14, r21
     24e:	df 26       	eor	r13, r31
     250:	e5 26       	eor	r14, r21
     252:	e5 26       	eor	r14, r21

00000254 <__ctors_end>:
     254:	11 24       	eor	r1, r1
     256:	1f be       	out	0x3f, r1	; 63
     258:	cf ef       	ldi	r28, 0xFF	; 255
     25a:	d8 e0       	ldi	r29, 0x08	; 8
     25c:	de bf       	out	0x3e, r29	; 62
     25e:	cd bf       	out	0x3d, r28	; 61

00000260 <__do_copy_data>:
     260:	12 e0       	ldi	r17, 0x02	; 2
     262:	a0 e0       	ldi	r26, 0x00	; 0
     264:	b1 e0       	ldi	r27, 0x01	; 1
     266:	e8 ef       	ldi	r30, 0xF8	; 248
     268:	f3 e5       	ldi	r31, 0x53	; 83
     26a:	02 c0       	rjmp	.+4      	; 0x270 <__do_copy_data+0x10>
     26c:	05 90       	lpm	r0, Z+
     26e:	0d 92       	st	X+, r0
     270:	a4 33       	cpi	r26, 0x34	; 52
     272:	b1 07       	cpc	r27, r17
     274:	d9 f7       	brne	.-10     	; 0x26c <__do_copy_data+0xc>

00000276 <__do_clear_bss>:
     276:	25 e0       	ldi	r18, 0x05	; 5
     278:	a4 e3       	ldi	r26, 0x34	; 52
     27a:	b2 e0       	ldi	r27, 0x02	; 2
     27c:	01 c0       	rjmp	.+2      	; 0x280 <.do_clear_bss_start>

0000027e <.do_clear_bss_loop>:
     27e:	1d 92       	st	X+, r1

00000280 <.do_clear_bss_start>:
     280:	ae 39       	cpi	r26, 0x9E	; 158
     282:	b2 07       	cpc	r27, r18
     284:	e1 f7       	brne	.-8      	; 0x27e <.do_clear_bss_loop>
     286:	0e 94 4b 0a 	call	0x1496	; 0x1496 <main>
     28a:	0c 94 fa 29 	jmp	0x53f4	; 0x53f4 <_exit>

0000028e <__bad_interrupt>:
     28e:	0c 94 00 00 	jmp	0	; 0x0 <__vectors>

00000292 <handle_TWI_result>:
     292:	08 95       	ret

00000294 <eeprom_init>:
     294:	cf 92       	push	r12
     296:	df 92       	push	r13
     298:	ef 92       	push	r14
     29a:	ff 92       	push	r15
     29c:	0f 93       	push	r16
     29e:	1f 93       	push	r17
     2a0:	0f 2e       	mov	r0, r31
     2a2:	f9 e4       	ldi	r31, 0x49	; 73
     2a4:	cf 2e       	mov	r12, r31
     2a6:	f1 e0       	ldi	r31, 0x01	; 1
     2a8:	df 2e       	mov	r13, r31
     2aa:	f0 2d       	mov	r31, r0
     2ac:	0f 2e       	mov	r0, r31
     2ae:	fd e8       	ldi	r31, 0x8D	; 141
     2b0:	ef 2e       	mov	r14, r31
     2b2:	f1 2c       	mov	r15, r1
     2b4:	f0 2d       	mov	r31, r0
     2b6:	04 e5       	ldi	r16, 0x54	; 84
     2b8:	12 e0       	ldi	r17, 0x02	; 2
     2ba:	20 e0       	ldi	r18, 0x00	; 0
     2bc:	35 e3       	ldi	r19, 0x35	; 53
     2be:	4c e0       	ldi	r20, 0x0C	; 12
     2c0:	50 e0       	ldi	r21, 0x00	; 0
     2c2:	60 e0       	ldi	r22, 0x00	; 0
     2c4:	74 e2       	ldi	r23, 0x24	; 36
     2c6:	84 ef       	ldi	r24, 0xF4	; 244
     2c8:	90 e0       	ldi	r25, 0x00	; 0
     2ca:	0e 94 3a 24 	call	0x4874	; 0x4874 <TWI_init>
     2ce:	10 93 e3 02 	sts	0x02E3, r17
     2d2:	00 93 e2 02 	sts	0x02E2, r16
     2d6:	10 93 fa 02 	sts	0x02FA, r17
     2da:	00 93 f9 02 	sts	0x02F9, r16
     2de:	10 93 fe 02 	sts	0x02FE, r17
     2e2:	00 93 fd 02 	sts	0x02FD, r16
     2e6:	10 93 f2 02 	sts	0x02F2, r17
     2ea:	00 93 f1 02 	sts	0x02F1, r16
     2ee:	10 93 f6 02 	sts	0x02F6, r17
     2f2:	00 93 f5 02 	sts	0x02F5, r16
     2f6:	1f 91       	pop	r17
     2f8:	0f 91       	pop	r16
     2fa:	ff 90       	pop	r15
     2fc:	ef 90       	pop	r14
     2fe:	df 90       	pop	r13
     300:	cf 90       	pop	r12
     302:	08 95       	ret

00000304 <read_pattern>:
     304:	cf 93       	push	r28
     306:	df 93       	push	r29
     308:	ec 01       	movw	r28, r24
     30a:	90 91 f3 02 	lds	r25, 0x02F3
     30e:	91 11       	cpse	r25, r1
     310:	fc cf       	rjmp	.-8      	; 0x30a <read_pattern+0x6>
     312:	50 e0       	ldi	r21, 0x00	; 0
     314:	54 2f       	mov	r21, r20
     316:	44 27       	eor	r20, r20
     318:	52 95       	swap	r21
     31a:	50 7f       	andi	r21, 0xF0	; 240
     31c:	46 0f       	add	r20, r22
     31e:	57 1f       	adc	r21, r23
     320:	e0 91 e2 02 	lds	r30, 0x02E2
     324:	f0 91 e3 02 	lds	r31, 0x02E3
     328:	50 83       	st	Z, r21
     32a:	e0 91 e2 02 	lds	r30, 0x02E2
     32e:	f0 91 e3 02 	lds	r31, 0x02E3
     332:	41 83       	std	Z+1, r20	; 0x01
     334:	4b e8       	ldi	r20, 0x8B	; 139
     336:	50 e0       	ldi	r21, 0x00	; 0
     338:	62 e0       	ldi	r22, 0x02	; 2
     33a:	70 e0       	ldi	r23, 0x00	; 0
     33c:	80 e5       	ldi	r24, 0x50	; 80
     33e:	0e 94 8d 24 	call	0x491a	; 0x491a <TWI_master_start_write_then_read>
     342:	90 91 f3 02 	lds	r25, 0x02F3
     346:	91 11       	cpse	r25, r1
     348:	fc cf       	rjmp	.-8      	; 0x342 <read_pattern+0x3e>
     34a:	e0 91 fd 02 	lds	r30, 0x02FD
     34e:	f0 91 fe 02 	lds	r31, 0x02FE
     352:	8b e8       	ldi	r24, 0x8B	; 139
     354:	de 01       	movw	r26, r28
     356:	01 90       	ld	r0, Z+
     358:	0d 92       	st	X+, r0
     35a:	8a 95       	dec	r24
     35c:	e1 f7       	brne	.-8      	; 0x356 <read_pattern+0x52>
     35e:	ce 01       	movw	r24, r28
     360:	df 91       	pop	r29
     362:	cf 91       	pop	r28
     364:	08 95       	ret

00000366 <write_pattern>:
     366:	0f 93       	push	r16
     368:	1f 93       	push	r17
     36a:	cf 93       	push	r28
     36c:	df 93       	push	r29
     36e:	9c 01       	movw	r18, r24
     370:	8a 01       	movw	r16, r20
     372:	90 91 f3 02 	lds	r25, 0x02F3
     376:	91 11       	cpse	r25, r1
     378:	fc cf       	rjmp	.-8      	; 0x372 <write_pattern+0xc>
     37a:	c6 2f       	mov	r28, r22
     37c:	d0 e0       	ldi	r29, 0x00	; 0
     37e:	dc 2f       	mov	r29, r28
     380:	cc 27       	eor	r28, r28
     382:	d2 95       	swap	r29
     384:	d0 7f       	andi	r29, 0xF0	; 240
     386:	c2 0f       	add	r28, r18
     388:	d3 1f       	adc	r29, r19
     38a:	e0 91 f9 02 	lds	r30, 0x02F9
     38e:	f0 91 fa 02 	lds	r31, 0x02FA
     392:	d0 83       	st	Z, r29
     394:	e0 91 f9 02 	lds	r30, 0x02F9
     398:	f0 91 fa 02 	lds	r31, 0x02FA
     39c:	c1 83       	std	Z+1, r28	; 0x01
     39e:	80 e8       	ldi	r24, 0x80	; 128
     3a0:	f8 01       	movw	r30, r16
     3a2:	a6 e5       	ldi	r26, 0x56	; 86
     3a4:	b2 e0       	ldi	r27, 0x02	; 2
     3a6:	01 90       	ld	r0, Z+
     3a8:	0d 92       	st	X+, r0
     3aa:	8a 95       	dec	r24
     3ac:	e1 f7       	brne	.-8      	; 0x3a6 <write_pattern+0x40>
     3ae:	62 e8       	ldi	r22, 0x82	; 130
     3b0:	70 e0       	ldi	r23, 0x00	; 0
     3b2:	80 e5       	ldi	r24, 0x50	; 80
     3b4:	0e 94 6b 24 	call	0x48d6	; 0x48d6 <TWI_master_start_write>
     3b8:	c0 58       	subi	r28, 0x80	; 128
     3ba:	df 4f       	sbci	r29, 0xFF	; 255
     3bc:	90 91 f3 02 	lds	r25, 0x02F3
     3c0:	91 11       	cpse	r25, r1
     3c2:	fc cf       	rjmp	.-8      	; 0x3bc <write_pattern+0x56>
     3c4:	e0 91 f9 02 	lds	r30, 0x02F9
     3c8:	f0 91 fa 02 	lds	r31, 0x02FA
     3cc:	d0 83       	st	Z, r29
     3ce:	e0 91 f9 02 	lds	r30, 0x02F9
     3d2:	f0 91 fa 02 	lds	r31, 0x02FA
     3d6:	c1 83       	std	Z+1, r28	; 0x01
     3d8:	f8 01       	movw	r30, r16
     3da:	e0 58       	subi	r30, 0x80	; 128
     3dc:	ff 4f       	sbci	r31, 0xFF	; 255
     3de:	8b e0       	ldi	r24, 0x0B	; 11
     3e0:	a6 e5       	ldi	r26, 0x56	; 86
     3e2:	b2 e0       	ldi	r27, 0x02	; 2
     3e4:	01 90       	ld	r0, Z+
     3e6:	0d 92       	st	X+, r0
     3e8:	8a 95       	dec	r24
     3ea:	e1 f7       	brne	.-8      	; 0x3e4 <write_pattern+0x7e>
     3ec:	6d e0       	ldi	r22, 0x0D	; 13
     3ee:	70 e0       	ldi	r23, 0x00	; 0
     3f0:	80 e5       	ldi	r24, 0x50	; 80
     3f2:	0e 94 6b 24 	call	0x48d6	; 0x48d6 <TWI_master_start_write>
     3f6:	80 91 f3 02 	lds	r24, 0x02F3
     3fa:	81 11       	cpse	r24, r1
     3fc:	fc cf       	rjmp	.-8      	; 0x3f6 <write_pattern+0x90>
     3fe:	df 91       	pop	r29
     400:	cf 91       	pop	r28
     402:	1f 91       	pop	r17
     404:	0f 91       	pop	r16
     406:	08 95       	ret

00000408 <eeprom_read_rhythm_track>:
     408:	cf 93       	push	r28
     40a:	df 93       	push	r29
     40c:	ec 01       	movw	r28, r24
     40e:	90 91 f3 02 	lds	r25, 0x02F3
     412:	91 11       	cpse	r25, r1
     414:	fc cf       	rjmp	.-8      	; 0x40e <eeprom_read_rhythm_track+0x6>
     416:	6e 57       	subi	r22, 0x7E	; 126
     418:	7e 4f       	sbci	r23, 0xFE	; 254
     41a:	76 95       	lsr	r23
     41c:	76 2f       	mov	r23, r22
     41e:	66 27       	eor	r22, r22
     420:	77 95       	ror	r23
     422:	67 95       	ror	r22
     424:	e0 91 e2 02 	lds	r30, 0x02E2
     428:	f0 91 e3 02 	lds	r31, 0x02E3
     42c:	70 83       	st	Z, r23
     42e:	e0 91 e2 02 	lds	r30, 0x02E2
     432:	f0 91 e3 02 	lds	r31, 0x02E3
     436:	61 83       	std	Z+1, r22	; 0x01
     438:	41 e4       	ldi	r20, 0x41	; 65
     43a:	50 e0       	ldi	r21, 0x00	; 0
     43c:	62 e0       	ldi	r22, 0x02	; 2
     43e:	70 e0       	ldi	r23, 0x00	; 0
     440:	80 e5       	ldi	r24, 0x50	; 80
     442:	0e 94 8d 24 	call	0x491a	; 0x491a <TWI_master_start_write_then_read>
     446:	90 91 f3 02 	lds	r25, 0x02F3
     44a:	91 11       	cpse	r25, r1
     44c:	fc cf       	rjmp	.-8      	; 0x446 <eeprom_read_rhythm_track+0x3e>
     44e:	e0 91 f5 02 	lds	r30, 0x02F5
     452:	f0 91 f6 02 	lds	r31, 0x02F6
     456:	81 e4       	ldi	r24, 0x41	; 65
     458:	de 01       	movw	r26, r28
     45a:	01 90       	ld	r0, Z+
     45c:	0d 92       	st	X+, r0
     45e:	8a 95       	dec	r24
     460:	e1 f7       	brne	.-8      	; 0x45a <eeprom_read_rhythm_track+0x52>
     462:	ce 01       	movw	r24, r28
     464:	df 91       	pop	r29
     466:	cf 91       	pop	r28
     468:	08 95       	ret

0000046a <eeprom_write_rhythm_track>:
     46a:	9c 01       	movw	r18, r24
     46c:	90 91 f3 02 	lds	r25, 0x02F3
     470:	91 11       	cpse	r25, r1
     472:	fc cf       	rjmp	.-8      	; 0x46c <eeprom_write_rhythm_track+0x2>
     474:	c9 01       	movw	r24, r18
     476:	8e 57       	subi	r24, 0x7E	; 126
     478:	9e 4f       	sbci	r25, 0xFE	; 254
     47a:	96 95       	lsr	r25
     47c:	98 2f       	mov	r25, r24
     47e:	88 27       	eor	r24, r24
     480:	97 95       	ror	r25
     482:	87 95       	ror	r24
     484:	e0 91 f9 02 	lds	r30, 0x02F9
     488:	f0 91 fa 02 	lds	r31, 0x02FA
     48c:	90 83       	st	Z, r25
     48e:	e0 91 f9 02 	lds	r30, 0x02F9
     492:	f0 91 fa 02 	lds	r31, 0x02FA
     496:	81 83       	std	Z+1, r24	; 0x01
     498:	81 e4       	ldi	r24, 0x41	; 65
     49a:	fb 01       	movw	r30, r22
     49c:	a6 e5       	ldi	r26, 0x56	; 86
     49e:	b2 e0       	ldi	r27, 0x02	; 2
     4a0:	01 90       	ld	r0, Z+
     4a2:	0d 92       	st	X+, r0
     4a4:	8a 95       	dec	r24
     4a6:	e1 f7       	brne	.-8      	; 0x4a0 <eeprom_write_rhythm_track+0x36>
     4a8:	63 e4       	ldi	r22, 0x43	; 67
     4aa:	70 e0       	ldi	r23, 0x00	; 0
     4ac:	80 e5       	ldi	r24, 0x50	; 80
     4ae:	0e 94 6b 24 	call	0x48d6	; 0x48d6 <TWI_master_start_write>
     4b2:	80 91 f3 02 	lds	r24, 0x02F3
     4b6:	81 11       	cpse	r24, r1
     4b8:	fc cf       	rjmp	.-8      	; 0x4b2 <eeprom_write_rhythm_track+0x48>
     4ba:	08 95       	ret

000004bc <setup_adc>:
     4bc:	ea e7       	ldi	r30, 0x7A	; 122
     4be:	f0 e0       	ldi	r31, 0x00	; 0
     4c0:	80 81       	ld	r24, Z
     4c2:	84 60       	ori	r24, 0x04	; 4
     4c4:	80 83       	st	Z, r24
     4c6:	ac e7       	ldi	r26, 0x7C	; 124
     4c8:	b0 e0       	ldi	r27, 0x00	; 0
     4ca:	8c 91       	ld	r24, X
     4cc:	80 64       	ori	r24, 0x40	; 64
     4ce:	8c 93       	st	X, r24
     4d0:	8c 91       	ld	r24, X
     4d2:	83 60       	ori	r24, 0x03	; 3
     4d4:	8c 93       	st	X, r24
     4d6:	ae e7       	ldi	r26, 0x7E	; 126
     4d8:	b0 e0       	ldi	r27, 0x00	; 0
     4da:	8c 91       	ld	r24, X
     4dc:	88 60       	ori	r24, 0x08	; 8
     4de:	8c 93       	st	X, r24
     4e0:	80 81       	ld	r24, Z
     4e2:	80 68       	ori	r24, 0x80	; 128
     4e4:	80 83       	st	Z, r24
     4e6:	08 95       	ret

000004e8 <read_tempo_pot>:
     4e8:	ea e7       	ldi	r30, 0x7A	; 122
     4ea:	f0 e0       	ldi	r31, 0x00	; 0
     4ec:	80 81       	ld	r24, Z
     4ee:	80 64       	ori	r24, 0x40	; 64
     4f0:	80 83       	st	Z, r24
     4f2:	80 81       	ld	r24, Z
     4f4:	86 fd       	sbrc	r24, 6
     4f6:	fd cf       	rjmp	.-6      	; 0x4f2 <read_tempo_pot+0xa>
     4f8:	80 91 78 00 	lds	r24, 0x0078
     4fc:	90 91 79 00 	lds	r25, 0x0079
     500:	08 95       	ret

00000502 <setup_clock>:
     502:	8c e0       	ldi	r24, 0x0C	; 12
     504:	80 93 81 00 	sts	0x0081, r24
     508:	82 e0       	ldi	r24, 0x02	; 2
     50a:	80 93 6f 00 	sts	0x006F, r24
     50e:	85 e0       	ldi	r24, 0x05	; 5
     510:	80 93 91 00 	sts	0x0091, r24
     514:	86 e4       	ldi	r24, 0x46	; 70
     516:	80 93 b4 00 	sts	0x00B4, r24
     51a:	80 93 b3 00 	sts	0x00B3, r24
     51e:	e2 e0       	ldi	r30, 0x02	; 2
     520:	f3 e0       	ldi	r31, 0x03	; 3
     522:	80 81       	ld	r24, Z
     524:	88 7f       	andi	r24, 0xF8	; 248
     526:	80 83       	st	Z, r24
     528:	08 95       	ret

0000052a <update_clock_rate>:
     52a:	90 93 89 00 	sts	0x0089, r25
     52e:	80 93 88 00 	sts	0x0088, r24
     532:	20 91 84 00 	lds	r18, 0x0084
     536:	30 91 85 00 	lds	r19, 0x0085
     53a:	82 17       	cp	r24, r18
     53c:	93 07       	cpc	r25, r19
     53e:	28 f4       	brcc	.+10     	; 0x54a <update_clock_rate+0x20>
     540:	01 97       	sbiw	r24, 0x01	; 1
     542:	90 93 85 00 	sts	0x0085, r25
     546:	80 93 84 00 	sts	0x0084, r24
     54a:	08 95       	ret

0000054c <process_external_clock_event>:
     54c:	cf 93       	push	r28
     54e:	df 93       	push	r29
     550:	80 91 94 00 	lds	r24, 0x0094
     554:	90 91 95 00 	lds	r25, 0x0095
     558:	90 93 08 03 	sts	0x0308, r25
     55c:	80 93 07 03 	sts	0x0307, r24
     560:	80 91 e6 02 	lds	r24, 0x02E6
     564:	85 ff       	sbrs	r24, 5
     566:	0a c0       	rjmp	.+20     	; 0x57c <process_external_clock_event+0x30>
     568:	e6 ee       	ldi	r30, 0xE6	; 230
     56a:	f2 e0       	ldi	r31, 0x02	; 2
     56c:	80 81       	ld	r24, Z
     56e:	8f 7d       	andi	r24, 0xDF	; 223
     570:	80 83       	st	Z, r24
     572:	10 92 85 00 	sts	0x0085, r1
     576:	10 92 84 00 	sts	0x0084, r1
     57a:	0e c0       	rjmp	.+28     	; 0x598 <process_external_clock_event+0x4c>
     57c:	cf ef       	ldi	r28, 0xFF	; 255
     57e:	d2 e0       	ldi	r29, 0x02	; 2
     580:	88 85       	ldd	r24, Y+8	; 0x08
     582:	99 85       	ldd	r25, Y+9	; 0x09
     584:	0e 94 95 02 	call	0x52a	; 0x52a <update_clock_rate>
     588:	8c 81       	ldd	r24, Y+4	; 0x04
     58a:	88 23       	and	r24, r24
     58c:	29 f0       	breq	.+10     	; 0x598 <process_external_clock_event+0x4c>
     58e:	9c 81       	ldd	r25, Y+4	; 0x04
     590:	8a 81       	ldd	r24, Y+2	; 0x02
     592:	89 1b       	sub	r24, r25
     594:	8c 5f       	subi	r24, 0xFC	; 252
     596:	8a 83       	std	Y+2, r24	; 0x02
     598:	e6 ee       	ldi	r30, 0xE6	; 230
     59a:	f2 e0       	ldi	r31, 0x02	; 2
     59c:	80 81       	ld	r24, Z
     59e:	8f 7b       	andi	r24, 0xBF	; 191
     5a0:	80 83       	st	Z, r24
     5a2:	10 92 03 03 	sts	0x0303, r1
     5a6:	10 92 95 00 	sts	0x0095, r1
     5aa:	10 92 94 00 	sts	0x0094, r1
     5ae:	0e 94 1d 0e 	call	0x1c3a	; 0x1c3a <process_tick>
     5b2:	e1 e8       	ldi	r30, 0x81	; 129
     5b4:	f0 e0       	ldi	r31, 0x00	; 0
     5b6:	80 81       	ld	r24, Z
     5b8:	84 60       	ori	r24, 0x04	; 4
     5ba:	80 83       	st	Z, r24
     5bc:	df 91       	pop	r29
     5be:	cf 91       	pop	r28
     5c0:	08 95       	ret

000005c2 <process_external_sync_pulse>:
     5c2:	cf 93       	push	r28
     5c4:	df 93       	push	r29
     5c6:	80 91 94 00 	lds	r24, 0x0094
     5ca:	90 91 95 00 	lds	r25, 0x0095
     5ce:	ef ef       	ldi	r30, 0xFF	; 255
     5d0:	f2 e0       	ldi	r31, 0x02	; 2
     5d2:	91 87       	std	Z+9, r25	; 0x09
     5d4:	80 87       	std	Z+8, r24	; 0x08
     5d6:	20 85       	ldd	r18, Z+8	; 0x08
     5d8:	31 85       	ldd	r19, Z+9	; 0x09
     5da:	ab ea       	ldi	r26, 0xAB	; 171
     5dc:	ba ea       	ldi	r27, 0xAA	; 170
     5de:	0e 94 b5 29 	call	0x536a	; 0x536a <__umulhisi3>
     5e2:	96 95       	lsr	r25
     5e4:	87 95       	ror	r24
     5e6:	96 95       	lsr	r25
     5e8:	87 95       	ror	r24
     5ea:	96 95       	lsr	r25
     5ec:	87 95       	ror	r24
     5ee:	91 87       	std	Z+9, r25	; 0x09
     5f0:	80 87       	std	Z+8, r24	; 0x08
     5f2:	80 91 e6 02 	lds	r24, 0x02E6
     5f6:	85 ff       	sbrs	r24, 5
     5f8:	0a c0       	rjmp	.+20     	; 0x60e <process_external_sync_pulse+0x4c>
     5fa:	e6 ee       	ldi	r30, 0xE6	; 230
     5fc:	f2 e0       	ldi	r31, 0x02	; 2
     5fe:	80 81       	ld	r24, Z
     600:	8f 7d       	andi	r24, 0xDF	; 223
     602:	80 83       	st	Z, r24
     604:	10 92 85 00 	sts	0x0085, r1
     608:	10 92 84 00 	sts	0x0084, r1
     60c:	0c c0       	rjmp	.+24     	; 0x626 <process_external_sync_pulse+0x64>
     60e:	cf ef       	ldi	r28, 0xFF	; 255
     610:	d2 e0       	ldi	r29, 0x02	; 2
     612:	88 85       	ldd	r24, Y+8	; 0x08
     614:	99 85       	ldd	r25, Y+9	; 0x09
     616:	0e 94 95 02 	call	0x52a	; 0x52a <update_clock_rate>
     61a:	8c 81       	ldd	r24, Y+4	; 0x04
     61c:	88 23       	and	r24, r24
     61e:	19 f0       	breq	.+6      	; 0x626 <process_external_sync_pulse+0x64>
     620:	88 81       	ld	r24, Y
     622:	81 50       	subi	r24, 0x01	; 1
     624:	8a 83       	std	Y+2, r24	; 0x02
     626:	e6 ee       	ldi	r30, 0xE6	; 230
     628:	f2 e0       	ldi	r31, 0x02	; 2
     62a:	80 81       	ld	r24, Z
     62c:	8f 7b       	andi	r24, 0xBF	; 191
     62e:	80 83       	st	Z, r24
     630:	10 92 03 03 	sts	0x0303, r1
     634:	10 92 95 00 	sts	0x0095, r1
     638:	10 92 94 00 	sts	0x0094, r1
     63c:	0e 94 1d 0e 	call	0x1c3a	; 0x1c3a <process_tick>
     640:	e1 e8       	ldi	r30, 0x81	; 129
     642:	f0 e0       	ldi	r31, 0x00	; 0
     644:	80 81       	ld	r24, Z
     646:	84 60       	ori	r24, 0x04	; 4
     648:	80 83       	st	Z, r24
     64a:	df 91       	pop	r29
     64c:	cf 91       	pop	r28
     64e:	08 95       	ret

00000650 <clear_all_trigs>:
     650:	e5 e4       	ldi	r30, 0x45	; 69
     652:	f2 e0       	ldi	r31, 0x02	; 2
     654:	10 86       	std	Z+8, r1	; 0x08
     656:	86 81       	ldd	r24, Z+6	; 0x06
     658:	80 7f       	andi	r24, 0xF0	; 240
     65a:	86 83       	std	Z+6, r24	; 0x06
     65c:	87 81       	ldd	r24, Z+7	; 0x07
     65e:	8f 7d       	andi	r24, 0xDF	; 223
     660:	87 83       	std	Z+7, r24	; 0x07
     662:	85 b1       	in	r24, 0x05	; 5
     664:	87 7e       	andi	r24, 0xE7	; 231
     666:	85 b9       	out	0x05, r24	; 5
     668:	08 95       	ret

0000066a <trigger_drum>:
     66a:	ff 92       	push	r15
     66c:	0f 93       	push	r16
     66e:	1f 93       	push	r17
     670:	cf 93       	push	r28
     672:	df 93       	push	r29
     674:	c8 2f       	mov	r28, r24
     676:	f6 2e       	mov	r15, r22
     678:	0e 94 28 03 	call	0x650	; 0x650 <clear_all_trigs>
     67c:	e5 ee       	ldi	r30, 0xE5	; 229
     67e:	f2 e0       	ldi	r31, 0x02	; 2
     680:	90 81       	ld	r25, Z
     682:	93 ff       	sbrs	r25, 3
     684:	fd cf       	rjmp	.-6      	; 0x680 <trigger_drum+0x16>
     686:	c0 93 34 02 	sts	0x0234, r28
     68a:	0c 2f       	mov	r16, r28
     68c:	10 e0       	ldi	r17, 0x00	; 0
     68e:	87 e0       	ldi	r24, 0x07	; 7
     690:	c8 9f       	mul	r28, r24
     692:	e0 01       	movw	r28, r0
     694:	11 24       	eor	r1, r1
     696:	c0 50       	subi	r28, 0x00	; 0
     698:	df 4f       	sbci	r29, 0xFF	; 255
     69a:	e8 81       	ld	r30, Y
     69c:	8e 2f       	mov	r24, r30
     69e:	88 1f       	adc	r24, r24
     6a0:	88 27       	eor	r24, r24
     6a2:	88 1f       	adc	r24, r24
     6a4:	e9 81       	ldd	r30, Y+1	; 0x01
     6a6:	e7 70       	andi	r30, 0x07	; 7
     6a8:	ee 0f       	add	r30, r30
     6aa:	e8 2b       	or	r30, r24
     6ac:	f0 e0       	ldi	r31, 0x00	; 0
     6ae:	eb 5b       	subi	r30, 0xBB	; 187
     6b0:	fd 4f       	sbci	r31, 0xFD	; 253
     6b2:	90 81       	ld	r25, Z
     6b4:	8a 81       	ldd	r24, Y+2	; 0x02
     6b6:	89 2b       	or	r24, r25
     6b8:	80 83       	st	Z, r24
     6ba:	8d 81       	ldd	r24, Y+5	; 0x05
     6bc:	0e 94 2f 08 	call	0x105e	; 0x105e <turn_on>
     6c0:	9b 81       	ldd	r25, Y+3	; 0x03
     6c2:	9f 3f       	cpi	r25, 0xFF	; 255
     6c4:	c1 f0       	breq	.+48     	; 0x6f6 <trigger_drum+0x8c>
     6c6:	a5 e4       	ldi	r26, 0x45	; 69
     6c8:	b2 e0       	ldi	r27, 0x02	; 2
     6ca:	13 96       	adiw	r26, 0x03	; 3
     6cc:	2c 91       	ld	r18, X
     6ce:	13 97       	sbiw	r26, 0x03	; 3
     6d0:	f8 01       	movw	r30, r16
     6d2:	ee 0f       	add	r30, r30
     6d4:	ff 1f       	adc	r31, r31
     6d6:	ee 0f       	add	r30, r30
     6d8:	ff 1f       	adc	r31, r31
     6da:	ee 0f       	add	r30, r30
     6dc:	ff 1f       	adc	r31, r31
     6de:	e0 1b       	sub	r30, r16
     6e0:	f1 0b       	sbc	r31, r17
     6e2:	ec 5f       	subi	r30, 0xFC	; 252
     6e4:	fe 4f       	sbci	r31, 0xFE	; 254
     6e6:	80 81       	ld	r24, Z
     6e8:	81 70       	andi	r24, 0x01	; 1
     6ea:	81 95       	neg	r24
     6ec:	82 27       	eor	r24, r18
     6ee:	89 23       	and	r24, r25
     6f0:	82 27       	eor	r24, r18
     6f2:	13 96       	adiw	r26, 0x03	; 3
     6f4:	8c 93       	st	X, r24
     6f6:	80 e4       	ldi	r24, 0x40	; 64
     6f8:	8f 15       	cp	r24, r15
     6fa:	40 f4       	brcc	.+16     	; 0x70c <trigger_drum+0xa2>
     6fc:	e5 e4       	ldi	r30, 0x45	; 69
     6fe:	f2 e0       	ldi	r31, 0x02	; 2
     700:	80 85       	ldd	r24, Z+8	; 0x08
     702:	81 60       	ori	r24, 0x01	; 1
     704:	80 87       	std	Z+8, r24	; 0x08
     706:	84 e1       	ldi	r24, 0x14	; 20
     708:	0e 94 2f 08 	call	0x105e	; 0x105e <turn_on>
     70c:	5d 9a       	sbi	0x0b, 5	; 11
     70e:	ee e6       	ldi	r30, 0x6E	; 110
     710:	f0 e0       	ldi	r31, 0x00	; 0
     712:	80 81       	ld	r24, Z
     714:	82 60       	ori	r24, 0x02	; 2
     716:	80 83       	st	Z, r24
     718:	85 b5       	in	r24, 0x25	; 37
     71a:	85 60       	ori	r24, 0x05	; 5
     71c:	85 bd       	out	0x25, r24	; 37
     71e:	e5 ee       	ldi	r30, 0xE5	; 229
     720:	f2 e0       	ldi	r31, 0x02	; 2
     722:	80 81       	ld	r24, Z
     724:	87 7f       	andi	r24, 0xF7	; 247
     726:	80 83       	st	Z, r24
     728:	df 91       	pop	r29
     72a:	cf 91       	pop	r28
     72c:	1f 91       	pop	r17
     72e:	0f 91       	pop	r16
     730:	ff 90       	pop	r15
     732:	08 95       	ret

00000734 <trigger_roll>:
     734:	cf 93       	push	r28
     736:	df 93       	push	r29
     738:	cd b7       	in	r28, 0x3d	; 61
     73a:	de b7       	in	r29, 0x3e	; 62
     73c:	2a 97       	sbiw	r28, 0x0a	; 10
     73e:	0f b6       	in	r0, 0x3f	; 63
     740:	f8 94       	cli
     742:	de bf       	out	0x3e, r29	; 62
     744:	0f be       	out	0x3f, r0	; 63
     746:	cd bf       	out	0x3d, r28	; 61
     748:	8a e0       	ldi	r24, 0x0A	; 10
     74a:	e9 e1       	ldi	r30, 0x19	; 25
     74c:	f2 e0       	ldi	r31, 0x02	; 2
     74e:	de 01       	movw	r26, r28
     750:	11 96       	adiw	r26, 0x01	; 1
     752:	01 90       	ld	r0, Z+
     754:	0d 92       	st	X+, r0
     756:	8a 95       	dec	r24
     758:	e1 f7       	brne	.-8      	; 0x752 <trigger_roll+0x1e>
     75a:	80 91 94 05 	lds	r24, 0x0594
     75e:	98 2f       	mov	r25, r24
     760:	92 95       	swap	r25
     762:	96 95       	lsr	r25
     764:	97 70       	andi	r25, 0x07	; 7
     766:	80 91 95 05 	lds	r24, 0x0595
     76a:	81 70       	andi	r24, 0x01	; 1
     76c:	88 0f       	add	r24, r24
     76e:	88 0f       	add	r24, r24
     770:	88 0f       	add	r24, r24
     772:	89 2b       	or	r24, r25
     774:	21 e0       	ldi	r18, 0x01	; 1
     776:	30 e0       	ldi	r19, 0x00	; 0
     778:	02 c0       	rjmp	.+4      	; 0x77e <trigger_roll+0x4a>
     77a:	22 0f       	add	r18, r18
     77c:	33 1f       	adc	r19, r19
     77e:	8a 95       	dec	r24
     780:	e2 f7       	brpl	.-8      	; 0x77a <trigger_roll+0x46>
     782:	e0 91 03 05 	lds	r30, 0x0503
     786:	8e 2f       	mov	r24, r30
     788:	82 95       	swap	r24
     78a:	86 95       	lsr	r24
     78c:	86 95       	lsr	r24
     78e:	83 70       	andi	r24, 0x03	; 3
     790:	e0 91 04 05 	lds	r30, 0x0504
     794:	e1 70       	andi	r30, 0x01	; 1
     796:	ee 0f       	add	r30, r30
     798:	ee 0f       	add	r30, r30
     79a:	e8 2b       	or	r30, r24
     79c:	f0 e0       	ldi	r31, 0x00	; 0
     79e:	31 97       	sbiw	r30, 0x01	; 1
     7a0:	ee 0f       	add	r30, r30
     7a2:	ff 1f       	adc	r31, r31
     7a4:	81 e0       	ldi	r24, 0x01	; 1
     7a6:	90 e0       	ldi	r25, 0x00	; 0
     7a8:	8c 0f       	add	r24, r28
     7aa:	9d 1f       	adc	r25, r29
     7ac:	e8 0f       	add	r30, r24
     7ae:	f9 1f       	adc	r31, r25
     7b0:	80 81       	ld	r24, Z
     7b2:	91 81       	ldd	r25, Z+1	; 0x01
     7b4:	82 23       	and	r24, r18
     7b6:	93 23       	and	r25, r19
     7b8:	89 2b       	or	r24, r25
     7ba:	d9 f0       	breq	.+54     	; 0x7f2 <trigger_roll+0xbe>
     7bc:	a0 91 9a 05 	lds	r26, 0x059A
     7c0:	97 e0       	ldi	r25, 0x07	; 7
     7c2:	a9 9f       	mul	r26, r25
     7c4:	d0 01       	movw	r26, r0
     7c6:	11 24       	eor	r1, r1
     7c8:	a0 50       	subi	r26, 0x00	; 0
     7ca:	bf 4f       	sbci	r27, 0xFF	; 255
     7cc:	ec 91       	ld	r30, X
     7ce:	8e 2f       	mov	r24, r30
     7d0:	88 1f       	adc	r24, r24
     7d2:	88 27       	eor	r24, r24
     7d4:	88 1f       	adc	r24, r24
     7d6:	11 96       	adiw	r26, 0x01	; 1
     7d8:	ec 91       	ld	r30, X
     7da:	11 97       	sbiw	r26, 0x01	; 1
     7dc:	e7 70       	andi	r30, 0x07	; 7
     7de:	ee 0f       	add	r30, r30
     7e0:	e8 2b       	or	r30, r24
     7e2:	f0 e0       	ldi	r31, 0x00	; 0
     7e4:	eb 5b       	subi	r30, 0xBB	; 187
     7e6:	fd 4f       	sbci	r31, 0xFD	; 253
     7e8:	90 81       	ld	r25, Z
     7ea:	12 96       	adiw	r26, 0x02	; 2
     7ec:	8c 91       	ld	r24, X
     7ee:	89 2b       	or	r24, r25
     7f0:	80 83       	st	Z, r24
     7f2:	2a 96       	adiw	r28, 0x0a	; 10
     7f4:	0f b6       	in	r0, 0x3f	; 63
     7f6:	f8 94       	cli
     7f8:	de bf       	out	0x3e, r29	; 62
     7fa:	0f be       	out	0x3f, r0	; 63
     7fc:	cd bf       	out	0x3d, r28	; 61
     7fe:	df 91       	pop	r29
     800:	cf 91       	pop	r28
     802:	08 95       	ret

00000804 <trigger_step>:
     804:	3f 92       	push	r3
     806:	4f 92       	push	r4
     808:	5f 92       	push	r5
     80a:	6f 92       	push	r6
     80c:	7f 92       	push	r7
     80e:	8f 92       	push	r8
     810:	9f 92       	push	r9
     812:	af 92       	push	r10
     814:	bf 92       	push	r11
     816:	cf 92       	push	r12
     818:	df 92       	push	r13
     81a:	ef 92       	push	r14
     81c:	ff 92       	push	r15
     81e:	0f 93       	push	r16
     820:	1f 93       	push	r17
     822:	cf 93       	push	r28
     824:	df 93       	push	r29
     826:	00 d0       	rcall	.+0      	; 0x828 <trigger_step+0x24>
     828:	00 d0       	rcall	.+0      	; 0x82a <trigger_step+0x26>
     82a:	cd b7       	in	r28, 0x3d	; 61
     82c:	de b7       	in	r29, 0x3e	; 62
     82e:	f8 2e       	mov	r15, r24
     830:	5d 9a       	sbi	0x0b, 5	; 11
     832:	0e 94 28 03 	call	0x650	; 0x650 <clear_all_trigs>
     836:	ee e6       	ldi	r30, 0x6E	; 110
     838:	f0 e0       	ldi	r31, 0x00	; 0
     83a:	80 81       	ld	r24, Z
     83c:	82 60       	ori	r24, 0x02	; 2
     83e:	80 83       	st	Z, r24
     840:	95 b5       	in	r25, 0x25	; 37
     842:	95 60       	ori	r25, 0x05	; 5
     844:	95 bd       	out	0x25, r25	; 37
     846:	90 91 03 05 	lds	r25, 0x0503
     84a:	29 2f       	mov	r18, r25
     84c:	22 95       	swap	r18
     84e:	26 95       	lsr	r18
     850:	26 95       	lsr	r18
     852:	23 70       	andi	r18, 0x03	; 3
     854:	90 91 04 05 	lds	r25, 0x0504
     858:	91 70       	andi	r25, 0x01	; 1
     85a:	99 0f       	add	r25, r25
     85c:	99 0f       	add	r25, r25
     85e:	92 2b       	or	r25, r18
     860:	29 f0       	breq	.+10     	; 0x86c <trigger_step+0x68>
     862:	80 91 e5 02 	lds	r24, 0x02E5
     866:	81 ff       	sbrs	r24, 1
     868:	0e 94 9a 03 	call	0x734	; 0x734 <trigger_roll>
     86c:	90 91 03 05 	lds	r25, 0x0503
     870:	29 2f       	mov	r18, r25
     872:	22 95       	swap	r18
     874:	26 95       	lsr	r18
     876:	26 95       	lsr	r18
     878:	23 70       	andi	r18, 0x03	; 3
     87a:	90 91 04 05 	lds	r25, 0x0504
     87e:	91 70       	andi	r25, 0x01	; 1
     880:	99 0f       	add	r25, r25
     882:	99 0f       	add	r25, r25
     884:	92 2b       	or	r25, r18
     886:	95 30       	cpi	r25, 0x05	; 5
     888:	09 f0       	breq	.+2      	; 0x88c <trigger_step+0x88>
     88a:	fe c0       	rjmp	.+508    	; 0xa88 <__stack+0x189>
     88c:	80 91 e5 02 	lds	r24, 0x02E5
     890:	81 ff       	sbrs	r24, 1
     892:	fa c0       	rjmp	.+500    	; 0xa88 <__stack+0x189>
     894:	80 91 93 05 	lds	r24, 0x0593
     898:	80 31       	cpi	r24, 0x10	; 16
     89a:	09 f0       	breq	.+2      	; 0x89e <trigger_step+0x9a>
     89c:	f5 c0       	rjmp	.+490    	; 0xa88 <__stack+0x189>
     89e:	0e 94 9a 03 	call	0x734	; 0x734 <trigger_roll>
     8a2:	f2 c0       	rjmp	.+484    	; 0xa88 <__stack+0x189>
     8a4:	5a 82       	std	Y+2, r5	; 0x02
     8a6:	49 82       	std	Y+1, r4	; 0x01
     8a8:	d4 01       	movw	r26, r8
     8aa:	8c 91       	ld	r24, X
     8ac:	98 2f       	mov	r25, r24
     8ae:	92 95       	swap	r25
     8b0:	96 95       	lsr	r25
     8b2:	97 70       	andi	r25, 0x07	; 7
     8b4:	f5 01       	movw	r30, r10
     8b6:	80 81       	ld	r24, Z
     8b8:	81 70       	andi	r24, 0x01	; 1
     8ba:	88 0f       	add	r24, r24
     8bc:	88 0f       	add	r24, r24
     8be:	88 0f       	add	r24, r24
     8c0:	89 2b       	or	r24, r25
     8c2:	d6 01       	movw	r26, r12
     8c4:	9c 91       	ld	r25, X
     8c6:	96 95       	lsr	r25
     8c8:	91 70       	andi	r25, 0x01	; 1
     8ca:	f7 01       	movw	r30, r14
     8cc:	39 9e       	mul	r3, r25
     8ce:	e0 0d       	add	r30, r0
     8d0:	f1 1d       	adc	r31, r1
     8d2:	11 24       	eor	r1, r1
     8d4:	e8 0f       	add	r30, r24
     8d6:	f1 1d       	adc	r31, r1
     8d8:	ee 0f       	add	r30, r30
     8da:	ff 1f       	adc	r31, r31
     8dc:	e7 5f       	subi	r30, 0xF7	; 247
     8de:	fa 4f       	sbci	r31, 0xFA	; 250
     8e0:	80 81       	ld	r24, Z
     8e2:	91 81       	ldd	r25, Z+1	; 0x01
     8e4:	0b 80       	ldd	r0, Y+3	; 0x03
     8e6:	02 c0       	rjmp	.+4      	; 0x8ec <trigger_step+0xe8>
     8e8:	96 95       	lsr	r25
     8ea:	87 95       	ror	r24
     8ec:	0a 94       	dec	r0
     8ee:	e2 f7       	brpl	.-8      	; 0x8e8 <trigger_step+0xe4>
     8f0:	80 ff       	sbrs	r24, 0
     8f2:	77 c0       	rjmp	.+238    	; 0x9e2 <__stack+0xe3>
     8f4:	f3 01       	movw	r30, r6
     8f6:	80 81       	ld	r24, Z
     8f8:	8f 71       	andi	r24, 0x1F	; 31
     8fa:	90 e0       	ldi	r25, 0x00	; 0
     8fc:	2b 81       	ldd	r18, Y+3	; 0x03
     8fe:	3c 81       	ldd	r19, Y+4	; 0x04
     900:	82 17       	cp	r24, r18
     902:	93 07       	cpc	r25, r19
     904:	09 f4       	brne	.+2      	; 0x908 <__stack+0x9>
     906:	2b 9a       	sbi	0x05, 3	; 5
     908:	d3 01       	movw	r26, r6
     90a:	8c 91       	ld	r24, X
     90c:	98 2f       	mov	r25, r24
     90e:	92 95       	swap	r25
     910:	96 95       	lsr	r25
     912:	97 70       	andi	r25, 0x07	; 7
     914:	ed e9       	ldi	r30, 0x9D	; 157
     916:	f5 e0       	ldi	r31, 0x05	; 5
     918:	80 81       	ld	r24, Z
     91a:	83 70       	andi	r24, 0x03	; 3
     91c:	88 0f       	add	r24, r24
     91e:	88 0f       	add	r24, r24
     920:	88 0f       	add	r24, r24
     922:	89 2b       	or	r24, r25
     924:	90 e0       	ldi	r25, 0x00	; 0
     926:	2b 81       	ldd	r18, Y+3	; 0x03
     928:	3c 81       	ldd	r19, Y+4	; 0x04
     92a:	82 17       	cp	r24, r18
     92c:	93 07       	cpc	r25, r19
     92e:	09 f4       	brne	.+2      	; 0x932 <__stack+0x33>
     930:	2c 9a       	sbi	0x05, 4	; 5
     932:	eb 81       	ldd	r30, Y+3	; 0x03
     934:	fc 81       	ldd	r31, Y+4	; 0x04
     936:	ee 0f       	add	r30, r30
     938:	ff 1f       	adc	r31, r31
     93a:	ee 0f       	add	r30, r30
     93c:	ff 1f       	adc	r31, r31
     93e:	ee 0f       	add	r30, r30
     940:	ff 1f       	adc	r31, r31
     942:	4b 81       	ldd	r20, Y+3	; 0x03
     944:	5c 81       	ldd	r21, Y+4	; 0x04
     946:	e4 1b       	sub	r30, r20
     948:	f5 0b       	sbc	r31, r21
     94a:	ea 5f       	subi	r30, 0xFA	; 250
     94c:	fe 4f       	sbci	r31, 0xFE	; 254
     94e:	80 81       	ld	r24, Z
     950:	80 fd       	sbrc	r24, 0
     952:	47 c0       	rjmp	.+142    	; 0x9e2 <__stack+0xe3>
     954:	a1 e0       	ldi	r26, 0x01	; 1
     956:	b5 e0       	ldi	r27, 0x05	; 5
     958:	8c 91       	ld	r24, X
     95a:	84 fd       	sbrc	r24, 4
     95c:	04 c0       	rjmp	.+8      	; 0x966 <__stack+0x67>
     95e:	f8 01       	movw	r30, r16
     960:	80 81       	ld	r24, Z
     962:	0e 94 2f 08 	call	0x105e	; 0x105e <turn_on>
     966:	ab 81       	ldd	r26, Y+3	; 0x03
     968:	bc 81       	ldd	r27, Y+4	; 0x04
     96a:	aa 0f       	add	r26, r26
     96c:	bb 1f       	adc	r27, r27
     96e:	aa 0f       	add	r26, r26
     970:	bb 1f       	adc	r27, r27
     972:	aa 0f       	add	r26, r26
     974:	bb 1f       	adc	r27, r27
     976:	2b 81       	ldd	r18, Y+3	; 0x03
     978:	3c 81       	ldd	r19, Y+4	; 0x04
     97a:	a2 1b       	sub	r26, r18
     97c:	b3 0b       	sbc	r27, r19
     97e:	a0 50       	subi	r26, 0x00	; 0
     980:	bf 4f       	sbci	r27, 0xFF	; 255
     982:	ec 91       	ld	r30, X
     984:	8e 2f       	mov	r24, r30
     986:	88 1f       	adc	r24, r24
     988:	88 27       	eor	r24, r24
     98a:	88 1f       	adc	r24, r24
     98c:	11 96       	adiw	r26, 0x01	; 1
     98e:	ec 91       	ld	r30, X
     990:	e7 70       	andi	r30, 0x07	; 7
     992:	ee 0f       	add	r30, r30
     994:	e8 2b       	or	r30, r24
     996:	f0 e0       	ldi	r31, 0x00	; 0
     998:	eb 5b       	subi	r30, 0xBB	; 187
     99a:	fd 4f       	sbci	r31, 0xFD	; 253
     99c:	d8 01       	movw	r26, r16
     99e:	13 97       	sbiw	r26, 0x03	; 3
     9a0:	9c 91       	ld	r25, X
     9a2:	80 81       	ld	r24, Z
     9a4:	89 2b       	or	r24, r25
     9a6:	80 83       	st	Z, r24
     9a8:	f8 01       	movw	r30, r16
     9aa:	32 97       	sbiw	r30, 0x02	; 2
     9ac:	80 81       	ld	r24, Z
     9ae:	8f 3f       	cpi	r24, 0xFF	; 255
     9b0:	c1 f0       	breq	.+48     	; 0x9e2 <__stack+0xe3>
     9b2:	20 91 48 02 	lds	r18, 0x0248
     9b6:	eb 81       	ldd	r30, Y+3	; 0x03
     9b8:	fc 81       	ldd	r31, Y+4	; 0x04
     9ba:	ee 0f       	add	r30, r30
     9bc:	ff 1f       	adc	r31, r31
     9be:	ee 0f       	add	r30, r30
     9c0:	ff 1f       	adc	r31, r31
     9c2:	ee 0f       	add	r30, r30
     9c4:	ff 1f       	adc	r31, r31
     9c6:	4b 81       	ldd	r20, Y+3	; 0x03
     9c8:	5c 81       	ldd	r21, Y+4	; 0x04
     9ca:	e4 1b       	sub	r30, r20
     9cc:	f5 0b       	sbc	r31, r21
     9ce:	ec 5f       	subi	r30, 0xFC	; 252
     9d0:	fe 4f       	sbci	r31, 0xFE	; 254
     9d2:	90 81       	ld	r25, Z
     9d4:	91 70       	andi	r25, 0x01	; 1
     9d6:	91 95       	neg	r25
     9d8:	92 27       	eor	r25, r18
     9da:	89 23       	and	r24, r25
     9dc:	82 27       	eor	r24, r18
     9de:	80 93 48 02 	sts	0x0248, r24
     9e2:	8b 81       	ldd	r24, Y+3	; 0x03
     9e4:	9c 81       	ldd	r25, Y+4	; 0x04
     9e6:	01 96       	adiw	r24, 0x01	; 1
     9e8:	9c 83       	std	Y+4, r25	; 0x04
     9ea:	8b 83       	std	Y+3, r24	; 0x03
     9ec:	09 5f       	subi	r16, 0xF9	; 249
     9ee:	1f 4f       	sbci	r17, 0xFF	; 255
     9f0:	40 97       	sbiw	r24, 0x10	; 16
     9f2:	09 f0       	breq	.+2      	; 0x9f6 <__stack+0xf7>
     9f4:	57 cf       	rjmp	.-338    	; 0x8a4 <trigger_step+0xa0>
     9f6:	80 91 90 05 	lds	r24, 0x0590
     9fa:	86 95       	lsr	r24
     9fc:	81 70       	andi	r24, 0x01	; 1
     9fe:	e9 81       	ldd	r30, Y+1	; 0x01
     a00:	fa 81       	ldd	r31, Y+2	; 0x02
     a02:	92 e2       	ldi	r25, 0x22	; 34
     a04:	89 9f       	mul	r24, r25
     a06:	e0 0d       	add	r30, r0
     a08:	f1 1d       	adc	r31, r1
     a0a:	11 24       	eor	r1, r1
     a0c:	ee 0f       	add	r30, r30
     a0e:	ff 1f       	adc	r31, r31
     a10:	eb 5f       	subi	r30, 0xFB	; 251
     a12:	fa 4f       	sbci	r31, 0xFA	; 250
     a14:	80 91 94 05 	lds	r24, 0x0594
     a18:	98 2f       	mov	r25, r24
     a1a:	92 95       	swap	r25
     a1c:	96 95       	lsr	r25
     a1e:	97 70       	andi	r25, 0x07	; 7
     a20:	80 91 95 05 	lds	r24, 0x0595
     a24:	81 70       	andi	r24, 0x01	; 1
     a26:	88 0f       	add	r24, r24
     a28:	88 0f       	add	r24, r24
     a2a:	88 0f       	add	r24, r24
     a2c:	89 2b       	or	r24, r25
     a2e:	20 81       	ld	r18, Z
     a30:	31 81       	ldd	r19, Z+1	; 0x01
     a32:	d9 01       	movw	r26, r18
     a34:	02 c0       	rjmp	.+4      	; 0xa3a <__stack+0x13b>
     a36:	b6 95       	lsr	r27
     a38:	a7 95       	ror	r26
     a3a:	8a 95       	dec	r24
     a3c:	e2 f7       	brpl	.-8      	; 0xa36 <__stack+0x137>
     a3e:	a0 ff       	sbrs	r26, 0
     a40:	4f c0       	rjmp	.+158    	; 0xae0 <__stack+0x1e1>
     a42:	e5 e4       	ldi	r30, 0x45	; 69
     a44:	f2 e0       	ldi	r31, 0x02	; 2
     a46:	80 85       	ldd	r24, Z+8	; 0x08
     a48:	81 60       	ori	r24, 0x01	; 1
     a4a:	80 87       	std	Z+8, r24	; 0x08
     a4c:	80 91 9c 05 	lds	r24, 0x059C
     a50:	8f 71       	andi	r24, 0x1F	; 31
     a52:	80 31       	cpi	r24, 0x10	; 16
     a54:	09 f4       	brne	.+2      	; 0xa58 <__stack+0x159>
     a56:	2b 9a       	sbi	0x05, 3	; 5
     a58:	80 91 9c 05 	lds	r24, 0x059C
     a5c:	98 2f       	mov	r25, r24
     a5e:	92 95       	swap	r25
     a60:	96 95       	lsr	r25
     a62:	97 70       	andi	r25, 0x07	; 7
     a64:	80 91 9d 05 	lds	r24, 0x059D
     a68:	83 70       	andi	r24, 0x03	; 3
     a6a:	88 0f       	add	r24, r24
     a6c:	88 0f       	add	r24, r24
     a6e:	88 0f       	add	r24, r24
     a70:	89 2b       	or	r24, r25
     a72:	80 31       	cpi	r24, 0x10	; 16
     a74:	09 f4       	brne	.+2      	; 0xa78 <__stack+0x179>
     a76:	2c 9a       	sbi	0x05, 4	; 5
     a78:	80 91 01 05 	lds	r24, 0x0501
     a7c:	84 fd       	sbrc	r24, 4
     a7e:	30 c0       	rjmp	.+96     	; 0xae0 <__stack+0x1e1>
     a80:	84 e1       	ldi	r24, 0x14	; 20
     a82:	0e 94 2f 08 	call	0x105e	; 0x105e <turn_on>
     a86:	2c c0       	rjmp	.+88     	; 0xae0 <__stack+0x1e1>
     a88:	05 e0       	ldi	r16, 0x05	; 5
     a8a:	11 e0       	ldi	r17, 0x01	; 1
     a8c:	1c 82       	std	Y+4, r1	; 0x04
     a8e:	1b 82       	std	Y+3, r1	; 0x03
     a90:	4f 2c       	mov	r4, r15
     a92:	51 2c       	mov	r5, r1
     a94:	0f 2e       	mov	r0, r31
     a96:	f4 e9       	ldi	r31, 0x94	; 148
     a98:	8f 2e       	mov	r8, r31
     a9a:	f5 e0       	ldi	r31, 0x05	; 5
     a9c:	9f 2e       	mov	r9, r31
     a9e:	f0 2d       	mov	r31, r0
     aa0:	0f 2e       	mov	r0, r31
     aa2:	f5 e9       	ldi	r31, 0x95	; 149
     aa4:	af 2e       	mov	r10, r31
     aa6:	f5 e0       	ldi	r31, 0x05	; 5
     aa8:	bf 2e       	mov	r11, r31
     aaa:	f0 2d       	mov	r31, r0
     aac:	0f 2e       	mov	r0, r31
     aae:	f0 e9       	ldi	r31, 0x90	; 144
     ab0:	cf 2e       	mov	r12, r31
     ab2:	f5 e0       	ldi	r31, 0x05	; 5
     ab4:	df 2e       	mov	r13, r31
     ab6:	f0 2d       	mov	r31, r0
     ab8:	72 01       	movw	r14, r4
     aba:	ee 0c       	add	r14, r14
     abc:	ff 1c       	adc	r15, r15
     abe:	ee 0c       	add	r14, r14
     ac0:	ff 1c       	adc	r15, r15
     ac2:	ee 0c       	add	r14, r14
     ac4:	ff 1c       	adc	r15, r15
     ac6:	ee 0c       	add	r14, r14
     ac8:	ff 1c       	adc	r15, r15
     aca:	0f 2e       	mov	r0, r31
     acc:	f2 e2       	ldi	r31, 0x22	; 34
     ace:	3f 2e       	mov	r3, r31
     ad0:	f0 2d       	mov	r31, r0
     ad2:	0f 2e       	mov	r0, r31
     ad4:	fc e9       	ldi	r31, 0x9C	; 156
     ad6:	6f 2e       	mov	r6, r31
     ad8:	f5 e0       	ldi	r31, 0x05	; 5
     ada:	7f 2e       	mov	r7, r31
     adc:	f0 2d       	mov	r31, r0
     ade:	e2 ce       	rjmp	.-572    	; 0x8a4 <trigger_step+0xa0>
     ae0:	0f 90       	pop	r0
     ae2:	0f 90       	pop	r0
     ae4:	0f 90       	pop	r0
     ae6:	0f 90       	pop	r0
     ae8:	df 91       	pop	r29
     aea:	cf 91       	pop	r28
     aec:	1f 91       	pop	r17
     aee:	0f 91       	pop	r16
     af0:	ff 90       	pop	r15
     af2:	ef 90       	pop	r14
     af4:	df 90       	pop	r13
     af6:	cf 90       	pop	r12
     af8:	bf 90       	pop	r11
     afa:	af 90       	pop	r10
     afc:	9f 90       	pop	r9
     afe:	8f 90       	pop	r8
     b00:	7f 90       	pop	r7
     b02:	6f 90       	pop	r6
     b04:	5f 90       	pop	r5
     b06:	4f 90       	pop	r4
     b08:	3f 90       	pop	r3
     b0a:	08 95       	ret

00000b0c <live_hits>:
     b0c:	80 91 07 02 	lds	r24, 0x0207
     b10:	86 ff       	sbrs	r24, 6
     b12:	08 c0       	rjmp	.+16     	; 0xb24 <live_hits+0x18>
     b14:	e7 e0       	ldi	r30, 0x07	; 7
     b16:	f2 e0       	ldi	r31, 0x02	; 2
     b18:	8f 7b       	andi	r24, 0xBF	; 191
     b1a:	80 83       	st	Z, r24
     b1c:	60 e0       	ldi	r22, 0x00	; 0
     b1e:	80 e0       	ldi	r24, 0x00	; 0
     b20:	0e 94 35 03 	call	0x66a	; 0x66a <trigger_drum>
     b24:	80 91 08 02 	lds	r24, 0x0208
     b28:	86 ff       	sbrs	r24, 6
     b2a:	08 c0       	rjmp	.+16     	; 0xb3c <live_hits+0x30>
     b2c:	e8 e0       	ldi	r30, 0x08	; 8
     b2e:	f2 e0       	ldi	r31, 0x02	; 2
     b30:	8f 7b       	andi	r24, 0xBF	; 191
     b32:	80 83       	st	Z, r24
     b34:	60 e0       	ldi	r22, 0x00	; 0
     b36:	81 e0       	ldi	r24, 0x01	; 1
     b38:	0e 94 35 03 	call	0x66a	; 0x66a <trigger_drum>
     b3c:	80 91 09 02 	lds	r24, 0x0209
     b40:	86 ff       	sbrs	r24, 6
     b42:	08 c0       	rjmp	.+16     	; 0xb54 <live_hits+0x48>
     b44:	e9 e0       	ldi	r30, 0x09	; 9
     b46:	f2 e0       	ldi	r31, 0x02	; 2
     b48:	8f 7b       	andi	r24, 0xBF	; 191
     b4a:	80 83       	st	Z, r24
     b4c:	60 e0       	ldi	r22, 0x00	; 0
     b4e:	82 e0       	ldi	r24, 0x02	; 2
     b50:	0e 94 35 03 	call	0x66a	; 0x66a <trigger_drum>
     b54:	80 91 0a 02 	lds	r24, 0x020A
     b58:	86 ff       	sbrs	r24, 6
     b5a:	08 c0       	rjmp	.+16     	; 0xb6c <live_hits+0x60>
     b5c:	ea e0       	ldi	r30, 0x0A	; 10
     b5e:	f2 e0       	ldi	r31, 0x02	; 2
     b60:	8f 7b       	andi	r24, 0xBF	; 191
     b62:	80 83       	st	Z, r24
     b64:	60 e0       	ldi	r22, 0x00	; 0
     b66:	83 e0       	ldi	r24, 0x03	; 3
     b68:	0e 94 35 03 	call	0x66a	; 0x66a <trigger_drum>
     b6c:	80 91 0b 02 	lds	r24, 0x020B
     b70:	86 ff       	sbrs	r24, 6
     b72:	08 c0       	rjmp	.+16     	; 0xb84 <live_hits+0x78>
     b74:	eb e0       	ldi	r30, 0x0B	; 11
     b76:	f2 e0       	ldi	r31, 0x02	; 2
     b78:	8f 7b       	andi	r24, 0xBF	; 191
     b7a:	80 83       	st	Z, r24
     b7c:	60 e0       	ldi	r22, 0x00	; 0
     b7e:	84 e0       	ldi	r24, 0x04	; 4
     b80:	0e 94 35 03 	call	0x66a	; 0x66a <trigger_drum>
     b84:	80 91 0c 02 	lds	r24, 0x020C
     b88:	86 ff       	sbrs	r24, 6
     b8a:	08 c0       	rjmp	.+16     	; 0xb9c <live_hits+0x90>
     b8c:	ec e0       	ldi	r30, 0x0C	; 12
     b8e:	f2 e0       	ldi	r31, 0x02	; 2
     b90:	8f 7b       	andi	r24, 0xBF	; 191
     b92:	80 83       	st	Z, r24
     b94:	60 e0       	ldi	r22, 0x00	; 0
     b96:	85 e0       	ldi	r24, 0x05	; 5
     b98:	0e 94 35 03 	call	0x66a	; 0x66a <trigger_drum>
     b9c:	80 91 0d 02 	lds	r24, 0x020D
     ba0:	86 ff       	sbrs	r24, 6
     ba2:	08 c0       	rjmp	.+16     	; 0xbb4 <live_hits+0xa8>
     ba4:	ed e0       	ldi	r30, 0x0D	; 13
     ba6:	f2 e0       	ldi	r31, 0x02	; 2
     ba8:	8f 7b       	andi	r24, 0xBF	; 191
     baa:	80 83       	st	Z, r24
     bac:	60 e0       	ldi	r22, 0x00	; 0
     bae:	86 e0       	ldi	r24, 0x06	; 6
     bb0:	0e 94 35 03 	call	0x66a	; 0x66a <trigger_drum>
     bb4:	80 91 0e 02 	lds	r24, 0x020E
     bb8:	86 ff       	sbrs	r24, 6
     bba:	08 c0       	rjmp	.+16     	; 0xbcc <live_hits+0xc0>
     bbc:	ee e0       	ldi	r30, 0x0E	; 14
     bbe:	f2 e0       	ldi	r31, 0x02	; 2
     bc0:	8f 7b       	andi	r24, 0xBF	; 191
     bc2:	80 83       	st	Z, r24
     bc4:	60 e0       	ldi	r22, 0x00	; 0
     bc6:	87 e0       	ldi	r24, 0x07	; 7
     bc8:	0e 94 35 03 	call	0x66a	; 0x66a <trigger_drum>
     bcc:	80 91 0f 02 	lds	r24, 0x020F
     bd0:	86 ff       	sbrs	r24, 6
     bd2:	08 c0       	rjmp	.+16     	; 0xbe4 <live_hits+0xd8>
     bd4:	ef e0       	ldi	r30, 0x0F	; 15
     bd6:	f2 e0       	ldi	r31, 0x02	; 2
     bd8:	8f 7b       	andi	r24, 0xBF	; 191
     bda:	80 83       	st	Z, r24
     bdc:	60 e0       	ldi	r22, 0x00	; 0
     bde:	88 e0       	ldi	r24, 0x08	; 8
     be0:	0e 94 35 03 	call	0x66a	; 0x66a <trigger_drum>
     be4:	80 91 10 02 	lds	r24, 0x0210
     be8:	86 ff       	sbrs	r24, 6
     bea:	08 c0       	rjmp	.+16     	; 0xbfc <live_hits+0xf0>
     bec:	e0 e1       	ldi	r30, 0x10	; 16
     bee:	f2 e0       	ldi	r31, 0x02	; 2
     bf0:	8f 7b       	andi	r24, 0xBF	; 191
     bf2:	80 83       	st	Z, r24
     bf4:	60 e0       	ldi	r22, 0x00	; 0
     bf6:	89 e0       	ldi	r24, 0x09	; 9
     bf8:	0e 94 35 03 	call	0x66a	; 0x66a <trigger_drum>
     bfc:	80 91 11 02 	lds	r24, 0x0211
     c00:	86 ff       	sbrs	r24, 6
     c02:	08 c0       	rjmp	.+16     	; 0xc14 <live_hits+0x108>
     c04:	e1 e1       	ldi	r30, 0x11	; 17
     c06:	f2 e0       	ldi	r31, 0x02	; 2
     c08:	8f 7b       	andi	r24, 0xBF	; 191
     c0a:	80 83       	st	Z, r24
     c0c:	60 e0       	ldi	r22, 0x00	; 0
     c0e:	8a e0       	ldi	r24, 0x0A	; 10
     c10:	0e 94 35 03 	call	0x66a	; 0x66a <trigger_drum>
     c14:	08 95       	ret

00000c16 <__vector_2>:
     c16:	1f 92       	push	r1
     c18:	0f 92       	push	r0
     c1a:	0f b6       	in	r0, 0x3f	; 63
     c1c:	0f 92       	push	r0
     c1e:	11 24       	eor	r1, r1
     c20:	2f 93       	push	r18
     c22:	3f 93       	push	r19
     c24:	4f 93       	push	r20
     c26:	5f 93       	push	r21
     c28:	6f 93       	push	r22
     c2a:	7f 93       	push	r23
     c2c:	8f 93       	push	r24
     c2e:	9f 93       	push	r25
     c30:	af 93       	push	r26
     c32:	bf 93       	push	r27
     c34:	ef 93       	push	r30
     c36:	ff 93       	push	r31
     c38:	80 91 e6 02 	lds	r24, 0x02E6
     c3c:	85 ff       	sbrs	r24, 5
     c3e:	15 c0       	rjmp	.+42     	; 0xc6a <__vector_2+0x54>
     c40:	e2 e0       	ldi	r30, 0x02	; 2
     c42:	f3 e0       	ldi	r31, 0x03	; 3
     c44:	80 81       	ld	r24, Z
     c46:	86 95       	lsr	r24
     c48:	86 95       	lsr	r24
     c4a:	86 95       	lsr	r24
     c4c:	8f 5f       	subi	r24, 0xFF	; 255
     c4e:	87 70       	andi	r24, 0x07	; 7
     c50:	28 2f       	mov	r18, r24
     c52:	22 0f       	add	r18, r18
     c54:	22 0f       	add	r18, r18
     c56:	22 0f       	add	r18, r18
     c58:	90 81       	ld	r25, Z
     c5a:	97 7c       	andi	r25, 0xC7	; 199
     c5c:	92 2b       	or	r25, r18
     c5e:	90 83       	st	Z, r25
     c60:	81 30       	cpi	r24, 0x01	; 1
     c62:	29 f4       	brne	.+10     	; 0xc6e <__vector_2+0x58>
     c64:	0e 94 a6 02 	call	0x54c	; 0x54c <process_external_clock_event>
     c68:	02 c0       	rjmp	.+4      	; 0xc6e <__vector_2+0x58>
     c6a:	0e 94 a6 02 	call	0x54c	; 0x54c <process_external_clock_event>
     c6e:	ff 91       	pop	r31
     c70:	ef 91       	pop	r30
     c72:	bf 91       	pop	r27
     c74:	af 91       	pop	r26
     c76:	9f 91       	pop	r25
     c78:	8f 91       	pop	r24
     c7a:	7f 91       	pop	r23
     c7c:	6f 91       	pop	r22
     c7e:	5f 91       	pop	r21
     c80:	4f 91       	pop	r20
     c82:	3f 91       	pop	r19
     c84:	2f 91       	pop	r18
     c86:	0f 90       	pop	r0
     c88:	0f be       	out	0x3f, r0	; 63
     c8a:	0f 90       	pop	r0
     c8c:	1f 90       	pop	r1
     c8e:	18 95       	reti

00000c90 <__vector_1>:
     c90:	1f 92       	push	r1
     c92:	0f 92       	push	r0
     c94:	0f b6       	in	r0, 0x3f	; 63
     c96:	0f 92       	push	r0
     c98:	11 24       	eor	r1, r1
     c9a:	2f 93       	push	r18
     c9c:	3f 93       	push	r19
     c9e:	4f 93       	push	r20
     ca0:	5f 93       	push	r21
     ca2:	6f 93       	push	r22
     ca4:	7f 93       	push	r23
     ca6:	8f 93       	push	r24
     ca8:	9f 93       	push	r25
     caa:	af 93       	push	r26
     cac:	bf 93       	push	r27
     cae:	ef 93       	push	r30
     cb0:	ff 93       	push	r31
     cb2:	0e 94 e1 02 	call	0x5c2	; 0x5c2 <process_external_sync_pulse>
     cb6:	32 9a       	sbi	0x06, 2	; 6
     cb8:	ea e0       	ldi	r30, 0x0A	; 10
     cba:	f3 e0       	ldi	r31, 0x03	; 3
     cbc:	80 81       	ld	r24, Z
     cbe:	80 95       	com	r24
     cc0:	90 81       	ld	r25, Z
     cc2:	80 fb       	bst	r24, 0
     cc4:	90 f9       	bld	r25, 0
     cc6:	90 83       	st	Z, r25
     cc8:	ff 91       	pop	r31
     cca:	ef 91       	pop	r30
     ccc:	bf 91       	pop	r27
     cce:	af 91       	pop	r26
     cd0:	9f 91       	pop	r25
     cd2:	8f 91       	pop	r24
     cd4:	7f 91       	pop	r23
     cd6:	6f 91       	pop	r22
     cd8:	5f 91       	pop	r21
     cda:	4f 91       	pop	r20
     cdc:	3f 91       	pop	r19
     cde:	2f 91       	pop	r18
     ce0:	0f 90       	pop	r0
     ce2:	0f be       	out	0x3f, r0	; 63
     ce4:	0f 90       	pop	r0
     ce6:	1f 90       	pop	r1
     ce8:	18 95       	reti

00000cea <__vector_5>:
     cea:	1f 92       	push	r1
     cec:	0f 92       	push	r0
     cee:	0f b6       	in	r0, 0x3f	; 63
     cf0:	0f 92       	push	r0
     cf2:	11 24       	eor	r1, r1
     cf4:	2f 93       	push	r18
     cf6:	3f 93       	push	r19
     cf8:	4f 93       	push	r20
     cfa:	5f 93       	push	r21
     cfc:	6f 93       	push	r22
     cfe:	7f 93       	push	r23
     d00:	8f 93       	push	r24
     d02:	9f 93       	push	r25
     d04:	af 93       	push	r26
     d06:	bf 93       	push	r27
     d08:	ef 93       	push	r30
     d0a:	ff 93       	push	r31
     d0c:	4c 9b       	sbis	0x09, 4	; 9
     d0e:	08 c0       	rjmp	.+16     	; 0xd20 <__vector_5+0x36>
     d10:	e1 e0       	ldi	r30, 0x01	; 1
     d12:	f5 e0       	ldi	r31, 0x05	; 5
     d14:	80 81       	ld	r24, Z
     d16:	80 62       	ori	r24, 0x20	; 32
     d18:	80 83       	st	Z, r24
     d1a:	0e 94 1a 0f 	call	0x1e34	; 0x1e34 <process_start>
     d1e:	07 c0       	rjmp	.+14     	; 0xd2e <__vector_5+0x44>
     d20:	e1 e0       	ldi	r30, 0x01	; 1
     d22:	f5 e0       	ldi	r31, 0x05	; 5
     d24:	80 81       	ld	r24, Z
     d26:	8f 7d       	andi	r24, 0xDF	; 223
     d28:	80 83       	st	Z, r24
     d2a:	0e 94 d4 10 	call	0x21a8	; 0x21a8 <process_stop>
     d2e:	ff 91       	pop	r31
     d30:	ef 91       	pop	r30
     d32:	bf 91       	pop	r27
     d34:	af 91       	pop	r26
     d36:	9f 91       	pop	r25
     d38:	8f 91       	pop	r24
     d3a:	7f 91       	pop	r23
     d3c:	6f 91       	pop	r22
     d3e:	5f 91       	pop	r21
     d40:	4f 91       	pop	r20
     d42:	3f 91       	pop	r19
     d44:	2f 91       	pop	r18
     d46:	0f 90       	pop	r0
     d48:	0f be       	out	0x3f, r0	; 63
     d4a:	0f 90       	pop	r0
     d4c:	1f 90       	pop	r1
     d4e:	18 95       	reti

00000d50 <__vector_14>:
     d50:	1f 92       	push	r1
     d52:	0f 92       	push	r0
     d54:	0f b6       	in	r0, 0x3f	; 63
     d56:	0f 92       	push	r0
     d58:	11 24       	eor	r1, r1
     d5a:	2f 93       	push	r18
     d5c:	3f 93       	push	r19
     d5e:	4f 93       	push	r20
     d60:	5f 93       	push	r21
     d62:	6f 93       	push	r22
     d64:	7f 93       	push	r23
     d66:	8f 93       	push	r24
     d68:	9f 93       	push	r25
     d6a:	af 93       	push	r26
     d6c:	bf 93       	push	r27
     d6e:	cf 93       	push	r28
     d70:	df 93       	push	r29
     d72:	ef 93       	push	r30
     d74:	ff 93       	push	r31
     d76:	15 bc       	out	0x25, r1	; 37
     d78:	ee e6       	ldi	r30, 0x6E	; 110
     d7a:	f0 e0       	ldi	r31, 0x00	; 0
     d7c:	80 81       	ld	r24, Z
     d7e:	8d 7f       	andi	r24, 0xFD	; 253
     d80:	80 83       	st	Z, r24
     d82:	85 b1       	in	r24, 0x05	; 5
     d84:	87 7e       	andi	r24, 0xE7	; 231
     d86:	85 b9       	out	0x05, r24	; 5
     d88:	e5 ee       	ldi	r30, 0xE5	; 229
     d8a:	f2 e0       	ldi	r31, 0x02	; 2
     d8c:	80 81       	ld	r24, Z
     d8e:	88 60       	ori	r24, 0x08	; 8
     d90:	80 83       	st	Z, r24
     d92:	80 91 00 05 	lds	r24, 0x0500
     d96:	81 11       	cpse	r24, r1
     d98:	2f c0       	rjmp	.+94     	; 0xdf8 <__vector_14+0xa8>
     d9a:	a0 91 34 02 	lds	r26, 0x0234
     d9e:	87 e0       	ldi	r24, 0x07	; 7
     da0:	a8 9f       	mul	r26, r24
     da2:	d0 01       	movw	r26, r0
     da4:	11 24       	eor	r1, r1
     da6:	a0 50       	subi	r26, 0x00	; 0
     da8:	bf 4f       	sbci	r27, 0xFF	; 255
     daa:	ec 91       	ld	r30, X
     dac:	8e 2f       	mov	r24, r30
     dae:	88 1f       	adc	r24, r24
     db0:	88 27       	eor	r24, r24
     db2:	88 1f       	adc	r24, r24
     db4:	11 96       	adiw	r26, 0x01	; 1
     db6:	ec 91       	ld	r30, X
     db8:	11 97       	sbiw	r26, 0x01	; 1
     dba:	e7 70       	andi	r30, 0x07	; 7
     dbc:	ee 0f       	add	r30, r30
     dbe:	e8 2b       	or	r30, r24
     dc0:	f0 e0       	ldi	r31, 0x00	; 0
     dc2:	c5 e4       	ldi	r28, 0x45	; 69
     dc4:	d2 e0       	ldi	r29, 0x02	; 2
     dc6:	eb 5b       	subi	r30, 0xBB	; 187
     dc8:	fd 4f       	sbci	r31, 0xFD	; 253
     dca:	12 96       	adiw	r26, 0x02	; 2
     dcc:	8c 91       	ld	r24, X
     dce:	80 95       	com	r24
     dd0:	90 81       	ld	r25, Z
     dd2:	89 23       	and	r24, r25
     dd4:	80 83       	st	Z, r24
     dd6:	84 e1       	ldi	r24, 0x14	; 20
     dd8:	0e 94 4a 08 	call	0x1094	; 0x1094 <turn_off>
     ddc:	88 85       	ldd	r24, Y+8	; 0x08
     dde:	8e 7f       	andi	r24, 0xFE	; 254
     de0:	88 87       	std	Y+8, r24	; 0x08
     de2:	e0 91 34 02 	lds	r30, 0x0234
     de6:	87 e0       	ldi	r24, 0x07	; 7
     de8:	e8 9f       	mul	r30, r24
     dea:	f0 01       	movw	r30, r0
     dec:	11 24       	eor	r1, r1
     dee:	e0 50       	subi	r30, 0x00	; 0
     df0:	ff 4f       	sbci	r31, 0xFF	; 255
     df2:	85 81       	ldd	r24, Z+5	; 0x05
     df4:	0e 94 4a 08 	call	0x1094	; 0x1094 <turn_off>
     df8:	ff 91       	pop	r31
     dfa:	ef 91       	pop	r30
     dfc:	df 91       	pop	r29
     dfe:	cf 91       	pop	r28
     e00:	bf 91       	pop	r27
     e02:	af 91       	pop	r26
     e04:	9f 91       	pop	r25
     e06:	8f 91       	pop	r24
     e08:	7f 91       	pop	r23
     e0a:	6f 91       	pop	r22
     e0c:	5f 91       	pop	r21
     e0e:	4f 91       	pop	r20
     e10:	3f 91       	pop	r19
     e12:	2f 91       	pop	r18
     e14:	0f 90       	pop	r0
     e16:	0f be       	out	0x3f, r0	; 63
     e18:	0f 90       	pop	r0
     e1a:	1f 90       	pop	r1
     e1c:	18 95       	reti

00000e1e <__vector_7>:
     e1e:	1f 92       	push	r1
     e20:	0f 92       	push	r0
     e22:	0f b6       	in	r0, 0x3f	; 63
     e24:	0f 92       	push	r0
     e26:	11 24       	eor	r1, r1
     e28:	8f 93       	push	r24
     e2a:	ef 93       	push	r30
     e2c:	ff 93       	push	r31
     e2e:	e7 ee       	ldi	r30, 0xE7	; 231
     e30:	f2 e0       	ldi	r31, 0x02	; 2
     e32:	80 81       	ld	r24, Z
     e34:	82 60       	ori	r24, 0x02	; 2
     e36:	80 83       	st	Z, r24
     e38:	ff 91       	pop	r31
     e3a:	ef 91       	pop	r30
     e3c:	8f 91       	pop	r24
     e3e:	0f 90       	pop	r0
     e40:	0f be       	out	0x3f, r0	; 63
     e42:	0f 90       	pop	r0
     e44:	1f 90       	pop	r1
     e46:	18 95       	reti

00000e48 <__vector_33>:
     e48:	1f 92       	push	r1
     e4a:	0f 92       	push	r0
     e4c:	0f b6       	in	r0, 0x3f	; 63
     e4e:	0f 92       	push	r0
     e50:	11 24       	eor	r1, r1
     e52:	0f 90       	pop	r0
     e54:	0f be       	out	0x3f, r0	; 63
     e56:	0f 90       	pop	r0
     e58:	1f 90       	pop	r1
     e5a:	18 95       	reti

00000e5c <__vector_42>:
     e5c:	1f 92       	push	r1
     e5e:	0f 92       	push	r0
     e60:	0f b6       	in	r0, 0x3f	; 63
     e62:	0f 92       	push	r0
     e64:	11 24       	eor	r1, r1
     e66:	0f 90       	pop	r0
     e68:	0f be       	out	0x3f, r0	; 63
     e6a:	0f 90       	pop	r0
     e6c:	1f 90       	pop	r1
     e6e:	18 95       	reti

00000e70 <__vector_11>:
     e70:	1f 92       	push	r1
     e72:	0f 92       	push	r0
     e74:	0f b6       	in	r0, 0x3f	; 63
     e76:	0f 92       	push	r0
     e78:	11 24       	eor	r1, r1
     e7a:	2f 93       	push	r18
     e7c:	3f 93       	push	r19
     e7e:	4f 93       	push	r20
     e80:	5f 93       	push	r21
     e82:	6f 93       	push	r22
     e84:	7f 93       	push	r23
     e86:	8f 93       	push	r24
     e88:	9f 93       	push	r25
     e8a:	af 93       	push	r26
     e8c:	bf 93       	push	r27
     e8e:	ef 93       	push	r30
     e90:	ff 93       	push	r31
     e92:	80 91 e6 02 	lds	r24, 0x02E6
     e96:	85 fd       	sbrc	r24, 5
     e98:	5d c0       	rjmp	.+186    	; 0xf54 <__vector_11+0xe4>
     e9a:	0e 94 1d 0e 	call	0x1c3a	; 0x1c3a <process_tick>
     e9e:	e2 e0       	ldi	r30, 0x02	; 2
     ea0:	f3 e0       	ldi	r31, 0x03	; 3
     ea2:	20 81       	ld	r18, Z
     ea4:	27 70       	andi	r18, 0x07	; 7
     ea6:	81 e0       	ldi	r24, 0x01	; 1
     ea8:	82 0f       	add	r24, r18
     eaa:	98 2f       	mov	r25, r24
     eac:	97 70       	andi	r25, 0x07	; 7
     eae:	80 81       	ld	r24, Z
     eb0:	88 7f       	andi	r24, 0xF8	; 248
     eb2:	89 2b       	or	r24, r25
     eb4:	80 83       	st	Z, r24
     eb6:	23 30       	cpi	r18, 0x03	; 3
     eb8:	09 f0       	breq	.+2      	; 0xebc <__vector_11+0x4c>
     eba:	4c c0       	rjmp	.+152    	; 0xf54 <__vector_11+0xe4>
     ebc:	80 81       	ld	r24, Z
     ebe:	88 7f       	andi	r24, 0xF8	; 248
     ec0:	80 83       	st	Z, r24
     ec2:	80 91 00 05 	lds	r24, 0x0500
     ec6:	81 30       	cpi	r24, 0x01	; 1
     ec8:	51 f4       	brne	.+20     	; 0xede <__vector_11+0x6e>
     eca:	8c e0       	ldi	r24, 0x0C	; 12
     ecc:	93 e0       	ldi	r25, 0x03	; 3
     ece:	0e 94 e7 26 	call	0x4dce	; 0x4dce <midi_send_clock>
     ed2:	80 91 01 05 	lds	r24, 0x0501
     ed6:	85 ff       	sbrs	r24, 5
     ed8:	3d c0       	rjmp	.+122    	; 0xf54 <__vector_11+0xe4>
     eda:	32 9a       	sbi	0x06, 2	; 6
     edc:	3b c0       	rjmp	.+118    	; 0xf54 <__vector_11+0xe4>
     ede:	83 30       	cpi	r24, 0x03	; 3
     ee0:	c9 f5       	brne	.+114    	; 0xf54 <__vector_11+0xe4>
     ee2:	e0 eb       	ldi	r30, 0xB0	; 176
     ee4:	f0 e0       	ldi	r31, 0x00	; 0
     ee6:	80 81       	ld	r24, Z
     ee8:	8f 7e       	andi	r24, 0xEF	; 239
     eea:	80 83       	st	Z, r24
     eec:	a1 eb       	ldi	r26, 0xB1	; 177
     eee:	b0 e0       	ldi	r27, 0x00	; 0
     ef0:	8c 91       	ld	r24, X
     ef2:	80 64       	ori	r24, 0x40	; 64
     ef4:	8c 93       	st	X, r24
     ef6:	80 81       	ld	r24, Z
     ef8:	80 63       	ori	r24, 0x30	; 48
     efa:	80 83       	st	Z, r24
     efc:	10 92 b2 00 	sts	0x00B2, r1
     f00:	80 91 01 05 	lds	r24, 0x0501
     f04:	85 fd       	sbrc	r24, 5
     f06:	32 9a       	sbi	0x06, 2	; 6
     f08:	80 91 e7 02 	lds	r24, 0x02E7
     f0c:	82 ff       	sbrs	r24, 2
     f0e:	22 c0       	rjmp	.+68     	; 0xf54 <__vector_11+0xe4>
     f10:	e2 e0       	ldi	r30, 0x02	; 2
     f12:	f3 e0       	ldi	r31, 0x03	; 3
     f14:	80 81       	ld	r24, Z
     f16:	86 95       	lsr	r24
     f18:	86 95       	lsr	r24
     f1a:	86 95       	lsr	r24
     f1c:	8f 5f       	subi	r24, 0xFF	; 255
     f1e:	87 70       	andi	r24, 0x07	; 7
     f20:	28 2f       	mov	r18, r24
     f22:	22 0f       	add	r18, r18
     f24:	22 0f       	add	r18, r18
     f26:	22 0f       	add	r18, r18
     f28:	90 81       	ld	r25, Z
     f2a:	97 7c       	andi	r25, 0xC7	; 199
     f2c:	92 2b       	or	r25, r18
     f2e:	90 83       	st	Z, r25
     f30:	81 30       	cpi	r24, 0x01	; 1
     f32:	81 f4       	brne	.+32     	; 0xf54 <__vector_11+0xe4>
     f34:	e7 ee       	ldi	r30, 0xE7	; 231
     f36:	f2 e0       	ldi	r31, 0x02	; 2
     f38:	80 81       	ld	r24, Z
     f3a:	8b 7f       	andi	r24, 0xFB	; 251
     f3c:	80 83       	st	Z, r24
     f3e:	5c 9a       	sbi	0x0b, 4	; 11
     f40:	10 92 01 03 	sts	0x0301, r1
     f44:	e5 ee       	ldi	r30, 0xE5	; 229
     f46:	f2 e0       	ldi	r31, 0x02	; 2
     f48:	80 81       	ld	r24, Z
     f4a:	81 60       	ori	r24, 0x01	; 1
     f4c:	80 83       	st	Z, r24
     f4e:	80 81       	ld	r24, Z
     f50:	8d 7f       	andi	r24, 0xFD	; 253
     f52:	80 83       	st	Z, r24
     f54:	ff 91       	pop	r31
     f56:	ef 91       	pop	r30
     f58:	bf 91       	pop	r27
     f5a:	af 91       	pop	r26
     f5c:	9f 91       	pop	r25
     f5e:	8f 91       	pop	r24
     f60:	7f 91       	pop	r23
     f62:	6f 91       	pop	r22
     f64:	5f 91       	pop	r21
     f66:	4f 91       	pop	r20
     f68:	3f 91       	pop	r19
     f6a:	2f 91       	pop	r18
     f6c:	0f 90       	pop	r0
     f6e:	0f be       	out	0x3f, r0	; 63
     f70:	0f 90       	pop	r0
     f72:	1f 90       	pop	r1
     f74:	18 95       	reti

00000f76 <__vector_18>:
     f76:	1f 92       	push	r1
     f78:	0f 92       	push	r0
     f7a:	0f b6       	in	r0, 0x3f	; 63
     f7c:	0f 92       	push	r0
     f7e:	11 24       	eor	r1, r1
     f80:	2f 93       	push	r18
     f82:	3f 93       	push	r19
     f84:	4f 93       	push	r20
     f86:	5f 93       	push	r21
     f88:	6f 93       	push	r22
     f8a:	7f 93       	push	r23
     f8c:	8f 93       	push	r24
     f8e:	9f 93       	push	r25
     f90:	af 93       	push	r26
     f92:	bf 93       	push	r27
     f94:	ef 93       	push	r30
     f96:	ff 93       	push	r31
     f98:	cf 93       	push	r28
     f9a:	df 93       	push	r29
     f9c:	1f 92       	push	r1
     f9e:	cd b7       	in	r28, 0x3d	; 61
     fa0:	de b7       	in	r29, 0x3e	; 62
     fa2:	80 91 c6 00 	lds	r24, 0x00C6
     fa6:	89 83       	std	Y+1, r24	; 0x01
     fa8:	ae 01       	movw	r20, r28
     faa:	4f 5f       	subi	r20, 0xFF	; 255
     fac:	5f 4f       	sbci	r21, 0xFF	; 255
     fae:	61 e0       	ldi	r22, 0x01	; 1
     fb0:	8c e0       	ldi	r24, 0x0C	; 12
     fb2:	93 e0       	ldi	r25, 0x03	; 3
     fb4:	0e 94 48 27 	call	0x4e90	; 0x4e90 <midi_device_input>
     fb8:	0f 90       	pop	r0
     fba:	df 91       	pop	r29
     fbc:	cf 91       	pop	r28
     fbe:	ff 91       	pop	r31
     fc0:	ef 91       	pop	r30
     fc2:	bf 91       	pop	r27
     fc4:	af 91       	pop	r26
     fc6:	9f 91       	pop	r25
     fc8:	8f 91       	pop	r24
     fca:	7f 91       	pop	r23
     fcc:	6f 91       	pop	r22
     fce:	5f 91       	pop	r21
     fd0:	4f 91       	pop	r20
     fd2:	3f 91       	pop	r19
     fd4:	2f 91       	pop	r18
     fd6:	0f 90       	pop	r0
     fd8:	0f be       	out	0x3f, r0	; 63
     fda:	0f 90       	pop	r0
     fdc:	1f 90       	pop	r1
     fde:	18 95       	reti

00000fe0 <__vector_19>:
     fe0:	1f 92       	push	r1
     fe2:	0f 92       	push	r0
     fe4:	0f b6       	in	r0, 0x3f	; 63
     fe6:	0f 92       	push	r0
     fe8:	11 24       	eor	r1, r1
     fea:	2f 93       	push	r18
     fec:	3f 93       	push	r19
     fee:	4f 93       	push	r20
     ff0:	5f 93       	push	r21
     ff2:	6f 93       	push	r22
     ff4:	7f 93       	push	r23
     ff6:	8f 93       	push	r24
     ff8:	9f 93       	push	r25
     ffa:	af 93       	push	r26
     ffc:	bf 93       	push	r27
     ffe:	ef 93       	push	r30
    1000:	ff 93       	push	r31
    1002:	89 eb       	ldi	r24, 0xB9	; 185
    1004:	94 e0       	ldi	r25, 0x04	; 4
    1006:	0e 94 62 26 	call	0x4cc4	; 0x4cc4 <bytequeue_length>
    100a:	88 23       	and	r24, r24
    100c:	61 f0       	breq	.+24     	; 0x1026 <__vector_19+0x46>
    100e:	60 e0       	ldi	r22, 0x00	; 0
    1010:	89 eb       	ldi	r24, 0xB9	; 185
    1012:	94 e0       	ldi	r25, 0x04	; 4
    1014:	0e 94 78 26 	call	0x4cf0	; 0x4cf0 <bytequeue_get>
    1018:	80 93 c6 00 	sts	0x00C6, r24
    101c:	61 e0       	ldi	r22, 0x01	; 1
    101e:	89 eb       	ldi	r24, 0xB9	; 185
    1020:	94 e0       	ldi	r25, 0x04	; 4
    1022:	0e 94 8a 26 	call	0x4d14	; 0x4d14 <bytequeue_remove>
    1026:	89 eb       	ldi	r24, 0xB9	; 185
    1028:	94 e0       	ldi	r25, 0x04	; 4
    102a:	0e 94 62 26 	call	0x4cc4	; 0x4cc4 <bytequeue_length>
    102e:	81 11       	cpse	r24, r1
    1030:	05 c0       	rjmp	.+10     	; 0x103c <__vector_19+0x5c>
    1032:	e1 ec       	ldi	r30, 0xC1	; 193
    1034:	f0 e0       	ldi	r31, 0x00	; 0
    1036:	80 81       	ld	r24, Z
    1038:	8f 7d       	andi	r24, 0xDF	; 223
    103a:	80 83       	st	Z, r24
    103c:	ff 91       	pop	r31
    103e:	ef 91       	pop	r30
    1040:	bf 91       	pop	r27
    1042:	af 91       	pop	r26
    1044:	9f 91       	pop	r25
    1046:	8f 91       	pop	r24
    1048:	7f 91       	pop	r23
    104a:	6f 91       	pop	r22
    104c:	5f 91       	pop	r21
    104e:	4f 91       	pop	r20
    1050:	3f 91       	pop	r19
    1052:	2f 91       	pop	r18
    1054:	0f 90       	pop	r0
    1056:	0f be       	out	0x3f, r0	; 63
    1058:	0f 90       	pop	r0
    105a:	1f 90       	pop	r1
    105c:	18 95       	reti

0000105e <turn_on>:
    105e:	cf 93       	push	r28
    1060:	df 93       	push	r29
    1062:	90 e0       	ldi	r25, 0x00	; 0
    1064:	88 0f       	add	r24, r24
    1066:	99 1f       	adc	r25, r25
    1068:	dc 01       	movw	r26, r24
    106a:	ac 57       	subi	r26, 0x7C	; 124
    106c:	be 4f       	sbci	r27, 0xFE	; 254
    106e:	2c 91       	ld	r18, X
    1070:	e2 2f       	mov	r30, r18
    1072:	ef 70       	andi	r30, 0x0F	; 15
    1074:	f0 e0       	ldi	r31, 0x00	; 0
    1076:	eb 5b       	subi	r30, 0xBB	; 187
    1078:	fd 4f       	sbci	r31, 0xFD	; 253
    107a:	ec 01       	movw	r28, r24
    107c:	cd 57       	subi	r28, 0x7D	; 125
    107e:	de 4f       	sbci	r29, 0xFE	; 254
    1080:	30 81       	ld	r19, Z
    1082:	88 81       	ld	r24, Y
    1084:	83 2b       	or	r24, r19
    1086:	80 83       	st	Z, r24
    1088:	82 2f       	mov	r24, r18
    108a:	80 61       	ori	r24, 0x10	; 16
    108c:	8c 93       	st	X, r24
    108e:	df 91       	pop	r29
    1090:	cf 91       	pop	r28
    1092:	08 95       	ret

00001094 <turn_off>:
    1094:	cf 93       	push	r28
    1096:	df 93       	push	r29
    1098:	90 e0       	ldi	r25, 0x00	; 0
    109a:	88 0f       	add	r24, r24
    109c:	99 1f       	adc	r25, r25
    109e:	dc 01       	movw	r26, r24
    10a0:	ac 57       	subi	r26, 0x7C	; 124
    10a2:	be 4f       	sbci	r27, 0xFE	; 254
    10a4:	2c 91       	ld	r18, X
    10a6:	e2 2f       	mov	r30, r18
    10a8:	ef 70       	andi	r30, 0x0F	; 15
    10aa:	f0 e0       	ldi	r31, 0x00	; 0
    10ac:	eb 5b       	subi	r30, 0xBB	; 187
    10ae:	fd 4f       	sbci	r31, 0xFD	; 253
    10b0:	ec 01       	movw	r28, r24
    10b2:	cd 57       	subi	r28, 0x7D	; 125
    10b4:	de 4f       	sbci	r29, 0xFE	; 254
    10b6:	88 81       	ld	r24, Y
    10b8:	80 95       	com	r24
    10ba:	90 81       	ld	r25, Z
    10bc:	89 23       	and	r24, r25
    10be:	80 83       	st	Z, r24
    10c0:	82 2f       	mov	r24, r18
    10c2:	8f 7e       	andi	r24, 0xEF	; 239
    10c4:	8c 93       	st	X, r24
    10c6:	df 91       	pop	r29
    10c8:	cf 91       	pop	r28
    10ca:	08 95       	ret

000010cc <toggle>:
    10cc:	e8 2f       	mov	r30, r24
    10ce:	f0 e0       	ldi	r31, 0x00	; 0
    10d0:	ee 0f       	add	r30, r30
    10d2:	ff 1f       	adc	r31, r31
    10d4:	ec 57       	subi	r30, 0x7C	; 124
    10d6:	fe 4f       	sbci	r31, 0xFE	; 254
    10d8:	90 81       	ld	r25, Z
    10da:	94 ff       	sbrs	r25, 4
    10dc:	03 c0       	rjmp	.+6      	; 0x10e4 <toggle+0x18>
    10de:	0e 94 4a 08 	call	0x1094	; 0x1094 <turn_off>
    10e2:	08 95       	ret
    10e4:	0e 94 2f 08 	call	0x105e	; 0x105e <turn_on>
    10e8:	08 95       	ret

000010ea <turn_off_all_inst_leds>:
    10ea:	e5 e4       	ldi	r30, 0x45	; 69
    10ec:	f2 e0       	ldi	r31, 0x02	; 2
    10ee:	82 81       	ldd	r24, Z+2	; 0x02
    10f0:	8f 70       	andi	r24, 0x0F	; 15
    10f2:	82 83       	std	Z+2, r24	; 0x02
    10f4:	87 81       	ldd	r24, Z+7	; 0x07
    10f6:	80 72       	andi	r24, 0x20	; 32
    10f8:	87 83       	std	Z+7, r24	; 0x07
    10fa:	83 81       	ldd	r24, Z+3	; 0x03
    10fc:	8f 70       	andi	r24, 0x0F	; 15
    10fe:	83 83       	std	Z+3, r24	; 0x03
    1100:	86 81       	ldd	r24, Z+6	; 0x06
    1102:	8f 7c       	andi	r24, 0xCF	; 207
    1104:	86 83       	std	Z+6, r24	; 0x06
    1106:	08 95       	ret

00001108 <show_mutes>:
    1108:	0f 93       	push	r16
    110a:	1f 93       	push	r17
    110c:	cf 93       	push	r28
    110e:	df 93       	push	r29
    1110:	05 e0       	ldi	r16, 0x05	; 5
    1112:	11 e0       	ldi	r17, 0x01	; 1
    1114:	c0 e0       	ldi	r28, 0x00	; 0
    1116:	d0 e0       	ldi	r29, 0x00	; 0
    1118:	fe 01       	movw	r30, r28
    111a:	ee 0f       	add	r30, r30
    111c:	ff 1f       	adc	r31, r31
    111e:	ee 0f       	add	r30, r30
    1120:	ff 1f       	adc	r31, r31
    1122:	ee 0f       	add	r30, r30
    1124:	ff 1f       	adc	r31, r31
    1126:	ec 1b       	sub	r30, r28
    1128:	fd 0b       	sbc	r31, r29
    112a:	ea 5f       	subi	r30, 0xFA	; 250
    112c:	fe 4f       	sbci	r31, 0xFE	; 254
    112e:	80 81       	ld	r24, Z
    1130:	80 ff       	sbrs	r24, 0
    1132:	05 c0       	rjmp	.+10     	; 0x113e <show_mutes+0x36>
    1134:	f8 01       	movw	r30, r16
    1136:	80 81       	ld	r24, Z
    1138:	0e 94 2f 08 	call	0x105e	; 0x105e <turn_on>
    113c:	04 c0       	rjmp	.+8      	; 0x1146 <show_mutes+0x3e>
    113e:	f8 01       	movw	r30, r16
    1140:	80 81       	ld	r24, Z
    1142:	0e 94 4a 08 	call	0x1094	; 0x1094 <turn_off>
    1146:	21 96       	adiw	r28, 0x01	; 1
    1148:	09 5f       	subi	r16, 0xF9	; 249
    114a:	1f 4f       	sbci	r17, 0xFF	; 255
    114c:	c0 31       	cpi	r28, 0x10	; 16
    114e:	d1 05       	cpc	r29, r1
    1150:	19 f7       	brne	.-58     	; 0x1118 <show_mutes+0x10>
    1152:	df 91       	pop	r29
    1154:	cf 91       	pop	r28
    1156:	1f 91       	pop	r17
    1158:	0f 91       	pop	r16
    115a:	08 95       	ret

0000115c <update_inst_leds>:
    115c:	80 91 ff 04 	lds	r24, 0x04FF
    1160:	83 30       	cpi	r24, 0x03	; 3
    1162:	09 f4       	brne	.+2      	; 0x1166 <update_inst_leds+0xa>
    1164:	49 c0       	rjmp	.+146    	; 0x11f8 <update_inst_leds+0x9c>
    1166:	38 f0       	brcs	.+14     	; 0x1176 <update_inst_leds+0x1a>
    1168:	84 30       	cpi	r24, 0x04	; 4
    116a:	09 f4       	brne	.+2      	; 0x116e <update_inst_leds+0x12>
    116c:	58 c0       	rjmp	.+176    	; 0x121e <update_inst_leds+0xc2>
    116e:	85 30       	cpi	r24, 0x05	; 5
    1170:	09 f4       	brne	.+2      	; 0x1174 <update_inst_leds+0x18>
    1172:	69 c0       	rjmp	.+210    	; 0x1246 <update_inst_leds+0xea>
    1174:	08 95       	ret
    1176:	80 91 01 05 	lds	r24, 0x0501
    117a:	84 ff       	sbrs	r24, 4
    117c:	31 c0       	rjmp	.+98     	; 0x11e0 <update_inst_leds+0x84>
    117e:	80 91 02 05 	lds	r24, 0x0502
    1182:	80 ff       	sbrs	r24, 0
    1184:	2a c0       	rjmp	.+84     	; 0x11da <update_inst_leds+0x7e>
    1186:	0e 94 75 08 	call	0x10ea	; 0x10ea <turn_off_all_inst_leds>
    118a:	80 91 90 05 	lds	r24, 0x0590
    118e:	82 fd       	sbrc	r24, 2
    1190:	0d c0       	rjmp	.+26     	; 0x11ac <update_inst_leds+0x50>
    1192:	e0 91 9c 05 	lds	r30, 0x059C
    1196:	ef 71       	andi	r30, 0x1F	; 31
    1198:	87 e0       	ldi	r24, 0x07	; 7
    119a:	e8 9f       	mul	r30, r24
    119c:	f0 01       	movw	r30, r0
    119e:	11 24       	eor	r1, r1
    11a0:	e0 50       	subi	r30, 0x00	; 0
    11a2:	ff 4f       	sbci	r31, 0xFF	; 255
    11a4:	85 81       	ldd	r24, Z+5	; 0x05
    11a6:	0e 94 2f 08 	call	0x105e	; 0x105e <turn_on>
    11aa:	08 95       	ret
    11ac:	e0 91 9c 05 	lds	r30, 0x059C
    11b0:	8e 2f       	mov	r24, r30
    11b2:	82 95       	swap	r24
    11b4:	86 95       	lsr	r24
    11b6:	87 70       	andi	r24, 0x07	; 7
    11b8:	e0 91 9d 05 	lds	r30, 0x059D
    11bc:	e3 70       	andi	r30, 0x03	; 3
    11be:	ee 0f       	add	r30, r30
    11c0:	ee 0f       	add	r30, r30
    11c2:	ee 0f       	add	r30, r30
    11c4:	e8 2b       	or	r30, r24
    11c6:	87 e0       	ldi	r24, 0x07	; 7
    11c8:	e8 9f       	mul	r30, r24
    11ca:	f0 01       	movw	r30, r0
    11cc:	11 24       	eor	r1, r1
    11ce:	e0 50       	subi	r30, 0x00	; 0
    11d0:	ff 4f       	sbci	r31, 0xFF	; 255
    11d2:	85 81       	ldd	r24, Z+5	; 0x05
    11d4:	0e 94 2f 08 	call	0x105e	; 0x105e <turn_on>
    11d8:	08 95       	ret
    11da:	0e 94 84 08 	call	0x1108	; 0x1108 <show_mutes>
    11de:	08 95       	ret
    11e0:	e0 91 9a 05 	lds	r30, 0x059A
    11e4:	87 e0       	ldi	r24, 0x07	; 7
    11e6:	e8 9f       	mul	r30, r24
    11e8:	f0 01       	movw	r30, r0
    11ea:	11 24       	eor	r1, r1
    11ec:	e0 50       	subi	r30, 0x00	; 0
    11ee:	ff 4f       	sbci	r31, 0xFF	; 255
    11f0:	85 81       	ldd	r24, Z+5	; 0x05
    11f2:	0e 94 2f 08 	call	0x105e	; 0x105e <turn_on>
    11f6:	08 95       	ret
    11f8:	80 91 01 05 	lds	r24, 0x0501
    11fc:	84 ff       	sbrs	r24, 4
    11fe:	03 c0       	rjmp	.+6      	; 0x1206 <update_inst_leds+0xaa>
    1200:	0e 94 84 08 	call	0x1108	; 0x1108 <show_mutes>
    1204:	08 95       	ret
    1206:	e0 91 9a 05 	lds	r30, 0x059A
    120a:	87 e0       	ldi	r24, 0x07	; 7
    120c:	e8 9f       	mul	r30, r24
    120e:	f0 01       	movw	r30, r0
    1210:	11 24       	eor	r1, r1
    1212:	e0 50       	subi	r30, 0x00	; 0
    1214:	ff 4f       	sbci	r31, 0xFF	; 255
    1216:	85 81       	ldd	r24, Z+5	; 0x05
    1218:	0e 94 2f 08 	call	0x105e	; 0x105e <turn_on>
    121c:	08 95       	ret
    121e:	80 91 01 05 	lds	r24, 0x0501
    1222:	84 ff       	sbrs	r24, 4
    1224:	03 c0       	rjmp	.+6      	; 0x122c <update_inst_leds+0xd0>
    1226:	0e 94 84 08 	call	0x1108	; 0x1108 <show_mutes>
    122a:	08 95       	ret
    122c:	e0 91 99 05 	lds	r30, 0x0599
    1230:	e6 95       	lsr	r30
    1232:	e6 95       	lsr	r30
    1234:	e6 95       	lsr	r30
    1236:	ef 70       	andi	r30, 0x0F	; 15
    1238:	f0 e0       	ldi	r31, 0x00	; 0
    123a:	e9 58       	subi	r30, 0x89	; 137
    123c:	fe 4f       	sbci	r31, 0xFE	; 254
    123e:	80 81       	ld	r24, Z
    1240:	0e 94 2f 08 	call	0x105e	; 0x105e <turn_on>
    1244:	08 95       	ret
    1246:	80 91 01 05 	lds	r24, 0x0501
    124a:	84 ff       	sbrs	r24, 4
    124c:	03 c0       	rjmp	.+6      	; 0x1254 <update_inst_leds+0xf8>
    124e:	0e 94 84 08 	call	0x1108	; 0x1108 <show_mutes>
    1252:	08 95       	ret
    1254:	e0 91 99 05 	lds	r30, 0x0599
    1258:	e6 95       	lsr	r30
    125a:	e6 95       	lsr	r30
    125c:	e6 95       	lsr	r30
    125e:	ef 70       	andi	r30, 0x0F	; 15
    1260:	f0 e0       	ldi	r31, 0x00	; 0
    1262:	e9 58       	subi	r30, 0x89	; 137
    1264:	fe 4f       	sbci	r31, 0xFE	; 254
    1266:	80 81       	ld	r24, Z
    1268:	0e 94 2f 08 	call	0x105e	; 0x105e <turn_on>
    126c:	08 95       	ret

0000126e <update_inst_led_mask>:
    126e:	0f 93       	push	r16
    1270:	1f 93       	push	r17
    1272:	cf 93       	push	r28
    1274:	df 93       	push	r29
    1276:	10 92 8f 05 	sts	0x058F, r1
    127a:	10 92 8e 05 	sts	0x058E, r1
    127e:	80 91 9a 05 	lds	r24, 0x059A
    1282:	80 31       	cpi	r24, 0x10	; 16
    1284:	51 f1       	breq	.+84     	; 0x12da <update_inst_led_mask+0x6c>
    1286:	90 91 95 05 	lds	r25, 0x0595
    128a:	92 fb       	bst	r25, 2
    128c:	44 27       	eor	r20, r20
    128e:	40 f9       	bld	r20, 0
    1290:	50 e0       	ldi	r21, 0x00	; 0
    1292:	20 91 90 05 	lds	r18, 0x0590
    1296:	a1 e0       	ldi	r26, 0x01	; 1
    1298:	b0 e0       	ldi	r27, 0x00	; 0
    129a:	02 c0       	rjmp	.+4      	; 0x12a0 <update_inst_led_mask+0x32>
    129c:	aa 0f       	add	r26, r26
    129e:	bb 1f       	adc	r27, r27
    12a0:	8a 95       	dec	r24
    12a2:	e2 f7       	brpl	.-8      	; 0x129c <update_inst_led_mask+0x2e>
    12a4:	fa 01       	movw	r30, r20
    12a6:	e1 50       	subi	r30, 0x01	; 1
    12a8:	fb 4f       	sbci	r31, 0xFB	; 251
    12aa:	ed 56       	subi	r30, 0x6D	; 109
    12ac:	ff 4f       	sbci	r31, 0xFF	; 255
    12ae:	60 81       	ld	r22, Z
    12b0:	70 e0       	ldi	r23, 0x00	; 0
    12b2:	c0 e0       	ldi	r28, 0x00	; 0
    12b4:	d0 e0       	ldi	r29, 0x00	; 0
    12b6:	80 e0       	ldi	r24, 0x00	; 0
    12b8:	90 e0       	ldi	r25, 0x00	; 0
    12ba:	42 95       	swap	r20
    12bc:	52 95       	swap	r21
    12be:	50 7f       	andi	r21, 0xF0	; 240
    12c0:	54 27       	eor	r21, r20
    12c2:	40 7f       	andi	r20, 0xF0	; 240
    12c4:	54 27       	eor	r21, r20
    12c6:	26 95       	lsr	r18
    12c8:	21 70       	andi	r18, 0x01	; 1
    12ca:	32 e2       	ldi	r19, 0x22	; 34
    12cc:	23 9f       	mul	r18, r19
    12ce:	40 0d       	add	r20, r0
    12d0:	51 1d       	adc	r21, r1
    12d2:	11 24       	eor	r1, r1
    12d4:	01 e0       	ldi	r16, 0x01	; 1
    12d6:	10 e0       	ldi	r17, 0x00	; 0
    12d8:	3c c0       	rjmp	.+120    	; 0x1352 <update_inst_led_mask+0xe4>
    12da:	80 91 95 05 	lds	r24, 0x0595
    12de:	82 fb       	bst	r24, 2
    12e0:	ee 27       	eor	r30, r30
    12e2:	e0 f9       	bld	r30, 0
    12e4:	f0 e0       	ldi	r31, 0x00	; 0
    12e6:	20 91 90 05 	lds	r18, 0x0590
    12ea:	df 01       	movw	r26, r30
    12ec:	a1 50       	subi	r26, 0x01	; 1
    12ee:	bb 4f       	sbci	r27, 0xFB	; 251
    12f0:	ad 56       	subi	r26, 0x6D	; 109
    12f2:	bf 4f       	sbci	r27, 0xFF	; 255
    12f4:	4c 91       	ld	r20, X
    12f6:	50 e0       	ldi	r21, 0x00	; 0
    12f8:	60 e0       	ldi	r22, 0x00	; 0
    12fa:	70 e0       	ldi	r23, 0x00	; 0
    12fc:	80 e0       	ldi	r24, 0x00	; 0
    12fe:	90 e0       	ldi	r25, 0x00	; 0
    1300:	26 95       	lsr	r18
    1302:	21 70       	andi	r18, 0x01	; 1
    1304:	32 e2       	ldi	r19, 0x22	; 34
    1306:	23 9f       	mul	r18, r19
    1308:	e0 0d       	add	r30, r0
    130a:	f1 1d       	adc	r31, r1
    130c:	11 24       	eor	r1, r1
    130e:	ee 0f       	add	r30, r30
    1310:	ff 1f       	adc	r31, r31
    1312:	eb 5f       	subi	r30, 0xFB	; 251
    1314:	fa 4f       	sbci	r31, 0xFA	; 250
    1316:	a1 e0       	ldi	r26, 0x01	; 1
    1318:	b0 e0       	ldi	r27, 0x00	; 0
    131a:	20 81       	ld	r18, Z
    131c:	31 81       	ldd	r19, Z+1	; 0x01
    131e:	08 2e       	mov	r0, r24
    1320:	02 c0       	rjmp	.+4      	; 0x1326 <update_inst_led_mask+0xb8>
    1322:	36 95       	lsr	r19
    1324:	27 95       	ror	r18
    1326:	0a 94       	dec	r0
    1328:	e2 f7       	brpl	.-8      	; 0x1322 <update_inst_led_mask+0xb4>
    132a:	20 ff       	sbrs	r18, 0
    132c:	09 c0       	rjmp	.+18     	; 0x1340 <update_inst_led_mask+0xd2>
    132e:	9d 01       	movw	r18, r26
    1330:	08 2e       	mov	r0, r24
    1332:	02 c0       	rjmp	.+4      	; 0x1338 <update_inst_led_mask+0xca>
    1334:	22 0f       	add	r18, r18
    1336:	33 1f       	adc	r19, r19
    1338:	0a 94       	dec	r0
    133a:	e2 f7       	brpl	.-8      	; 0x1334 <update_inst_led_mask+0xc6>
    133c:	62 2b       	or	r22, r18
    133e:	73 2b       	or	r23, r19
    1340:	01 96       	adiw	r24, 0x01	; 1
    1342:	48 17       	cp	r20, r24
    1344:	59 07       	cpc	r21, r25
    1346:	4c f7       	brge	.-46     	; 0x131a <update_inst_led_mask+0xac>
    1348:	70 93 8f 05 	sts	0x058F, r23
    134c:	60 93 8e 05 	sts	0x058E, r22
    1350:	1e c0       	rjmp	.+60     	; 0x138e <update_inst_led_mask+0x120>
    1352:	fa 01       	movw	r30, r20
    1354:	e8 0f       	add	r30, r24
    1356:	f9 1f       	adc	r31, r25
    1358:	ee 0f       	add	r30, r30
    135a:	ff 1f       	adc	r31, r31
    135c:	e7 5f       	subi	r30, 0xF7	; 247
    135e:	fa 4f       	sbci	r31, 0xFA	; 250
    1360:	20 81       	ld	r18, Z
    1362:	31 81       	ldd	r19, Z+1	; 0x01
    1364:	2a 23       	and	r18, r26
    1366:	3b 23       	and	r19, r27
    1368:	23 2b       	or	r18, r19
    136a:	49 f0       	breq	.+18     	; 0x137e <update_inst_led_mask+0x110>
    136c:	98 01       	movw	r18, r16
    136e:	08 2e       	mov	r0, r24
    1370:	02 c0       	rjmp	.+4      	; 0x1376 <update_inst_led_mask+0x108>
    1372:	22 0f       	add	r18, r18
    1374:	33 1f       	adc	r19, r19
    1376:	0a 94       	dec	r0
    1378:	e2 f7       	brpl	.-8      	; 0x1372 <update_inst_led_mask+0x104>
    137a:	c2 2b       	or	r28, r18
    137c:	d3 2b       	or	r29, r19
    137e:	01 96       	adiw	r24, 0x01	; 1
    1380:	68 17       	cp	r22, r24
    1382:	79 07       	cpc	r23, r25
    1384:	34 f7       	brge	.-52     	; 0x1352 <update_inst_led_mask+0xe4>
    1386:	d0 93 8f 05 	sts	0x058F, r29
    138a:	c0 93 8e 05 	sts	0x058E, r28
    138e:	df 91       	pop	r29
    1390:	cf 91       	pop	r28
    1392:	1f 91       	pop	r17
    1394:	0f 91       	pop	r16
    1396:	08 95       	ret

00001398 <update_prescale_leds>:
    1398:	80 91 4a 02 	lds	r24, 0x024A
    139c:	48 2f       	mov	r20, r24
    139e:	43 7c       	andi	r20, 0xC3	; 195
    13a0:	80 91 01 05 	lds	r24, 0x0501
    13a4:	88 23       	and	r24, r24
    13a6:	7c f5       	brge	.+94     	; 0x1406 <update_prescale_leds+0x6e>
    13a8:	80 91 ff 04 	lds	r24, 0x04FF
    13ac:	84 50       	subi	r24, 0x04	; 4
    13ae:	82 30       	cpi	r24, 0x02	; 2
    13b0:	50 f5       	brcc	.+84     	; 0x1406 <update_prescale_leds+0x6e>
    13b2:	80 91 98 05 	lds	r24, 0x0598
    13b6:	98 2f       	mov	r25, r24
    13b8:	96 95       	lsr	r25
    13ba:	96 95       	lsr	r25
    13bc:	96 95       	lsr	r25
    13be:	80 91 99 05 	lds	r24, 0x0599
    13c2:	83 70       	andi	r24, 0x03	; 3
    13c4:	82 95       	swap	r24
    13c6:	88 0f       	add	r24, r24
    13c8:	80 7e       	andi	r24, 0xE0	; 224
    13ca:	89 2b       	or	r24, r25
    13cc:	90 e0       	ldi	r25, 0x00	; 0
    13ce:	80 31       	cpi	r24, 0x10	; 16
    13d0:	91 05       	cpc	r25, r1
    13d2:	2c f4       	brge	.+10     	; 0x13de <update_prescale_leds+0x46>
    13d4:	84 2f       	mov	r24, r20
    13d6:	80 62       	ori	r24, 0x20	; 32
    13d8:	80 93 4a 02 	sts	0x024A, r24
    13dc:	08 95       	ret
    13de:	80 32       	cpi	r24, 0x20	; 32
    13e0:	91 05       	cpc	r25, r1
    13e2:	2c f4       	brge	.+10     	; 0x13ee <update_prescale_leds+0x56>
    13e4:	84 2f       	mov	r24, r20
    13e6:	80 61       	ori	r24, 0x10	; 16
    13e8:	80 93 4a 02 	sts	0x024A, r24
    13ec:	08 95       	ret
    13ee:	c0 97       	sbiw	r24, 0x30	; 48
    13f0:	2c f4       	brge	.+10     	; 0x13fc <update_prescale_leds+0x64>
    13f2:	84 2f       	mov	r24, r20
    13f4:	88 60       	ori	r24, 0x08	; 8
    13f6:	80 93 4a 02 	sts	0x024A, r24
    13fa:	08 95       	ret
    13fc:	84 2f       	mov	r24, r20
    13fe:	84 60       	ori	r24, 0x04	; 4
    1400:	80 93 4a 02 	sts	0x024A, r24
    1404:	08 95       	ret
    1406:	80 91 95 05 	lds	r24, 0x0595
    140a:	86 95       	lsr	r24
    140c:	86 95       	lsr	r24
    140e:	86 95       	lsr	r24
    1410:	83 70       	andi	r24, 0x03	; 3
    1412:	8e 5f       	subi	r24, 0xFE	; 254
    1414:	21 e0       	ldi	r18, 0x01	; 1
    1416:	30 e0       	ldi	r19, 0x00	; 0
    1418:	b9 01       	movw	r22, r18
    141a:	02 c0       	rjmp	.+4      	; 0x1420 <update_prescale_leds+0x88>
    141c:	66 0f       	add	r22, r22
    141e:	77 1f       	adc	r23, r23
    1420:	8a 95       	dec	r24
    1422:	e2 f7       	brpl	.-8      	; 0x141c <update_prescale_leds+0x84>
    1424:	cb 01       	movw	r24, r22
    1426:	84 2b       	or	r24, r20
    1428:	80 93 4a 02 	sts	0x024A, r24
    142c:	08 95       	ret

0000142e <refresh_step_leds>:
    142e:	e5 e4       	ldi	r30, 0x45	; 69
    1430:	f2 e0       	ldi	r31, 0x02	; 2
    1432:	11 82       	std	Z+1, r1	; 0x01
    1434:	10 82       	st	Z, r1
    1436:	08 95       	ret

00001438 <refresh>:
    1438:	80 91 0b 03 	lds	r24, 0x030B
    143c:	81 11       	cpse	r24, r1
    143e:	02 c0       	rjmp	.+4      	; 0x1444 <refresh+0xc>
    1440:	0e 94 d2 0d 	call	0x1ba4	; 0x1ba4 <update_tempo>
    1444:	0e 94 d0 1f 	call	0x3fa0	; 0x3fa0 <check_start_stop_tap>
    1448:	0e 94 7e 1e 	call	0x3cfc	; 0x3cfc <read_switches>
    144c:	0e 94 d5 1e 	call	0x3daa	; 0x3daa <parse_switch_data>
    1450:	80 91 ff 04 	lds	r24, 0x04FF
    1454:	83 30       	cpi	r24, 0x03	; 3
    1456:	29 f4       	brne	.+10     	; 0x1462 <refresh+0x2a>
    1458:	80 91 01 05 	lds	r24, 0x0501
    145c:	84 ff       	sbrs	r24, 4
    145e:	0e 94 86 05 	call	0xb0c	; 0xb0c <live_hits>
    1462:	0e 94 9c 0b 	call	0x1738	; 0x1738 <update_mode>
    1466:	0e 94 b7 0c 	call	0x196e	; 0x196e <update_fill_mode>
    146a:	0e 94 51 20 	call	0x40a2	; 0x40a2 <check_clear_switch>
    146e:	0e 94 5a 21 	call	0x42b4	; 0x42b4 <check_intro_fill_variation_switch>
    1472:	0e 94 11 20 	call	0x4022	; 0x4022 <check_variation_switches>
    1476:	0e 94 fb 0f 	call	0x1ff6	; 0x1ff6 <update_prescale>
    147a:	0e 94 7d 23 	call	0x46fa	; 0x46fa <check_inst_switches>
    147e:	0e 94 ae 08 	call	0x115c	; 0x115c <update_inst_leds>
    1482:	0e 94 fa 1e 	call	0x3df4	; 0x3df4 <check_write_sw>
    1486:	0e 94 79 19 	call	0x32f2	; 0x32f2 <update_step_board>
    148a:	0e 94 26 15 	call	0x2a4c	; 0x2a4c <process_step>
    148e:	0e 94 5a 1e 	call	0x3cb4	; 0x3cb4 <update_spi>
    1492:	5d 98       	cbi	0x0b, 5	; 11
    1494:	08 95       	ret

00001496 <main>:
    1496:	55 9a       	sbi	0x0a, 5	; 10
    1498:	8d b1       	in	r24, 0x0d	; 13
    149a:	8f 60       	ori	r24, 0x0F	; 15
    149c:	8d b9       	out	0x0d, r24	; 13
    149e:	39 9a       	sbi	0x07, 1	; 7
    14a0:	20 9a       	sbi	0x04, 0	; 4
    14a2:	73 98       	cbi	0x0e, 3	; 14
    14a4:	41 98       	cbi	0x08, 1	; 8
    14a6:	28 98       	cbi	0x05, 0	; 5
    14a8:	71 9a       	sbi	0x0e, 1	; 14
    14aa:	80 e5       	ldi	r24, 0x50	; 80
    14ac:	80 93 ac 00 	sts	0x00AC, r24
    14b0:	ed ea       	ldi	r30, 0xAD	; 173
    14b2:	f0 e0       	ldi	r31, 0x00	; 0
    14b4:	80 81       	ld	r24, Z
    14b6:	81 60       	ori	r24, 0x01	; 1
    14b8:	80 83       	st	Z, r24
    14ba:	6a 9a       	sbi	0x0d, 2	; 13
    14bc:	3a 9a       	sbi	0x07, 2	; 7
    14be:	23 9a       	sbi	0x04, 3	; 4
    14c0:	24 9a       	sbi	0x04, 4	; 4
    14c2:	e9 e6       	ldi	r30, 0x69	; 105
    14c4:	f0 e0       	ldi	r31, 0x00	; 0
    14c6:	80 81       	ld	r24, Z
    14c8:	8e 60       	ori	r24, 0x0E	; 14
    14ca:	80 83       	st	Z, r24
    14cc:	ed e6       	ldi	r30, 0x6D	; 109
    14ce:	f0 e0       	ldi	r31, 0x00	; 0
    14d0:	80 81       	ld	r24, Z
    14d2:	80 61       	ori	r24, 0x10	; 16
    14d4:	80 83       	st	Z, r24
    14d6:	c4 e9       	ldi	r28, 0x94	; 148
    14d8:	d5 e0       	ldi	r29, 0x05	; 5
    14da:	8a 81       	ldd	r24, Y+2	; 0x02
    14dc:	9b 81       	ldd	r25, Y+3	; 0x03
    14de:	9e 7f       	andi	r25, 0xFE	; 254
    14e0:	9b 83       	std	Y+3, r25	; 0x03
    14e2:	99 81       	ldd	r25, Y+1	; 0x01
    14e4:	9f 71       	andi	r25, 0x1F	; 31
    14e6:	99 83       	std	Y+1, r25	; 0x01
    14e8:	8e 71       	andi	r24, 0x1E	; 30
    14ea:	8a 83       	std	Y+2, r24	; 0x02
    14ec:	80 e0       	ldi	r24, 0x00	; 0
    14ee:	0e 94 2f 08 	call	0x105e	; 0x105e <turn_on>
    14f2:	8d e1       	ldi	r24, 0x1D	; 29
    14f4:	0e 94 2f 08 	call	0x105e	; 0x105e <turn_on>
    14f8:	82 e2       	ldi	r24, 0x22	; 34
    14fa:	0e 94 2f 08 	call	0x105e	; 0x105e <turn_on>
    14fe:	0e 94 5a 1e 	call	0x3cb4	; 0x3cb4 <update_spi>
    1502:	84 b5       	in	r24, 0x24	; 36
    1504:	82 60       	ori	r24, 0x02	; 2
    1506:	84 bd       	out	0x24, r24	; 36
    1508:	80 e1       	ldi	r24, 0x10	; 16
    150a:	87 bd       	out	0x27, r24	; 39
    150c:	8c e0       	ldi	r24, 0x0C	; 12
    150e:	93 e0       	ldi	r25, 0x03	; 3
    1510:	0e 94 17 27 	call	0x4e2e	; 0x4e2e <midi_device_init>
    1514:	64 e6       	ldi	r22, 0x64	; 100
    1516:	7b e0       	ldi	r23, 0x0B	; 11
    1518:	8c e0       	ldi	r24, 0x0C	; 12
    151a:	93 e0       	ldi	r25, 0x03	; 3
    151c:	0e 94 0b 27 	call	0x4e16	; 0x4e16 <midi_register_noteon_callback>
    1520:	6e e7       	ldi	r22, 0x7E	; 126
    1522:	7b e0       	ldi	r23, 0x0B	; 11
    1524:	8c e0       	ldi	r24, 0x0C	; 12
    1526:	93 e0       	ldi	r25, 0x03	; 3
    1528:	0e 94 0f 27 	call	0x4e1e	; 0x4e1e <midi_register_noteoff_callback>
    152c:	6f e7       	ldi	r22, 0x7F	; 127
    152e:	7b e0       	ldi	r23, 0x0B	; 11
    1530:	8c e0       	ldi	r24, 0x0C	; 12
    1532:	93 e0       	ldi	r25, 0x03	; 3
    1534:	0e 94 13 27 	call	0x4e26	; 0x4e26 <midi_register_realtime_callback>
    1538:	0e 94 4d 0b 	call	0x169a	; 0x169a <setup_midi_usart>
    153c:	0f 2e       	mov	r0, r31
    153e:	fc e9       	ldi	r31, 0x9C	; 156
    1540:	ef 2e       	mov	r14, r31
    1542:	f5 e0       	ldi	r31, 0x05	; 5
    1544:	ff 2e       	mov	r15, r31
    1546:	f0 2d       	mov	r31, r0
    1548:	f7 01       	movw	r30, r14
    154a:	81 81       	ldd	r24, Z+1	; 0x01
    154c:	83 7c       	andi	r24, 0xC3	; 195
    154e:	81 83       	std	Z+1, r24	; 0x01
    1550:	0e 94 81 02 	call	0x502	; 0x502 <setup_clock>
    1554:	ef ef       	ldi	r30, 0xFF	; 255
    1556:	f2 e0       	ldi	r31, 0x02	; 2
    1558:	88 e1       	ldi	r24, 0x18	; 24
    155a:	80 83       	st	Z, r24
    155c:	bb 24       	eor	r11, r11
    155e:	b3 94       	inc	r11
    1560:	b2 82       	std	Z+2, r11	; 0x02
    1562:	14 86       	std	Z+12, r1	; 0x0c
    1564:	84 e0       	ldi	r24, 0x04	; 4
    1566:	81 83       	std	Z+1, r24	; 0x01
    1568:	0e 94 5e 02 	call	0x4bc	; 0x4bc <setup_adc>
    156c:	0f 2e       	mov	r0, r31
    156e:	f5 ee       	ldi	r31, 0xE5	; 229
    1570:	cf 2e       	mov	r12, r31
    1572:	f2 e0       	ldi	r31, 0x02	; 2
    1574:	df 2e       	mov	r13, r31
    1576:	f0 2d       	mov	r31, r0
    1578:	f6 01       	movw	r30, r12
    157a:	80 81       	ld	r24, Z
    157c:	88 60       	ori	r24, 0x08	; 8
    157e:	80 83       	st	Z, r24
    1580:	e6 ee       	ldi	r30, 0xE6	; 230
    1582:	f2 e0       	ldi	r31, 0x02	; 2
    1584:	80 81       	ld	r24, Z
    1586:	8d 7f       	andi	r24, 0xFD	; 253
    1588:	80 83       	st	Z, r24
    158a:	01 e0       	ldi	r16, 0x01	; 1
    158c:	15 e0       	ldi	r17, 0x05	; 5
    158e:	f8 01       	movw	r30, r16
    1590:	80 81       	ld	r24, Z
    1592:	8f 7d       	andi	r24, 0xDF	; 223
    1594:	80 83       	st	Z, r24
    1596:	0f 2e       	mov	r0, r31
    1598:	ff ef       	ldi	r31, 0xFF	; 255
    159a:	8f 2e       	mov	r8, r31
    159c:	f4 e0       	ldi	r31, 0x04	; 4
    159e:	9f 2e       	mov	r9, r31
    15a0:	f0 2d       	mov	r31, r0
    15a2:	10 92 91 05 	sts	0x0591, r1
    15a6:	84 e2       	ldi	r24, 0x24	; 36
    15a8:	0e 94 2f 08 	call	0x105e	; 0x105e <turn_on>
    15ac:	e0 e9       	ldi	r30, 0x90	; 144
    15ae:	f5 e0       	ldi	r31, 0x05	; 5
    15b0:	80 81       	ld	r24, Z
    15b2:	8b 7f       	andi	r24, 0xFB	; 251
    15b4:	80 83       	st	Z, r24
    15b6:	8e e2       	ldi	r24, 0x2E	; 46
    15b8:	0e 94 2f 08 	call	0x105e	; 0x105e <turn_on>
    15bc:	f4 01       	movw	r30, r8
    15be:	b0 82       	st	Z, r11
    15c0:	b1 82       	std	Z+1, r11	; 0x01
    15c2:	89 81       	ldd	r24, Y+1	; 0x01
    15c4:	8d 7f       	andi	r24, 0xFD	; 253
    15c6:	8b 7f       	andi	r24, 0xFB	; 251
    15c8:	89 83       	std	Y+1, r24	; 0x01
    15ca:	8a e2       	ldi	r24, 0x2A	; 42
    15cc:	0e 94 2f 08 	call	0x105e	; 0x105e <turn_on>
    15d0:	87 e2       	ldi	r24, 0x27	; 39
    15d2:	0e 94 2f 08 	call	0x105e	; 0x105e <turn_on>
    15d6:	8b 81       	ldd	r24, Y+3	; 0x03
    15d8:	81 7e       	andi	r24, 0xE1	; 225
    15da:	88 61       	ori	r24, 0x18	; 24
    15dc:	8b 83       	std	Y+3, r24	; 0x03
    15de:	f8 01       	movw	r30, r16
    15e0:	80 81       	ld	r24, Z
    15e2:	80 7f       	andi	r24, 0xF0	; 240
    15e4:	80 83       	st	Z, r24
    15e6:	0f 2e       	mov	r0, r31
    15e8:	fd e8       	ldi	r31, 0x8D	; 141
    15ea:	af 2e       	mov	r10, r31
    15ec:	f5 e0       	ldi	r31, 0x05	; 5
    15ee:	bf 2e       	mov	r11, r31
    15f0:	f0 2d       	mov	r31, r0
    15f2:	f5 01       	movw	r30, r10
    15f4:	80 81       	ld	r24, Z
    15f6:	80 7f       	andi	r24, 0xF0	; 240
    15f8:	80 83       	st	Z, r24
    15fa:	f8 01       	movw	r30, r16
    15fc:	82 81       	ldd	r24, Z+2	; 0x02
    15fe:	8f 73       	andi	r24, 0x3F	; 63
    1600:	82 83       	std	Z+2, r24	; 0x02
    1602:	83 81       	ldd	r24, Z+3	; 0x03
    1604:	8e 7f       	andi	r24, 0xFE	; 254
    1606:	83 83       	std	Z+3, r24	; 0x03
    1608:	0e 94 4a 01 	call	0x294	; 0x294 <eeprom_init>
    160c:	78 94       	sei
    160e:	f6 01       	movw	r30, r12
    1610:	80 81       	ld	r24, Z
    1612:	8f 7b       	andi	r24, 0xBF	; 191
    1614:	80 83       	st	Z, r24
    1616:	8a 81       	ldd	r24, Y+2	; 0x02
    1618:	81 7e       	andi	r24, 0xE1	; 225
    161a:	8a 83       	std	Y+2, r24	; 0x02
    161c:	f5 01       	movw	r30, r10
    161e:	80 81       	ld	r24, Z
    1620:	8f 70       	andi	r24, 0x0F	; 15
    1622:	80 83       	st	Z, r24
    1624:	60 e0       	ldi	r22, 0x00	; 0
    1626:	80 e0       	ldi	r24, 0x00	; 0
    1628:	0e 94 5a 10 	call	0x20b4	; 0x20b4 <read_next_pattern>
    162c:	f8 01       	movw	r30, r16
    162e:	81 81       	ldd	r24, Z+1	; 0x01
    1630:	81 78       	andi	r24, 0x81	; 129
    1632:	80 62       	ori	r24, 0x20	; 32
    1634:	81 83       	std	Z+1, r24	; 0x01
    1636:	85 ee       	ldi	r24, 0xE5	; 229
    1638:	f7 01       	movw	r30, r14
    163a:	80 83       	st	Z, r24
    163c:	81 81       	ldd	r24, Z+1	; 0x01
    163e:	8c 7f       	andi	r24, 0xFC	; 252
    1640:	81 60       	ori	r24, 0x01	; 1
    1642:	81 83       	std	Z+1, r24	; 0x01
    1644:	8c e0       	ldi	r24, 0x0C	; 12
    1646:	93 e0       	ldi	r25, 0x03	; 3
    1648:	0e 94 45 29 	call	0x528a	; 0x528a <midi_device_process>
    164c:	0e 94 1c 0a 	call	0x1438	; 0x1438 <refresh>
    1650:	f9 cf       	rjmp	.-14     	; 0x1644 <main+0x1ae>

00001652 <midi_send>:
    1652:	0f 93       	push	r16
    1654:	1f 93       	push	r17
    1656:	cf 93       	push	r28
    1658:	df 93       	push	r29
    165a:	eb 01       	movw	r28, r22
    165c:	12 2f       	mov	r17, r18
    165e:	64 2f       	mov	r22, r20
    1660:	89 eb       	ldi	r24, 0xB9	; 185
    1662:	94 e0       	ldi	r25, 0x04	; 4
    1664:	0e 94 2c 26 	call	0x4c58	; 0x4c58 <bytequeue_enqueue>
    1668:	c2 30       	cpi	r28, 0x02	; 2
    166a:	d1 05       	cpc	r29, r1
    166c:	28 f0       	brcs	.+10     	; 0x1678 <midi_send+0x26>
    166e:	61 2f       	mov	r22, r17
    1670:	89 eb       	ldi	r24, 0xB9	; 185
    1672:	94 e0       	ldi	r25, 0x04	; 4
    1674:	0e 94 2c 26 	call	0x4c58	; 0x4c58 <bytequeue_enqueue>
    1678:	23 97       	sbiw	r28, 0x03	; 3
    167a:	29 f4       	brne	.+10     	; 0x1686 <midi_send+0x34>
    167c:	60 2f       	mov	r22, r16
    167e:	89 eb       	ldi	r24, 0xB9	; 185
    1680:	94 e0       	ldi	r25, 0x04	; 4
    1682:	0e 94 2c 26 	call	0x4c58	; 0x4c58 <bytequeue_enqueue>
    1686:	e1 ec       	ldi	r30, 0xC1	; 193
    1688:	f0 e0       	ldi	r31, 0x00	; 0
    168a:	80 81       	ld	r24, Z
    168c:	80 62       	ori	r24, 0x20	; 32
    168e:	80 83       	st	Z, r24
    1690:	df 91       	pop	r29
    1692:	cf 91       	pop	r28
    1694:	1f 91       	pop	r17
    1696:	0f 91       	pop	r16
    1698:	08 95       	ret

0000169a <setup_midi_usart>:
    169a:	8f e1       	ldi	r24, 0x1F	; 31
    169c:	80 93 c4 00 	sts	0x00C4, r24
    16a0:	10 92 c5 00 	sts	0x00C5, r1
    16a4:	88 e9       	ldi	r24, 0x98	; 152
    16a6:	80 93 c1 00 	sts	0x00C1, r24
    16aa:	51 9a       	sbi	0x0a, 1	; 10
    16ac:	40 ec       	ldi	r20, 0xC0	; 192
    16ae:	69 ef       	ldi	r22, 0xF9	; 249
    16b0:	73 e0       	ldi	r23, 0x03	; 3
    16b2:	89 eb       	ldi	r24, 0xB9	; 185
    16b4:	94 e0       	ldi	r25, 0x04	; 4
    16b6:	0e 94 25 26 	call	0x4c4a	; 0x4c4a <bytequeue_init>
    16ba:	69 e2       	ldi	r22, 0x29	; 41
    16bc:	7b e0       	ldi	r23, 0x0B	; 11
    16be:	8c e0       	ldi	r24, 0x0C	; 12
    16c0:	93 e0       	ldi	r25, 0x03	; 3
    16c2:	0e 94 6a 27 	call	0x4ed4	; 0x4ed4 <midi_device_set_send_func>
    16c6:	08 95       	ret

000016c8 <note_on_event>:
    16c8:	e0 91 9d 05 	lds	r30, 0x059D
    16cc:	e6 95       	lsr	r30
    16ce:	e6 95       	lsr	r30
    16d0:	ef 70       	andi	r30, 0x0F	; 15
    16d2:	f0 e0       	ldi	r31, 0x00	; 0
    16d4:	6f 70       	andi	r22, 0x0F	; 15
    16d6:	70 e0       	ldi	r23, 0x00	; 0
    16d8:	e6 17       	cp	r30, r22
    16da:	f7 07       	cpc	r31, r23
    16dc:	71 f4       	brne	.+28     	; 0x16fa <note_on_event+0x32>
    16de:	80 91 00 05 	lds	r24, 0x0500
    16e2:	81 11       	cpse	r24, r1
    16e4:	0a c0       	rjmp	.+20     	; 0x16fa <note_on_event+0x32>
    16e6:	80 91 01 05 	lds	r24, 0x0501
    16ea:	85 fd       	sbrc	r24, 5
    16ec:	06 c0       	rjmp	.+12     	; 0x16fa <note_on_event+0x32>
    16ee:	40 31       	cpi	r20, 0x10	; 16
    16f0:	20 f4       	brcc	.+8      	; 0x16fa <note_on_event+0x32>
    16f2:	62 2f       	mov	r22, r18
    16f4:	84 2f       	mov	r24, r20
    16f6:	0e 94 35 03 	call	0x66a	; 0x66a <trigger_drum>
    16fa:	08 95       	ret

000016fc <note_off_event>:
    16fc:	08 95       	ret

000016fe <real_time_event>:
    16fe:	80 91 0b 03 	lds	r24, 0x030B
    1702:	88 23       	and	r24, r24
    1704:	c1 f0       	breq	.+48     	; 0x1736 <real_time_event+0x38>
    1706:	6a 3f       	cpi	r22, 0xFA	; 250
    1708:	39 f0       	breq	.+14     	; 0x1718 <real_time_event+0x1a>
    170a:	6c 3f       	cpi	r22, 0xFC	; 252
    170c:	69 f0       	breq	.+26     	; 0x1728 <real_time_event+0x2a>
    170e:	68 3f       	cpi	r22, 0xF8	; 248
    1710:	91 f4       	brne	.+36     	; 0x1736 <real_time_event+0x38>
    1712:	0e 94 a6 02 	call	0x54c	; 0x54c <process_external_clock_event>
    1716:	08 95       	ret
    1718:	e1 e0       	ldi	r30, 0x01	; 1
    171a:	f5 e0       	ldi	r31, 0x05	; 5
    171c:	80 81       	ld	r24, Z
    171e:	80 62       	ori	r24, 0x20	; 32
    1720:	80 83       	st	Z, r24
    1722:	0e 94 1a 0f 	call	0x1e34	; 0x1e34 <process_start>
    1726:	08 95       	ret
    1728:	e1 e0       	ldi	r30, 0x01	; 1
    172a:	f5 e0       	ldi	r31, 0x05	; 5
    172c:	80 81       	ld	r24, Z
    172e:	8f 7d       	andi	r24, 0xDF	; 223
    1730:	80 83       	st	Z, r24
    1732:	0e 94 d4 10 	call	0x21a8	; 0x21a8 <process_stop>
    1736:	08 95       	ret

00001738 <update_mode>:
    1738:	cf 93       	push	r28
    173a:	df 93       	push	r29
    173c:	00 d0       	rcall	.+0      	; 0x173e <update_mode+0x6>
    173e:	00 d0       	rcall	.+0      	; 0x1740 <update_mode+0x8>
    1740:	00 d0       	rcall	.+0      	; 0x1742 <update_mode+0xa>
    1742:	cd b7       	in	r28, 0x3d	; 61
    1744:	de b7       	in	r29, 0x3e	; 62
    1746:	86 e0       	ldi	r24, 0x06	; 6
    1748:	e3 e2       	ldi	r30, 0x23	; 35
    174a:	f2 e0       	ldi	r31, 0x02	; 2
    174c:	de 01       	movw	r26, r28
    174e:	11 96       	adiw	r26, 0x01	; 1
    1750:	01 90       	ld	r0, Z+
    1752:	0d 92       	st	X+, r0
    1754:	8a 95       	dec	r24
    1756:	e1 f7       	brne	.-8      	; 0x1750 <update_mode+0x18>
    1758:	80 91 16 02 	lds	r24, 0x0216
    175c:	86 ff       	sbrs	r24, 6
    175e:	fe c0       	rjmp	.+508    	; 0x195c <update_mode+0x224>
    1760:	e6 e1       	ldi	r30, 0x16	; 22
    1762:	f2 e0       	ldi	r31, 0x02	; 2
    1764:	8f 7b       	andi	r24, 0xBF	; 191
    1766:	80 83       	st	Z, r24
    1768:	80 91 01 05 	lds	r24, 0x0501
    176c:	84 ff       	sbrs	r24, 4
    176e:	3e c0       	rjmp	.+124    	; 0x17ec <update_mode+0xb4>
    1770:	80 91 ff 04 	lds	r24, 0x04FF
    1774:	85 30       	cpi	r24, 0x05	; 5
    1776:	71 f5       	brne	.+92     	; 0x17d4 <update_mode+0x9c>
    1778:	80 91 99 05 	lds	r24, 0x0599
    177c:	82 fd       	sbrc	r24, 2
    177e:	2a c0       	rjmp	.+84     	; 0x17d4 <update_mode+0x9c>
    1780:	80 91 98 05 	lds	r24, 0x0598
    1784:	98 2f       	mov	r25, r24
    1786:	96 95       	lsr	r25
    1788:	96 95       	lsr	r25
    178a:	96 95       	lsr	r25
    178c:	80 91 99 05 	lds	r24, 0x0599
    1790:	83 70       	andi	r24, 0x03	; 3
    1792:	82 95       	swap	r24
    1794:	88 0f       	add	r24, r24
    1796:	80 7e       	andi	r24, 0xE0	; 224
    1798:	89 2b       	or	r24, r25
    179a:	d1 f0       	breq	.+52     	; 0x17d0 <update_mode+0x98>
    179c:	81 58       	subi	r24, 0x81	; 129
    179e:	8f 77       	andi	r24, 0x7F	; 127
    17a0:	e4 e9       	ldi	r30, 0x94	; 148
    17a2:	f5 e0       	ldi	r31, 0x05	; 5
    17a4:	28 2f       	mov	r18, r24
    17a6:	22 0f       	add	r18, r18
    17a8:	22 0f       	add	r18, r18
    17aa:	22 0f       	add	r18, r18
    17ac:	94 81       	ldd	r25, Z+4	; 0x04
    17ae:	97 70       	andi	r25, 0x07	; 7
    17b0:	92 2b       	or	r25, r18
    17b2:	94 83       	std	Z+4, r25	; 0x04
    17b4:	28 2f       	mov	r18, r24
    17b6:	22 95       	swap	r18
    17b8:	26 95       	lsr	r18
    17ba:	27 70       	andi	r18, 0x07	; 7
    17bc:	95 81       	ldd	r25, Z+5	; 0x05
    17be:	9c 7f       	andi	r25, 0xFC	; 252
    17c0:	92 2b       	or	r25, r18
    17c2:	95 83       	std	Z+5, r25	; 0x05
    17c4:	88 23       	and	r24, r24
    17c6:	21 f0       	breq	.+8      	; 0x17d0 <update_mode+0x98>
    17c8:	81 50       	subi	r24, 0x01	; 1
    17ca:	80 93 fe 04 	sts	0x04FE, r24
    17ce:	02 c0       	rjmp	.+4      	; 0x17d4 <update_mode+0x9c>
    17d0:	10 92 fe 04 	sts	0x04FE, r1
    17d4:	80 91 f1 01 	lds	r24, 0x01F1
    17d8:	88 23       	and	r24, r24
    17da:	21 f0       	breq	.+8      	; 0x17e4 <update_mode+0xac>
    17dc:	81 50       	subi	r24, 0x01	; 1
    17de:	80 93 f1 01 	sts	0x01F1, r24
    17e2:	0e c0       	rjmp	.+28     	; 0x1800 <update_mode+0xc8>
    17e4:	85 e0       	ldi	r24, 0x05	; 5
    17e6:	80 93 f1 01 	sts	0x01F1, r24
    17ea:	0a c0       	rjmp	.+20     	; 0x1800 <update_mode+0xc8>
    17ec:	80 91 f1 01 	lds	r24, 0x01F1
    17f0:	8f 5f       	subi	r24, 0xFF	; 255
    17f2:	86 30       	cpi	r24, 0x06	; 6
    17f4:	19 f0       	breq	.+6      	; 0x17fc <update_mode+0xc4>
    17f6:	80 93 f1 01 	sts	0x01F1, r24
    17fa:	02 c0       	rjmp	.+4      	; 0x1800 <update_mode+0xc8>
    17fc:	10 92 f1 01 	sts	0x01F1, r1
    1800:	80 91 e5 02 	lds	r24, 0x02E5
    1804:	88 23       	and	r24, r24
    1806:	3c f4       	brge	.+14     	; 0x1816 <update_mode+0xde>
    1808:	0e 94 9c 18 	call	0x3138	; 0x3138 <write_rhythm_track>
    180c:	e5 ee       	ldi	r30, 0xE5	; 229
    180e:	f2 e0       	ldi	r31, 0x02	; 2
    1810:	80 81       	ld	r24, Z
    1812:	8f 77       	andi	r24, 0x7F	; 127
    1814:	80 83       	st	Z, r24
    1816:	30 91 f1 01 	lds	r19, 0x01F1
    181a:	fe 01       	movw	r30, r28
    181c:	e3 0f       	add	r30, r19
    181e:	f1 1d       	adc	r31, r1
    1820:	21 81       	ldd	r18, Z+1	; 0x01
    1822:	20 93 ff 04 	sts	0x04FF, r18
    1826:	e5 e4       	ldi	r30, 0x45	; 69
    1828:	f2 e0       	ldi	r31, 0x02	; 2
    182a:	81 e0       	ldi	r24, 0x01	; 1
    182c:	90 e0       	ldi	r25, 0x00	; 0
    182e:	02 c0       	rjmp	.+4      	; 0x1834 <update_mode+0xfc>
    1830:	88 0f       	add	r24, r24
    1832:	99 1f       	adc	r25, r25
    1834:	3a 95       	dec	r19
    1836:	e2 f7       	brpl	.-8      	; 0x1830 <update_mode+0xf8>
    1838:	94 81       	ldd	r25, Z+4	; 0x04
    183a:	90 7c       	andi	r25, 0xC0	; 192
    183c:	89 2b       	or	r24, r25
    183e:	84 83       	std	Z+4, r24	; 0x04
    1840:	23 30       	cpi	r18, 0x03	; 3
    1842:	09 f4       	brne	.+2      	; 0x1846 <update_mode+0x10e>
    1844:	4d c0       	rjmp	.+154    	; 0x18e0 <update_mode+0x1a8>
    1846:	18 f4       	brcc	.+6      	; 0x184e <update_mode+0x116>
    1848:	21 30       	cpi	r18, 0x01	; 1
    184a:	28 f4       	brcc	.+10     	; 0x1856 <update_mode+0x11e>
    184c:	87 c0       	rjmp	.+270    	; 0x195c <update_mode+0x224>
    184e:	26 30       	cpi	r18, 0x06	; 6
    1850:	08 f4       	brcc	.+2      	; 0x1854 <update_mode+0x11c>
    1852:	73 c0       	rjmp	.+230    	; 0x193a <update_mode+0x202>
    1854:	83 c0       	rjmp	.+262    	; 0x195c <update_mode+0x224>
    1856:	ed e8       	ldi	r30, 0x8D	; 141
    1858:	f5 e0       	ldi	r31, 0x05	; 5
    185a:	80 81       	ld	r24, Z
    185c:	68 2f       	mov	r22, r24
    185e:	62 95       	swap	r22
    1860:	6f 70       	andi	r22, 0x0F	; 15
    1862:	80 7f       	andi	r24, 0xF0	; 240
    1864:	86 2b       	or	r24, r22
    1866:	80 83       	st	Z, r24
    1868:	80 91 96 05 	lds	r24, 0x0596
    186c:	86 95       	lsr	r24
    186e:	8f 70       	andi	r24, 0x0F	; 15
    1870:	e4 e9       	ldi	r30, 0x94	; 148
    1872:	f5 e0       	ldi	r31, 0x05	; 5
    1874:	38 2f       	mov	r19, r24
    1876:	32 95       	swap	r19
    1878:	33 0f       	add	r19, r19
    187a:	30 7e       	andi	r19, 0xE0	; 224
    187c:	42 81       	ldd	r20, Z+2	; 0x02
    187e:	4e 71       	andi	r20, 0x1E	; 30
    1880:	28 2f       	mov	r18, r24
    1882:	26 95       	lsr	r18
    1884:	26 95       	lsr	r18
    1886:	26 95       	lsr	r18
    1888:	93 81       	ldd	r25, Z+3	; 0x03
    188a:	9e 7f       	andi	r25, 0xFE	; 254
    188c:	92 2b       	or	r25, r18
    188e:	93 83       	std	Z+3, r25	; 0x03
    1890:	91 81       	ldd	r25, Z+1	; 0x01
    1892:	9f 71       	andi	r25, 0x1F	; 31
    1894:	93 2b       	or	r25, r19
    1896:	91 83       	std	Z+1, r25	; 0x01
    1898:	34 2b       	or	r19, r20
    189a:	23 2b       	or	r18, r19
    189c:	22 83       	std	Z+2, r18	; 0x02
    189e:	0e 94 5a 10 	call	0x20b4	; 0x20b4 <read_next_pattern>
    18a2:	e1 e0       	ldi	r30, 0x01	; 1
    18a4:	80 91 ff 04 	lds	r24, 0x04FF
    18a8:	81 30       	cpi	r24, 0x01	; 1
    18aa:	09 f4       	brne	.+2      	; 0x18ae <update_mode+0x176>
    18ac:	e0 e0       	ldi	r30, 0x00	; 0
    18ae:	a4 e9       	ldi	r26, 0x94	; 148
    18b0:	b5 e0       	ldi	r27, 0x05	; 5
    18b2:	11 96       	adiw	r26, 0x01	; 1
    18b4:	8c 91       	ld	r24, X
    18b6:	11 97       	sbiw	r26, 0x01	; 1
    18b8:	e0 fb       	bst	r30, 0
    18ba:	82 f9       	bld	r24, 2
    18bc:	11 96       	adiw	r26, 0x01	; 1
    18be:	8c 93       	st	X, r24
    18c0:	11 97       	sbiw	r26, 0x01	; 1
    18c2:	f0 e0       	ldi	r31, 0x00	; 0
    18c4:	e1 50       	subi	r30, 0x01	; 1
    18c6:	fb 4f       	sbci	r31, 0xFB	; 251
    18c8:	ed 56       	subi	r30, 0x6D	; 109
    18ca:	ff 4f       	sbci	r31, 0xFF	; 255
    18cc:	80 81       	ld	r24, Z
    18ce:	98 2f       	mov	r25, r24
    18d0:	9f 71       	andi	r25, 0x1F	; 31
    18d2:	8c 91       	ld	r24, X
    18d4:	80 7e       	andi	r24, 0xE0	; 224
    18d6:	89 2b       	or	r24, r25
    18d8:	8c 93       	st	X, r24
    18da:	0e 94 37 09 	call	0x126e	; 0x126e <update_inst_led_mask>
    18de:	3e c0       	rjmp	.+124    	; 0x195c <update_mode+0x224>
    18e0:	ed e8       	ldi	r30, 0x8D	; 141
    18e2:	f5 e0       	ldi	r31, 0x05	; 5
    18e4:	80 81       	ld	r24, Z
    18e6:	98 2f       	mov	r25, r24
    18e8:	92 95       	swap	r25
    18ea:	9f 70       	andi	r25, 0x0F	; 15
    18ec:	80 7f       	andi	r24, 0xF0	; 240
    18ee:	89 2b       	or	r24, r25
    18f0:	80 83       	st	Z, r24
    18f2:	80 91 95 05 	lds	r24, 0x0595
    18f6:	98 2f       	mov	r25, r24
    18f8:	92 95       	swap	r25
    18fa:	96 95       	lsr	r25
    18fc:	97 70       	andi	r25, 0x07	; 7
    18fe:	80 91 96 05 	lds	r24, 0x0596
    1902:	81 70       	andi	r24, 0x01	; 1
    1904:	88 0f       	add	r24, r24
    1906:	88 0f       	add	r24, r24
    1908:	88 0f       	add	r24, r24
    190a:	89 2b       	or	r24, r25
    190c:	28 2f       	mov	r18, r24
    190e:	30 e0       	ldi	r19, 0x00	; 0
    1910:	2c 30       	cpi	r18, 0x0C	; 12
    1912:	31 05       	cpc	r19, r1
    1914:	1c f1       	brlt	.+70     	; 0x195c <update_mode+0x224>
    1916:	e4 e9       	ldi	r30, 0x94	; 148
    1918:	f5 e0       	ldi	r31, 0x05	; 5
    191a:	98 2f       	mov	r25, r24
    191c:	99 0f       	add	r25, r25
    191e:	82 81       	ldd	r24, Z+2	; 0x02
    1920:	81 70       	andi	r24, 0x01	; 1
    1922:	89 2b       	or	r24, r25
    1924:	80 66       	ori	r24, 0x60	; 96
    1926:	82 83       	std	Z+2, r24	; 0x02
    1928:	83 81       	ldd	r24, Z+3	; 0x03
    192a:	81 60       	ori	r24, 0x01	; 1
    192c:	83 83       	std	Z+3, r24	; 0x03
    192e:	e5 ee       	ldi	r30, 0xE5	; 229
    1930:	f2 e0       	ldi	r31, 0x02	; 2
    1932:	80 81       	ld	r24, Z
    1934:	80 62       	ori	r24, 0x20	; 32
    1936:	80 83       	st	Z, r24
    1938:	11 c0       	rjmp	.+34     	; 0x195c <update_mode+0x224>
    193a:	ed e8       	ldi	r30, 0x8D	; 141
    193c:	f5 e0       	ldi	r31, 0x05	; 5
    193e:	80 81       	ld	r24, Z
    1940:	8f 70       	andi	r24, 0x0F	; 15
    1942:	98 2f       	mov	r25, r24
    1944:	92 95       	swap	r25
    1946:	90 7f       	andi	r25, 0xF0	; 240
    1948:	89 2b       	or	r24, r25
    194a:	80 83       	st	Z, r24
    194c:	80 91 99 05 	lds	r24, 0x0599
    1950:	86 95       	lsr	r24
    1952:	86 95       	lsr	r24
    1954:	86 95       	lsr	r24
    1956:	8f 70       	andi	r24, 0x0F	; 15
    1958:	0e 94 da 18 	call	0x31b4	; 0x31b4 <update_rhythm_track>
    195c:	26 96       	adiw	r28, 0x06	; 6
    195e:	0f b6       	in	r0, 0x3f	; 63
    1960:	f8 94       	cli
    1962:	de bf       	out	0x3e, r29	; 62
    1964:	0f be       	out	0x3f, r0	; 63
    1966:	cd bf       	out	0x3d, r28	; 61
    1968:	df 91       	pop	r29
    196a:	cf 91       	pop	r28
    196c:	08 95       	ret

0000196e <update_fill_mode>:
    196e:	cf 93       	push	r28
    1970:	df 93       	push	r29
    1972:	cd b7       	in	r28, 0x3d	; 61
    1974:	de b7       	in	r29, 0x3e	; 62
    1976:	2b 97       	sbiw	r28, 0x0b	; 11
    1978:	0f b6       	in	r0, 0x3f	; 63
    197a:	f8 94       	cli
    197c:	de bf       	out	0x3e, r29	; 62
    197e:	0f be       	out	0x3f, r0	; 63
    1980:	cd bf       	out	0x3d, r28	; 61
    1982:	86 e0       	ldi	r24, 0x06	; 6
    1984:	e9 e2       	ldi	r30, 0x29	; 41
    1986:	f2 e0       	ldi	r31, 0x02	; 2
    1988:	de 01       	movw	r26, r28
    198a:	11 96       	adiw	r26, 0x01	; 1
    198c:	01 90       	ld	r0, Z+
    198e:	0d 92       	st	X+, r0
    1990:	8a 95       	dec	r24
    1992:	e1 f7       	brne	.-8      	; 0x198c <update_fill_mode+0x1e>
    1994:	85 e0       	ldi	r24, 0x05	; 5
    1996:	ef e2       	ldi	r30, 0x2F	; 47
    1998:	f2 e0       	ldi	r31, 0x02	; 2
    199a:	de 01       	movw	r26, r28
    199c:	17 96       	adiw	r26, 0x07	; 7
    199e:	01 90       	ld	r0, Z+
    19a0:	0d 92       	st	X+, r0
    19a2:	8a 95       	dec	r24
    19a4:	e1 f7       	brne	.-8      	; 0x199e <update_fill_mode+0x30>
    19a6:	e5 e4       	ldi	r30, 0x45	; 69
    19a8:	f2 e0       	ldi	r31, 0x02	; 2
    19aa:	94 81       	ldd	r25, Z+4	; 0x04
    19ac:	9f 73       	andi	r25, 0x3F	; 63
    19ae:	94 83       	std	Z+4, r25	; 0x04
    19b0:	82 81       	ldd	r24, Z+2	; 0x02
    19b2:	80 7f       	andi	r24, 0xF0	; 240
    19b4:	82 83       	std	Z+2, r24	; 0x02
    19b6:	20 91 01 05 	lds	r18, 0x0501
    19ba:	24 ff       	sbrs	r18, 4
    19bc:	a4 c0       	rjmp	.+328    	; 0x1b06 <update_fill_mode+0x198>
    19be:	80 91 17 02 	lds	r24, 0x0217
    19c2:	86 ff       	sbrs	r24, 6
    19c4:	7a c0       	rjmp	.+244    	; 0x1aba <update_fill_mode+0x14c>
    19c6:	e7 e1       	ldi	r30, 0x17	; 23
    19c8:	f2 e0       	ldi	r31, 0x02	; 2
    19ca:	8f 7b       	andi	r24, 0xBF	; 191
    19cc:	80 83       	st	Z, r24
    19ce:	80 91 35 02 	lds	r24, 0x0235
    19d2:	8f 5f       	subi	r24, 0xFF	; 255
    19d4:	85 30       	cpi	r24, 0x05	; 5
    19d6:	19 f0       	breq	.+6      	; 0x19de <update_fill_mode+0x70>
    19d8:	80 93 35 02 	sts	0x0235, r24
    19dc:	02 c0       	rjmp	.+4      	; 0x19e2 <update_fill_mode+0x74>
    19de:	10 92 35 02 	sts	0x0235, r1
    19e2:	80 91 35 02 	lds	r24, 0x0235
    19e6:	fe 01       	movw	r30, r28
    19e8:	e8 0f       	add	r30, r24
    19ea:	f1 1d       	adc	r31, r1
    19ec:	87 81       	ldd	r24, Z+7	; 0x07
    19ee:	80 93 00 05 	sts	0x0500, r24
    19f2:	10 92 b1 00 	sts	0x00B1, r1
    19f6:	1d ba       	out	0x1d, r1	; 29
    19f8:	10 92 68 00 	sts	0x0068, r1
    19fc:	94 e0       	ldi	r25, 0x04	; 4
    19fe:	90 93 00 03 	sts	0x0300, r25
    1a02:	82 30       	cpi	r24, 0x02	; 2
    1a04:	b1 f1       	breq	.+108    	; 0x1a72 <update_fill_mode+0x104>
    1a06:	28 f4       	brcc	.+10     	; 0x1a12 <update_fill_mode+0xa4>
    1a08:	88 23       	and	r24, r24
    1a0a:	91 f0       	breq	.+36     	; 0x1a30 <update_fill_mode+0xc2>
    1a0c:	81 30       	cpi	r24, 0x01	; 1
    1a0e:	31 f0       	breq	.+12     	; 0x1a1c <update_fill_mode+0xae>
    1a10:	54 c0       	rjmp	.+168    	; 0x1aba <update_fill_mode+0x14c>
    1a12:	83 30       	cpi	r24, 0x03	; 3
    1a14:	b1 f0       	breq	.+44     	; 0x1a42 <update_fill_mode+0xd4>
    1a16:	84 30       	cpi	r24, 0x04	; 4
    1a18:	f1 f1       	breq	.+124    	; 0x1a96 <update_fill_mode+0x128>
    1a1a:	4f c0       	rjmp	.+158    	; 0x1aba <update_fill_mode+0x14c>
    1a1c:	10 92 0b 03 	sts	0x030B, r1
    1a20:	e1 e8       	ldi	r30, 0x81	; 129
    1a22:	f0 e0       	ldi	r31, 0x00	; 0
    1a24:	80 81       	ld	r24, Z
    1a26:	84 60       	ori	r24, 0x04	; 4
    1a28:	80 83       	st	Z, r24
    1a2a:	42 98       	cbi	0x08, 2	; 8
    1a2c:	72 98       	cbi	0x0e, 2	; 14
    1a2e:	45 c0       	rjmp	.+138    	; 0x1aba <update_fill_mode+0x14c>
    1a30:	81 e0       	ldi	r24, 0x01	; 1
    1a32:	80 93 0b 03 	sts	0x030B, r24
    1a36:	10 92 95 00 	sts	0x0095, r1
    1a3a:	10 92 94 00 	sts	0x0094, r1
    1a3e:	72 9a       	sbi	0x0e, 2	; 14
    1a40:	3c c0       	rjmp	.+120    	; 0x1aba <update_fill_mode+0x14c>
    1a42:	10 92 0b 03 	sts	0x030B, r1
    1a46:	e1 e8       	ldi	r30, 0x81	; 129
    1a48:	f0 e0       	ldi	r31, 0x00	; 0
    1a4a:	80 81       	ld	r24, Z
    1a4c:	84 60       	ori	r24, 0x04	; 4
    1a4e:	80 83       	st	Z, r24
    1a50:	5a 9a       	sbi	0x0b, 2	; 11
    1a52:	8a b1       	in	r24, 0x0a	; 10
    1a54:	88 6d       	ori	r24, 0xD8	; 216
    1a56:	8a b9       	out	0x0a, r24	; 10
    1a58:	e0 eb       	ldi	r30, 0xB0	; 176
    1a5a:	f0 e0       	ldi	r31, 0x00	; 0
    1a5c:	80 81       	ld	r24, Z
    1a5e:	82 60       	ori	r24, 0x02	; 2
    1a60:	80 83       	st	Z, r24
    1a62:	e1 eb       	ldi	r30, 0xB1	; 177
    1a64:	f0 e0       	ldi	r31, 0x00	; 0
    1a66:	80 81       	ld	r24, Z
    1a68:	87 60       	ori	r24, 0x07	; 7
    1a6a:	80 83       	st	Z, r24
    1a6c:	10 92 b2 00 	sts	0x00B2, r1
    1a70:	24 c0       	rjmp	.+72     	; 0x1aba <update_fill_mode+0x14c>
    1a72:	81 e0       	ldi	r24, 0x01	; 1
    1a74:	80 93 0b 03 	sts	0x030B, r24
    1a78:	10 92 95 00 	sts	0x0095, r1
    1a7c:	10 92 94 00 	sts	0x0094, r1
    1a80:	72 98       	cbi	0x0e, 2	; 14
    1a82:	8a b1       	in	r24, 0x0a	; 10
    1a84:	87 72       	andi	r24, 0x27	; 39
    1a86:	8a b9       	out	0x0a, r24	; 10
    1a88:	e9 9a       	sbi	0x1d, 1	; 29
    1a8a:	e8 e6       	ldi	r30, 0x68	; 104
    1a8c:	f0 e0       	ldi	r31, 0x00	; 0
    1a8e:	80 81       	ld	r24, Z
    1a90:	84 60       	ori	r24, 0x04	; 4
    1a92:	80 83       	st	Z, r24
    1a94:	12 c0       	rjmp	.+36     	; 0x1aba <update_fill_mode+0x14c>
    1a96:	ef ef       	ldi	r30, 0xFF	; 255
    1a98:	f2 e0       	ldi	r31, 0x02	; 2
    1a9a:	81 e0       	ldi	r24, 0x01	; 1
    1a9c:	84 87       	std	Z+12, r24	; 0x0c
    1a9e:	10 92 95 00 	sts	0x0095, r1
    1aa2:	10 92 94 00 	sts	0x0094, r1
    1aa6:	72 98       	cbi	0x0e, 2	; 14
    1aa8:	e8 9a       	sbi	0x1d, 0	; 29
    1aaa:	32 9a       	sbi	0x06, 2	; 6
    1aac:	aa e0       	ldi	r26, 0x0A	; 10
    1aae:	b3 e0       	ldi	r27, 0x03	; 3
    1ab0:	8c 91       	ld	r24, X
    1ab2:	8e 7f       	andi	r24, 0xFE	; 254
    1ab4:	8c 93       	st	X, r24
    1ab6:	80 e3       	ldi	r24, 0x30	; 48
    1ab8:	81 83       	std	Z+1, r24	; 0x01
    1aba:	80 91 00 05 	lds	r24, 0x0500
    1abe:	84 30       	cpi	r24, 0x04	; 4
    1ac0:	99 f4       	brne	.+38     	; 0x1ae8 <update_fill_mode+0x17a>
    1ac2:	80 91 0a 03 	lds	r24, 0x030A
    1ac6:	e5 e4       	ldi	r30, 0x45	; 69
    1ac8:	f2 e0       	ldi	r31, 0x02	; 2
    1aca:	48 2f       	mov	r20, r24
    1acc:	41 70       	andi	r20, 0x01	; 1
    1ace:	50 e0       	ldi	r21, 0x00	; 0
    1ad0:	80 91 35 02 	lds	r24, 0x0235
    1ad4:	81 50       	subi	r24, 0x01	; 1
    1ad6:	02 c0       	rjmp	.+4      	; 0x1adc <update_fill_mode+0x16e>
    1ad8:	44 0f       	add	r20, r20
    1ada:	55 1f       	adc	r21, r21
    1adc:	8a 95       	dec	r24
    1ade:	e2 f7       	brpl	.-8      	; 0x1ad8 <update_fill_mode+0x16a>
    1ae0:	82 81       	ldd	r24, Z+2	; 0x02
    1ae2:	48 2b       	or	r20, r24
    1ae4:	42 83       	std	Z+2, r20	; 0x02
    1ae6:	55 c0       	rjmp	.+170    	; 0x1b92 <update_fill_mode+0x224>
    1ae8:	e5 e4       	ldi	r30, 0x45	; 69
    1aea:	f2 e0       	ldi	r31, 0x02	; 2
    1aec:	81 e0       	ldi	r24, 0x01	; 1
    1aee:	90 e0       	ldi	r25, 0x00	; 0
    1af0:	00 90 35 02 	lds	r0, 0x0235
    1af4:	02 c0       	rjmp	.+4      	; 0x1afa <update_fill_mode+0x18c>
    1af6:	88 0f       	add	r24, r24
    1af8:	99 1f       	adc	r25, r25
    1afa:	0a 94       	dec	r0
    1afc:	e2 f7       	brpl	.-8      	; 0x1af6 <update_fill_mode+0x188>
    1afe:	92 81       	ldd	r25, Z+2	; 0x02
    1b00:	89 2b       	or	r24, r25
    1b02:	82 83       	std	Z+2, r24	; 0x02
    1b04:	46 c0       	rjmp	.+140    	; 0x1b92 <update_fill_mode+0x224>
    1b06:	20 91 17 02 	lds	r18, 0x0217
    1b0a:	26 ff       	sbrs	r18, 6
    1b0c:	25 c0       	rjmp	.+74     	; 0x1b58 <update_fill_mode+0x1ea>
    1b0e:	e7 e1       	ldi	r30, 0x17	; 23
    1b10:	f2 e0       	ldi	r31, 0x02	; 2
    1b12:	2f 7b       	andi	r18, 0xBF	; 191
    1b14:	20 83       	st	Z, r18
    1b16:	20 91 36 02 	lds	r18, 0x0236
    1b1a:	2f 5f       	subi	r18, 0xFF	; 255
    1b1c:	26 30       	cpi	r18, 0x06	; 6
    1b1e:	19 f0       	breq	.+6      	; 0x1b26 <update_fill_mode+0x1b8>
    1b20:	20 93 36 02 	sts	0x0236, r18
    1b24:	02 c0       	rjmp	.+4      	; 0x1b2a <update_fill_mode+0x1bc>
    1b26:	10 92 36 02 	sts	0x0236, r1
    1b2a:	20 91 36 02 	lds	r18, 0x0236
    1b2e:	de 01       	movw	r26, r28
    1b30:	a2 0f       	add	r26, r18
    1b32:	b1 1d       	adc	r27, r1
    1b34:	e1 e0       	ldi	r30, 0x01	; 1
    1b36:	f5 e0       	ldi	r31, 0x05	; 5
    1b38:	11 96       	adiw	r26, 0x01	; 1
    1b3a:	2c 91       	ld	r18, X
    1b3c:	32 2f       	mov	r19, r18
    1b3e:	3f 70       	andi	r19, 0x0F	; 15
    1b40:	20 81       	ld	r18, Z
    1b42:	20 7f       	andi	r18, 0xF0	; 240
    1b44:	23 2b       	or	r18, r19
    1b46:	20 83       	st	Z, r18
    1b48:	e4 e9       	ldi	r30, 0x94	; 148
    1b4a:	f5 e0       	ldi	r31, 0x05	; 5
    1b4c:	23 81       	ldd	r18, Z+3	; 0x03
    1b4e:	2f 71       	andi	r18, 0x1F	; 31
    1b50:	23 83       	std	Z+3, r18	; 0x03
    1b52:	24 81       	ldd	r18, Z+4	; 0x04
    1b54:	28 7f       	andi	r18, 0xF8	; 248
    1b56:	24 83       	std	Z+4, r18	; 0x04
    1b58:	20 91 36 02 	lds	r18, 0x0236
    1b5c:	22 30       	cpi	r18, 0x02	; 2
    1b5e:	68 f4       	brcc	.+26     	; 0x1b7a <update_fill_mode+0x20c>
    1b60:	2a 5f       	subi	r18, 0xFA	; 250
    1b62:	41 e0       	ldi	r20, 0x01	; 1
    1b64:	50 e0       	ldi	r21, 0x00	; 0
    1b66:	ba 01       	movw	r22, r20
    1b68:	02 c0       	rjmp	.+4      	; 0x1b6e <update_fill_mode+0x200>
    1b6a:	66 0f       	add	r22, r22
    1b6c:	77 1f       	adc	r23, r23
    1b6e:	2a 95       	dec	r18
    1b70:	e2 f7       	brpl	.-8      	; 0x1b6a <update_fill_mode+0x1fc>
    1b72:	96 2b       	or	r25, r22
    1b74:	90 93 49 02 	sts	0x0249, r25
    1b78:	0c c0       	rjmp	.+24     	; 0x1b92 <update_fill_mode+0x224>
    1b7a:	22 50       	subi	r18, 0x02	; 2
    1b7c:	41 e0       	ldi	r20, 0x01	; 1
    1b7e:	50 e0       	ldi	r21, 0x00	; 0
    1b80:	ba 01       	movw	r22, r20
    1b82:	02 c0       	rjmp	.+4      	; 0x1b88 <update_fill_mode+0x21a>
    1b84:	66 0f       	add	r22, r22
    1b86:	77 1f       	adc	r23, r23
    1b88:	2a 95       	dec	r18
    1b8a:	e2 f7       	brpl	.-8      	; 0x1b84 <update_fill_mode+0x216>
    1b8c:	86 2b       	or	r24, r22
    1b8e:	80 93 47 02 	sts	0x0247, r24
    1b92:	2b 96       	adiw	r28, 0x0b	; 11
    1b94:	0f b6       	in	r0, 0x3f	; 63
    1b96:	f8 94       	cli
    1b98:	de bf       	out	0x3e, r29	; 62
    1b9a:	0f be       	out	0x3f, r0	; 63
    1b9c:	cd bf       	out	0x3d, r28	; 61
    1b9e:	df 91       	pop	r29
    1ba0:	cf 91       	pop	r28
    1ba2:	08 95       	ret

00001ba4 <update_tempo>:
    1ba4:	0e 94 74 02 	call	0x4e8	; 0x4e8 <read_tempo_pot>
    1ba8:	90 93 3a 02 	sts	0x023A, r25
    1bac:	80 93 39 02 	sts	0x0239, r24
    1bb0:	20 91 37 02 	lds	r18, 0x0237
    1bb4:	30 91 38 02 	lds	r19, 0x0238
    1bb8:	82 1b       	sub	r24, r18
    1bba:	93 0b       	sbc	r25, r19
    1bbc:	95 95       	asr	r25
    1bbe:	87 95       	ror	r24
    1bc0:	95 95       	asr	r25
    1bc2:	87 95       	ror	r24
    1bc4:	82 0f       	add	r24, r18
    1bc6:	93 1f       	adc	r25, r19
    1bc8:	90 93 38 02 	sts	0x0238, r25
    1bcc:	80 93 37 02 	sts	0x0237, r24
    1bd0:	2b e8       	ldi	r18, 0x8B	; 139
    1bd2:	34 e0       	ldi	r19, 0x04	; 4
    1bd4:	a9 01       	movw	r20, r18
    1bd6:	48 1b       	sub	r20, r24
    1bd8:	59 0b       	sbc	r21, r25
    1bda:	ef ef       	ldi	r30, 0xFF	; 255
    1bdc:	f2 e0       	ldi	r31, 0x02	; 2
    1bde:	57 83       	std	Z+7, r21	; 0x07
    1be0:	46 83       	std	Z+6, r20	; 0x06
    1be2:	86 81       	ldd	r24, Z+6	; 0x06
    1be4:	97 81       	ldd	r25, Z+7	; 0x07
    1be6:	0e 94 95 02 	call	0x52a	; 0x52a <update_clock_rate>
    1bea:	08 95       	ret

00001bec <show_current_measure>:
    1bec:	80 91 98 05 	lds	r24, 0x0598
    1bf0:	98 2f       	mov	r25, r24
    1bf2:	96 95       	lsr	r25
    1bf4:	96 95       	lsr	r25
    1bf6:	96 95       	lsr	r25
    1bf8:	80 91 99 05 	lds	r24, 0x0599
    1bfc:	83 70       	andi	r24, 0x03	; 3
    1bfe:	82 95       	swap	r24
    1c00:	88 0f       	add	r24, r24
    1c02:	80 7e       	andi	r24, 0xE0	; 224
    1c04:	89 2b       	or	r24, r25
    1c06:	28 2f       	mov	r18, r24
    1c08:	30 e0       	ldi	r19, 0x00	; 0
    1c0a:	20 31       	cpi	r18, 0x10	; 16
    1c0c:	31 05       	cpc	r19, r1
    1c0e:	1c f4       	brge	.+6      	; 0x1c16 <show_current_measure+0x2a>
    1c10:	0e 94 2f 08 	call	0x105e	; 0x105e <turn_on>
    1c14:	08 95       	ret
    1c16:	20 32       	cpi	r18, 0x20	; 32
    1c18:	31 05       	cpc	r19, r1
    1c1a:	24 f4       	brge	.+8      	; 0x1c24 <show_current_measure+0x38>
    1c1c:	80 51       	subi	r24, 0x10	; 16
    1c1e:	0e 94 2f 08 	call	0x105e	; 0x105e <turn_on>
    1c22:	08 95       	ret
    1c24:	20 33       	cpi	r18, 0x30	; 48
    1c26:	31 05       	cpc	r19, r1
    1c28:	24 f4       	brge	.+8      	; 0x1c32 <show_current_measure+0x46>
    1c2a:	80 52       	subi	r24, 0x20	; 32
    1c2c:	0e 94 2f 08 	call	0x105e	; 0x105e <turn_on>
    1c30:	08 95       	ret
    1c32:	80 53       	subi	r24, 0x30	; 48
    1c34:	0e 94 2f 08 	call	0x105e	; 0x105e <turn_on>
    1c38:	08 95       	ret

00001c3a <process_tick>:
    1c3a:	80 91 e6 02 	lds	r24, 0x02E6
    1c3e:	88 23       	and	r24, r24
    1c40:	44 f5       	brge	.+80     	; 0x1c92 <process_tick+0x58>
    1c42:	80 91 03 05 	lds	r24, 0x0503
    1c46:	86 95       	lsr	r24
    1c48:	86 95       	lsr	r24
    1c4a:	8f 5f       	subi	r24, 0xFF	; 255
    1c4c:	8f 70       	andi	r24, 0x0F	; 15
    1c4e:	e1 e0       	ldi	r30, 0x01	; 1
    1c50:	f5 e0       	ldi	r31, 0x05	; 5
    1c52:	28 2f       	mov	r18, r24
    1c54:	22 0f       	add	r18, r18
    1c56:	22 0f       	add	r18, r18
    1c58:	92 81       	ldd	r25, Z+2	; 0x02
    1c5a:	93 7c       	andi	r25, 0xC3	; 195
    1c5c:	92 2b       	or	r25, r18
    1c5e:	92 83       	std	Z+2, r25	; 0x02
    1c60:	90 e0       	ldi	r25, 0x00	; 0
    1c62:	20 91 02 05 	lds	r18, 0x0502
    1c66:	32 2f       	mov	r19, r18
    1c68:	36 95       	lsr	r19
    1c6a:	37 70       	andi	r19, 0x07	; 7
    1c6c:	22 95       	swap	r18
    1c6e:	2f 70       	andi	r18, 0x0F	; 15
    1c70:	27 70       	andi	r18, 0x07	; 7
    1c72:	32 9f       	mul	r19, r18
    1c74:	90 01       	movw	r18, r0
    1c76:	11 24       	eor	r1, r1
    1c78:	82 17       	cp	r24, r18
    1c7a:	93 07       	cpc	r25, r19
    1c7c:	51 f4       	brne	.+20     	; 0x1c92 <process_tick+0x58>
    1c7e:	e5 ee       	ldi	r30, 0xE5	; 229
    1c80:	f2 e0       	ldi	r31, 0x02	; 2
    1c82:	80 81       	ld	r24, Z
    1c84:	81 60       	ori	r24, 0x01	; 1
    1c86:	80 83       	st	Z, r24
    1c88:	e6 ee       	ldi	r30, 0xE6	; 230
    1c8a:	f2 e0       	ldi	r31, 0x02	; 2
    1c8c:	80 81       	ld	r24, Z
    1c8e:	8f 77       	andi	r24, 0x7F	; 127
    1c90:	80 83       	st	Z, r24
    1c92:	90 91 94 05 	lds	r25, 0x0594
    1c96:	92 95       	swap	r25
    1c98:	96 95       	lsr	r25
    1c9a:	97 70       	andi	r25, 0x07	; 7
    1c9c:	80 91 95 05 	lds	r24, 0x0595
    1ca0:	81 70       	andi	r24, 0x01	; 1
    1ca2:	88 0f       	add	r24, r24
    1ca4:	88 0f       	add	r24, r24
    1ca6:	88 0f       	add	r24, r24
    1ca8:	89 2b       	or	r24, r25
    1caa:	38 2f       	mov	r19, r24
    1cac:	31 70       	andi	r19, 0x01	; 1
    1cae:	ef ef       	ldi	r30, 0xFF	; 255
    1cb0:	f2 e0       	ldi	r31, 0x02	; 2
    1cb2:	92 81       	ldd	r25, Z+2	; 0x02
    1cb4:	9f 5f       	subi	r25, 0xFF	; 255
    1cb6:	92 83       	std	Z+2, r25	; 0x02
    1cb8:	20 81       	ld	r18, Z
    1cba:	92 13       	cpse	r25, r18
    1cbc:	81 c0       	rjmp	.+258    	; 0x1dc0 <process_tick+0x186>
    1cbe:	90 91 e6 02 	lds	r25, 0x02E6
    1cc2:	91 ff       	sbrs	r25, 1
    1cc4:	0c c0       	rjmp	.+24     	; 0x1cde <process_tick+0xa4>
    1cc6:	e0 91 95 05 	lds	r30, 0x0595
    1cca:	e6 95       	lsr	r30
    1ccc:	e6 95       	lsr	r30
    1cce:	e6 95       	lsr	r30
    1cd0:	e3 70       	andi	r30, 0x03	; 3
    1cd2:	f0 e0       	ldi	r31, 0x00	; 0
    1cd4:	ee 50       	subi	r30, 0x0E	; 14
    1cd6:	fe 4f       	sbci	r31, 0xFE	; 254
    1cd8:	90 81       	ld	r25, Z
    1cda:	90 93 ff 02 	sts	0x02FF, r25
    1cde:	90 91 e7 02 	lds	r25, 0x02E7
    1ce2:	90 ff       	sbrs	r25, 0
    1ce4:	18 c0       	rjmp	.+48     	; 0x1d16 <process_tick+0xdc>
    1ce6:	90 91 02 05 	lds	r25, 0x0502
    1cea:	69 2f       	mov	r22, r25
    1cec:	66 1f       	adc	r22, r22
    1cee:	66 27       	eor	r22, r22
    1cf0:	66 1f       	adc	r22, r22
    1cf2:	90 91 03 05 	lds	r25, 0x0503
    1cf6:	93 70       	andi	r25, 0x03	; 3
    1cf8:	99 0f       	add	r25, r25
    1cfa:	e1 e0       	ldi	r30, 0x01	; 1
    1cfc:	f5 e0       	ldi	r31, 0x05	; 5
    1cfe:	96 2b       	or	r25, r22
    1d00:	29 2f       	mov	r18, r25
    1d02:	22 0f       	add	r18, r18
    1d04:	91 81       	ldd	r25, Z+1	; 0x01
    1d06:	91 7f       	andi	r25, 0xF1	; 241
    1d08:	92 2b       	or	r25, r18
    1d0a:	91 83       	std	Z+1, r25	; 0x01
    1d0c:	e7 ee       	ldi	r30, 0xE7	; 231
    1d0e:	f2 e0       	ldi	r31, 0x02	; 2
    1d10:	90 81       	ld	r25, Z
    1d12:	9e 7f       	andi	r25, 0xFE	; 254
    1d14:	90 83       	st	Z, r25
    1d16:	90 91 02 05 	lds	r25, 0x0502
    1d1a:	9e 70       	andi	r25, 0x0E	; 14
    1d1c:	81 f0       	breq	.+32     	; 0x1d3e <process_tick+0x104>
    1d1e:	31 11       	cpse	r19, r1
    1d20:	0e c0       	rjmp	.+28     	; 0x1d3e <process_tick+0x104>
    1d22:	90 91 e7 02 	lds	r25, 0x02E7
    1d26:	90 fd       	sbrc	r25, 0
    1d28:	0a c0       	rjmp	.+20     	; 0x1d3e <process_tick+0x104>
    1d2a:	e1 e0       	ldi	r30, 0x01	; 1
    1d2c:	f5 e0       	ldi	r31, 0x05	; 5
    1d2e:	92 81       	ldd	r25, Z+2	; 0x02
    1d30:	93 7c       	andi	r25, 0xC3	; 195
    1d32:	92 83       	std	Z+2, r25	; 0x02
    1d34:	e6 ee       	ldi	r30, 0xE6	; 230
    1d36:	f2 e0       	ldi	r31, 0x02	; 2
    1d38:	90 81       	ld	r25, Z
    1d3a:	90 68       	ori	r25, 0x80	; 128
    1d3c:	90 83       	st	Z, r25
    1d3e:	90 91 e6 02 	lds	r25, 0x02E6
    1d42:	99 23       	and	r25, r25
    1d44:	2c f0       	brlt	.+10     	; 0x1d50 <process_tick+0x116>
    1d46:	e5 ee       	ldi	r30, 0xE5	; 229
    1d48:	f2 e0       	ldi	r31, 0x02	; 2
    1d4a:	90 81       	ld	r25, Z
    1d4c:	91 60       	ori	r25, 0x01	; 1
    1d4e:	90 83       	st	Z, r25
    1d50:	21 e0       	ldi	r18, 0x01	; 1
    1d52:	28 0f       	add	r18, r24
    1d54:	e4 e9       	ldi	r30, 0x94	; 148
    1d56:	f5 e0       	ldi	r31, 0x05	; 5
    1d58:	32 2f       	mov	r19, r18
    1d5a:	32 95       	swap	r19
    1d5c:	33 0f       	add	r19, r19
    1d5e:	30 7e       	andi	r19, 0xE0	; 224
    1d60:	90 81       	ld	r25, Z
    1d62:	9f 71       	andi	r25, 0x1F	; 31
    1d64:	93 2b       	or	r25, r19
    1d66:	90 83       	st	Z, r25
    1d68:	23 fb       	bst	r18, 3
    1d6a:	99 27       	eor	r25, r25
    1d6c:	90 f9       	bld	r25, 0
    1d6e:	21 81       	ldd	r18, Z+1	; 0x01
    1d70:	2e 7f       	andi	r18, 0xFE	; 254
    1d72:	29 2b       	or	r18, r25
    1d74:	21 83       	std	Z+1, r18	; 0x01
    1d76:	90 e0       	ldi	r25, 0x00	; 0
    1d78:	21 fb       	bst	r18, 1
    1d7a:	44 27       	eor	r20, r20
    1d7c:	40 f9       	bld	r20, 0
    1d7e:	50 e0       	ldi	r21, 0x00	; 0
    1d80:	41 50       	subi	r20, 0x01	; 1
    1d82:	5b 4f       	sbci	r21, 0xFB	; 251
    1d84:	fa 01       	movw	r30, r20
    1d86:	ed 56       	subi	r30, 0x6D	; 109
    1d88:	ff 4f       	sbci	r31, 0xFF	; 255
    1d8a:	20 81       	ld	r18, Z
    1d8c:	30 e0       	ldi	r19, 0x00	; 0
    1d8e:	82 17       	cp	r24, r18
    1d90:	93 07       	cpc	r25, r19
    1d92:	49 f4       	brne	.+18     	; 0x1da6 <process_tick+0x16c>
    1d94:	80 91 01 05 	lds	r24, 0x0501
    1d98:	85 ff       	sbrs	r24, 5
    1d9a:	05 c0       	rjmp	.+10     	; 0x1da6 <process_tick+0x16c>
    1d9c:	e6 ee       	ldi	r30, 0xE6	; 230
    1d9e:	f2 e0       	ldi	r31, 0x02	; 2
    1da0:	80 81       	ld	r24, Z
    1da2:	81 60       	ori	r24, 0x01	; 1
    1da4:	80 83       	st	Z, r24
    1da6:	e4 e0       	ldi	r30, 0x04	; 4
    1da8:	f3 e0       	ldi	r31, 0x03	; 3
    1daa:	80 81       	ld	r24, Z
    1dac:	8f 5f       	subi	r24, 0xFF	; 255
    1dae:	98 2f       	mov	r25, r24
    1db0:	93 70       	andi	r25, 0x03	; 3
    1db2:	80 81       	ld	r24, Z
    1db4:	8c 7f       	andi	r24, 0xFC	; 252
    1db6:	89 2b       	or	r24, r25
    1db8:	80 83       	st	Z, r24
    1dba:	10 92 01 03 	sts	0x0301, r1
    1dbe:	21 c0       	rjmp	.+66     	; 0x1e02 <process_tick+0x1c8>
    1dc0:	ef ef       	ldi	r30, 0xFF	; 255
    1dc2:	f2 e0       	ldi	r31, 0x02	; 2
    1dc4:	92 81       	ldd	r25, Z+2	; 0x02
    1dc6:	80 81       	ld	r24, Z
    1dc8:	86 95       	lsr	r24
    1dca:	98 13       	cpse	r25, r24
    1dcc:	03 c0       	rjmp	.+6      	; 0x1dd4 <process_tick+0x19a>
    1dce:	33 23       	and	r19, r19
    1dd0:	99 f0       	breq	.+38     	; 0x1df8 <process_tick+0x1be>
    1dd2:	02 c0       	rjmp	.+4      	; 0x1dd8 <process_tick+0x19e>
    1dd4:	33 23       	and	r19, r19
    1dd6:	a9 f0       	breq	.+42     	; 0x1e02 <process_tick+0x1c8>
    1dd8:	ef ef       	ldi	r30, 0xFF	; 255
    1dda:	f2 e0       	ldi	r31, 0x02	; 2
    1ddc:	22 81       	ldd	r18, Z+2	; 0x02
    1dde:	40 81       	ld	r20, Z
    1de0:	30 e0       	ldi	r19, 0x00	; 0
    1de2:	46 95       	lsr	r20
    1de4:	80 91 02 05 	lds	r24, 0x0502
    1de8:	86 95       	lsr	r24
    1dea:	87 70       	andi	r24, 0x07	; 7
    1dec:	90 e0       	ldi	r25, 0x00	; 0
    1dee:	84 0f       	add	r24, r20
    1df0:	91 1d       	adc	r25, r1
    1df2:	28 17       	cp	r18, r24
    1df4:	39 07       	cpc	r19, r25
    1df6:	29 f4       	brne	.+10     	; 0x1e02 <process_tick+0x1c8>
    1df8:	e5 ee       	ldi	r30, 0xE5	; 229
    1dfa:	f2 e0       	ldi	r31, 0x02	; 2
    1dfc:	80 81       	ld	r24, Z
    1dfe:	82 60       	ori	r24, 0x02	; 2
    1e00:	80 83       	st	Z, r24
    1e02:	80 91 0b 03 	lds	r24, 0x030B
    1e06:	81 30       	cpi	r24, 0x01	; 1
    1e08:	a1 f4       	brne	.+40     	; 0x1e32 <process_tick+0x1f8>
    1e0a:	ef ef       	ldi	r30, 0xFF	; 255
    1e0c:	f2 e0       	ldi	r31, 0x02	; 2
    1e0e:	84 81       	ldd	r24, Z+4	; 0x04
    1e10:	8f 5f       	subi	r24, 0xFF	; 255
    1e12:	84 83       	std	Z+4, r24	; 0x04
    1e14:	91 81       	ldd	r25, Z+1	; 0x01
    1e16:	89 13       	cpse	r24, r25
    1e18:	0c c0       	rjmp	.+24     	; 0x1e32 <process_tick+0x1f8>
    1e1a:	10 92 03 03 	sts	0x0303, r1
    1e1e:	e6 ee       	ldi	r30, 0xE6	; 230
    1e20:	f2 e0       	ldi	r31, 0x02	; 2
    1e22:	80 81       	ld	r24, Z
    1e24:	80 64       	ori	r24, 0x40	; 64
    1e26:	80 83       	st	Z, r24
    1e28:	e1 e8       	ldi	r30, 0x81	; 129
    1e2a:	f0 e0       	ldi	r31, 0x00	; 0
    1e2c:	80 81       	ld	r24, Z
    1e2e:	8b 7f       	andi	r24, 0xFB	; 251
    1e30:	80 83       	st	Z, r24
    1e32:	08 95       	ret

00001e34 <process_start>:
    1e34:	80 91 ff 04 	lds	r24, 0x04FF
    1e38:	85 30       	cpi	r24, 0x05	; 5
    1e3a:	41 f0       	breq	.+16     	; 0x1e4c <process_start+0x18>
    1e3c:	e4 e9       	ldi	r30, 0x94	; 148
    1e3e:	f5 e0       	ldi	r31, 0x05	; 5
    1e40:	84 81       	ldd	r24, Z+4	; 0x04
    1e42:	87 70       	andi	r24, 0x07	; 7
    1e44:	84 83       	std	Z+4, r24	; 0x04
    1e46:	85 81       	ldd	r24, Z+5	; 0x05
    1e48:	8c 7f       	andi	r24, 0xFC	; 252
    1e4a:	85 83       	std	Z+5, r24	; 0x05
    1e4c:	e2 e0       	ldi	r30, 0x02	; 2
    1e4e:	f3 e0       	ldi	r31, 0x03	; 3
    1e50:	80 81       	ld	r24, Z
    1e52:	88 7f       	andi	r24, 0xF8	; 248
    1e54:	80 83       	st	Z, r24
    1e56:	80 91 0b 03 	lds	r24, 0x030B
    1e5a:	81 30       	cpi	r24, 0x01	; 1
    1e5c:	a1 f4       	brne	.+40     	; 0x1e86 <process_start+0x52>
    1e5e:	e4 e9       	ldi	r30, 0x94	; 148
    1e60:	f5 e0       	ldi	r31, 0x05	; 5
    1e62:	80 81       	ld	r24, Z
    1e64:	80 6e       	ori	r24, 0xE0	; 224
    1e66:	80 83       	st	Z, r24
    1e68:	81 81       	ldd	r24, Z+1	; 0x01
    1e6a:	81 60       	ori	r24, 0x01	; 1
    1e6c:	81 83       	std	Z+1, r24	; 0x01
    1e6e:	ef ef       	ldi	r30, 0xFF	; 255
    1e70:	f2 e0       	ldi	r31, 0x02	; 2
    1e72:	80 81       	ld	r24, Z
    1e74:	81 50       	subi	r24, 0x01	; 1
    1e76:	82 83       	std	Z+2, r24	; 0x02
    1e78:	a6 ee       	ldi	r26, 0xE6	; 230
    1e7a:	b2 e0       	ldi	r27, 0x02	; 2
    1e7c:	8c 91       	ld	r24, X
    1e7e:	80 62       	ori	r24, 0x20	; 32
    1e80:	8c 93       	st	X, r24
    1e82:	14 82       	std	Z+4, r1	; 0x04
    1e84:	0f c0       	rjmp	.+30     	; 0x1ea4 <process_start+0x70>
    1e86:	e4 e9       	ldi	r30, 0x94	; 148
    1e88:	f5 e0       	ldi	r31, 0x05	; 5
    1e8a:	80 81       	ld	r24, Z
    1e8c:	8f 71       	andi	r24, 0x1F	; 31
    1e8e:	80 83       	st	Z, r24
    1e90:	81 81       	ldd	r24, Z+1	; 0x01
    1e92:	8e 7f       	andi	r24, 0xFE	; 254
    1e94:	81 83       	std	Z+1, r24	; 0x01
    1e96:	10 92 01 03 	sts	0x0301, r1
    1e9a:	e6 ee       	ldi	r30, 0xE6	; 230
    1e9c:	f2 e0       	ldi	r31, 0x02	; 2
    1e9e:	80 81       	ld	r24, Z
    1ea0:	8f 7d       	andi	r24, 0xDF	; 223
    1ea2:	80 83       	st	Z, r24
    1ea4:	e5 ee       	ldi	r30, 0xE5	; 229
    1ea6:	f2 e0       	ldi	r31, 0x02	; 2
    1ea8:	80 81       	ld	r24, Z
    1eaa:	8b 7f       	andi	r24, 0xFB	; 251
    1eac:	80 83       	st	Z, r24
    1eae:	80 91 91 05 	lds	r24, 0x0591
    1eb2:	8d 7f       	andi	r24, 0xFD	; 253
    1eb4:	31 f4       	brne	.+12     	; 0x1ec2 <process_start+0x8e>
    1eb6:	e0 e9       	ldi	r30, 0x90	; 144
    1eb8:	f5 e0       	ldi	r31, 0x05	; 5
    1eba:	80 81       	ld	r24, Z
    1ebc:	8d 7f       	andi	r24, 0xFD	; 253
    1ebe:	80 83       	st	Z, r24
    1ec0:	05 c0       	rjmp	.+10     	; 0x1ecc <process_start+0x98>
    1ec2:	e0 e9       	ldi	r30, 0x90	; 144
    1ec4:	f5 e0       	ldi	r31, 0x05	; 5
    1ec6:	80 81       	ld	r24, Z
    1ec8:	82 60       	ori	r24, 0x02	; 2
    1eca:	80 83       	st	Z, r24
    1ecc:	80 91 00 05 	lds	r24, 0x0500
    1ed0:	9e ef       	ldi	r25, 0xFE	; 254
    1ed2:	98 0f       	add	r25, r24
    1ed4:	92 30       	cpi	r25, 0x02	; 2
    1ed6:	58 f4       	brcc	.+22     	; 0x1eee <process_start+0xba>
    1ed8:	e7 ee       	ldi	r30, 0xE7	; 231
    1eda:	f2 e0       	ldi	r31, 0x02	; 2
    1edc:	80 81       	ld	r24, Z
    1ede:	84 60       	ori	r24, 0x04	; 4
    1ee0:	80 83       	st	Z, r24
    1ee2:	e2 e0       	ldi	r30, 0x02	; 2
    1ee4:	f3 e0       	ldi	r31, 0x03	; 3
    1ee6:	80 81       	ld	r24, Z
    1ee8:	87 7c       	andi	r24, 0xC7	; 199
    1eea:	80 83       	st	Z, r24
    1eec:	0f c0       	rjmp	.+30     	; 0x1f0c <process_start+0xd8>
    1eee:	e5 ee       	ldi	r30, 0xE5	; 229
    1ef0:	f2 e0       	ldi	r31, 0x02	; 2
    1ef2:	90 81       	ld	r25, Z
    1ef4:	91 60       	ori	r25, 0x01	; 1
    1ef6:	90 83       	st	Z, r25
    1ef8:	81 30       	cpi	r24, 0x01	; 1
    1efa:	41 f4       	brne	.+16     	; 0x1f0c <process_start+0xd8>
    1efc:	8c e0       	ldi	r24, 0x0C	; 12
    1efe:	93 e0       	ldi	r25, 0x03	; 3
    1f00:	0e 94 f3 26 	call	0x4de6	; 0x4de6 <midi_send_start>
    1f04:	8c e0       	ldi	r24, 0x0C	; 12
    1f06:	93 e0       	ldi	r25, 0x03	; 3
    1f08:	0e 94 e7 26 	call	0x4dce	; 0x4dce <midi_send_clock>
    1f0c:	80 91 ff 04 	lds	r24, 0x04FF
    1f10:	83 30       	cpi	r24, 0x03	; 3
    1f12:	b9 f4       	brne	.+46     	; 0x1f42 <process_start+0x10e>
    1f14:	80 91 e6 02 	lds	r24, 0x02E6
    1f18:	83 ff       	sbrs	r24, 3
    1f1a:	13 c0       	rjmp	.+38     	; 0x1f42 <process_start+0x10e>
    1f1c:	e6 ee       	ldi	r30, 0xE6	; 230
    1f1e:	f2 e0       	ldi	r31, 0x02	; 2
    1f20:	80 81       	ld	r24, Z
    1f22:	87 7f       	andi	r24, 0xF7	; 247
    1f24:	80 83       	st	Z, r24
    1f26:	e0 e9       	ldi	r30, 0x90	; 144
    1f28:	f5 e0       	ldi	r31, 0x05	; 5
    1f2a:	80 81       	ld	r24, Z
    1f2c:	82 fb       	bst	r24, 2
    1f2e:	99 27       	eor	r25, r25
    1f30:	90 f9       	bld	r25, 0
    1f32:	90 fb       	bst	r25, 0
    1f34:	81 f9       	bld	r24, 1
    1f36:	80 83       	st	Z, r24
    1f38:	e5 ee       	ldi	r30, 0xE5	; 229
    1f3a:	f2 e0       	ldi	r31, 0x02	; 2
    1f3c:	80 81       	ld	r24, Z
    1f3e:	80 62       	ori	r24, 0x20	; 32
    1f40:	80 83       	st	Z, r24
    1f42:	8b ee       	ldi	r24, 0xEB	; 235
    1f44:	87 bd       	out	0x27, r24	; 39
    1f46:	10 92 85 00 	sts	0x0085, r1
    1f4a:	10 92 84 00 	sts	0x0084, r1
    1f4e:	10 92 95 00 	sts	0x0095, r1
    1f52:	10 92 94 00 	sts	0x0094, r1
    1f56:	e1 e8       	ldi	r30, 0x81	; 129
    1f58:	f0 e0       	ldi	r31, 0x00	; 0
    1f5a:	80 81       	ld	r24, Z
    1f5c:	84 60       	ori	r24, 0x04	; 4
    1f5e:	80 83       	st	Z, r24
    1f60:	08 95       	ret

00001f62 <update_shuffle>:
    1f62:	cf 93       	push	r28
    1f64:	df 93       	push	r29
    1f66:	86 30       	cpi	r24, 0x06	; 6
    1f68:	90 f4       	brcc	.+36     	; 0x1f8e <update_shuffle+0x2c>
    1f6a:	e1 e0       	ldi	r30, 0x01	; 1
    1f6c:	f5 e0       	ldi	r31, 0x05	; 5
    1f6e:	91 81       	ldd	r25, Z+1	; 0x01
    1f70:	80 fb       	bst	r24, 0
    1f72:	97 f9       	bld	r25, 7
    1f74:	91 83       	std	Z+1, r25	; 0x01
    1f76:	86 95       	lsr	r24
    1f78:	83 70       	andi	r24, 0x03	; 3
    1f7a:	92 81       	ldd	r25, Z+2	; 0x02
    1f7c:	9c 7f       	andi	r25, 0xFC	; 252
    1f7e:	89 2b       	or	r24, r25
    1f80:	82 83       	std	Z+2, r24	; 0x02
    1f82:	e7 ee       	ldi	r30, 0xE7	; 231
    1f84:	f2 e0       	ldi	r31, 0x02	; 2
    1f86:	80 81       	ld	r24, Z
    1f88:	81 60       	ori	r24, 0x01	; 1
    1f8a:	80 83       	st	Z, r24
    1f8c:	15 c0       	rjmp	.+42     	; 0x1fb8 <update_shuffle+0x56>
    1f8e:	88 50       	subi	r24, 0x08	; 8
    1f90:	86 30       	cpi	r24, 0x06	; 6
    1f92:	90 f4       	brcc	.+36     	; 0x1fb8 <update_shuffle+0x56>
    1f94:	e1 e0       	ldi	r30, 0x01	; 1
    1f96:	f5 e0       	ldi	r31, 0x05	; 5
    1f98:	28 2f       	mov	r18, r24
    1f9a:	22 95       	swap	r18
    1f9c:	22 0f       	add	r18, r18
    1f9e:	22 0f       	add	r18, r18
    1fa0:	20 7c       	andi	r18, 0xC0	; 192
    1fa2:	92 81       	ldd	r25, Z+2	; 0x02
    1fa4:	9f 73       	andi	r25, 0x3F	; 63
    1fa6:	92 2b       	or	r25, r18
    1fa8:	92 83       	std	Z+2, r25	; 0x02
    1faa:	82 fb       	bst	r24, 2
    1fac:	99 27       	eor	r25, r25
    1fae:	90 f9       	bld	r25, 0
    1fb0:	83 81       	ldd	r24, Z+3	; 0x03
    1fb2:	8e 7f       	andi	r24, 0xFE	; 254
    1fb4:	89 2b       	or	r24, r25
    1fb6:	83 83       	std	Z+3, r24	; 0x03
    1fb8:	90 91 02 05 	lds	r25, 0x0502
    1fbc:	99 1f       	adc	r25, r25
    1fbe:	99 27       	eor	r25, r25
    1fc0:	99 1f       	adc	r25, r25
    1fc2:	c3 e0       	ldi	r28, 0x03	; 3
    1fc4:	d5 e0       	ldi	r29, 0x05	; 5
    1fc6:	88 81       	ld	r24, Y
    1fc8:	83 70       	andi	r24, 0x03	; 3
    1fca:	88 0f       	add	r24, r24
    1fcc:	89 2b       	or	r24, r25
    1fce:	0e 94 2f 08 	call	0x105e	; 0x105e <turn_on>
    1fd2:	88 81       	ld	r24, Y
    1fd4:	98 2f       	mov	r25, r24
    1fd6:	92 95       	swap	r25
    1fd8:	96 95       	lsr	r25
    1fda:	96 95       	lsr	r25
    1fdc:	93 70       	andi	r25, 0x03	; 3
    1fde:	80 91 04 05 	lds	r24, 0x0504
    1fe2:	81 70       	andi	r24, 0x01	; 1
    1fe4:	88 0f       	add	r24, r24
    1fe6:	88 0f       	add	r24, r24
    1fe8:	89 2b       	or	r24, r25
    1fea:	88 5f       	subi	r24, 0xF8	; 248
    1fec:	0e 94 2f 08 	call	0x105e	; 0x105e <turn_on>
    1ff0:	df 91       	pop	r29
    1ff2:	cf 91       	pop	r28
    1ff4:	08 95       	ret

00001ff6 <update_prescale>:
    1ff6:	80 91 18 02 	lds	r24, 0x0218
    1ffa:	86 ff       	sbrs	r24, 6
    1ffc:	2c c0       	rjmp	.+88     	; 0x2056 <update_prescale+0x60>
    1ffe:	80 91 01 05 	lds	r24, 0x0501
    2002:	84 ff       	sbrs	r24, 4
    2004:	28 c0       	rjmp	.+80     	; 0x2056 <update_prescale+0x60>
    2006:	e8 e1       	ldi	r30, 0x18	; 24
    2008:	f2 e0       	ldi	r31, 0x02	; 2
    200a:	80 81       	ld	r24, Z
    200c:	8f 7b       	andi	r24, 0xBF	; 191
    200e:	80 83       	st	Z, r24
    2010:	80 91 95 05 	lds	r24, 0x0595
    2014:	86 95       	lsr	r24
    2016:	86 95       	lsr	r24
    2018:	86 95       	lsr	r24
    201a:	83 70       	andi	r24, 0x03	; 3
    201c:	69 f0       	breq	.+26     	; 0x2038 <update_prescale+0x42>
    201e:	8d 5f       	subi	r24, 0xFD	; 253
    2020:	83 70       	andi	r24, 0x03	; 3
    2022:	e4 e9       	ldi	r30, 0x94	; 148
    2024:	f5 e0       	ldi	r31, 0x05	; 5
    2026:	98 2f       	mov	r25, r24
    2028:	99 0f       	add	r25, r25
    202a:	99 0f       	add	r25, r25
    202c:	99 0f       	add	r25, r25
    202e:	81 81       	ldd	r24, Z+1	; 0x01
    2030:	87 7e       	andi	r24, 0xE7	; 231
    2032:	89 2b       	or	r24, r25
    2034:	81 83       	std	Z+1, r24	; 0x01
    2036:	05 c0       	rjmp	.+10     	; 0x2042 <update_prescale+0x4c>
    2038:	e4 e9       	ldi	r30, 0x94	; 148
    203a:	f5 e0       	ldi	r31, 0x05	; 5
    203c:	81 81       	ldd	r24, Z+1	; 0x01
    203e:	88 61       	ori	r24, 0x18	; 24
    2040:	81 83       	std	Z+1, r24	; 0x01
    2042:	e5 ee       	ldi	r30, 0xE5	; 229
    2044:	f2 e0       	ldi	r31, 0x02	; 2
    2046:	80 81       	ld	r24, Z
    2048:	80 61       	ori	r24, 0x10	; 16
    204a:	80 83       	st	Z, r24
    204c:	e6 ee       	ldi	r30, 0xE6	; 230
    204e:	f2 e0       	ldi	r31, 0x02	; 2
    2050:	80 81       	ld	r24, Z
    2052:	82 60       	ori	r24, 0x02	; 2
    2054:	80 83       	st	Z, r24
    2056:	0e 94 cc 09 	call	0x1398	; 0x1398 <update_prescale_leds>
    205a:	08 95       	ret

0000205c <toggle_variation>:
    205c:	80 91 e5 02 	lds	r24, 0x02E5
    2060:	82 ff       	sbrs	r24, 2
    2062:	18 c0       	rjmp	.+48     	; 0x2094 <toggle_variation+0x38>
    2064:	e5 ee       	ldi	r30, 0xE5	; 229
    2066:	f2 e0       	ldi	r31, 0x02	; 2
    2068:	80 81       	ld	r24, Z
    206a:	8b 7f       	andi	r24, 0xFB	; 251
    206c:	80 83       	st	Z, r24
    206e:	80 91 91 05 	lds	r24, 0x0591
    2072:	81 30       	cpi	r24, 0x01	; 1
    2074:	49 f0       	breq	.+18     	; 0x2088 <toggle_variation+0x2c>
    2076:	10 f0       	brcs	.+4      	; 0x207c <toggle_variation+0x20>
    2078:	82 30       	cpi	r24, 0x02	; 2
    207a:	d9 f4       	brne	.+54     	; 0x20b2 <toggle_variation+0x56>
    207c:	e0 e9       	ldi	r30, 0x90	; 144
    207e:	f5 e0       	ldi	r31, 0x05	; 5
    2080:	80 81       	ld	r24, Z
    2082:	8d 7f       	andi	r24, 0xFD	; 253
    2084:	80 83       	st	Z, r24
    2086:	08 95       	ret
    2088:	e0 e9       	ldi	r30, 0x90	; 144
    208a:	f5 e0       	ldi	r31, 0x05	; 5
    208c:	80 81       	ld	r24, Z
    208e:	82 60       	ori	r24, 0x02	; 2
    2090:	80 83       	st	Z, r24
    2092:	08 95       	ret
    2094:	80 91 91 05 	lds	r24, 0x0591
    2098:	82 30       	cpi	r24, 0x02	; 2
    209a:	59 f4       	brne	.+22     	; 0x20b2 <toggle_variation+0x56>
    209c:	e0 e9       	ldi	r30, 0x90	; 144
    209e:	f5 e0       	ldi	r31, 0x05	; 5
    20a0:	80 81       	ld	r24, Z
    20a2:	81 fb       	bst	r24, 1
    20a4:	22 27       	eor	r18, r18
    20a6:	20 f9       	bld	r18, 0
    20a8:	91 e0       	ldi	r25, 0x01	; 1
    20aa:	92 27       	eor	r25, r18
    20ac:	90 fb       	bst	r25, 0
    20ae:	81 f9       	bld	r24, 1
    20b0:	80 83       	st	Z, r24
    20b2:	08 95       	ret

000020b4 <read_next_pattern>:
    20b4:	ef 92       	push	r14
    20b6:	ff 92       	push	r15
    20b8:	0f 93       	push	r16
    20ba:	1f 93       	push	r17
    20bc:	cf 93       	push	r28
    20be:	df 93       	push	r29
    20c0:	cd b7       	in	r28, 0x3d	; 61
    20c2:	de b7       	in	r29, 0x3e	; 62
    20c4:	cb 58       	subi	r28, 0x8B	; 139
    20c6:	d1 09       	sbc	r29, r1
    20c8:	0f b6       	in	r0, 0x3f	; 63
    20ca:	f8 94       	cli
    20cc:	de bf       	out	0x3e, r29	; 62
    20ce:	0f be       	out	0x3f, r0	; 63
    20d0:	cd bf       	out	0x3d, r28	; 61
    20d2:	46 2f       	mov	r20, r22
    20d4:	60 e0       	ldi	r22, 0x00	; 0
    20d6:	78 2f       	mov	r23, r24
    20d8:	ce 01       	movw	r24, r28
    20da:	01 96       	adiw	r24, 0x01	; 1
    20dc:	0e 94 82 01 	call	0x304	; 0x304 <read_pattern>
    20e0:	84 e4       	ldi	r24, 0x44	; 68
    20e2:	fe 01       	movw	r30, r28
    20e4:	31 96       	adiw	r30, 0x01	; 1
    20e6:	a5 e0       	ldi	r26, 0x05	; 5
    20e8:	b5 e0       	ldi	r27, 0x05	; 5
    20ea:	01 90       	ld	r0, Z+
    20ec:	0d 92       	st	X+, r0
    20ee:	8a 95       	dec	r24
    20f0:	e1 f7       	brne	.-8      	; 0x20ea <read_next_pattern+0x36>
    20f2:	84 e4       	ldi	r24, 0x44	; 68
    20f4:	fe 01       	movw	r30, r28
    20f6:	eb 5b       	subi	r30, 0xBB	; 187
    20f8:	ff 4f       	sbci	r31, 0xFF	; 255
    20fa:	a9 e4       	ldi	r26, 0x49	; 73
    20fc:	b5 e0       	ldi	r27, 0x05	; 5
    20fe:	01 90       	ld	r0, Z+
    2100:	0d 92       	st	X+, r0
    2102:	8a 95       	dec	r24
    2104:	e1 f7       	brne	.-8      	; 0x20fe <read_next_pattern+0x4a>
    2106:	c6 57       	subi	r28, 0x76	; 118
    2108:	df 4f       	sbci	r29, 0xFF	; 255
    210a:	88 81       	ld	r24, Y
    210c:	ca 58       	subi	r28, 0x8A	; 138
    210e:	d0 40       	sbci	r29, 0x00	; 0
    2110:	80 93 92 05 	sts	0x0592, r24
    2114:	c5 57       	subi	r28, 0x75	; 117
    2116:	df 4f       	sbci	r29, 0xFF	; 255
    2118:	88 81       	ld	r24, Y
    211a:	cb 58       	subi	r28, 0x8B	; 139
    211c:	d0 40       	sbci	r29, 0x00	; 0
    211e:	80 93 93 05 	sts	0x0593, r24
    2122:	c7 57       	subi	r28, 0x77	; 119
    2124:	df 4f       	sbci	r29, 0xFF	; 255
    2126:	e8 81       	ld	r30, Y
    2128:	c9 58       	subi	r28, 0x89	; 137
    212a:	d0 40       	sbci	r29, 0x00	; 0
    212c:	e3 70       	andi	r30, 0x03	; 3
    212e:	0f 2e       	mov	r0, r31
    2130:	f4 e9       	ldi	r31, 0x94	; 148
    2132:	ef 2e       	mov	r14, r31
    2134:	f5 e0       	ldi	r31, 0x05	; 5
    2136:	ff 2e       	mov	r15, r31
    2138:	f0 2d       	mov	r31, r0
    213a:	9e 2f       	mov	r25, r30
    213c:	99 0f       	add	r25, r25
    213e:	99 0f       	add	r25, r25
    2140:	99 0f       	add	r25, r25
    2142:	d7 01       	movw	r26, r14
    2144:	11 96       	adiw	r26, 0x01	; 1
    2146:	8c 91       	ld	r24, X
    2148:	11 97       	sbiw	r26, 0x01	; 1
    214a:	87 7e       	andi	r24, 0xE7	; 231
    214c:	89 2b       	or	r24, r25
    214e:	11 96       	adiw	r26, 0x01	; 1
    2150:	8c 93       	st	X, r24
    2152:	f0 e0       	ldi	r31, 0x00	; 0
    2154:	ee 50       	subi	r30, 0x0E	; 14
    2156:	fe 4f       	sbci	r31, 0xFE	; 254
    2158:	80 81       	ld	r24, Z
    215a:	80 93 ff 02 	sts	0x02FF, r24
    215e:	0e 94 37 09 	call	0x126e	; 0x126e <update_inst_led_mask>
    2162:	0e 94 cc 09 	call	0x1398	; 0x1398 <update_prescale_leds>
    2166:	80 91 95 05 	lds	r24, 0x0595
    216a:	82 fb       	bst	r24, 2
    216c:	00 27       	eor	r16, r16
    216e:	00 f9       	bld	r16, 0
    2170:	10 e0       	ldi	r17, 0x00	; 0
    2172:	01 50       	subi	r16, 0x01	; 1
    2174:	1b 4f       	sbci	r17, 0xFB	; 251
    2176:	f8 01       	movw	r30, r16
    2178:	ed 56       	subi	r30, 0x6D	; 109
    217a:	ff 4f       	sbci	r31, 0xFF	; 255
    217c:	80 81       	ld	r24, Z
    217e:	98 2f       	mov	r25, r24
    2180:	9f 71       	andi	r25, 0x1F	; 31
    2182:	f7 01       	movw	r30, r14
    2184:	80 81       	ld	r24, Z
    2186:	80 7e       	andi	r24, 0xE0	; 224
    2188:	89 2b       	or	r24, r25
    218a:	80 83       	st	Z, r24
    218c:	c5 57       	subi	r28, 0x75	; 117
    218e:	df 4f       	sbci	r29, 0xFF	; 255
    2190:	0f b6       	in	r0, 0x3f	; 63
    2192:	f8 94       	cli
    2194:	de bf       	out	0x3e, r29	; 62
    2196:	0f be       	out	0x3f, r0	; 63
    2198:	cd bf       	out	0x3d, r28	; 61
    219a:	df 91       	pop	r29
    219c:	cf 91       	pop	r28
    219e:	1f 91       	pop	r17
    21a0:	0f 91       	pop	r16
    21a2:	ff 90       	pop	r15
    21a4:	ef 90       	pop	r14
    21a6:	08 95       	ret

000021a8 <process_stop>:
    21a8:	e4 e9       	ldi	r30, 0x94	; 148
    21aa:	f5 e0       	ldi	r31, 0x05	; 5
    21ac:	84 81       	ldd	r24, Z+4	; 0x04
    21ae:	87 70       	andi	r24, 0x07	; 7
    21b0:	84 83       	std	Z+4, r24	; 0x04
    21b2:	85 81       	ldd	r24, Z+5	; 0x05
    21b4:	8c 7f       	andi	r24, 0xFC	; 252
    21b6:	85 83       	std	Z+5, r24	; 0x05
    21b8:	80 91 95 05 	lds	r24, 0x0595
    21bc:	81 ff       	sbrs	r24, 1
    21be:	09 c0       	rjmp	.+18     	; 0x21d2 <process_stop+0x2a>
    21c0:	81 81       	ldd	r24, Z+1	; 0x01
    21c2:	8d 7f       	andi	r24, 0xFD	; 253
    21c4:	81 83       	std	Z+1, r24	; 0x01
    21c6:	8b e2       	ldi	r24, 0x2B	; 43
    21c8:	0e 94 4a 08 	call	0x1094	; 0x1094 <turn_off>
    21cc:	8a e2       	ldi	r24, 0x2A	; 42
    21ce:	0e 94 2f 08 	call	0x105e	; 0x105e <turn_on>
    21d2:	0e 94 75 08 	call	0x10ea	; 0x10ea <turn_off_all_inst_leds>
    21d6:	e0 91 9a 05 	lds	r30, 0x059A
    21da:	87 e0       	ldi	r24, 0x07	; 7
    21dc:	e8 9f       	mul	r30, r24
    21de:	f0 01       	movw	r30, r0
    21e0:	11 24       	eor	r1, r1
    21e2:	e0 50       	subi	r30, 0x00	; 0
    21e4:	ff 4f       	sbci	r31, 0xFF	; 255
    21e6:	85 81       	ldd	r24, Z+5	; 0x05
    21e8:	0e 94 2f 08 	call	0x105e	; 0x105e <turn_on>
    21ec:	80 91 96 05 	lds	r24, 0x0596
    21f0:	98 2f       	mov	r25, r24
    21f2:	92 95       	swap	r25
    21f4:	96 95       	lsr	r25
    21f6:	97 70       	andi	r25, 0x07	; 7
    21f8:	80 91 97 05 	lds	r24, 0x0597
    21fc:	81 70       	andi	r24, 0x01	; 1
    21fe:	88 0f       	add	r24, r24
    2200:	88 0f       	add	r24, r24
    2202:	88 0f       	add	r24, r24
    2204:	89 2b       	or	r24, r25
    2206:	e4 e9       	ldi	r30, 0x94	; 148
    2208:	f5 e0       	ldi	r31, 0x05	; 5
    220a:	28 2f       	mov	r18, r24
    220c:	22 95       	swap	r18
    220e:	22 0f       	add	r18, r18
    2210:	20 7e       	andi	r18, 0xE0	; 224
    2212:	91 81       	ldd	r25, Z+1	; 0x01
    2214:	9f 71       	andi	r25, 0x1F	; 31
    2216:	92 2b       	or	r25, r18
    2218:	91 83       	std	Z+1, r25	; 0x01
    221a:	28 2f       	mov	r18, r24
    221c:	26 95       	lsr	r18
    221e:	26 95       	lsr	r18
    2220:	26 95       	lsr	r18
    2222:	92 81       	ldd	r25, Z+2	; 0x02
    2224:	9e 7f       	andi	r25, 0xFE	; 254
    2226:	92 2b       	or	r25, r18
    2228:	92 83       	std	Z+2, r25	; 0x02
    222a:	93 81       	ldd	r25, Z+3	; 0x03
    222c:	9f 71       	andi	r25, 0x1F	; 31
    222e:	93 83       	std	Z+3, r25	; 0x03
    2230:	94 81       	ldd	r25, Z+4	; 0x04
    2232:	98 7f       	andi	r25, 0xF8	; 248
    2234:	94 83       	std	Z+4, r25	; 0x04
    2236:	e5 ee       	ldi	r30, 0xE5	; 229
    2238:	f2 e0       	ldi	r31, 0x02	; 2
    223a:	90 81       	ld	r25, Z
    223c:	9f 7d       	andi	r25, 0xDF	; 223
    223e:	90 83       	st	Z, r25
    2240:	e6 ee       	ldi	r30, 0xE6	; 230
    2242:	f2 e0       	ldi	r31, 0x02	; 2
    2244:	90 81       	ld	r25, Z
    2246:	9f 7e       	andi	r25, 0xEF	; 239
    2248:	90 83       	st	Z, r25
    224a:	e5 e4       	ldi	r30, 0x45	; 69
    224c:	f2 e0       	ldi	r31, 0x02	; 2
    224e:	11 82       	std	Z+1, r1	; 0x01
    2250:	10 82       	st	Z, r1
    2252:	0e 94 2f 08 	call	0x105e	; 0x105e <turn_on>
    2256:	80 91 ff 04 	lds	r24, 0x04FF
    225a:	83 30       	cpi	r24, 0x03	; 3
    225c:	31 f4       	brne	.+12     	; 0x226a <process_stop+0xc2>
    225e:	80 91 97 05 	lds	r24, 0x0597
    2262:	86 95       	lsr	r24
    2264:	8f 70       	andi	r24, 0x0F	; 15
    2266:	0e 94 2f 08 	call	0x105e	; 0x105e <turn_on>
    226a:	80 91 ff 04 	lds	r24, 0x04FF
    226e:	85 30       	cpi	r24, 0x05	; 5
    2270:	99 f5       	brne	.+102    	; 0x22d8 <process_stop+0x130>
    2272:	80 91 fe 04 	lds	r24, 0x04FE
    2276:	88 23       	and	r24, r24
    2278:	29 f0       	breq	.+10     	; 0x2284 <process_stop+0xdc>
    227a:	e4 e9       	ldi	r30, 0x94	; 148
    227c:	f5 e0       	ldi	r31, 0x05	; 5
    227e:	85 81       	ldd	r24, Z+5	; 0x05
    2280:	84 60       	ori	r24, 0x04	; 4
    2282:	85 83       	std	Z+5, r24	; 0x05
    2284:	60 91 be 04 	lds	r22, 0x04BE
    2288:	86 2f       	mov	r24, r22
    228a:	8f 70       	andi	r24, 0x0F	; 15
    228c:	e4 e9       	ldi	r30, 0x94	; 148
    228e:	f5 e0       	ldi	r31, 0x05	; 5
    2290:	36 2f       	mov	r19, r22
    2292:	32 95       	swap	r19
    2294:	33 0f       	add	r19, r19
    2296:	30 7e       	andi	r19, 0xE0	; 224
    2298:	42 81       	ldd	r20, Z+2	; 0x02
    229a:	4e 71       	andi	r20, 0x1E	; 30
    229c:	28 2f       	mov	r18, r24
    229e:	26 95       	lsr	r18
    22a0:	26 95       	lsr	r18
    22a2:	26 95       	lsr	r18
    22a4:	93 81       	ldd	r25, Z+3	; 0x03
    22a6:	9e 7f       	andi	r25, 0xFE	; 254
    22a8:	92 2b       	or	r25, r18
    22aa:	93 83       	std	Z+3, r25	; 0x03
    22ac:	91 81       	ldd	r25, Z+1	; 0x01
    22ae:	9f 71       	andi	r25, 0x1F	; 31
    22b0:	93 2b       	or	r25, r19
    22b2:	91 83       	std	Z+1, r25	; 0x01
    22b4:	34 2b       	or	r19, r20
    22b6:	23 2b       	or	r18, r19
    22b8:	22 83       	std	Z+2, r18	; 0x02
    22ba:	62 95       	swap	r22
    22bc:	6f 70       	andi	r22, 0x0F	; 15
    22be:	ed e8       	ldi	r30, 0x8D	; 141
    22c0:	f5 e0       	ldi	r31, 0x05	; 5
    22c2:	90 81       	ld	r25, Z
    22c4:	90 7f       	andi	r25, 0xF0	; 240
    22c6:	96 2b       	or	r25, r22
    22c8:	90 83       	st	Z, r25
    22ca:	0e 94 5a 10 	call	0x20b4	; 0x20b4 <read_next_pattern>
    22ce:	e5 ee       	ldi	r30, 0xE5	; 229
    22d0:	f2 e0       	ldi	r31, 0x02	; 2
    22d2:	80 81       	ld	r24, Z
    22d4:	80 62       	ori	r24, 0x20	; 32
    22d6:	80 83       	st	Z, r24
    22d8:	80 91 0b 03 	lds	r24, 0x030B
    22dc:	81 11       	cpse	r24, r1
    22de:	0c c0       	rjmp	.+24     	; 0x22f8 <process_stop+0x150>
    22e0:	80 91 00 05 	lds	r24, 0x0500
    22e4:	81 30       	cpi	r24, 0x01	; 1
    22e6:	39 f4       	brne	.+14     	; 0x22f6 <process_stop+0x14e>
    22e8:	42 98       	cbi	0x08, 2	; 8
    22ea:	72 98       	cbi	0x0e, 2	; 14
    22ec:	8c e0       	ldi	r24, 0x0C	; 12
    22ee:	93 e0       	ldi	r25, 0x03	; 3
    22f0:	0e 94 ff 26 	call	0x4dfe	; 0x4dfe <midi_send_stop>
    22f4:	01 c0       	rjmp	.+2      	; 0x22f8 <process_stop+0x150>
    22f6:	5c 98       	cbi	0x0b, 4	; 11
    22f8:	80 e1       	ldi	r24, 0x10	; 16
    22fa:	87 bd       	out	0x27, r24	; 39
    22fc:	08 95       	ret

000022fe <update_fill>:
    22fe:	cf 93       	push	r28
    2300:	df 93       	push	r29
    2302:	80 91 01 05 	lds	r24, 0x0501
    2306:	8f 70       	andi	r24, 0x0F	; 15
    2308:	59 f1       	breq	.+86     	; 0x2360 <update_fill+0x62>
    230a:	80 91 97 05 	lds	r24, 0x0597
    230e:	98 2f       	mov	r25, r24
    2310:	92 95       	swap	r25
    2312:	96 95       	lsr	r25
    2314:	97 70       	andi	r25, 0x07	; 7
    2316:	80 91 98 05 	lds	r24, 0x0598
    231a:	87 70       	andi	r24, 0x07	; 7
    231c:	88 0f       	add	r24, r24
    231e:	88 0f       	add	r24, r24
    2320:	88 0f       	add	r24, r24
    2322:	89 2b       	or	r24, r25
    2324:	8f 5f       	subi	r24, 0xFF	; 255
    2326:	8f 73       	andi	r24, 0x3F	; 63
    2328:	e4 e9       	ldi	r30, 0x94	; 148
    232a:	f5 e0       	ldi	r31, 0x05	; 5
    232c:	28 2f       	mov	r18, r24
    232e:	22 95       	swap	r18
    2330:	22 0f       	add	r18, r18
    2332:	20 7e       	andi	r18, 0xE0	; 224
    2334:	93 81       	ldd	r25, Z+3	; 0x03
    2336:	9f 71       	andi	r25, 0x1F	; 31
    2338:	92 2b       	or	r25, r18
    233a:	93 83       	std	Z+3, r25	; 0x03
    233c:	28 2f       	mov	r18, r24
    233e:	26 95       	lsr	r18
    2340:	26 95       	lsr	r18
    2342:	26 95       	lsr	r18
    2344:	94 81       	ldd	r25, Z+4	; 0x04
    2346:	98 7f       	andi	r25, 0xF8	; 248
    2348:	92 2b       	or	r25, r18
    234a:	94 83       	std	Z+4, r25	; 0x04
    234c:	90 91 01 05 	lds	r25, 0x0501
    2350:	9f 70       	andi	r25, 0x0F	; 15
    2352:	89 13       	cpse	r24, r25
    2354:	05 c0       	rjmp	.+10     	; 0x2360 <update_fill+0x62>
    2356:	e6 ee       	ldi	r30, 0xE6	; 230
    2358:	f2 e0       	ldi	r31, 0x02	; 2
    235a:	80 81       	ld	r24, Z
    235c:	80 61       	ori	r24, 0x10	; 16
    235e:	80 83       	st	Z, r24
    2360:	80 91 e6 02 	lds	r24, 0x02E6
    2364:	84 ff       	sbrs	r24, 4
    2366:	5b c0       	rjmp	.+182    	; 0x241e <update_fill+0x120>
    2368:	c4 e9       	ldi	r28, 0x94	; 148
    236a:	d5 e0       	ldi	r29, 0x05	; 5
    236c:	8b 81       	ldd	r24, Y+3	; 0x03
    236e:	8f 71       	andi	r24, 0x1F	; 31
    2370:	8b 83       	std	Y+3, r24	; 0x03
    2372:	8c 81       	ldd	r24, Y+4	; 0x04
    2374:	88 7f       	andi	r24, 0xF8	; 248
    2376:	8c 83       	std	Y+4, r24	; 0x04
    2378:	e6 ee       	ldi	r30, 0xE6	; 230
    237a:	f2 e0       	ldi	r31, 0x02	; 2
    237c:	80 81       	ld	r24, Z
    237e:	8f 7e       	andi	r24, 0xEF	; 239
    2380:	80 83       	st	Z, r24
    2382:	80 81       	ld	r24, Z
    2384:	82 60       	ori	r24, 0x02	; 2
    2386:	80 83       	st	Z, r24
    2388:	60 91 8d 05 	lds	r22, 0x058D
    238c:	6f 70       	andi	r22, 0x0F	; 15
    238e:	80 91 97 05 	lds	r24, 0x0597
    2392:	86 95       	lsr	r24
    2394:	8f 70       	andi	r24, 0x0F	; 15
    2396:	0e 94 5a 10 	call	0x20b4	; 0x20b4 <read_next_pattern>
    239a:	89 81       	ldd	r24, Y+1	; 0x01
    239c:	8d 7f       	andi	r24, 0xFD	; 253
    239e:	89 83       	std	Y+1, r24	; 0x01
    23a0:	8b e2       	ldi	r24, 0x2B	; 43
    23a2:	0e 94 4a 08 	call	0x1094	; 0x1094 <turn_off>
    23a6:	8a e2       	ldi	r24, 0x2A	; 42
    23a8:	0e 94 2f 08 	call	0x105e	; 0x105e <turn_on>
    23ac:	80 91 95 05 	lds	r24, 0x0595
    23b0:	98 2f       	mov	r25, r24
    23b2:	92 95       	swap	r25
    23b4:	96 95       	lsr	r25
    23b6:	97 70       	andi	r25, 0x07	; 7
    23b8:	80 91 96 05 	lds	r24, 0x0596
    23bc:	81 70       	andi	r24, 0x01	; 1
    23be:	88 0f       	add	r24, r24
    23c0:	88 0f       	add	r24, r24
    23c2:	88 0f       	add	r24, r24
    23c4:	89 2b       	or	r24, r25
    23c6:	28 2f       	mov	r18, r24
    23c8:	22 95       	swap	r18
    23ca:	22 0f       	add	r18, r18
    23cc:	20 7e       	andi	r18, 0xE0	; 224
    23ce:	3a 81       	ldd	r19, Y+2	; 0x02
    23d0:	3e 71       	andi	r19, 0x1E	; 30
    23d2:	98 2f       	mov	r25, r24
    23d4:	96 95       	lsr	r25
    23d6:	96 95       	lsr	r25
    23d8:	96 95       	lsr	r25
    23da:	8b 81       	ldd	r24, Y+3	; 0x03
    23dc:	8e 7f       	andi	r24, 0xFE	; 254
    23de:	89 2b       	or	r24, r25
    23e0:	8b 83       	std	Y+3, r24	; 0x03
    23e2:	86 95       	lsr	r24
    23e4:	48 2f       	mov	r20, r24
    23e6:	42 95       	swap	r20
    23e8:	44 0f       	add	r20, r20
    23ea:	40 7e       	andi	r20, 0xE0	; 224
    23ec:	99 81       	ldd	r25, Y+1	; 0x01
    23ee:	9f 71       	andi	r25, 0x1F	; 31
    23f0:	94 2b       	or	r25, r20
    23f2:	99 83       	std	Y+1, r25	; 0x01
    23f4:	83 fb       	bst	r24, 3
    23f6:	99 27       	eor	r25, r25
    23f8:	90 f9       	bld	r25, 0
    23fa:	83 2f       	mov	r24, r19
    23fc:	82 2b       	or	r24, r18
    23fe:	89 2b       	or	r24, r25
    2400:	8a 83       	std	Y+2, r24	; 0x02
    2402:	e0 e9       	ldi	r30, 0x90	; 144
    2404:	f5 e0       	ldi	r31, 0x05	; 5
    2406:	80 81       	ld	r24, Z
    2408:	82 fb       	bst	r24, 2
    240a:	99 27       	eor	r25, r25
    240c:	90 f9       	bld	r25, 0
    240e:	90 fb       	bst	r25, 0
    2410:	81 f9       	bld	r24, 1
    2412:	80 83       	st	Z, r24
    2414:	e5 ee       	ldi	r30, 0xE5	; 229
    2416:	f2 e0       	ldi	r31, 0x02	; 2
    2418:	80 81       	ld	r24, Z
    241a:	80 62       	ori	r24, 0x20	; 32
    241c:	80 83       	st	Z, r24
    241e:	df 91       	pop	r29
    2420:	cf 91       	pop	r28
    2422:	08 95       	ret

00002424 <check_tap>:
    2424:	80 91 e6 02 	lds	r24, 0x02E6
    2428:	82 ff       	sbrs	r24, 2
    242a:	10 c1       	rjmp	.+544    	; 0x264c <check_tap+0x228>
    242c:	e6 ee       	ldi	r30, 0xE6	; 230
    242e:	f2 e0       	ldi	r31, 0x02	; 2
    2430:	80 81       	ld	r24, Z
    2432:	8b 7f       	andi	r24, 0xFB	; 251
    2434:	80 83       	st	Z, r24
    2436:	80 91 ff 04 	lds	r24, 0x04FF
    243a:	9f ef       	ldi	r25, 0xFF	; 255
    243c:	98 0f       	add	r25, r24
    243e:	92 30       	cpi	r25, 0x02	; 2
    2440:	08 f0       	brcs	.+2      	; 0x2444 <check_tap+0x20>
    2442:	8a c0       	rjmp	.+276    	; 0x2558 <check_tap+0x134>
    2444:	60 91 9a 05 	lds	r22, 0x059A
    2448:	60 31       	cpi	r22, 0x10	; 16
    244a:	71 f5       	brne	.+92     	; 0x24a8 <check_tap+0x84>
    244c:	90 91 90 05 	lds	r25, 0x0590
    2450:	80 91 95 05 	lds	r24, 0x0595
    2454:	82 fb       	bst	r24, 2
    2456:	44 27       	eor	r20, r20
    2458:	40 f9       	bld	r20, 0
    245a:	50 e0       	ldi	r21, 0x00	; 0
    245c:	96 95       	lsr	r25
    245e:	91 70       	andi	r25, 0x01	; 1
    2460:	fa 01       	movw	r30, r20
    2462:	22 e2       	ldi	r18, 0x22	; 34
    2464:	92 9f       	mul	r25, r18
    2466:	e0 0d       	add	r30, r0
    2468:	f1 1d       	adc	r31, r1
    246a:	11 24       	eor	r1, r1
    246c:	ee 0f       	add	r30, r30
    246e:	ff 1f       	adc	r31, r31
    2470:	eb 5f       	subi	r30, 0xFB	; 251
    2472:	fa 4f       	sbci	r31, 0xFA	; 250
    2474:	90 91 94 05 	lds	r25, 0x0594
    2478:	92 95       	swap	r25
    247a:	96 95       	lsr	r25
    247c:	97 70       	andi	r25, 0x07	; 7
    247e:	81 70       	andi	r24, 0x01	; 1
    2480:	88 0f       	add	r24, r24
    2482:	88 0f       	add	r24, r24
    2484:	88 0f       	add	r24, r24
    2486:	89 2b       	or	r24, r25
    2488:	21 e0       	ldi	r18, 0x01	; 1
    248a:	30 e0       	ldi	r19, 0x00	; 0
    248c:	a9 01       	movw	r20, r18
    248e:	02 c0       	rjmp	.+4      	; 0x2494 <check_tap+0x70>
    2490:	44 0f       	add	r20, r20
    2492:	55 1f       	adc	r21, r21
    2494:	8a 95       	dec	r24
    2496:	e2 f7       	brpl	.-8      	; 0x2490 <check_tap+0x6c>
    2498:	ca 01       	movw	r24, r20
    249a:	20 81       	ld	r18, Z
    249c:	31 81       	ldd	r19, Z+1	; 0x01
    249e:	82 2b       	or	r24, r18
    24a0:	93 2b       	or	r25, r19
    24a2:	91 83       	std	Z+1, r25	; 0x01
    24a4:	80 83       	st	Z, r24
    24a6:	34 c0       	rjmp	.+104    	; 0x2510 <check_tap+0xec>
    24a8:	40 91 90 05 	lds	r20, 0x0590
    24ac:	80 91 95 05 	lds	r24, 0x0595
    24b0:	82 fb       	bst	r24, 2
    24b2:	22 27       	eor	r18, r18
    24b4:	20 f9       	bld	r18, 0
    24b6:	30 e0       	ldi	r19, 0x00	; 0
    24b8:	90 91 94 05 	lds	r25, 0x0594
    24bc:	92 95       	swap	r25
    24be:	96 95       	lsr	r25
    24c0:	97 70       	andi	r25, 0x07	; 7
    24c2:	81 70       	andi	r24, 0x01	; 1
    24c4:	88 0f       	add	r24, r24
    24c6:	88 0f       	add	r24, r24
    24c8:	88 0f       	add	r24, r24
    24ca:	89 2b       	or	r24, r25
    24cc:	f9 01       	movw	r30, r18
    24ce:	e2 95       	swap	r30
    24d0:	f2 95       	swap	r31
    24d2:	f0 7f       	andi	r31, 0xF0	; 240
    24d4:	fe 27       	eor	r31, r30
    24d6:	e0 7f       	andi	r30, 0xF0	; 240
    24d8:	fe 27       	eor	r31, r30
    24da:	41 fb       	bst	r20, 1
    24dc:	99 27       	eor	r25, r25
    24de:	90 f9       	bld	r25, 0
    24e0:	52 e2       	ldi	r21, 0x22	; 34
    24e2:	95 9f       	mul	r25, r21
    24e4:	e0 0d       	add	r30, r0
    24e6:	f1 1d       	adc	r31, r1
    24e8:	11 24       	eor	r1, r1
    24ea:	e8 0f       	add	r30, r24
    24ec:	f1 1d       	adc	r31, r1
    24ee:	ee 0f       	add	r30, r30
    24f0:	ff 1f       	adc	r31, r31
    24f2:	e7 5f       	subi	r30, 0xF7	; 247
    24f4:	fa 4f       	sbci	r31, 0xFA	; 250
    24f6:	81 e0       	ldi	r24, 0x01	; 1
    24f8:	90 e0       	ldi	r25, 0x00	; 0
    24fa:	02 c0       	rjmp	.+4      	; 0x2500 <check_tap+0xdc>
    24fc:	88 0f       	add	r24, r24
    24fe:	99 1f       	adc	r25, r25
    2500:	6a 95       	dec	r22
    2502:	e2 f7       	brpl	.-8      	; 0x24fc <check_tap+0xd8>
    2504:	20 81       	ld	r18, Z
    2506:	31 81       	ldd	r19, Z+1	; 0x01
    2508:	82 2b       	or	r24, r18
    250a:	93 2b       	or	r25, r19
    250c:	91 83       	std	Z+1, r25	; 0x01
    250e:	80 83       	st	Z, r24
    2510:	ee e8       	ldi	r30, 0x8E	; 142
    2512:	f5 e0       	ldi	r31, 0x05	; 5
    2514:	80 91 94 05 	lds	r24, 0x0594
    2518:	98 2f       	mov	r25, r24
    251a:	92 95       	swap	r25
    251c:	96 95       	lsr	r25
    251e:	97 70       	andi	r25, 0x07	; 7
    2520:	80 91 95 05 	lds	r24, 0x0595
    2524:	81 70       	andi	r24, 0x01	; 1
    2526:	88 0f       	add	r24, r24
    2528:	88 0f       	add	r24, r24
    252a:	88 0f       	add	r24, r24
    252c:	89 2b       	or	r24, r25
    252e:	21 e0       	ldi	r18, 0x01	; 1
    2530:	30 e0       	ldi	r19, 0x00	; 0
    2532:	a9 01       	movw	r20, r18
    2534:	02 c0       	rjmp	.+4      	; 0x253a <check_tap+0x116>
    2536:	44 0f       	add	r20, r20
    2538:	55 1f       	adc	r21, r21
    253a:	8a 95       	dec	r24
    253c:	e2 f7       	brpl	.-8      	; 0x2536 <check_tap+0x112>
    253e:	ca 01       	movw	r24, r20
    2540:	20 81       	ld	r18, Z
    2542:	31 81       	ldd	r19, Z+1	; 0x01
    2544:	82 2b       	or	r24, r18
    2546:	93 2b       	or	r25, r19
    2548:	91 83       	std	Z+1, r25	; 0x01
    254a:	80 83       	st	Z, r24
    254c:	e5 ee       	ldi	r30, 0xE5	; 229
    254e:	f2 e0       	ldi	r31, 0x02	; 2
    2550:	80 81       	ld	r24, Z
    2552:	80 61       	ori	r24, 0x10	; 16
    2554:	80 83       	st	Z, r24
    2556:	08 95       	ret
    2558:	83 30       	cpi	r24, 0x03	; 3
    255a:	09 f0       	breq	.+2      	; 0x255e <check_tap+0x13a>
    255c:	77 c0       	rjmp	.+238    	; 0x264c <check_tap+0x228>
    255e:	80 91 01 05 	lds	r24, 0x0501
    2562:	85 ff       	sbrs	r24, 5
    2564:	09 c0       	rjmp	.+18     	; 0x2578 <check_tap+0x154>
    2566:	8f 70       	andi	r24, 0x0F	; 15
    2568:	09 f0       	breq	.+2      	; 0x256c <check_tap+0x148>
    256a:	70 c0       	rjmp	.+224    	; 0x264c <check_tap+0x228>
    256c:	e6 ee       	ldi	r30, 0xE6	; 230
    256e:	f2 e0       	ldi	r31, 0x02	; 2
    2570:	80 81       	ld	r24, Z
    2572:	80 61       	ori	r24, 0x10	; 16
    2574:	80 83       	st	Z, r24
    2576:	08 95       	ret
    2578:	e6 ee       	ldi	r30, 0xE6	; 230
    257a:	f2 e0       	ldi	r31, 0x02	; 2
    257c:	80 81       	ld	r24, Z
    257e:	83 fb       	bst	r24, 3
    2580:	99 27       	eor	r25, r25
    2582:	90 f9       	bld	r25, 0
    2584:	81 e0       	ldi	r24, 0x01	; 1
    2586:	89 27       	eor	r24, r25
    2588:	90 81       	ld	r25, Z
    258a:	80 fb       	bst	r24, 0
    258c:	93 f9       	bld	r25, 3
    258e:	90 83       	st	Z, r25
    2590:	80 81       	ld	r24, Z
    2592:	83 ff       	sbrs	r24, 3
    2594:	37 c0       	rjmp	.+110    	; 0x2604 <check_tap+0x1e0>
    2596:	60 91 8d 05 	lds	r22, 0x058D
    259a:	6f 70       	andi	r22, 0x0F	; 15
    259c:	80 91 97 05 	lds	r24, 0x0597
    25a0:	86 95       	lsr	r24
    25a2:	8f 70       	andi	r24, 0x0F	; 15
    25a4:	0e 94 5a 10 	call	0x20b4	; 0x20b4 <read_next_pattern>
    25a8:	80 91 95 05 	lds	r24, 0x0595
    25ac:	98 2f       	mov	r25, r24
    25ae:	92 95       	swap	r25
    25b0:	96 95       	lsr	r25
    25b2:	97 70       	andi	r25, 0x07	; 7
    25b4:	80 91 96 05 	lds	r24, 0x0596
    25b8:	81 70       	andi	r24, 0x01	; 1
    25ba:	88 0f       	add	r24, r24
    25bc:	88 0f       	add	r24, r24
    25be:	88 0f       	add	r24, r24
    25c0:	89 2b       	or	r24, r25
    25c2:	e4 e9       	ldi	r30, 0x94	; 148
    25c4:	f5 e0       	ldi	r31, 0x05	; 5
    25c6:	28 2f       	mov	r18, r24
    25c8:	22 95       	swap	r18
    25ca:	22 0f       	add	r18, r18
    25cc:	20 7e       	andi	r18, 0xE0	; 224
    25ce:	32 81       	ldd	r19, Z+2	; 0x02
    25d0:	3e 71       	andi	r19, 0x1E	; 30
    25d2:	98 2f       	mov	r25, r24
    25d4:	96 95       	lsr	r25
    25d6:	96 95       	lsr	r25
    25d8:	96 95       	lsr	r25
    25da:	83 81       	ldd	r24, Z+3	; 0x03
    25dc:	8e 7f       	andi	r24, 0xFE	; 254
    25de:	89 2b       	or	r24, r25
    25e0:	83 83       	std	Z+3, r24	; 0x03
    25e2:	86 95       	lsr	r24
    25e4:	48 2f       	mov	r20, r24
    25e6:	42 95       	swap	r20
    25e8:	44 0f       	add	r20, r20
    25ea:	40 7e       	andi	r20, 0xE0	; 224
    25ec:	91 81       	ldd	r25, Z+1	; 0x01
    25ee:	9f 71       	andi	r25, 0x1F	; 31
    25f0:	94 2b       	or	r25, r20
    25f2:	91 83       	std	Z+1, r25	; 0x01
    25f4:	83 fb       	bst	r24, 3
    25f6:	99 27       	eor	r25, r25
    25f8:	90 f9       	bld	r25, 0
    25fa:	83 2f       	mov	r24, r19
    25fc:	82 2b       	or	r24, r18
    25fe:	89 2b       	or	r24, r25
    2600:	82 83       	std	Z+2, r24	; 0x02
    2602:	08 95       	ret
    2604:	80 91 96 05 	lds	r24, 0x0596
    2608:	98 2f       	mov	r25, r24
    260a:	92 95       	swap	r25
    260c:	96 95       	lsr	r25
    260e:	97 70       	andi	r25, 0x07	; 7
    2610:	80 91 97 05 	lds	r24, 0x0597
    2614:	81 70       	andi	r24, 0x01	; 1
    2616:	88 0f       	add	r24, r24
    2618:	88 0f       	add	r24, r24
    261a:	88 0f       	add	r24, r24
    261c:	89 2b       	or	r24, r25
    261e:	e4 e9       	ldi	r30, 0x94	; 148
    2620:	f5 e0       	ldi	r31, 0x05	; 5
    2622:	28 2f       	mov	r18, r24
    2624:	22 95       	swap	r18
    2626:	22 0f       	add	r18, r18
    2628:	20 7e       	andi	r18, 0xE0	; 224
    262a:	91 81       	ldd	r25, Z+1	; 0x01
    262c:	9f 71       	andi	r25, 0x1F	; 31
    262e:	92 2b       	or	r25, r18
    2630:	91 83       	std	Z+1, r25	; 0x01
    2632:	28 2f       	mov	r18, r24
    2634:	26 95       	lsr	r18
    2636:	26 95       	lsr	r18
    2638:	26 95       	lsr	r18
    263a:	92 81       	ldd	r25, Z+2	; 0x02
    263c:	9e 7f       	andi	r25, 0xFE	; 254
    263e:	92 2b       	or	r25, r18
    2640:	92 83       	std	Z+2, r25	; 0x02
    2642:	60 91 8d 05 	lds	r22, 0x058D
    2646:	6f 70       	andi	r22, 0x0F	; 15
    2648:	0e 94 5a 10 	call	0x20b4	; 0x20b4 <read_next_pattern>
    264c:	08 95       	ret

0000264e <write_current_pattern>:
    264e:	cf 93       	push	r28
    2650:	df 93       	push	r29
    2652:	cd b7       	in	r28, 0x3d	; 61
    2654:	de b7       	in	r29, 0x3e	; 62
    2656:	cb 58       	subi	r28, 0x8B	; 139
    2658:	d1 09       	sbc	r29, r1
    265a:	0f b6       	in	r0, 0x3f	; 63
    265c:	f8 94       	cli
    265e:	de bf       	out	0x3e, r29	; 62
    2660:	0f be       	out	0x3f, r0	; 63
    2662:	cd bf       	out	0x3d, r28	; 61
    2664:	98 2f       	mov	r25, r24
    2666:	24 e4       	ldi	r18, 0x44	; 68
    2668:	e5 e0       	ldi	r30, 0x05	; 5
    266a:	f5 e0       	ldi	r31, 0x05	; 5
    266c:	de 01       	movw	r26, r28
    266e:	11 96       	adiw	r26, 0x01	; 1
    2670:	01 90       	ld	r0, Z+
    2672:	0d 92       	st	X+, r0
    2674:	2a 95       	dec	r18
    2676:	e1 f7       	brne	.-8      	; 0x2670 <write_current_pattern+0x22>
    2678:	24 e4       	ldi	r18, 0x44	; 68
    267a:	e9 e4       	ldi	r30, 0x49	; 73
    267c:	f5 e0       	ldi	r31, 0x05	; 5
    267e:	de 01       	movw	r26, r28
    2680:	ab 5b       	subi	r26, 0xBB	; 187
    2682:	bf 4f       	sbci	r27, 0xFF	; 255
    2684:	01 90       	ld	r0, Z+
    2686:	0d 92       	st	X+, r0
    2688:	2a 95       	dec	r18
    268a:	e1 f7       	brne	.-8      	; 0x2684 <write_current_pattern+0x36>
    268c:	80 91 92 05 	lds	r24, 0x0592
    2690:	c6 57       	subi	r28, 0x76	; 118
    2692:	df 4f       	sbci	r29, 0xFF	; 255
    2694:	88 83       	st	Y, r24
    2696:	ca 58       	subi	r28, 0x8A	; 138
    2698:	d0 40       	sbci	r29, 0x00	; 0
    269a:	80 91 93 05 	lds	r24, 0x0593
    269e:	c5 57       	subi	r28, 0x75	; 117
    26a0:	df 4f       	sbci	r29, 0xFF	; 255
    26a2:	88 83       	st	Y, r24
    26a4:	cb 58       	subi	r28, 0x8B	; 139
    26a6:	d0 40       	sbci	r29, 0x00	; 0
    26a8:	20 91 95 05 	lds	r18, 0x0595
    26ac:	26 95       	lsr	r18
    26ae:	26 95       	lsr	r18
    26b0:	26 95       	lsr	r18
    26b2:	23 70       	andi	r18, 0x03	; 3
    26b4:	c7 57       	subi	r28, 0x77	; 119
    26b6:	df 4f       	sbci	r29, 0xFF	; 255
    26b8:	28 83       	st	Y, r18
    26ba:	c9 58       	subi	r28, 0x89	; 137
    26bc:	d0 40       	sbci	r29, 0x00	; 0
    26be:	ae 01       	movw	r20, r28
    26c0:	4f 5f       	subi	r20, 0xFF	; 255
    26c2:	5f 4f       	sbci	r21, 0xFF	; 255
    26c4:	80 e0       	ldi	r24, 0x00	; 0
    26c6:	0e 94 b3 01 	call	0x366	; 0x366 <write_pattern>
    26ca:	c5 57       	subi	r28, 0x75	; 117
    26cc:	df 4f       	sbci	r29, 0xFF	; 255
    26ce:	0f b6       	in	r0, 0x3f	; 63
    26d0:	f8 94       	cli
    26d2:	de bf       	out	0x3e, r29	; 62
    26d4:	0f be       	out	0x3f, r0	; 63
    26d6:	cd bf       	out	0x3d, r28	; 61
    26d8:	df 91       	pop	r29
    26da:	cf 91       	pop	r28
    26dc:	08 95       	ret

000026de <process_new_measure>:
    26de:	20 91 95 05 	lds	r18, 0x0595
    26e2:	22 fb       	bst	r18, 2
    26e4:	88 27       	eor	r24, r24
    26e6:	80 f9       	bld	r24, 0
    26e8:	90 e0       	ldi	r25, 0x00	; 0
    26ea:	81 50       	subi	r24, 0x01	; 1
    26ec:	9b 4f       	sbci	r25, 0xFB	; 251
    26ee:	fc 01       	movw	r30, r24
    26f0:	ed 56       	subi	r30, 0x6D	; 109
    26f2:	ff 4f       	sbci	r31, 0xFF	; 255
    26f4:	a4 e9       	ldi	r26, 0x94	; 148
    26f6:	b5 e0       	ldi	r27, 0x05	; 5
    26f8:	8c 91       	ld	r24, X
    26fa:	8f 71       	andi	r24, 0x1F	; 31
    26fc:	80 83       	st	Z, r24
    26fe:	8c 93       	st	X, r24
    2700:	11 96       	adiw	r26, 0x01	; 1
    2702:	8c 91       	ld	r24, X
    2704:	11 97       	sbiw	r26, 0x01	; 1
    2706:	8e 7f       	andi	r24, 0xFE	; 254
    2708:	11 96       	adiw	r26, 0x01	; 1
    270a:	8c 93       	st	X, r24
    270c:	80 91 e5 02 	lds	r24, 0x02E5
    2710:	84 ff       	sbrs	r24, 4
    2712:	16 c0       	rjmp	.+44     	; 0x2740 <process_new_measure+0x62>
    2714:	e5 ee       	ldi	r30, 0xE5	; 229
    2716:	f2 e0       	ldi	r31, 0x02	; 2
    2718:	80 81       	ld	r24, Z
    271a:	8f 7e       	andi	r24, 0xEF	; 239
    271c:	80 83       	st	Z, r24
    271e:	60 91 8d 05 	lds	r22, 0x058D
    2722:	6f 70       	andi	r22, 0x0F	; 15
    2724:	90 91 95 05 	lds	r25, 0x0595
    2728:	92 95       	swap	r25
    272a:	96 95       	lsr	r25
    272c:	97 70       	andi	r25, 0x07	; 7
    272e:	80 91 96 05 	lds	r24, 0x0596
    2732:	81 70       	andi	r24, 0x01	; 1
    2734:	88 0f       	add	r24, r24
    2736:	88 0f       	add	r24, r24
    2738:	88 0f       	add	r24, r24
    273a:	89 2b       	or	r24, r25
    273c:	0e 94 27 13 	call	0x264e	; 0x264e <write_current_pattern>
    2740:	80 91 ff 04 	lds	r24, 0x04FF
    2744:	84 30       	cpi	r24, 0x04	; 4
    2746:	09 f0       	breq	.+2      	; 0x274a <process_new_measure+0x6c>
    2748:	80 c0       	rjmp	.+256    	; 0x284a <process_new_measure+0x16c>
    274a:	80 91 98 05 	lds	r24, 0x0598
    274e:	98 2f       	mov	r25, r24
    2750:	96 95       	lsr	r25
    2752:	96 95       	lsr	r25
    2754:	96 95       	lsr	r25
    2756:	80 91 99 05 	lds	r24, 0x0599
    275a:	83 70       	andi	r24, 0x03	; 3
    275c:	82 95       	swap	r24
    275e:	88 0f       	add	r24, r24
    2760:	80 7e       	andi	r24, 0xE0	; 224
    2762:	89 2b       	or	r24, r25
    2764:	e1 e0       	ldi	r30, 0x01	; 1
    2766:	e8 0f       	add	r30, r24
    2768:	ef 77       	andi	r30, 0x7F	; 127
    276a:	a4 e9       	ldi	r26, 0x94	; 148
    276c:	b5 e0       	ldi	r27, 0x05	; 5
    276e:	2e 2f       	mov	r18, r30
    2770:	22 0f       	add	r18, r18
    2772:	22 0f       	add	r18, r18
    2774:	22 0f       	add	r18, r18
    2776:	14 96       	adiw	r26, 0x04	; 4
    2778:	9c 91       	ld	r25, X
    277a:	14 97       	sbiw	r26, 0x04	; 4
    277c:	97 70       	andi	r25, 0x07	; 7
    277e:	92 2b       	or	r25, r18
    2780:	14 96       	adiw	r26, 0x04	; 4
    2782:	9c 93       	st	X, r25
    2784:	14 97       	sbiw	r26, 0x04	; 4
    2786:	2e 2f       	mov	r18, r30
    2788:	22 95       	swap	r18
    278a:	26 95       	lsr	r18
    278c:	27 70       	andi	r18, 0x07	; 7
    278e:	15 96       	adiw	r26, 0x05	; 5
    2790:	9c 91       	ld	r25, X
    2792:	15 97       	sbiw	r26, 0x05	; 5
    2794:	9c 7f       	andi	r25, 0xFC	; 252
    2796:	92 2b       	or	r25, r18
    2798:	15 96       	adiw	r26, 0x05	; 5
    279a:	9c 93       	st	X, r25
    279c:	90 e0       	ldi	r25, 0x00	; 0
    279e:	20 91 fe 04 	lds	r18, 0x04FE
    27a2:	30 e0       	ldi	r19, 0x00	; 0
    27a4:	82 17       	cp	r24, r18
    27a6:	93 07       	cpc	r25, r19
    27a8:	74 f1       	brlt	.+92     	; 0x2806 <process_new_measure+0x128>
    27aa:	e1 e0       	ldi	r30, 0x01	; 1
    27ac:	f5 e0       	ldi	r31, 0x05	; 5
    27ae:	80 81       	ld	r24, Z
    27b0:	8f 7d       	andi	r24, 0xDF	; 223
    27b2:	80 83       	st	Z, r24
    27b4:	0e 94 d4 10 	call	0x21a8	; 0x21a8 <process_stop>
    27b8:	e4 e9       	ldi	r30, 0x94	; 148
    27ba:	f5 e0       	ldi	r31, 0x05	; 5
    27bc:	84 81       	ldd	r24, Z+4	; 0x04
    27be:	87 70       	andi	r24, 0x07	; 7
    27c0:	84 83       	std	Z+4, r24	; 0x04
    27c2:	85 81       	ldd	r24, Z+5	; 0x05
    27c4:	8c 7f       	andi	r24, 0xFC	; 252
    27c6:	85 83       	std	Z+5, r24	; 0x05
    27c8:	60 91 be 04 	lds	r22, 0x04BE
    27cc:	86 2f       	mov	r24, r22
    27ce:	8f 70       	andi	r24, 0x0F	; 15
    27d0:	26 2f       	mov	r18, r22
    27d2:	22 95       	swap	r18
    27d4:	22 0f       	add	r18, r18
    27d6:	20 7e       	andi	r18, 0xE0	; 224
    27d8:	92 81       	ldd	r25, Z+2	; 0x02
    27da:	9f 71       	andi	r25, 0x1F	; 31
    27dc:	92 2b       	or	r25, r18
    27de:	92 83       	std	Z+2, r25	; 0x02
    27e0:	28 2f       	mov	r18, r24
    27e2:	26 95       	lsr	r18
    27e4:	26 95       	lsr	r18
    27e6:	26 95       	lsr	r18
    27e8:	93 81       	ldd	r25, Z+3	; 0x03
    27ea:	9e 7f       	andi	r25, 0xFE	; 254
    27ec:	92 2b       	or	r25, r18
    27ee:	93 83       	std	Z+3, r25	; 0x03
    27f0:	62 95       	swap	r22
    27f2:	6f 70       	andi	r22, 0x0F	; 15
    27f4:	ed e8       	ldi	r30, 0x8D	; 141
    27f6:	f5 e0       	ldi	r31, 0x05	; 5
    27f8:	90 81       	ld	r25, Z
    27fa:	90 7f       	andi	r25, 0xF0	; 240
    27fc:	96 2b       	or	r25, r22
    27fe:	90 83       	st	Z, r25
    2800:	0e 94 5a 10 	call	0x20b4	; 0x20b4 <read_next_pattern>
    2804:	08 95       	ret
    2806:	f0 e0       	ldi	r31, 0x00	; 0
    2808:	e2 54       	subi	r30, 0x42	; 66
    280a:	fb 4f       	sbci	r31, 0xFB	; 251
    280c:	80 81       	ld	r24, Z
    280e:	e4 e9       	ldi	r30, 0x94	; 148
    2810:	f5 e0       	ldi	r31, 0x05	; 5
    2812:	28 2f       	mov	r18, r24
    2814:	22 95       	swap	r18
    2816:	22 0f       	add	r18, r18
    2818:	20 7e       	andi	r18, 0xE0	; 224
    281a:	92 81       	ldd	r25, Z+2	; 0x02
    281c:	9f 71       	andi	r25, 0x1F	; 31
    281e:	92 2b       	or	r25, r18
    2820:	92 83       	std	Z+2, r25	; 0x02
    2822:	83 fb       	bst	r24, 3
    2824:	22 27       	eor	r18, r18
    2826:	20 f9       	bld	r18, 0
    2828:	93 81       	ldd	r25, Z+3	; 0x03
    282a:	9e 7f       	andi	r25, 0xFE	; 254
    282c:	92 2b       	or	r25, r18
    282e:	93 83       	std	Z+3, r25	; 0x03
    2830:	ed e8       	ldi	r30, 0x8D	; 141
    2832:	f5 e0       	ldi	r31, 0x05	; 5
    2834:	82 95       	swap	r24
    2836:	8f 70       	andi	r24, 0x0F	; 15
    2838:	90 81       	ld	r25, Z
    283a:	90 7f       	andi	r25, 0xF0	; 240
    283c:	89 2b       	or	r24, r25
    283e:	80 83       	st	Z, r24
    2840:	e5 ee       	ldi	r30, 0xE5	; 229
    2842:	f2 e0       	ldi	r31, 0x02	; 2
    2844:	80 81       	ld	r24, Z
    2846:	80 62       	ori	r24, 0x20	; 32
    2848:	80 83       	st	Z, r24
    284a:	80 91 93 05 	lds	r24, 0x0593
    284e:	80 31       	cpi	r24, 0x10	; 16
    2850:	09 f4       	brne	.+2      	; 0x2854 <process_new_measure+0x176>
    2852:	7d c0       	rjmp	.+250    	; 0x294e <process_new_measure+0x270>
    2854:	80 91 95 05 	lds	r24, 0x0595
    2858:	81 ff       	sbrs	r24, 1
    285a:	65 c0       	rjmp	.+202    	; 0x2926 <process_new_measure+0x248>
    285c:	81 fb       	bst	r24, 1
    285e:	99 27       	eor	r25, r25
    2860:	90 f9       	bld	r25, 0
    2862:	81 e0       	ldi	r24, 0x01	; 1
    2864:	89 27       	eor	r24, r25
    2866:	e4 e9       	ldi	r30, 0x94	; 148
    2868:	f5 e0       	ldi	r31, 0x05	; 5
    286a:	91 81       	ldd	r25, Z+1	; 0x01
    286c:	80 fb       	bst	r24, 0
    286e:	91 f9       	bld	r25, 1
    2870:	91 83       	std	Z+1, r25	; 0x01
    2872:	8b e2       	ldi	r24, 0x2B	; 43
    2874:	0e 94 4a 08 	call	0x1094	; 0x1094 <turn_off>
    2878:	8a e2       	ldi	r24, 0x2A	; 42
    287a:	0e 94 2f 08 	call	0x105e	; 0x105e <turn_on>
    287e:	0e 94 2e 10 	call	0x205c	; 0x205c <toggle_variation>
    2882:	80 91 e5 02 	lds	r24, 0x02E5
    2886:	85 ff       	sbrs	r24, 5
    2888:	46 c0       	rjmp	.+140    	; 0x2916 <process_new_measure+0x238>
    288a:	e5 ee       	ldi	r30, 0xE5	; 229
    288c:	f2 e0       	ldi	r31, 0x02	; 2
    288e:	80 81       	ld	r24, Z
    2890:	8f 7d       	andi	r24, 0xDF	; 223
    2892:	80 83       	st	Z, r24
    2894:	e6 ee       	ldi	r30, 0xE6	; 230
    2896:	f2 e0       	ldi	r31, 0x02	; 2
    2898:	80 81       	ld	r24, Z
    289a:	82 60       	ori	r24, 0x02	; 2
    289c:	80 83       	st	Z, r24
    289e:	80 91 96 05 	lds	r24, 0x0596
    28a2:	98 2f       	mov	r25, r24
    28a4:	92 95       	swap	r25
    28a6:	96 95       	lsr	r25
    28a8:	97 70       	andi	r25, 0x07	; 7
    28aa:	80 91 97 05 	lds	r24, 0x0597
    28ae:	81 70       	andi	r24, 0x01	; 1
    28b0:	88 0f       	add	r24, r24
    28b2:	88 0f       	add	r24, r24
    28b4:	88 0f       	add	r24, r24
    28b6:	89 2b       	or	r24, r25
    28b8:	e4 e9       	ldi	r30, 0x94	; 148
    28ba:	f5 e0       	ldi	r31, 0x05	; 5
    28bc:	28 2f       	mov	r18, r24
    28be:	22 95       	swap	r18
    28c0:	22 0f       	add	r18, r18
    28c2:	20 7e       	andi	r18, 0xE0	; 224
    28c4:	91 81       	ldd	r25, Z+1	; 0x01
    28c6:	9f 71       	andi	r25, 0x1F	; 31
    28c8:	92 2b       	or	r25, r18
    28ca:	91 83       	std	Z+1, r25	; 0x01
    28cc:	28 2f       	mov	r18, r24
    28ce:	26 95       	lsr	r18
    28d0:	26 95       	lsr	r18
    28d2:	26 95       	lsr	r18
    28d4:	92 81       	ldd	r25, Z+2	; 0x02
    28d6:	9e 7f       	andi	r25, 0xFE	; 254
    28d8:	92 2b       	or	r25, r18
    28da:	92 83       	std	Z+2, r25	; 0x02
    28dc:	60 91 8d 05 	lds	r22, 0x058D
    28e0:	6f 70       	andi	r22, 0x0F	; 15
    28e2:	0e 94 5a 10 	call	0x20b4	; 0x20b4 <read_next_pattern>
    28e6:	e0 e9       	ldi	r30, 0x90	; 144
    28e8:	f5 e0       	ldi	r31, 0x05	; 5
    28ea:	80 81       	ld	r24, Z
    28ec:	8d 7f       	andi	r24, 0xFD	; 253
    28ee:	80 83       	st	Z, r24
    28f0:	80 91 91 05 	lds	r24, 0x0591
    28f4:	81 30       	cpi	r24, 0x01	; 1
    28f6:	19 f4       	brne	.+6      	; 0x28fe <process_new_measure+0x220>
    28f8:	80 81       	ld	r24, Z
    28fa:	82 60       	ori	r24, 0x02	; 2
    28fc:	80 83       	st	Z, r24
    28fe:	e4 e9       	ldi	r30, 0x94	; 148
    2900:	f5 e0       	ldi	r31, 0x05	; 5
    2902:	81 81       	ldd	r24, Z+1	; 0x01
    2904:	8d 7f       	andi	r24, 0xFD	; 253
    2906:	81 83       	std	Z+1, r24	; 0x01
    2908:	8b e2       	ldi	r24, 0x2B	; 43
    290a:	0e 94 4a 08 	call	0x1094	; 0x1094 <turn_off>
    290e:	8a e2       	ldi	r24, 0x2A	; 42
    2910:	0e 94 2f 08 	call	0x105e	; 0x105e <turn_on>
    2914:	79 c0       	rjmp	.+242    	; 0x2a08 <process_new_measure+0x32a>
    2916:	80 91 ff 04 	lds	r24, 0x04FF
    291a:	83 30       	cpi	r24, 0x03	; 3
    291c:	09 f0       	breq	.+2      	; 0x2920 <process_new_measure+0x242>
    291e:	74 c0       	rjmp	.+232    	; 0x2a08 <process_new_measure+0x32a>
    2920:	0e 94 7f 11 	call	0x22fe	; 0x22fe <update_fill>
    2924:	71 c0       	rjmp	.+226    	; 0x2a08 <process_new_measure+0x32a>
    2926:	8a e2       	ldi	r24, 0x2A	; 42
    2928:	0e 94 4a 08 	call	0x1094	; 0x1094 <turn_off>
    292c:	8b e2       	ldi	r24, 0x2B	; 43
    292e:	0e 94 2f 08 	call	0x105e	; 0x105e <turn_on>
    2932:	80 91 95 05 	lds	r24, 0x0595
    2936:	81 fb       	bst	r24, 1
    2938:	99 27       	eor	r25, r25
    293a:	90 f9       	bld	r25, 0
    293c:	81 e0       	ldi	r24, 0x01	; 1
    293e:	89 27       	eor	r24, r25
    2940:	e4 e9       	ldi	r30, 0x94	; 148
    2942:	f5 e0       	ldi	r31, 0x05	; 5
    2944:	91 81       	ldd	r25, Z+1	; 0x01
    2946:	80 fb       	bst	r24, 0
    2948:	91 f9       	bld	r25, 1
    294a:	91 83       	std	Z+1, r25	; 0x01
    294c:	5d c0       	rjmp	.+186    	; 0x2a08 <process_new_measure+0x32a>
    294e:	e4 e9       	ldi	r30, 0x94	; 148
    2950:	f5 e0       	ldi	r31, 0x05	; 5
    2952:	81 81       	ldd	r24, Z+1	; 0x01
    2954:	8d 7f       	andi	r24, 0xFD	; 253
    2956:	81 83       	std	Z+1, r24	; 0x01
    2958:	8b e2       	ldi	r24, 0x2B	; 43
    295a:	0e 94 4a 08 	call	0x1094	; 0x1094 <turn_off>
    295e:	8a e2       	ldi	r24, 0x2A	; 42
    2960:	0e 94 2f 08 	call	0x105e	; 0x105e <turn_on>
    2964:	0e 94 2e 10 	call	0x205c	; 0x205c <toggle_variation>
    2968:	80 91 e5 02 	lds	r24, 0x02E5
    296c:	85 ff       	sbrs	r24, 5
    296e:	46 c0       	rjmp	.+140    	; 0x29fc <process_new_measure+0x31e>
    2970:	e5 ee       	ldi	r30, 0xE5	; 229
    2972:	f2 e0       	ldi	r31, 0x02	; 2
    2974:	80 81       	ld	r24, Z
    2976:	8f 7d       	andi	r24, 0xDF	; 223
    2978:	80 83       	st	Z, r24
    297a:	e6 ee       	ldi	r30, 0xE6	; 230
    297c:	f2 e0       	ldi	r31, 0x02	; 2
    297e:	80 81       	ld	r24, Z
    2980:	82 60       	ori	r24, 0x02	; 2
    2982:	80 83       	st	Z, r24
    2984:	80 91 96 05 	lds	r24, 0x0596
    2988:	98 2f       	mov	r25, r24
    298a:	92 95       	swap	r25
    298c:	96 95       	lsr	r25
    298e:	97 70       	andi	r25, 0x07	; 7
    2990:	80 91 97 05 	lds	r24, 0x0597
    2994:	81 70       	andi	r24, 0x01	; 1
    2996:	88 0f       	add	r24, r24
    2998:	88 0f       	add	r24, r24
    299a:	88 0f       	add	r24, r24
    299c:	89 2b       	or	r24, r25
    299e:	e4 e9       	ldi	r30, 0x94	; 148
    29a0:	f5 e0       	ldi	r31, 0x05	; 5
    29a2:	28 2f       	mov	r18, r24
    29a4:	22 95       	swap	r18
    29a6:	22 0f       	add	r18, r18
    29a8:	20 7e       	andi	r18, 0xE0	; 224
    29aa:	91 81       	ldd	r25, Z+1	; 0x01
    29ac:	9f 71       	andi	r25, 0x1F	; 31
    29ae:	92 2b       	or	r25, r18
    29b0:	91 83       	std	Z+1, r25	; 0x01
    29b2:	28 2f       	mov	r18, r24
    29b4:	26 95       	lsr	r18
    29b6:	26 95       	lsr	r18
    29b8:	26 95       	lsr	r18
    29ba:	92 81       	ldd	r25, Z+2	; 0x02
    29bc:	9e 7f       	andi	r25, 0xFE	; 254
    29be:	92 2b       	or	r25, r18
    29c0:	92 83       	std	Z+2, r25	; 0x02
    29c2:	60 91 8d 05 	lds	r22, 0x058D
    29c6:	6f 70       	andi	r22, 0x0F	; 15
    29c8:	0e 94 5a 10 	call	0x20b4	; 0x20b4 <read_next_pattern>
    29cc:	e0 e9       	ldi	r30, 0x90	; 144
    29ce:	f5 e0       	ldi	r31, 0x05	; 5
    29d0:	80 81       	ld	r24, Z
    29d2:	8d 7f       	andi	r24, 0xFD	; 253
    29d4:	80 83       	st	Z, r24
    29d6:	80 91 91 05 	lds	r24, 0x0591
    29da:	81 30       	cpi	r24, 0x01	; 1
    29dc:	19 f4       	brne	.+6      	; 0x29e4 <process_new_measure+0x306>
    29de:	80 81       	ld	r24, Z
    29e0:	82 60       	ori	r24, 0x02	; 2
    29e2:	80 83       	st	Z, r24
    29e4:	e4 e9       	ldi	r30, 0x94	; 148
    29e6:	f5 e0       	ldi	r31, 0x05	; 5
    29e8:	81 81       	ldd	r24, Z+1	; 0x01
    29ea:	8d 7f       	andi	r24, 0xFD	; 253
    29ec:	81 83       	std	Z+1, r24	; 0x01
    29ee:	8b e2       	ldi	r24, 0x2B	; 43
    29f0:	0e 94 4a 08 	call	0x1094	; 0x1094 <turn_off>
    29f4:	8a e2       	ldi	r24, 0x2A	; 42
    29f6:	0e 94 2f 08 	call	0x105e	; 0x105e <turn_on>
    29fa:	06 c0       	rjmp	.+12     	; 0x2a08 <process_new_measure+0x32a>
    29fc:	80 91 ff 04 	lds	r24, 0x04FF
    2a00:	83 30       	cpi	r24, 0x03	; 3
    2a02:	11 f4       	brne	.+4      	; 0x2a08 <process_new_measure+0x32a>
    2a04:	0e 94 7f 11 	call	0x22fe	; 0x22fe <update_fill>
    2a08:	80 91 ff 04 	lds	r24, 0x04FF
    2a0c:	81 50       	subi	r24, 0x01	; 1
    2a0e:	82 30       	cpi	r24, 0x02	; 2
    2a10:	10 f4       	brcc	.+4      	; 0x2a16 <process_new_measure+0x338>
    2a12:	0e 94 37 09 	call	0x126e	; 0x126e <update_inst_led_mask>
    2a16:	80 91 e6 02 	lds	r24, 0x02E6
    2a1a:	81 ff       	sbrs	r24, 1
    2a1c:	16 c0       	rjmp	.+44     	; 0x2a4a <process_new_measure+0x36c>
    2a1e:	e6 ee       	ldi	r30, 0xE6	; 230
    2a20:	f2 e0       	ldi	r31, 0x02	; 2
    2a22:	80 81       	ld	r24, Z
    2a24:	8d 7f       	andi	r24, 0xFD	; 253
    2a26:	80 83       	st	Z, r24
    2a28:	e1 e0       	ldi	r30, 0x01	; 1
    2a2a:	f5 e0       	ldi	r31, 0x05	; 5
    2a2c:	81 81       	ldd	r24, Z+1	; 0x01
    2a2e:	81 7f       	andi	r24, 0xF1	; 241
    2a30:	81 83       	std	Z+1, r24	; 0x01
    2a32:	e0 91 95 05 	lds	r30, 0x0595
    2a36:	e6 95       	lsr	r30
    2a38:	e6 95       	lsr	r30
    2a3a:	e6 95       	lsr	r30
    2a3c:	e3 70       	andi	r30, 0x03	; 3
    2a3e:	f0 e0       	ldi	r31, 0x00	; 0
    2a40:	ee 50       	subi	r30, 0x0E	; 14
    2a42:	fe 4f       	sbci	r31, 0xFE	; 254
    2a44:	80 81       	ld	r24, Z
    2a46:	80 93 ff 02 	sts	0x02FF, r24
    2a4a:	08 95       	ret

00002a4c <process_step>:
    2a4c:	ef 92       	push	r14
    2a4e:	ff 92       	push	r15
    2a50:	0f 93       	push	r16
    2a52:	1f 93       	push	r17
    2a54:	cf 93       	push	r28
    2a56:	df 93       	push	r29
    2a58:	80 91 e5 02 	lds	r24, 0x02E5
    2a5c:	80 ff       	sbrs	r24, 0
    2a5e:	ed c0       	rjmp	.+474    	; 0x2c3a <process_step+0x1ee>
    2a60:	e5 ee       	ldi	r30, 0xE5	; 229
    2a62:	f2 e0       	ldi	r31, 0x02	; 2
    2a64:	80 81       	ld	r24, Z
    2a66:	8e 7f       	andi	r24, 0xFE	; 254
    2a68:	80 83       	st	Z, r24
    2a6a:	80 91 01 05 	lds	r24, 0x0501
    2a6e:	85 ff       	sbrs	r24, 5
    2a70:	27 c3       	rjmp	.+1614   	; 0x30c0 <process_step+0x674>
    2a72:	80 91 e6 02 	lds	r24, 0x02E6
    2a76:	80 ff       	sbrs	r24, 0
    2a78:	0b c0       	rjmp	.+22     	; 0x2a90 <process_step+0x44>
    2a7a:	e6 ee       	ldi	r30, 0xE6	; 230
    2a7c:	f2 e0       	ldi	r31, 0x02	; 2
    2a7e:	80 81       	ld	r24, Z
    2a80:	8e 7f       	andi	r24, 0xFE	; 254
    2a82:	80 83       	st	Z, r24
    2a84:	0e 94 6f 13 	call	0x26de	; 0x26de <process_new_measure>
    2a88:	80 91 01 05 	lds	r24, 0x0501
    2a8c:	85 ff       	sbrs	r24, 5
    2a8e:	1f c3       	rjmp	.+1598   	; 0x30ce <process_step+0x682>
    2a90:	80 91 ff 04 	lds	r24, 0x04FF
    2a94:	83 30       	cpi	r24, 0x03	; 3
    2a96:	09 f4       	brne	.+2      	; 0x2a9a <process_step+0x4e>
    2a98:	3f c0       	rjmp	.+126    	; 0x2b18 <process_step+0xcc>
    2a9a:	20 f0       	brcs	.+8      	; 0x2aa4 <process_step+0x58>
    2a9c:	86 30       	cpi	r24, 0x06	; 6
    2a9e:	08 f0       	brcs	.+2      	; 0x2aa2 <process_step+0x56>
    2aa0:	c5 c0       	rjmp	.+394    	; 0x2c2c <process_step+0x1e0>
    2aa2:	85 c0       	rjmp	.+266    	; 0x2bae <process_step+0x162>
    2aa4:	0e 94 12 12 	call	0x2424	; 0x2424 <check_tap>
    2aa8:	80 91 02 05 	lds	r24, 0x0502
    2aac:	80 fd       	sbrc	r24, 0
    2aae:	be c0       	rjmp	.+380    	; 0x2c2c <process_step+0x1e0>
    2ab0:	80 91 01 05 	lds	r24, 0x0501
    2ab4:	84 fd       	sbrc	r24, 4
    2ab6:	ba c0       	rjmp	.+372    	; 0x2c2c <process_step+0x1e0>
    2ab8:	80 91 95 05 	lds	r24, 0x0595
    2abc:	82 fb       	bst	r24, 2
    2abe:	99 27       	eor	r25, r25
    2ac0:	90 f9       	bld	r25, 0
    2ac2:	86 95       	lsr	r24
    2ac4:	81 70       	andi	r24, 0x01	; 1
    2ac6:	98 13       	cpse	r25, r24
    2ac8:	b1 c0       	rjmp	.+354    	; 0x2c2c <process_step+0x1e0>
    2aca:	80 91 94 05 	lds	r24, 0x0594
    2ace:	98 2f       	mov	r25, r24
    2ad0:	92 95       	swap	r25
    2ad2:	96 95       	lsr	r25
    2ad4:	97 70       	andi	r25, 0x07	; 7
    2ad6:	80 91 95 05 	lds	r24, 0x0595
    2ada:	81 70       	andi	r24, 0x01	; 1
    2adc:	88 0f       	add	r24, r24
    2ade:	88 0f       	add	r24, r24
    2ae0:	88 0f       	add	r24, r24
    2ae2:	89 2b       	or	r24, r25
    2ae4:	21 e0       	ldi	r18, 0x01	; 1
    2ae6:	30 e0       	ldi	r19, 0x00	; 0
    2ae8:	02 c0       	rjmp	.+4      	; 0x2aee <process_step+0xa2>
    2aea:	22 0f       	add	r18, r18
    2aec:	33 1f       	adc	r19, r19
    2aee:	8a 95       	dec	r24
    2af0:	e2 f7       	brpl	.-8      	; 0x2aea <process_step+0x9e>
    2af2:	ee e8       	ldi	r30, 0x8E	; 142
    2af4:	f5 e0       	ldi	r31, 0x05	; 5
    2af6:	90 81       	ld	r25, Z
    2af8:	81 81       	ldd	r24, Z+1	; 0x01
    2afa:	e5 e4       	ldi	r30, 0x45	; 69
    2afc:	f2 e0       	ldi	r31, 0x02	; 2
    2afe:	49 2f       	mov	r20, r25
    2b00:	42 23       	and	r20, r18
    2b02:	40 95       	com	r20
    2b04:	92 2b       	or	r25, r18
    2b06:	94 23       	and	r25, r20
    2b08:	91 83       	std	Z+1, r25	; 0x01
    2b0a:	98 2f       	mov	r25, r24
    2b0c:	93 23       	and	r25, r19
    2b0e:	90 95       	com	r25
    2b10:	83 2b       	or	r24, r19
    2b12:	89 23       	and	r24, r25
    2b14:	80 83       	st	Z, r24
    2b16:	8a c0       	rjmp	.+276    	; 0x2c2c <process_step+0x1e0>
    2b18:	0e 94 12 12 	call	0x2424	; 0x2424 <check_tap>
    2b1c:	80 91 01 05 	lds	r24, 0x0501
    2b20:	84 fd       	sbrc	r24, 4
    2b22:	84 c0       	rjmp	.+264    	; 0x2c2c <process_step+0x1e0>
    2b24:	20 91 94 05 	lds	r18, 0x0594
    2b28:	82 2f       	mov	r24, r18
    2b2a:	82 95       	swap	r24
    2b2c:	86 95       	lsr	r24
    2b2e:	87 70       	andi	r24, 0x07	; 7
    2b30:	20 91 95 05 	lds	r18, 0x0595
    2b34:	21 70       	andi	r18, 0x01	; 1
    2b36:	22 0f       	add	r18, r18
    2b38:	22 0f       	add	r18, r18
    2b3a:	22 0f       	add	r18, r18
    2b3c:	28 2b       	or	r18, r24
    2b3e:	81 e0       	ldi	r24, 0x01	; 1
    2b40:	90 e0       	ldi	r25, 0x00	; 0
    2b42:	bc 01       	movw	r22, r24
    2b44:	02 c0       	rjmp	.+4      	; 0x2b4a <process_step+0xfe>
    2b46:	66 0f       	add	r22, r22
    2b48:	77 1f       	adc	r23, r23
    2b4a:	2a 95       	dec	r18
    2b4c:	e2 f7       	brpl	.-8      	; 0x2b46 <process_step+0xfa>
    2b4e:	30 91 96 05 	lds	r19, 0x0596
    2b52:	43 2f       	mov	r20, r19
    2b54:	42 95       	swap	r20
    2b56:	46 95       	lsr	r20
    2b58:	47 70       	andi	r20, 0x07	; 7
    2b5a:	20 91 97 05 	lds	r18, 0x0597
    2b5e:	32 2f       	mov	r19, r18
    2b60:	31 70       	andi	r19, 0x01	; 1
    2b62:	33 0f       	add	r19, r19
    2b64:	33 0f       	add	r19, r19
    2b66:	33 0f       	add	r19, r19
    2b68:	34 2b       	or	r19, r20
    2b6a:	ac 01       	movw	r20, r24
    2b6c:	02 c0       	rjmp	.+4      	; 0x2b72 <process_step+0x126>
    2b6e:	44 0f       	add	r20, r20
    2b70:	55 1f       	adc	r21, r21
    2b72:	3a 95       	dec	r19
    2b74:	e2 f7       	brpl	.-8      	; 0x2b6e <process_step+0x122>
    2b76:	e5 e4       	ldi	r30, 0x45	; 69
    2b78:	f2 e0       	ldi	r31, 0x02	; 2
    2b7a:	34 2f       	mov	r19, r20
    2b7c:	36 23       	and	r19, r22
    2b7e:	30 95       	com	r19
    2b80:	64 2b       	or	r22, r20
    2b82:	36 23       	and	r19, r22
    2b84:	31 83       	std	Z+1, r19	; 0x01
    2b86:	26 95       	lsr	r18
    2b88:	2f 70       	andi	r18, 0x0F	; 15
    2b8a:	02 c0       	rjmp	.+4      	; 0x2b90 <process_step+0x144>
    2b8c:	88 0f       	add	r24, r24
    2b8e:	99 1f       	adc	r25, r25
    2b90:	2a 95       	dec	r18
    2b92:	e2 f7       	brpl	.-8      	; 0x2b8c <process_step+0x140>
    2b94:	9c 01       	movw	r18, r24
    2b96:	24 2b       	or	r18, r20
    2b98:	35 2b       	or	r19, r21
    2b9a:	83 2f       	mov	r24, r19
    2b9c:	87 23       	and	r24, r23
    2b9e:	28 2f       	mov	r18, r24
    2ba0:	20 95       	com	r18
    2ba2:	85 2f       	mov	r24, r21
    2ba4:	87 2b       	or	r24, r23
    2ba6:	89 2b       	or	r24, r25
    2ba8:	82 23       	and	r24, r18
    2baa:	80 83       	st	Z, r24
    2bac:	3f c0       	rjmp	.+126    	; 0x2c2c <process_step+0x1e0>
    2bae:	80 91 02 05 	lds	r24, 0x0502
    2bb2:	80 fd       	sbrc	r24, 0
    2bb4:	3b c0       	rjmp	.+118    	; 0x2c2c <process_step+0x1e0>
    2bb6:	80 91 01 05 	lds	r24, 0x0501
    2bba:	88 23       	and	r24, r24
    2bbc:	bc f1       	brlt	.+110    	; 0x2c2c <process_step+0x1e0>
    2bbe:	20 91 94 05 	lds	r18, 0x0594
    2bc2:	82 2f       	mov	r24, r18
    2bc4:	82 95       	swap	r24
    2bc6:	86 95       	lsr	r24
    2bc8:	87 70       	andi	r24, 0x07	; 7
    2bca:	20 91 95 05 	lds	r18, 0x0595
    2bce:	21 70       	andi	r18, 0x01	; 1
    2bd0:	22 0f       	add	r18, r18
    2bd2:	22 0f       	add	r18, r18
    2bd4:	22 0f       	add	r18, r18
    2bd6:	28 2b       	or	r18, r24
    2bd8:	81 e0       	ldi	r24, 0x01	; 1
    2bda:	90 e0       	ldi	r25, 0x00	; 0
    2bdc:	ac 01       	movw	r20, r24
    2bde:	02 c0       	rjmp	.+4      	; 0x2be4 <process_step+0x198>
    2be0:	44 0f       	add	r20, r20
    2be2:	55 1f       	adc	r21, r21
    2be4:	2a 95       	dec	r18
    2be6:	e2 f7       	brpl	.-8      	; 0x2be0 <process_step+0x194>
    2be8:	20 91 96 05 	lds	r18, 0x0596
    2bec:	32 2f       	mov	r19, r18
    2bee:	32 95       	swap	r19
    2bf0:	36 95       	lsr	r19
    2bf2:	37 70       	andi	r19, 0x07	; 7
    2bf4:	20 91 97 05 	lds	r18, 0x0597
    2bf8:	21 70       	andi	r18, 0x01	; 1
    2bfa:	22 0f       	add	r18, r18
    2bfc:	22 0f       	add	r18, r18
    2bfe:	22 0f       	add	r18, r18
    2c00:	23 2b       	or	r18, r19
    2c02:	02 c0       	rjmp	.+4      	; 0x2c08 <process_step+0x1bc>
    2c04:	88 0f       	add	r24, r24
    2c06:	99 1f       	adc	r25, r25
    2c08:	2a 95       	dec	r18
    2c0a:	e2 f7       	brpl	.-8      	; 0x2c04 <process_step+0x1b8>
    2c0c:	e5 e4       	ldi	r30, 0x45	; 69
    2c0e:	f2 e0       	ldi	r31, 0x02	; 2
    2c10:	28 2f       	mov	r18, r24
    2c12:	24 23       	and	r18, r20
    2c14:	20 95       	com	r18
    2c16:	84 2b       	or	r24, r20
    2c18:	82 23       	and	r24, r18
    2c1a:	81 83       	std	Z+1, r24	; 0x01
    2c1c:	89 2f       	mov	r24, r25
    2c1e:	85 23       	and	r24, r21
    2c20:	28 2f       	mov	r18, r24
    2c22:	20 95       	com	r18
    2c24:	89 2f       	mov	r24, r25
    2c26:	85 2b       	or	r24, r21
    2c28:	82 23       	and	r24, r18
    2c2a:	80 83       	st	Z, r24
    2c2c:	80 91 95 05 	lds	r24, 0x0595
    2c30:	86 95       	lsr	r24
    2c32:	81 70       	andi	r24, 0x01	; 1
    2c34:	0e 94 02 04 	call	0x804	; 0x804 <trigger_step>
    2c38:	43 c2       	rjmp	.+1158   	; 0x30c0 <process_step+0x674>
    2c3a:	80 91 e5 02 	lds	r24, 0x02E5
    2c3e:	81 ff       	sbrs	r24, 1
    2c40:	1a c2       	rjmp	.+1076   	; 0x3076 <process_step+0x62a>
    2c42:	0e 94 75 08 	call	0x10ea	; 0x10ea <turn_off_all_inst_leds>
    2c46:	30 91 cb 01 	lds	r19, 0x01CB
    2c4a:	20 91 cd 01 	lds	r18, 0x01CD
    2c4e:	e5 e4       	ldi	r30, 0x45	; 69
    2c50:	f2 e0       	ldi	r31, 0x02	; 2
    2c52:	82 2f       	mov	r24, r18
    2c54:	83 2b       	or	r24, r19
    2c56:	80 95       	com	r24
    2c58:	95 81       	ldd	r25, Z+5	; 0x05
    2c5a:	89 23       	and	r24, r25
    2c5c:	85 83       	std	Z+5, r24	; 0x05
    2c5e:	80 91 01 05 	lds	r24, 0x0501
    2c62:	85 ff       	sbrs	r24, 5
    2c64:	6e c1       	rjmp	.+732    	; 0x2f42 <process_step+0x4f6>
    2c66:	11 82       	std	Z+1, r1	; 0x01
    2c68:	10 82       	st	Z, r1
    2c6a:	80 91 93 05 	lds	r24, 0x0593
    2c6e:	80 31       	cpi	r24, 0x10	; 16
    2c70:	21 f4       	brne	.+8      	; 0x2c7a <process_step+0x22e>
    2c72:	81 e0       	ldi	r24, 0x01	; 1
    2c74:	0e 94 02 04 	call	0x804	; 0x804 <trigger_step>
    2c78:	14 c0       	rjmp	.+40     	; 0x2ca2 <process_step+0x256>
    2c7a:	80 91 03 05 	lds	r24, 0x0503
    2c7e:	98 2f       	mov	r25, r24
    2c80:	92 95       	swap	r25
    2c82:	96 95       	lsr	r25
    2c84:	96 95       	lsr	r25
    2c86:	93 70       	andi	r25, 0x03	; 3
    2c88:	80 91 04 05 	lds	r24, 0x0504
    2c8c:	81 70       	andi	r24, 0x01	; 1
    2c8e:	88 0f       	add	r24, r24
    2c90:	88 0f       	add	r24, r24
    2c92:	89 2b       	or	r24, r25
    2c94:	85 30       	cpi	r24, 0x05	; 5
    2c96:	29 f4       	brne	.+10     	; 0x2ca2 <process_step+0x256>
    2c98:	60 e0       	ldi	r22, 0x00	; 0
    2c9a:	80 91 9a 05 	lds	r24, 0x059A
    2c9e:	0e 94 35 03 	call	0x66a	; 0x66a <trigger_drum>
    2ca2:	80 91 ff 04 	lds	r24, 0x04FF
    2ca6:	83 30       	cpi	r24, 0x03	; 3
    2ca8:	09 f4       	brne	.+2      	; 0x2cac <process_step+0x260>
    2caa:	43 c0       	rjmp	.+134    	; 0x2d32 <process_step+0x2e6>
    2cac:	20 f0       	brcs	.+8      	; 0x2cb6 <process_step+0x26a>
    2cae:	86 30       	cpi	r24, 0x06	; 6
    2cb0:	08 f0       	brcs	.+2      	; 0x2cb4 <process_step+0x268>
    2cb2:	c3 c0       	rjmp	.+390    	; 0x2e3a <process_step+0x3ee>
    2cb4:	93 c0       	rjmp	.+294    	; 0x2ddc <process_step+0x390>
    2cb6:	80 91 01 05 	lds	r24, 0x0501
    2cba:	84 ff       	sbrs	r24, 4
    2cbc:	26 c0       	rjmp	.+76     	; 0x2d0a <process_step+0x2be>
    2cbe:	80 91 02 05 	lds	r24, 0x0502
    2cc2:	80 fd       	sbrc	r24, 0
    2cc4:	ba c0       	rjmp	.+372    	; 0x2e3a <process_step+0x3ee>
    2cc6:	98 2f       	mov	r25, r24
    2cc8:	99 1f       	adc	r25, r25
    2cca:	99 27       	eor	r25, r25
    2ccc:	99 1f       	adc	r25, r25
    2cce:	0f 2e       	mov	r0, r31
    2cd0:	f3 e0       	ldi	r31, 0x03	; 3
    2cd2:	ef 2e       	mov	r14, r31
    2cd4:	f5 e0       	ldi	r31, 0x05	; 5
    2cd6:	ff 2e       	mov	r15, r31
    2cd8:	f0 2d       	mov	r31, r0
    2cda:	f7 01       	movw	r30, r14
    2cdc:	80 81       	ld	r24, Z
    2cde:	83 70       	andi	r24, 0x03	; 3
    2ce0:	88 0f       	add	r24, r24
    2ce2:	89 2b       	or	r24, r25
    2ce4:	0e 94 2f 08 	call	0x105e	; 0x105e <turn_on>
    2ce8:	f7 01       	movw	r30, r14
    2cea:	80 81       	ld	r24, Z
    2cec:	98 2f       	mov	r25, r24
    2cee:	92 95       	swap	r25
    2cf0:	96 95       	lsr	r25
    2cf2:	96 95       	lsr	r25
    2cf4:	93 70       	andi	r25, 0x03	; 3
    2cf6:	80 91 04 05 	lds	r24, 0x0504
    2cfa:	81 70       	andi	r24, 0x01	; 1
    2cfc:	88 0f       	add	r24, r24
    2cfe:	88 0f       	add	r24, r24
    2d00:	89 2b       	or	r24, r25
    2d02:	88 5f       	subi	r24, 0xF8	; 248
    2d04:	0e 94 2f 08 	call	0x105e	; 0x105e <turn_on>
    2d08:	98 c0       	rjmp	.+304    	; 0x2e3a <process_step+0x3ee>
    2d0a:	e0 91 9a 05 	lds	r30, 0x059A
    2d0e:	47 e0       	ldi	r20, 0x07	; 7
    2d10:	e4 9f       	mul	r30, r20
    2d12:	f0 01       	movw	r30, r0
    2d14:	11 24       	eor	r1, r1
    2d16:	e0 50       	subi	r30, 0x00	; 0
    2d18:	ff 4f       	sbci	r31, 0xFF	; 255
    2d1a:	85 81       	ldd	r24, Z+5	; 0x05
    2d1c:	0e 94 2f 08 	call	0x105e	; 0x105e <turn_on>
    2d20:	ee e8       	ldi	r30, 0x8E	; 142
    2d22:	f5 e0       	ldi	r31, 0x05	; 5
    2d24:	90 81       	ld	r25, Z
    2d26:	81 81       	ldd	r24, Z+1	; 0x01
    2d28:	e5 e4       	ldi	r30, 0x45	; 69
    2d2a:	f2 e0       	ldi	r31, 0x02	; 2
    2d2c:	91 83       	std	Z+1, r25	; 0x01
    2d2e:	80 83       	st	Z, r24
    2d30:	84 c0       	rjmp	.+264    	; 0x2e3a <process_step+0x3ee>
    2d32:	80 91 01 05 	lds	r24, 0x0501
    2d36:	84 ff       	sbrs	r24, 4
    2d38:	2d c0       	rjmp	.+90     	; 0x2d94 <process_step+0x348>
    2d3a:	80 91 02 05 	lds	r24, 0x0502
    2d3e:	80 ff       	sbrs	r24, 0
    2d40:	06 c0       	rjmp	.+12     	; 0x2d4e <process_step+0x302>
    2d42:	80 91 8d 05 	lds	r24, 0x058D
    2d46:	8f 70       	andi	r24, 0x0F	; 15
    2d48:	0e 94 2f 08 	call	0x105e	; 0x105e <turn_on>
    2d4c:	76 c0       	rjmp	.+236    	; 0x2e3a <process_step+0x3ee>
    2d4e:	90 91 02 05 	lds	r25, 0x0502
    2d52:	99 1f       	adc	r25, r25
    2d54:	99 27       	eor	r25, r25
    2d56:	99 1f       	adc	r25, r25
    2d58:	0f 2e       	mov	r0, r31
    2d5a:	f3 e0       	ldi	r31, 0x03	; 3
    2d5c:	ef 2e       	mov	r14, r31
    2d5e:	f5 e0       	ldi	r31, 0x05	; 5
    2d60:	ff 2e       	mov	r15, r31
    2d62:	f0 2d       	mov	r31, r0
    2d64:	f7 01       	movw	r30, r14
    2d66:	80 81       	ld	r24, Z
    2d68:	83 70       	andi	r24, 0x03	; 3
    2d6a:	88 0f       	add	r24, r24
    2d6c:	89 2b       	or	r24, r25
    2d6e:	0e 94 2f 08 	call	0x105e	; 0x105e <turn_on>
    2d72:	f7 01       	movw	r30, r14
    2d74:	80 81       	ld	r24, Z
    2d76:	98 2f       	mov	r25, r24
    2d78:	92 95       	swap	r25
    2d7a:	96 95       	lsr	r25
    2d7c:	96 95       	lsr	r25
    2d7e:	93 70       	andi	r25, 0x03	; 3
    2d80:	80 91 04 05 	lds	r24, 0x0504
    2d84:	81 70       	andi	r24, 0x01	; 1
    2d86:	88 0f       	add	r24, r24
    2d88:	88 0f       	add	r24, r24
    2d8a:	89 2b       	or	r24, r25
    2d8c:	88 5f       	subi	r24, 0xF8	; 248
    2d8e:	0e 94 2f 08 	call	0x105e	; 0x105e <turn_on>
    2d92:	53 c0       	rjmp	.+166    	; 0x2e3a <process_step+0x3ee>
    2d94:	90 91 96 05 	lds	r25, 0x0596
    2d98:	29 2f       	mov	r18, r25
    2d9a:	22 95       	swap	r18
    2d9c:	26 95       	lsr	r18
    2d9e:	27 70       	andi	r18, 0x07	; 7
    2da0:	80 91 97 05 	lds	r24, 0x0597
    2da4:	98 2f       	mov	r25, r24
    2da6:	91 70       	andi	r25, 0x01	; 1
    2da8:	99 0f       	add	r25, r25
    2daa:	99 0f       	add	r25, r25
    2dac:	99 0f       	add	r25, r25
    2dae:	92 2b       	or	r25, r18
    2db0:	21 e0       	ldi	r18, 0x01	; 1
    2db2:	30 e0       	ldi	r19, 0x00	; 0
    2db4:	a9 01       	movw	r20, r18
    2db6:	02 c0       	rjmp	.+4      	; 0x2dbc <process_step+0x370>
    2db8:	44 0f       	add	r20, r20
    2dba:	55 1f       	adc	r21, r21
    2dbc:	9a 95       	dec	r25
    2dbe:	e2 f7       	brpl	.-8      	; 0x2db8 <process_step+0x36c>
    2dc0:	e5 e4       	ldi	r30, 0x45	; 69
    2dc2:	f2 e0       	ldi	r31, 0x02	; 2
    2dc4:	41 83       	std	Z+1, r20	; 0x01
    2dc6:	86 95       	lsr	r24
    2dc8:	8f 70       	andi	r24, 0x0F	; 15
    2dca:	02 c0       	rjmp	.+4      	; 0x2dd0 <process_step+0x384>
    2dcc:	22 0f       	add	r18, r18
    2dce:	33 1f       	adc	r19, r19
    2dd0:	8a 95       	dec	r24
    2dd2:	e2 f7       	brpl	.-8      	; 0x2dcc <process_step+0x380>
    2dd4:	85 2f       	mov	r24, r21
    2dd6:	83 2b       	or	r24, r19
    2dd8:	80 83       	st	Z, r24
    2dda:	2f c0       	rjmp	.+94     	; 0x2e3a <process_step+0x3ee>
    2ddc:	80 91 02 05 	lds	r24, 0x0502
    2de0:	80 ff       	sbrs	r24, 0
    2de2:	0a c0       	rjmp	.+20     	; 0x2df8 <process_step+0x3ac>
    2de4:	80 91 01 05 	lds	r24, 0x0501
    2de8:	84 fd       	sbrc	r24, 4
    2dea:	06 c0       	rjmp	.+12     	; 0x2df8 <process_step+0x3ac>
    2dec:	80 91 8d 05 	lds	r24, 0x058D
    2df0:	8f 70       	andi	r24, 0x0F	; 15
    2df2:	0e 94 2f 08 	call	0x105e	; 0x105e <turn_on>
    2df6:	21 c0       	rjmp	.+66     	; 0x2e3a <process_step+0x3ee>
    2df8:	80 91 01 05 	lds	r24, 0x0501
    2dfc:	88 23       	and	r24, r24
    2dfe:	1c f4       	brge	.+6      	; 0x2e06 <process_step+0x3ba>
    2e00:	0e 94 f6 0d 	call	0x1bec	; 0x1bec <show_current_measure>
    2e04:	1a c0       	rjmp	.+52     	; 0x2e3a <process_step+0x3ee>
    2e06:	80 91 96 05 	lds	r24, 0x0596
    2e0a:	98 2f       	mov	r25, r24
    2e0c:	92 95       	swap	r25
    2e0e:	96 95       	lsr	r25
    2e10:	97 70       	andi	r25, 0x07	; 7
    2e12:	80 91 97 05 	lds	r24, 0x0597
    2e16:	81 70       	andi	r24, 0x01	; 1
    2e18:	88 0f       	add	r24, r24
    2e1a:	88 0f       	add	r24, r24
    2e1c:	88 0f       	add	r24, r24
    2e1e:	89 2b       	or	r24, r25
    2e20:	21 e0       	ldi	r18, 0x01	; 1
    2e22:	30 e0       	ldi	r19, 0x00	; 0
    2e24:	a9 01       	movw	r20, r18
    2e26:	02 c0       	rjmp	.+4      	; 0x2e2c <process_step+0x3e0>
    2e28:	44 0f       	add	r20, r20
    2e2a:	55 1f       	adc	r21, r21
    2e2c:	8a 95       	dec	r24
    2e2e:	e2 f7       	brpl	.-8      	; 0x2e28 <process_step+0x3dc>
    2e30:	ca 01       	movw	r24, r20
    2e32:	e5 e4       	ldi	r30, 0x45	; 69
    2e34:	f2 e0       	ldi	r31, 0x02	; 2
    2e36:	41 83       	std	Z+1, r20	; 0x01
    2e38:	90 83       	st	Z, r25
    2e3a:	80 91 cb 01 	lds	r24, 0x01CB
    2e3e:	80 93 9b 05 	sts	0x059B, r24
    2e42:	80 91 90 05 	lds	r24, 0x0590
    2e46:	86 95       	lsr	r24
    2e48:	81 70       	andi	r24, 0x01	; 1
    2e4a:	c8 2f       	mov	r28, r24
    2e4c:	50 e0       	ldi	r21, 0x00	; 0
    2e4e:	d5 2f       	mov	r29, r21
    2e50:	80 91 91 05 	lds	r24, 0x0591
    2e54:	90 e0       	ldi	r25, 0x00	; 0
    2e56:	c8 17       	cp	r28, r24
    2e58:	d9 07       	cpc	r29, r25
    2e5a:	69 f4       	brne	.+26     	; 0x2e76 <process_step+0x42a>
    2e5c:	80 91 90 05 	lds	r24, 0x0590
    2e60:	81 ff       	sbrs	r24, 1
    2e62:	11 c0       	rjmp	.+34     	; 0x2e86 <process_step+0x43a>
    2e64:	80 91 e5 02 	lds	r24, 0x02E5
    2e68:	82 fd       	sbrc	r24, 2
    2e6a:	0d c0       	rjmp	.+26     	; 0x2e86 <process_step+0x43a>
    2e6c:	80 91 cd 01 	lds	r24, 0x01CD
    2e70:	80 93 9b 05 	sts	0x059B, r24
    2e74:	08 c0       	rjmp	.+16     	; 0x2e86 <process_step+0x43a>
    2e76:	80 91 90 05 	lds	r24, 0x0590
    2e7a:	81 ff       	sbrs	r24, 1
    2e7c:	04 c0       	rjmp	.+8      	; 0x2e86 <process_step+0x43a>
    2e7e:	80 91 cd 01 	lds	r24, 0x01CD
    2e82:	80 93 9b 05 	sts	0x059B, r24
    2e86:	80 91 04 03 	lds	r24, 0x0304
    2e8a:	83 70       	andi	r24, 0x03	; 3
    2e8c:	90 e0       	ldi	r25, 0x00	; 0
    2e8e:	02 97       	sbiw	r24, 0x02	; 2
    2e90:	0c f0       	brlt	.+2      	; 0x2e94 <process_step+0x448>
    2e92:	eb c0       	rjmp	.+470    	; 0x306a <process_step+0x61e>
    2e94:	80 91 ff 04 	lds	r24, 0x04FF
    2e98:	83 30       	cpi	r24, 0x03	; 3
    2e9a:	18 f5       	brcc	.+70     	; 0x2ee2 <process_step+0x496>
    2e9c:	80 91 01 05 	lds	r24, 0x0501
    2ea0:	84 ff       	sbrs	r24, 4
    2ea2:	1f c0       	rjmp	.+62     	; 0x2ee2 <process_step+0x496>
    2ea4:	80 91 02 05 	lds	r24, 0x0502
    2ea8:	80 ff       	sbrs	r24, 0
    2eaa:	0f c0       	rjmp	.+30     	; 0x2eca <process_step+0x47e>
    2eac:	90 91 96 05 	lds	r25, 0x0596
    2eb0:	92 95       	swap	r25
    2eb2:	96 95       	lsr	r25
    2eb4:	97 70       	andi	r25, 0x07	; 7
    2eb6:	80 91 97 05 	lds	r24, 0x0597
    2eba:	81 70       	andi	r24, 0x01	; 1
    2ebc:	88 0f       	add	r24, r24
    2ebe:	88 0f       	add	r24, r24
    2ec0:	88 0f       	add	r24, r24
    2ec2:	89 2b       	or	r24, r25
    2ec4:	0e 94 2f 08 	call	0x105e	; 0x105e <turn_on>
    2ec8:	0c c0       	rjmp	.+24     	; 0x2ee2 <process_step+0x496>
    2eca:	90 91 02 05 	lds	r25, 0x0502
    2ece:	99 1f       	adc	r25, r25
    2ed0:	99 27       	eor	r25, r25
    2ed2:	99 1f       	adc	r25, r25
    2ed4:	80 91 03 05 	lds	r24, 0x0503
    2ed8:	83 70       	andi	r24, 0x03	; 3
    2eda:	88 0f       	add	r24, r24
    2edc:	89 2b       	or	r24, r25
    2ede:	0e 94 2f 08 	call	0x105e	; 0x105e <turn_on>
    2ee2:	80 91 90 05 	lds	r24, 0x0590
    2ee6:	81 fb       	bst	r24, 1
    2ee8:	00 27       	eor	r16, r16
    2eea:	00 f9       	bld	r16, 0
    2eec:	10 e0       	ldi	r17, 0x00	; 0
    2eee:	80 91 91 05 	lds	r24, 0x0591
    2ef2:	90 e0       	ldi	r25, 0x00	; 0
    2ef4:	08 17       	cp	r16, r24
    2ef6:	19 07       	cpc	r17, r25
    2ef8:	a1 f0       	breq	.+40     	; 0x2f22 <process_step+0x4d6>
    2efa:	80 91 90 05 	lds	r24, 0x0590
    2efe:	81 fd       	sbrc	r24, 1
    2f00:	08 c0       	rjmp	.+16     	; 0x2f12 <process_step+0x4c6>
    2f02:	eb e9       	ldi	r30, 0x9B	; 155
    2f04:	f5 e0       	ldi	r31, 0x05	; 5
    2f06:	90 91 cd 01 	lds	r25, 0x01CD
    2f0a:	80 81       	ld	r24, Z
    2f0c:	89 2b       	or	r24, r25
    2f0e:	80 83       	st	Z, r24
    2f10:	ac c0       	rjmp	.+344    	; 0x306a <process_step+0x61e>
    2f12:	eb e9       	ldi	r30, 0x9B	; 155
    2f14:	f5 e0       	ldi	r31, 0x05	; 5
    2f16:	90 91 cb 01 	lds	r25, 0x01CB
    2f1a:	80 81       	ld	r24, Z
    2f1c:	89 2b       	or	r24, r25
    2f1e:	80 83       	st	Z, r24
    2f20:	a4 c0       	rjmp	.+328    	; 0x306a <process_step+0x61e>
    2f22:	80 91 90 05 	lds	r24, 0x0590
    2f26:	81 fd       	sbrc	r24, 1
    2f28:	a0 c0       	rjmp	.+320    	; 0x306a <process_step+0x61e>
    2f2a:	80 91 e5 02 	lds	r24, 0x02E5
    2f2e:	82 ff       	sbrs	r24, 2
    2f30:	9c c0       	rjmp	.+312    	; 0x306a <process_step+0x61e>
    2f32:	eb e9       	ldi	r30, 0x9B	; 155
    2f34:	f5 e0       	ldi	r31, 0x05	; 5
    2f36:	90 91 cd 01 	lds	r25, 0x01CD
    2f3a:	80 81       	ld	r24, Z
    2f3c:	89 2b       	or	r24, r25
    2f3e:	80 83       	st	Z, r24
    2f40:	94 c0       	rjmp	.+296    	; 0x306a <process_step+0x61e>
    2f42:	e5 e4       	ldi	r30, 0x45	; 69
    2f44:	f2 e0       	ldi	r31, 0x02	; 2
    2f46:	11 82       	std	Z+1, r1	; 0x01
    2f48:	10 82       	st	Z, r1
    2f4a:	90 91 91 05 	lds	r25, 0x0591
    2f4e:	91 30       	cpi	r25, 0x01	; 1
    2f50:	31 f0       	breq	.+12     	; 0x2f5e <process_step+0x512>
    2f52:	10 f0       	brcs	.+4      	; 0x2f58 <process_step+0x50c>
    2f54:	92 30       	cpi	r25, 0x02	; 2
    2f56:	29 f4       	brne	.+10     	; 0x2f62 <process_step+0x516>
    2f58:	30 93 9b 05 	sts	0x059B, r19
    2f5c:	02 c0       	rjmp	.+4      	; 0x2f62 <process_step+0x516>
    2f5e:	20 93 9b 05 	sts	0x059B, r18
    2f62:	90 91 ff 04 	lds	r25, 0x04FF
    2f66:	93 30       	cpi	r25, 0x03	; 3
    2f68:	29 f0       	breq	.+10     	; 0x2f74 <process_step+0x528>
    2f6a:	50 f1       	brcs	.+84     	; 0x2fc0 <process_step+0x574>
    2f6c:	96 30       	cpi	r25, 0x06	; 6
    2f6e:	08 f0       	brcs	.+2      	; 0x2f72 <process_step+0x526>
    2f70:	4b c0       	rjmp	.+150    	; 0x3008 <process_step+0x5bc>
    2f72:	3a c0       	rjmp	.+116    	; 0x2fe8 <process_step+0x59c>
    2f74:	84 ff       	sbrs	r24, 4
    2f76:	0a c0       	rjmp	.+20     	; 0x2f8c <process_step+0x540>
    2f78:	80 91 02 05 	lds	r24, 0x0502
    2f7c:	80 ff       	sbrs	r24, 0
    2f7e:	44 c0       	rjmp	.+136    	; 0x3008 <process_step+0x5bc>
    2f80:	80 91 8d 05 	lds	r24, 0x058D
    2f84:	8f 70       	andi	r24, 0x0F	; 15
    2f86:	0e 94 2f 08 	call	0x105e	; 0x105e <turn_on>
    2f8a:	3e c0       	rjmp	.+124    	; 0x3008 <process_step+0x5bc>
    2f8c:	80 91 e6 02 	lds	r24, 0x02E6
    2f90:	83 ff       	sbrs	r24, 3
    2f92:	0f c0       	rjmp	.+30     	; 0x2fb2 <process_step+0x566>
    2f94:	90 91 96 05 	lds	r25, 0x0596
    2f98:	92 95       	swap	r25
    2f9a:	96 95       	lsr	r25
    2f9c:	97 70       	andi	r25, 0x07	; 7
    2f9e:	80 91 97 05 	lds	r24, 0x0597
    2fa2:	81 70       	andi	r24, 0x01	; 1
    2fa4:	88 0f       	add	r24, r24
    2fa6:	88 0f       	add	r24, r24
    2fa8:	88 0f       	add	r24, r24
    2faa:	89 2b       	or	r24, r25
    2fac:	0e 94 2f 08 	call	0x105e	; 0x105e <turn_on>
    2fb0:	2b c0       	rjmp	.+86     	; 0x3008 <process_step+0x5bc>
    2fb2:	80 91 97 05 	lds	r24, 0x0597
    2fb6:	86 95       	lsr	r24
    2fb8:	8f 70       	andi	r24, 0x0F	; 15
    2fba:	0e 94 2f 08 	call	0x105e	; 0x105e <turn_on>
    2fbe:	24 c0       	rjmp	.+72     	; 0x3008 <process_step+0x5bc>
    2fc0:	84 ff       	sbrs	r24, 4
    2fc2:	22 c0       	rjmp	.+68     	; 0x3008 <process_step+0x5bc>
    2fc4:	80 91 02 05 	lds	r24, 0x0502
    2fc8:	80 ff       	sbrs	r24, 0
    2fca:	08 c0       	rjmp	.+16     	; 0x2fdc <process_step+0x590>
    2fcc:	80 91 9d 05 	lds	r24, 0x059D
    2fd0:	86 95       	lsr	r24
    2fd2:	86 95       	lsr	r24
    2fd4:	8f 70       	andi	r24, 0x0F	; 15
    2fd6:	0e 94 2f 08 	call	0x105e	; 0x105e <turn_on>
    2fda:	16 c0       	rjmp	.+44     	; 0x3008 <process_step+0x5bc>
    2fdc:	80 91 8d 05 	lds	r24, 0x058D
    2fe0:	8f 70       	andi	r24, 0x0F	; 15
    2fe2:	0e 94 2f 08 	call	0x105e	; 0x105e <turn_on>
    2fe6:	10 c0       	rjmp	.+32     	; 0x3008 <process_step+0x5bc>
    2fe8:	90 91 02 05 	lds	r25, 0x0502
    2fec:	90 ff       	sbrs	r25, 0
    2fee:	08 c0       	rjmp	.+16     	; 0x3000 <process_step+0x5b4>
    2ff0:	84 fd       	sbrc	r24, 4
    2ff2:	06 c0       	rjmp	.+12     	; 0x3000 <process_step+0x5b4>
    2ff4:	80 91 8d 05 	lds	r24, 0x058D
    2ff8:	8f 70       	andi	r24, 0x0F	; 15
    2ffa:	0e 94 2f 08 	call	0x105e	; 0x105e <turn_on>
    2ffe:	04 c0       	rjmp	.+8      	; 0x3008 <process_step+0x5bc>
    3000:	88 23       	and	r24, r24
    3002:	14 f4       	brge	.+4      	; 0x3008 <process_step+0x5bc>
    3004:	0e 94 f6 0d 	call	0x1bec	; 0x1bec <show_current_measure>
    3008:	80 91 04 03 	lds	r24, 0x0304
    300c:	83 70       	andi	r24, 0x03	; 3
    300e:	90 e0       	ldi	r25, 0x00	; 0
    3010:	02 97       	sbiw	r24, 0x02	; 2
    3012:	5c f5       	brge	.+86     	; 0x306a <process_step+0x61e>
    3014:	80 91 01 05 	lds	r24, 0x0501
    3018:	80 79       	andi	r24, 0x90	; 144
    301a:	39 f5       	brne	.+78     	; 0x306a <process_step+0x61e>
    301c:	80 91 02 05 	lds	r24, 0x0502
    3020:	80 fd       	sbrc	r24, 0
    3022:	23 c0       	rjmp	.+70     	; 0x306a <process_step+0x61e>
    3024:	80 91 91 05 	lds	r24, 0x0591
    3028:	82 30       	cpi	r24, 0x02	; 2
    302a:	39 f4       	brne	.+14     	; 0x303a <process_step+0x5ee>
    302c:	eb e9       	ldi	r30, 0x9B	; 155
    302e:	f5 e0       	ldi	r31, 0x05	; 5
    3030:	90 91 cd 01 	lds	r25, 0x01CD
    3034:	80 81       	ld	r24, Z
    3036:	89 2b       	or	r24, r25
    3038:	80 83       	st	Z, r24
    303a:	90 91 96 05 	lds	r25, 0x0596
    303e:	92 95       	swap	r25
    3040:	96 95       	lsr	r25
    3042:	97 70       	andi	r25, 0x07	; 7
    3044:	80 91 97 05 	lds	r24, 0x0597
    3048:	81 70       	andi	r24, 0x01	; 1
    304a:	88 0f       	add	r24, r24
    304c:	88 0f       	add	r24, r24
    304e:	88 0f       	add	r24, r24
    3050:	89 2b       	or	r24, r25
    3052:	0e 94 2f 08 	call	0x105e	; 0x105e <turn_on>
    3056:	80 91 ff 04 	lds	r24, 0x04FF
    305a:	83 30       	cpi	r24, 0x03	; 3
    305c:	31 f4       	brne	.+12     	; 0x306a <process_step+0x61e>
    305e:	80 91 97 05 	lds	r24, 0x0597
    3062:	86 95       	lsr	r24
    3064:	8f 70       	andi	r24, 0x0F	; 15
    3066:	0e 94 2f 08 	call	0x105e	; 0x105e <turn_on>
    306a:	e5 ee       	ldi	r30, 0xE5	; 229
    306c:	f2 e0       	ldi	r31, 0x02	; 2
    306e:	80 81       	ld	r24, Z
    3070:	8d 7f       	andi	r24, 0xFD	; 253
    3072:	80 83       	st	Z, r24
    3074:	25 c0       	rjmp	.+74     	; 0x30c0 <process_step+0x674>
    3076:	80 91 0b 03 	lds	r24, 0x030B
    307a:	81 30       	cpi	r24, 0x01	; 1
    307c:	09 f5       	brne	.+66     	; 0x30c0 <process_step+0x674>
    307e:	80 91 01 05 	lds	r24, 0x0501
    3082:	85 fd       	sbrc	r24, 5
    3084:	1d c0       	rjmp	.+58     	; 0x30c0 <process_step+0x674>
    3086:	30 91 cb 01 	lds	r19, 0x01CB
    308a:	20 91 cd 01 	lds	r18, 0x01CD
    308e:	92 2f       	mov	r25, r18
    3090:	93 2b       	or	r25, r19
    3092:	e5 e4       	ldi	r30, 0x45	; 69
    3094:	f2 e0       	ldi	r31, 0x02	; 2
    3096:	49 2f       	mov	r20, r25
    3098:	40 95       	com	r20
    309a:	85 81       	ldd	r24, Z+5	; 0x05
    309c:	84 23       	and	r24, r20
    309e:	85 83       	std	Z+5, r24	; 0x05
    30a0:	80 91 91 05 	lds	r24, 0x0591
    30a4:	81 30       	cpi	r24, 0x01	; 1
    30a6:	39 f0       	breq	.+14     	; 0x30b6 <process_step+0x66a>
    30a8:	18 f0       	brcs	.+6      	; 0x30b0 <process_step+0x664>
    30aa:	82 30       	cpi	r24, 0x02	; 2
    30ac:	39 f0       	breq	.+14     	; 0x30bc <process_step+0x670>
    30ae:	08 c0       	rjmp	.+16     	; 0x30c0 <process_step+0x674>
    30b0:	30 93 9b 05 	sts	0x059B, r19
    30b4:	05 c0       	rjmp	.+10     	; 0x30c0 <process_step+0x674>
    30b6:	20 93 9b 05 	sts	0x059B, r18
    30ba:	02 c0       	rjmp	.+4      	; 0x30c0 <process_step+0x674>
    30bc:	90 93 9b 05 	sts	0x059B, r25
    30c0:	e5 e4       	ldi	r30, 0x45	; 69
    30c2:	f2 e0       	ldi	r31, 0x02	; 2
    30c4:	90 91 9b 05 	lds	r25, 0x059B
    30c8:	85 81       	ldd	r24, Z+5	; 0x05
    30ca:	89 2b       	or	r24, r25
    30cc:	85 83       	std	Z+5, r24	; 0x05
    30ce:	df 91       	pop	r29
    30d0:	cf 91       	pop	r28
    30d2:	1f 91       	pop	r17
    30d4:	0f 91       	pop	r16
    30d6:	ff 90       	pop	r15
    30d8:	ef 90       	pop	r14
    30da:	08 95       	ret

000030dc <read_rhythm_track>:
    30dc:	cf 93       	push	r28
    30de:	df 93       	push	r29
    30e0:	cd b7       	in	r28, 0x3d	; 61
    30e2:	de b7       	in	r29, 0x3e	; 62
    30e4:	c1 54       	subi	r28, 0x41	; 65
    30e6:	d1 09       	sbc	r29, r1
    30e8:	0f b6       	in	r0, 0x3f	; 63
    30ea:	f8 94       	cli
    30ec:	de bf       	out	0x3e, r29	; 62
    30ee:	0f be       	out	0x3f, r0	; 63
    30f0:	cd bf       	out	0x3d, r28	; 61
    30f2:	60 91 99 05 	lds	r22, 0x0599
    30f6:	66 95       	lsr	r22
    30f8:	66 95       	lsr	r22
    30fa:	66 95       	lsr	r22
    30fc:	6f 70       	andi	r22, 0x0F	; 15
    30fe:	70 e0       	ldi	r23, 0x00	; 0
    3100:	ce 01       	movw	r24, r28
    3102:	01 96       	adiw	r24, 0x01	; 1
    3104:	0e 94 04 02 	call	0x408	; 0x408 <eeprom_read_rhythm_track>
    3108:	81 e4       	ldi	r24, 0x41	; 65
    310a:	fe 01       	movw	r30, r28
    310c:	31 96       	adiw	r30, 0x01	; 1
    310e:	ae eb       	ldi	r26, 0xBE	; 190
    3110:	b4 e0       	ldi	r27, 0x04	; 4
    3112:	01 90       	ld	r0, Z+
    3114:	0d 92       	st	X+, r0
    3116:	8a 95       	dec	r24
    3118:	e1 f7       	brne	.-8      	; 0x3112 <read_rhythm_track+0x36>
    311a:	e5 ee       	ldi	r30, 0xE5	; 229
    311c:	f2 e0       	ldi	r31, 0x02	; 2
    311e:	80 81       	ld	r24, Z
    3120:	80 62       	ori	r24, 0x20	; 32
    3122:	80 83       	st	Z, r24
    3124:	cf 5b       	subi	r28, 0xBF	; 191
    3126:	df 4f       	sbci	r29, 0xFF	; 255
    3128:	0f b6       	in	r0, 0x3f	; 63
    312a:	f8 94       	cli
    312c:	de bf       	out	0x3e, r29	; 62
    312e:	0f be       	out	0x3f, r0	; 63
    3130:	cd bf       	out	0x3d, r28	; 61
    3132:	df 91       	pop	r29
    3134:	cf 91       	pop	r28
    3136:	08 95       	ret

00003138 <write_rhythm_track>:
    3138:	cf 93       	push	r28
    313a:	df 93       	push	r29
    313c:	cd b7       	in	r28, 0x3d	; 61
    313e:	de b7       	in	r29, 0x3e	; 62
    3140:	c1 54       	subi	r28, 0x41	; 65
    3142:	d1 09       	sbc	r29, r1
    3144:	0f b6       	in	r0, 0x3f	; 63
    3146:	f8 94       	cli
    3148:	de bf       	out	0x3e, r29	; 62
    314a:	0f be       	out	0x3f, r0	; 63
    314c:	cd bf       	out	0x3d, r28	; 61
    314e:	60 91 fe 04 	lds	r22, 0x04FE
    3152:	46 2f       	mov	r20, r22
    3154:	50 e0       	ldi	r21, 0x00	; 0
    3156:	20 e0       	ldi	r18, 0x00	; 0
    3158:	30 e0       	ldi	r19, 0x00	; 0
    315a:	a1 e0       	ldi	r26, 0x01	; 1
    315c:	b0 e0       	ldi	r27, 0x00	; 0
    315e:	ac 0f       	add	r26, r28
    3160:	bd 1f       	adc	r27, r29
    3162:	a2 0f       	add	r26, r18
    3164:	b3 1f       	adc	r27, r19
    3166:	f9 01       	movw	r30, r18
    3168:	e2 54       	subi	r30, 0x42	; 66
    316a:	fb 4f       	sbci	r31, 0xFB	; 251
    316c:	80 81       	ld	r24, Z
    316e:	98 2f       	mov	r25, r24
    3170:	9f 70       	andi	r25, 0x0F	; 15
    3172:	80 7f       	andi	r24, 0xF0	; 240
    3174:	89 2b       	or	r24, r25
    3176:	8c 93       	st	X, r24
    3178:	2f 5f       	subi	r18, 0xFF	; 255
    317a:	3f 4f       	sbci	r19, 0xFF	; 255
    317c:	42 17       	cp	r20, r18
    317e:	53 07       	cpc	r21, r19
    3180:	64 f7       	brge	.-40     	; 0x315a <write_rhythm_track+0x22>
    3182:	22 96       	adiw	r28, 0x02	; 2
    3184:	6f af       	std	Y+63, r22	; 0x3f
    3186:	22 97       	sbiw	r28, 0x02	; 2
    3188:	80 91 99 05 	lds	r24, 0x0599
    318c:	86 95       	lsr	r24
    318e:	86 95       	lsr	r24
    3190:	86 95       	lsr	r24
    3192:	8f 70       	andi	r24, 0x0F	; 15
    3194:	be 01       	movw	r22, r28
    3196:	6f 5f       	subi	r22, 0xFF	; 255
    3198:	7f 4f       	sbci	r23, 0xFF	; 255
    319a:	90 e0       	ldi	r25, 0x00	; 0
    319c:	0e 94 35 02 	call	0x46a	; 0x46a <eeprom_write_rhythm_track>
    31a0:	cf 5b       	subi	r28, 0xBF	; 191
    31a2:	df 4f       	sbci	r29, 0xFF	; 255
    31a4:	0f b6       	in	r0, 0x3f	; 63
    31a6:	f8 94       	cli
    31a8:	de bf       	out	0x3e, r29	; 62
    31aa:	0f be       	out	0x3f, r0	; 63
    31ac:	cd bf       	out	0x3d, r28	; 61
    31ae:	df 91       	pop	r29
    31b0:	cf 91       	pop	r28
    31b2:	08 95       	ret

000031b4 <update_rhythm_track>:
    31b4:	cf 93       	push	r28
    31b6:	df 93       	push	r29
    31b8:	ed e8       	ldi	r30, 0x8D	; 141
    31ba:	f5 e0       	ldi	r31, 0x05	; 5
    31bc:	90 81       	ld	r25, Z
    31be:	9f 70       	andi	r25, 0x0F	; 15
    31c0:	29 2f       	mov	r18, r25
    31c2:	22 95       	swap	r18
    31c4:	20 7f       	andi	r18, 0xF0	; 240
    31c6:	92 2b       	or	r25, r18
    31c8:	90 83       	st	Z, r25
    31ca:	c4 e9       	ldi	r28, 0x94	; 148
    31cc:	d5 e0       	ldi	r29, 0x05	; 5
    31ce:	8f 70       	andi	r24, 0x0F	; 15
    31d0:	98 2f       	mov	r25, r24
    31d2:	99 0f       	add	r25, r25
    31d4:	99 0f       	add	r25, r25
    31d6:	99 0f       	add	r25, r25
    31d8:	8d 81       	ldd	r24, Y+5	; 0x05
    31da:	87 78       	andi	r24, 0x87	; 135
    31dc:	89 2b       	or	r24, r25
    31de:	8d 83       	std	Y+5, r24	; 0x05
    31e0:	0e 94 6e 18 	call	0x30dc	; 0x30dc <read_rhythm_track>
    31e4:	8c 81       	ldd	r24, Y+4	; 0x04
    31e6:	87 70       	andi	r24, 0x07	; 7
    31e8:	8c 83       	std	Y+4, r24	; 0x04
    31ea:	8d 81       	ldd	r24, Y+5	; 0x05
    31ec:	8c 7f       	andi	r24, 0xFC	; 252
    31ee:	8d 83       	std	Y+5, r24	; 0x05
    31f0:	80 91 fe 04 	lds	r24, 0x04FE
    31f4:	81 11       	cpse	r24, r1
    31f6:	04 c0       	rjmp	.+8      	; 0x3200 <update_rhythm_track+0x4c>
    31f8:	8d 81       	ldd	r24, Y+5	; 0x05
    31fa:	8b 7f       	andi	r24, 0xFB	; 251
    31fc:	8d 83       	std	Y+5, r24	; 0x05
    31fe:	05 c0       	rjmp	.+10     	; 0x320a <update_rhythm_track+0x56>
    3200:	e4 e9       	ldi	r30, 0x94	; 148
    3202:	f5 e0       	ldi	r31, 0x05	; 5
    3204:	85 81       	ldd	r24, Z+5	; 0x05
    3206:	84 60       	ori	r24, 0x04	; 4
    3208:	85 83       	std	Z+5, r24	; 0x05
    320a:	60 91 be 04 	lds	r22, 0x04BE
    320e:	86 2f       	mov	r24, r22
    3210:	8f 70       	andi	r24, 0x0F	; 15
    3212:	e4 e9       	ldi	r30, 0x94	; 148
    3214:	f5 e0       	ldi	r31, 0x05	; 5
    3216:	36 2f       	mov	r19, r22
    3218:	32 95       	swap	r19
    321a:	33 0f       	add	r19, r19
    321c:	30 7e       	andi	r19, 0xE0	; 224
    321e:	42 81       	ldd	r20, Z+2	; 0x02
    3220:	4e 71       	andi	r20, 0x1E	; 30
    3222:	28 2f       	mov	r18, r24
    3224:	26 95       	lsr	r18
    3226:	26 95       	lsr	r18
    3228:	26 95       	lsr	r18
    322a:	93 81       	ldd	r25, Z+3	; 0x03
    322c:	9e 7f       	andi	r25, 0xFE	; 254
    322e:	92 2b       	or	r25, r18
    3230:	93 83       	std	Z+3, r25	; 0x03
    3232:	91 81       	ldd	r25, Z+1	; 0x01
    3234:	9f 71       	andi	r25, 0x1F	; 31
    3236:	93 2b       	or	r25, r19
    3238:	91 83       	std	Z+1, r25	; 0x01
    323a:	34 2b       	or	r19, r20
    323c:	23 2b       	or	r18, r19
    323e:	22 83       	std	Z+2, r18	; 0x02
    3240:	62 95       	swap	r22
    3242:	6f 70       	andi	r22, 0x0F	; 15
    3244:	ed e8       	ldi	r30, 0x8D	; 141
    3246:	f5 e0       	ldi	r31, 0x05	; 5
    3248:	90 81       	ld	r25, Z
    324a:	90 7f       	andi	r25, 0xF0	; 240
    324c:	96 2b       	or	r25, r22
    324e:	90 83       	st	Z, r25
    3250:	90 91 01 05 	lds	r25, 0x0501
    3254:	95 ff       	sbrs	r25, 5
    3256:	06 c0       	rjmp	.+12     	; 0x3264 <update_rhythm_track+0xb0>
    3258:	e5 ee       	ldi	r30, 0xE5	; 229
    325a:	f2 e0       	ldi	r31, 0x02	; 2
    325c:	80 81       	ld	r24, Z
    325e:	80 62       	ori	r24, 0x20	; 32
    3260:	80 83       	st	Z, r24
    3262:	02 c0       	rjmp	.+4      	; 0x3268 <update_rhythm_track+0xb4>
    3264:	0e 94 5a 10 	call	0x20b4	; 0x20b4 <read_next_pattern>
    3268:	df 91       	pop	r29
    326a:	cf 91       	pop	r28
    326c:	08 95       	ret

0000326e <delete_track_pattern>:
    326e:	90 91 e5 02 	lds	r25, 0x02E5
    3272:	96 fd       	sbrc	r25, 6
    3274:	1a c0       	rjmp	.+52     	; 0x32aa <delete_track_pattern+0x3c>
    3276:	90 e0       	ldi	r25, 0x00	; 0
    3278:	60 91 fe 04 	lds	r22, 0x04FE
    327c:	70 e0       	ldi	r23, 0x00	; 0
    327e:	86 17       	cp	r24, r22
    3280:	97 07       	cpc	r25, r23
    3282:	9c f4       	brge	.+38     	; 0x32aa <delete_track_pattern+0x3c>
    3284:	ac 01       	movw	r20, r24
    3286:	4f 5f       	subi	r20, 0xFF	; 255
    3288:	5f 4f       	sbci	r21, 0xFF	; 255
    328a:	fa 01       	movw	r30, r20
    328c:	e2 54       	subi	r30, 0x42	; 66
    328e:	fb 4f       	sbci	r31, 0xFB	; 251
    3290:	20 81       	ld	r18, Z
    3292:	dc 01       	movw	r26, r24
    3294:	a2 54       	subi	r26, 0x42	; 66
    3296:	bb 4f       	sbci	r27, 0xFB	; 251
    3298:	32 2f       	mov	r19, r18
    329a:	3f 70       	andi	r19, 0x0F	; 15
    329c:	20 7f       	andi	r18, 0xF0	; 240
    329e:	23 2b       	or	r18, r19
    32a0:	2c 93       	st	X, r18
    32a2:	ca 01       	movw	r24, r20
    32a4:	46 17       	cp	r20, r22
    32a6:	57 07       	cpc	r21, r23
    32a8:	6c f3       	brlt	.-38     	; 0x3284 <delete_track_pattern+0x16>
    32aa:	80 91 fe 04 	lds	r24, 0x04FE
    32ae:	88 23       	and	r24, r24
    32b0:	19 f0       	breq	.+6      	; 0x32b8 <delete_track_pattern+0x4a>
    32b2:	81 50       	subi	r24, 0x01	; 1
    32b4:	80 93 fe 04 	sts	0x04FE, r24
    32b8:	08 95       	ret

000032ba <insert_track_pattern>:
    32ba:	20 91 fe 04 	lds	r18, 0x04FE
    32be:	30 e0       	ldi	r19, 0x00	; 0
    32c0:	68 2f       	mov	r22, r24
    32c2:	70 e0       	ldi	r23, 0x00	; 0
    32c4:	62 17       	cp	r22, r18
    32c6:	73 07       	cpc	r23, r19
    32c8:	9c f4       	brge	.+38     	; 0x32f0 <insert_track_pattern+0x36>
    32ca:	a9 01       	movw	r20, r18
    32cc:	41 50       	subi	r20, 0x01	; 1
    32ce:	51 09       	sbc	r21, r1
    32d0:	fa 01       	movw	r30, r20
    32d2:	e2 54       	subi	r30, 0x42	; 66
    32d4:	fb 4f       	sbci	r31, 0xFB	; 251
    32d6:	80 81       	ld	r24, Z
    32d8:	d9 01       	movw	r26, r18
    32da:	a2 54       	subi	r26, 0x42	; 66
    32dc:	bb 4f       	sbci	r27, 0xFB	; 251
    32de:	98 2f       	mov	r25, r24
    32e0:	9f 70       	andi	r25, 0x0F	; 15
    32e2:	80 7f       	andi	r24, 0xF0	; 240
    32e4:	89 2b       	or	r24, r25
    32e6:	8c 93       	st	X, r24
    32e8:	9a 01       	movw	r18, r20
    32ea:	46 17       	cp	r20, r22
    32ec:	57 07       	cpc	r21, r23
    32ee:	69 f7       	brne	.-38     	; 0x32ca <insert_track_pattern+0x10>
    32f0:	08 95       	ret

000032f2 <update_step_board>:
    32f2:	8f 92       	push	r8
    32f4:	9f 92       	push	r9
    32f6:	af 92       	push	r10
    32f8:	bf 92       	push	r11
    32fa:	cf 92       	push	r12
    32fc:	df 92       	push	r13
    32fe:	ef 92       	push	r14
    3300:	ff 92       	push	r15
    3302:	0f 93       	push	r16
    3304:	1f 93       	push	r17
    3306:	cf 93       	push	r28
    3308:	df 93       	push	r29
    330a:	80 91 01 05 	lds	r24, 0x0501
    330e:	85 ff       	sbrs	r24, 5
    3310:	2c c3       	rjmp	.+1624   	; 0x396a <update_step_board+0x678>
    3312:	0e 94 3e 21 	call	0x427c	; 0x427c <check_step_press>
    3316:	c8 2f       	mov	r28, r24
    3318:	8f 3f       	cpi	r24, 0xFF	; 255
    331a:	09 f4       	brne	.+2      	; 0x331e <update_step_board+0x2c>
    331c:	b4 c4       	rjmp	.+2408   	; 0x3c86 <update_step_board+0x994>
    331e:	80 91 ff 04 	lds	r24, 0x04FF
    3322:	83 30       	cpi	r24, 0x03	; 3
    3324:	09 f4       	brne	.+2      	; 0x3328 <update_step_board+0x36>
    3326:	2b c1       	rjmp	.+598    	; 0x357e <update_step_board+0x28c>
    3328:	18 f4       	brcc	.+6      	; 0x3330 <update_step_board+0x3e>
    332a:	81 30       	cpi	r24, 0x01	; 1
    332c:	28 f4       	brcc	.+10     	; 0x3338 <update_step_board+0x46>
    332e:	ab c4       	rjmp	.+2390   	; 0x3c86 <update_step_board+0x994>
    3330:	85 30       	cpi	r24, 0x05	; 5
    3332:	09 f4       	brne	.+2      	; 0x3336 <update_step_board+0x44>
    3334:	84 c1       	rjmp	.+776    	; 0x363e <update_step_board+0x34c>
    3336:	a7 c4       	rjmp	.+2382   	; 0x3c86 <update_step_board+0x994>
    3338:	90 91 01 05 	lds	r25, 0x0501
    333c:	94 ff       	sbrs	r25, 4
    333e:	4d c0       	rjmp	.+154    	; 0x33da <update_step_board+0xe8>
    3340:	0e 94 17 0a 	call	0x142e	; 0x142e <refresh_step_leds>
    3344:	80 91 02 05 	lds	r24, 0x0502
    3348:	80 ff       	sbrs	r24, 0
    334a:	43 c0       	rjmp	.+134    	; 0x33d2 <update_step_board+0xe0>
    334c:	80 91 95 05 	lds	r24, 0x0595
    3350:	98 2f       	mov	r25, r24
    3352:	92 95       	swap	r25
    3354:	96 95       	lsr	r25
    3356:	97 70       	andi	r25, 0x07	; 7
    3358:	80 91 96 05 	lds	r24, 0x0596
    335c:	81 70       	andi	r24, 0x01	; 1
    335e:	88 0f       	add	r24, r24
    3360:	88 0f       	add	r24, r24
    3362:	88 0f       	add	r24, r24
    3364:	89 2b       	or	r24, r25
    3366:	48 2f       	mov	r20, r24
    3368:	50 e0       	ldi	r21, 0x00	; 0
    336a:	2c 2f       	mov	r18, r28
    336c:	30 e0       	ldi	r19, 0x00	; 0
    336e:	42 17       	cp	r20, r18
    3370:	53 07       	cpc	r21, r19
    3372:	09 f4       	brne	.+2      	; 0x3376 <update_step_board+0x84>
    3374:	88 c4       	rjmp	.+2320   	; 0x3c86 <update_step_board+0x994>
    3376:	e5 ee       	ldi	r30, 0xE5	; 229
    3378:	f2 e0       	ldi	r31, 0x02	; 2
    337a:	90 81       	ld	r25, Z
    337c:	90 62       	ori	r25, 0x20	; 32
    337e:	90 83       	st	Z, r25
    3380:	9c 2f       	mov	r25, r28
    3382:	9f 70       	andi	r25, 0x0F	; 15
    3384:	e4 e9       	ldi	r30, 0x94	; 148
    3386:	f5 e0       	ldi	r31, 0x05	; 5
    3388:	39 2f       	mov	r19, r25
    338a:	33 0f       	add	r19, r19
    338c:	22 81       	ldd	r18, Z+2	; 0x02
    338e:	21 70       	andi	r18, 0x01	; 1
    3390:	9c 2e       	mov	r9, r28
    3392:	99 0c       	add	r9, r9
    3394:	99 0c       	add	r9, r9
    3396:	99 0c       	add	r9, r9
    3398:	99 0c       	add	r9, r9
    339a:	99 0c       	add	r9, r9
    339c:	23 2b       	or	r18, r19
    339e:	92 2a       	or	r9, r18
    33a0:	92 82       	std	Z+2, r9	; 0x02
    33a2:	96 95       	lsr	r25
    33a4:	96 95       	lsr	r25
    33a6:	96 95       	lsr	r25
    33a8:	23 81       	ldd	r18, Z+3	; 0x03
    33aa:	2e 7f       	andi	r18, 0xFE	; 254
    33ac:	92 2b       	or	r25, r18
    33ae:	93 83       	std	Z+3, r25	; 0x03
    33b0:	0e 94 4a 08 	call	0x1094	; 0x1094 <turn_off>
    33b4:	90 91 96 05 	lds	r25, 0x0596
    33b8:	92 95       	swap	r25
    33ba:	96 95       	lsr	r25
    33bc:	97 70       	andi	r25, 0x07	; 7
    33be:	80 91 97 05 	lds	r24, 0x0597
    33c2:	81 70       	andi	r24, 0x01	; 1
    33c4:	88 0f       	add	r24, r24
    33c6:	88 0f       	add	r24, r24
    33c8:	88 0f       	add	r24, r24
    33ca:	89 2b       	or	r24, r25
    33cc:	0e 94 2f 08 	call	0x105e	; 0x105e <turn_on>
    33d0:	5a c4       	rjmp	.+2228   	; 0x3c86 <update_step_board+0x994>
    33d2:	8c 2f       	mov	r24, r28
    33d4:	0e 94 b1 0f 	call	0x1f62	; 0x1f62 <update_shuffle>
    33d8:	56 c4       	rjmp	.+2220   	; 0x3c86 <update_step_board+0x994>
    33da:	96 ff       	sbrs	r25, 6
    33dc:	39 c0       	rjmp	.+114    	; 0x3450 <update_step_board+0x15e>
    33de:	e8 e1       	ldi	r30, 0x18	; 24
    33e0:	f2 e0       	ldi	r31, 0x02	; 2
    33e2:	90 81       	ld	r25, Z
    33e4:	9f 7b       	andi	r25, 0xBF	; 191
    33e6:	90 83       	st	Z, r25
    33e8:	c1 11       	cpse	r28, r1
    33ea:	12 c0       	rjmp	.+36     	; 0x3410 <update_step_board+0x11e>
    33ec:	90 91 94 05 	lds	r25, 0x0594
    33f0:	9f 71       	andi	r25, 0x1F	; 31
    33f2:	71 f4       	brne	.+28     	; 0x3410 <update_step_board+0x11e>
    33f4:	82 30       	cpi	r24, 0x02	; 2
    33f6:	61 f4       	brne	.+24     	; 0x3410 <update_step_board+0x11e>
    33f8:	e4 e9       	ldi	r30, 0x94	; 148
    33fa:	f5 e0       	ldi	r31, 0x05	; 5
    33fc:	80 81       	ld	r24, Z
    33fe:	80 7e       	andi	r24, 0xE0	; 224
    3400:	80 61       	ori	r24, 0x10	; 16
    3402:	80 83       	st	Z, r24
    3404:	e5 ee       	ldi	r30, 0xE5	; 229
    3406:	f2 e0       	ldi	r31, 0x02	; 2
    3408:	80 81       	ld	r24, Z
    340a:	80 61       	ori	r24, 0x10	; 16
    340c:	80 83       	st	Z, r24
    340e:	3b c4       	rjmp	.+2166   	; 0x3c86 <update_step_board+0x994>
    3410:	8c 2f       	mov	r24, r28
    3412:	8f 71       	andi	r24, 0x1F	; 31
    3414:	e4 e9       	ldi	r30, 0x94	; 148
    3416:	f5 e0       	ldi	r31, 0x05	; 5
    3418:	90 81       	ld	r25, Z
    341a:	90 7e       	andi	r25, 0xE0	; 224
    341c:	98 2b       	or	r25, r24
    341e:	90 83       	st	Z, r25
    3420:	90 e0       	ldi	r25, 0x00	; 0
    3422:	20 91 95 05 	lds	r18, 0x0595
    3426:	22 fb       	bst	r18, 2
    3428:	88 24       	eor	r8, r8
    342a:	80 f8       	bld	r8, 0
    342c:	91 2c       	mov	r9, r1
    342e:	e4 01       	movw	r28, r8
    3430:	c1 50       	subi	r28, 0x01	; 1
    3432:	db 4f       	sbci	r29, 0xFB	; 251
    3434:	cd 56       	subi	r28, 0x6D	; 109
    3436:	df 4f       	sbci	r29, 0xFF	; 255
    3438:	28 81       	ld	r18, Y
    343a:	30 e0       	ldi	r19, 0x00	; 0
    343c:	82 17       	cp	r24, r18
    343e:	93 07       	cpc	r25, r19
    3440:	09 f4       	brne	.+2      	; 0x3444 <update_step_board+0x152>
    3442:	21 c4       	rjmp	.+2114   	; 0x3c86 <update_step_board+0x994>
    3444:	e5 ee       	ldi	r30, 0xE5	; 229
    3446:	f2 e0       	ldi	r31, 0x02	; 2
    3448:	80 81       	ld	r24, Z
    344a:	80 61       	ori	r24, 0x10	; 16
    344c:	80 83       	st	Z, r24
    344e:	1b c4       	rjmp	.+2102   	; 0x3c86 <update_step_board+0x994>
    3450:	80 91 9a 05 	lds	r24, 0x059A
    3454:	80 31       	cpi	r24, 0x10	; 16
    3456:	09 f0       	breq	.+2      	; 0x345a <update_step_board+0x168>
    3458:	41 c0       	rjmp	.+130    	; 0x34dc <update_step_board+0x1ea>
    345a:	80 91 95 05 	lds	r24, 0x0595
    345e:	82 fb       	bst	r24, 2
    3460:	cc 24       	eor	r12, r12
    3462:	c0 f8       	bld	r12, 0
    3464:	d1 2c       	mov	r13, r1
    3466:	f6 01       	movw	r30, r12
    3468:	e1 50       	subi	r30, 0x01	; 1
    346a:	fb 4f       	sbci	r31, 0xFB	; 251
    346c:	ed 56       	subi	r30, 0x6D	; 109
    346e:	ff 4f       	sbci	r31, 0xFF	; 255
    3470:	80 81       	ld	r24, Z
    3472:	8c 17       	cp	r24, r28
    3474:	08 f4       	brcc	.+2      	; 0x3478 <update_step_board+0x186>
    3476:	07 c4       	rjmp	.+2062   	; 0x3c86 <update_step_board+0x994>
    3478:	8c 2f       	mov	r24, r28
    347a:	0e 94 66 08 	call	0x10cc	; 0x10cc <toggle>
    347e:	20 91 90 05 	lds	r18, 0x0590
    3482:	80 91 95 05 	lds	r24, 0x0595
    3486:	82 fb       	bst	r24, 2
    3488:	aa 24       	eor	r10, r10
    348a:	a0 f8       	bld	r10, 0
    348c:	b1 2c       	mov	r11, r1
    348e:	81 e0       	ldi	r24, 0x01	; 1
    3490:	90 e0       	ldi	r25, 0x00	; 0
    3492:	02 c0       	rjmp	.+4      	; 0x3498 <update_step_board+0x1a6>
    3494:	88 0f       	add	r24, r24
    3496:	99 1f       	adc	r25, r25
    3498:	ca 95       	dec	r28
    349a:	e2 f7       	brpl	.-8      	; 0x3494 <update_step_board+0x1a2>
    349c:	26 95       	lsr	r18
    349e:	21 70       	andi	r18, 0x01	; 1
    34a0:	f5 01       	movw	r30, r10
    34a2:	32 e2       	ldi	r19, 0x22	; 34
    34a4:	23 9f       	mul	r18, r19
    34a6:	e0 0d       	add	r30, r0
    34a8:	f1 1d       	adc	r31, r1
    34aa:	11 24       	eor	r1, r1
    34ac:	ee 0f       	add	r30, r30
    34ae:	ff 1f       	adc	r31, r31
    34b0:	eb 5f       	subi	r30, 0xFB	; 251
    34b2:	fa 4f       	sbci	r31, 0xFA	; 250
    34b4:	20 81       	ld	r18, Z
    34b6:	31 81       	ldd	r19, Z+1	; 0x01
    34b8:	28 27       	eor	r18, r24
    34ba:	39 27       	eor	r19, r25
    34bc:	31 83       	std	Z+1, r19	; 0x01
    34be:	20 83       	st	Z, r18
    34c0:	ee e8       	ldi	r30, 0x8E	; 142
    34c2:	f5 e0       	ldi	r31, 0x05	; 5
    34c4:	20 81       	ld	r18, Z
    34c6:	31 81       	ldd	r19, Z+1	; 0x01
    34c8:	82 27       	eor	r24, r18
    34ca:	93 27       	eor	r25, r19
    34cc:	91 83       	std	Z+1, r25	; 0x01
    34ce:	80 83       	st	Z, r24
    34d0:	e5 ee       	ldi	r30, 0xE5	; 229
    34d2:	f2 e0       	ldi	r31, 0x02	; 2
    34d4:	80 81       	ld	r24, Z
    34d6:	80 61       	ori	r24, 0x10	; 16
    34d8:	80 83       	st	Z, r24
    34da:	d5 c3       	rjmp	.+1962   	; 0x3c86 <update_step_board+0x994>
    34dc:	80 91 95 05 	lds	r24, 0x0595
    34e0:	82 fb       	bst	r24, 2
    34e2:	00 27       	eor	r16, r16
    34e4:	00 f9       	bld	r16, 0
    34e6:	10 e0       	ldi	r17, 0x00	; 0
    34e8:	01 50       	subi	r16, 0x01	; 1
    34ea:	1b 4f       	sbci	r17, 0xFB	; 251
    34ec:	f8 01       	movw	r30, r16
    34ee:	ed 56       	subi	r30, 0x6D	; 109
    34f0:	ff 4f       	sbci	r31, 0xFF	; 255
    34f2:	80 81       	ld	r24, Z
    34f4:	8c 17       	cp	r24, r28
    34f6:	08 f4       	brcc	.+2      	; 0x34fa <update_step_board+0x208>
    34f8:	c6 c3       	rjmp	.+1932   	; 0x3c86 <update_step_board+0x994>
    34fa:	8c 2f       	mov	r24, r28
    34fc:	0e 94 66 08 	call	0x10cc	; 0x10cc <toggle>
    3500:	80 91 90 05 	lds	r24, 0x0590
    3504:	90 91 95 05 	lds	r25, 0x0595
    3508:	92 fb       	bst	r25, 2
    350a:	ee 24       	eor	r14, r14
    350c:	e0 f8       	bld	r14, 0
    350e:	f1 2c       	mov	r15, r1
    3510:	f7 01       	movw	r30, r14
    3512:	e2 95       	swap	r30
    3514:	f2 95       	swap	r31
    3516:	f0 7f       	andi	r31, 0xF0	; 240
    3518:	fe 27       	eor	r31, r30
    351a:	e0 7f       	andi	r30, 0xF0	; 240
    351c:	fe 27       	eor	r31, r30
    351e:	86 95       	lsr	r24
    3520:	81 70       	andi	r24, 0x01	; 1
    3522:	92 e2       	ldi	r25, 0x22	; 34
    3524:	89 9f       	mul	r24, r25
    3526:	e0 0d       	add	r30, r0
    3528:	f1 1d       	adc	r31, r1
    352a:	11 24       	eor	r1, r1
    352c:	ec 0f       	add	r30, r28
    352e:	f1 1d       	adc	r31, r1
    3530:	ee 0f       	add	r30, r30
    3532:	ff 1f       	adc	r31, r31
    3534:	e7 5f       	subi	r30, 0xF7	; 247
    3536:	fa 4f       	sbci	r31, 0xFA	; 250
    3538:	81 e0       	ldi	r24, 0x01	; 1
    353a:	90 e0       	ldi	r25, 0x00	; 0
    353c:	9c 01       	movw	r18, r24
    353e:	00 90 9a 05 	lds	r0, 0x059A
    3542:	02 c0       	rjmp	.+4      	; 0x3548 <update_step_board+0x256>
    3544:	22 0f       	add	r18, r18
    3546:	33 1f       	adc	r19, r19
    3548:	0a 94       	dec	r0
    354a:	e2 f7       	brpl	.-8      	; 0x3544 <update_step_board+0x252>
    354c:	40 81       	ld	r20, Z
    354e:	51 81       	ldd	r21, Z+1	; 0x01
    3550:	24 27       	eor	r18, r20
    3552:	35 27       	eor	r19, r21
    3554:	31 83       	std	Z+1, r19	; 0x01
    3556:	20 83       	st	Z, r18
    3558:	ee e8       	ldi	r30, 0x8E	; 142
    355a:	f5 e0       	ldi	r31, 0x05	; 5
    355c:	02 c0       	rjmp	.+4      	; 0x3562 <update_step_board+0x270>
    355e:	88 0f       	add	r24, r24
    3560:	99 1f       	adc	r25, r25
    3562:	ca 95       	dec	r28
    3564:	e2 f7       	brpl	.-8      	; 0x355e <update_step_board+0x26c>
    3566:	20 81       	ld	r18, Z
    3568:	31 81       	ldd	r19, Z+1	; 0x01
    356a:	82 27       	eor	r24, r18
    356c:	93 27       	eor	r25, r19
    356e:	91 83       	std	Z+1, r25	; 0x01
    3570:	80 83       	st	Z, r24
    3572:	e5 ee       	ldi	r30, 0xE5	; 229
    3574:	f2 e0       	ldi	r31, 0x02	; 2
    3576:	80 81       	ld	r24, Z
    3578:	80 61       	ori	r24, 0x10	; 16
    357a:	80 83       	st	Z, r24
    357c:	84 c3       	rjmp	.+1800   	; 0x3c86 <update_step_board+0x994>
    357e:	80 91 01 05 	lds	r24, 0x0501
    3582:	84 ff       	sbrs	r24, 4
    3584:	23 c0       	rjmp	.+70     	; 0x35cc <update_step_board+0x2da>
    3586:	80 91 02 05 	lds	r24, 0x0502
    358a:	80 ff       	sbrs	r24, 0
    358c:	1b c0       	rjmp	.+54     	; 0x35c4 <update_step_board+0x2d2>
    358e:	cc 30       	cpi	r28, 0x0C	; 12
    3590:	08 f0       	brcs	.+2      	; 0x3594 <update_step_board+0x2a2>
    3592:	79 c3       	rjmp	.+1778   	; 0x3c86 <update_step_board+0x994>
    3594:	80 91 8d 05 	lds	r24, 0x058D
    3598:	8f 70       	andi	r24, 0x0F	; 15
    359a:	8c 17       	cp	r24, r28
    359c:	09 f4       	brne	.+2      	; 0x35a0 <update_step_board+0x2ae>
    359e:	73 c3       	rjmp	.+1766   	; 0x3c86 <update_step_board+0x994>
    35a0:	0e 94 4a 08 	call	0x1094	; 0x1094 <turn_off>
    35a4:	8c 2f       	mov	r24, r28
    35a6:	8f 70       	andi	r24, 0x0F	; 15
    35a8:	98 2f       	mov	r25, r24
    35aa:	92 95       	swap	r25
    35ac:	90 7f       	andi	r25, 0xF0	; 240
    35ae:	98 2b       	or	r25, r24
    35b0:	90 93 8d 05 	sts	0x058D, r25
    35b4:	0e 94 2f 08 	call	0x105e	; 0x105e <turn_on>
    35b8:	e5 ee       	ldi	r30, 0xE5	; 229
    35ba:	f2 e0       	ldi	r31, 0x02	; 2
    35bc:	80 81       	ld	r24, Z
    35be:	80 62       	ori	r24, 0x20	; 32
    35c0:	80 83       	st	Z, r24
    35c2:	61 c3       	rjmp	.+1730   	; 0x3c86 <update_step_board+0x994>
    35c4:	8c 2f       	mov	r24, r28
    35c6:	0e 94 b1 0f 	call	0x1f62	; 0x1f62 <update_shuffle>
    35ca:	5d c3       	rjmp	.+1722   	; 0x3c86 <update_step_board+0x994>
    35cc:	cc 30       	cpi	r28, 0x0C	; 12
    35ce:	60 f5       	brcc	.+88     	; 0x3628 <update_step_board+0x336>
    35d0:	2c 2f       	mov	r18, r28
    35d2:	2f 70       	andi	r18, 0x0F	; 15
    35d4:	e4 e9       	ldi	r30, 0x94	; 148
    35d6:	f5 e0       	ldi	r31, 0x05	; 5
    35d8:	92 2f       	mov	r25, r18
    35da:	99 0f       	add	r25, r25
    35dc:	82 81       	ldd	r24, Z+2	; 0x02
    35de:	81 70       	andi	r24, 0x01	; 1
    35e0:	9c 2e       	mov	r9, r28
    35e2:	99 0c       	add	r9, r9
    35e4:	99 0c       	add	r9, r9
    35e6:	99 0c       	add	r9, r9
    35e8:	99 0c       	add	r9, r9
    35ea:	99 0c       	add	r9, r9
    35ec:	89 2b       	or	r24, r25
    35ee:	89 29       	or	r24, r9
    35f0:	82 83       	std	Z+2, r24	; 0x02
    35f2:	32 2f       	mov	r19, r18
    35f4:	36 95       	lsr	r19
    35f6:	36 95       	lsr	r19
    35f8:	36 95       	lsr	r19
    35fa:	93 81       	ldd	r25, Z+3	; 0x03
    35fc:	9e 7f       	andi	r25, 0xFE	; 254
    35fe:	93 2b       	or	r25, r19
    3600:	93 83       	std	Z+3, r25	; 0x03
    3602:	90 91 95 05 	lds	r25, 0x0595
    3606:	92 95       	swap	r25
    3608:	96 95       	lsr	r25
    360a:	97 70       	andi	r25, 0x07	; 7
    360c:	81 70       	andi	r24, 0x01	; 1
    360e:	88 0f       	add	r24, r24
    3610:	88 0f       	add	r24, r24
    3612:	88 0f       	add	r24, r24
    3614:	89 2b       	or	r24, r25
    3616:	28 17       	cp	r18, r24
    3618:	09 f4       	brne	.+2      	; 0x361c <update_step_board+0x32a>
    361a:	35 c3       	rjmp	.+1642   	; 0x3c86 <update_step_board+0x994>
    361c:	e5 ee       	ldi	r30, 0xE5	; 229
    361e:	f2 e0       	ldi	r31, 0x02	; 2
    3620:	80 81       	ld	r24, Z
    3622:	80 62       	ori	r24, 0x20	; 32
    3624:	80 83       	st	Z, r24
    3626:	2f c3       	rjmp	.+1630   	; 0x3c86 <update_step_board+0x994>
    3628:	e4 e9       	ldi	r30, 0x94	; 148
    362a:	f5 e0       	ldi	r31, 0x05	; 5
    362c:	8c 2f       	mov	r24, r28
    362e:	8f 70       	andi	r24, 0x0F	; 15
    3630:	88 0f       	add	r24, r24
    3632:	93 81       	ldd	r25, Z+3	; 0x03
    3634:	91 7e       	andi	r25, 0xE1	; 225
    3636:	99 2e       	mov	r9, r25
    3638:	98 2a       	or	r9, r24
    363a:	93 82       	std	Z+3, r9	; 0x03
    363c:	24 c3       	rjmp	.+1608   	; 0x3c86 <update_step_board+0x994>
    363e:	80 91 02 05 	lds	r24, 0x0502
    3642:	80 ff       	sbrs	r24, 0
    3644:	3c c0       	rjmp	.+120    	; 0x36be <update_step_board+0x3cc>
    3646:	80 91 01 05 	lds	r24, 0x0501
    364a:	84 fd       	sbrc	r24, 4
    364c:	3c c0       	rjmp	.+120    	; 0x36c6 <update_step_board+0x3d4>
    364e:	cc 30       	cpi	r28, 0x0C	; 12
    3650:	08 f0       	brcs	.+2      	; 0x3654 <update_step_board+0x362>
    3652:	19 c3       	rjmp	.+1586   	; 0x3c86 <update_step_board+0x994>
    3654:	80 91 8d 05 	lds	r24, 0x058D
    3658:	8f 70       	andi	r24, 0x0F	; 15
    365a:	8c 17       	cp	r24, r28
    365c:	09 f4       	brne	.+2      	; 0x3660 <update_step_board+0x36e>
    365e:	13 c3       	rjmp	.+1574   	; 0x3c86 <update_step_board+0x994>
    3660:	0e 94 4a 08 	call	0x1094	; 0x1094 <turn_off>
    3664:	ed e8       	ldi	r30, 0x8D	; 141
    3666:	f5 e0       	ldi	r31, 0x05	; 5
    3668:	8c 2f       	mov	r24, r28
    366a:	8f 70       	andi	r24, 0x0F	; 15
    366c:	90 81       	ld	r25, Z
    366e:	90 7f       	andi	r25, 0xF0	; 240
    3670:	98 2b       	or	r25, r24
    3672:	90 83       	st	Z, r25
    3674:	0e 94 2f 08 	call	0x105e	; 0x105e <turn_on>
    3678:	80 91 99 05 	lds	r24, 0x0599
    367c:	82 ff       	sbrs	r24, 2
    367e:	19 c0       	rjmp	.+50     	; 0x36b2 <update_step_board+0x3c0>
    3680:	e0 91 98 05 	lds	r30, 0x0598
    3684:	8e 2f       	mov	r24, r30
    3686:	86 95       	lsr	r24
    3688:	86 95       	lsr	r24
    368a:	86 95       	lsr	r24
    368c:	e0 91 99 05 	lds	r30, 0x0599
    3690:	e3 70       	andi	r30, 0x03	; 3
    3692:	e2 95       	swap	r30
    3694:	ee 0f       	add	r30, r30
    3696:	e0 7e       	andi	r30, 0xE0	; 224
    3698:	e8 2b       	or	r30, r24
    369a:	f0 e0       	ldi	r31, 0x00	; 0
    369c:	e2 54       	subi	r30, 0x42	; 66
    369e:	fb 4f       	sbci	r31, 0xFB	; 251
    36a0:	80 91 8d 05 	lds	r24, 0x058D
    36a4:	98 2f       	mov	r25, r24
    36a6:	92 95       	swap	r25
    36a8:	90 7f       	andi	r25, 0xF0	; 240
    36aa:	80 81       	ld	r24, Z
    36ac:	8f 70       	andi	r24, 0x0F	; 15
    36ae:	89 2b       	or	r24, r25
    36b0:	80 83       	st	Z, r24
    36b2:	e5 ee       	ldi	r30, 0xE5	; 229
    36b4:	f2 e0       	ldi	r31, 0x02	; 2
    36b6:	80 81       	ld	r24, Z
    36b8:	80 62       	ori	r24, 0x20	; 32
    36ba:	80 83       	st	Z, r24
    36bc:	e4 c2       	rjmp	.+1480   	; 0x3c86 <update_step_board+0x994>
    36be:	80 91 01 05 	lds	r24, 0x0501
    36c2:	84 ff       	sbrs	r24, 4
    36c4:	09 c1       	rjmp	.+530    	; 0x38d8 <update_step_board+0x5e6>
    36c6:	cf 30       	cpi	r28, 0x0F	; 15
    36c8:	09 f0       	breq	.+2      	; 0x36cc <update_step_board+0x3da>
    36ca:	64 c0       	rjmp	.+200    	; 0x3794 <update_step_board+0x4a2>
    36cc:	80 91 98 05 	lds	r24, 0x0598
    36d0:	98 2f       	mov	r25, r24
    36d2:	96 95       	lsr	r25
    36d4:	96 95       	lsr	r25
    36d6:	96 95       	lsr	r25
    36d8:	80 91 99 05 	lds	r24, 0x0599
    36dc:	83 70       	andi	r24, 0x03	; 3
    36de:	82 95       	swap	r24
    36e0:	88 0f       	add	r24, r24
    36e2:	80 7e       	andi	r24, 0xE0	; 224
    36e4:	89 2b       	or	r24, r25
    36e6:	99 f0       	breq	.+38     	; 0x370e <update_step_board+0x41c>
    36e8:	81 58       	subi	r24, 0x81	; 129
    36ea:	98 2f       	mov	r25, r24
    36ec:	9f 77       	andi	r25, 0x7F	; 127
    36ee:	e4 e9       	ldi	r30, 0x94	; 148
    36f0:	f5 e0       	ldi	r31, 0x05	; 5
    36f2:	88 0f       	add	r24, r24
    36f4:	88 0f       	add	r24, r24
    36f6:	88 0f       	add	r24, r24
    36f8:	24 81       	ldd	r18, Z+4	; 0x04
    36fa:	27 70       	andi	r18, 0x07	; 7
    36fc:	82 2b       	or	r24, r18
    36fe:	84 83       	std	Z+4, r24	; 0x04
    3700:	92 95       	swap	r25
    3702:	96 95       	lsr	r25
    3704:	97 70       	andi	r25, 0x07	; 7
    3706:	85 81       	ldd	r24, Z+5	; 0x05
    3708:	8c 7f       	andi	r24, 0xFC	; 252
    370a:	89 2b       	or	r24, r25
    370c:	85 83       	std	Z+5, r24	; 0x05
    370e:	08 e9       	ldi	r16, 0x98	; 152
    3710:	15 e0       	ldi	r17, 0x05	; 5
    3712:	d8 01       	movw	r26, r16
    3714:	9c 91       	ld	r25, X
    3716:	96 95       	lsr	r25
    3718:	96 95       	lsr	r25
    371a:	96 95       	lsr	r25
    371c:	c9 e9       	ldi	r28, 0x99	; 153
    371e:	d5 e0       	ldi	r29, 0x05	; 5
    3720:	88 81       	ld	r24, Y
    3722:	83 70       	andi	r24, 0x03	; 3
    3724:	82 95       	swap	r24
    3726:	88 0f       	add	r24, r24
    3728:	80 7e       	andi	r24, 0xE0	; 224
    372a:	89 2b       	or	r24, r25
    372c:	0e 94 37 19 	call	0x326e	; 0x326e <delete_track_pattern>
    3730:	d8 01       	movw	r26, r16
    3732:	ec 91       	ld	r30, X
    3734:	8e 2f       	mov	r24, r30
    3736:	86 95       	lsr	r24
    3738:	86 95       	lsr	r24
    373a:	86 95       	lsr	r24
    373c:	e8 81       	ld	r30, Y
    373e:	e3 70       	andi	r30, 0x03	; 3
    3740:	e2 95       	swap	r30
    3742:	ee 0f       	add	r30, r30
    3744:	e0 7e       	andi	r30, 0xE0	; 224
    3746:	e8 2b       	or	r30, r24
    3748:	f0 e0       	ldi	r31, 0x00	; 0
    374a:	e2 54       	subi	r30, 0x42	; 66
    374c:	fb 4f       	sbci	r31, 0xFB	; 251
    374e:	80 81       	ld	r24, Z
    3750:	e4 e9       	ldi	r30, 0x94	; 148
    3752:	f5 e0       	ldi	r31, 0x05	; 5
    3754:	28 2f       	mov	r18, r24
    3756:	22 95       	swap	r18
    3758:	22 0f       	add	r18, r18
    375a:	20 7e       	andi	r18, 0xE0	; 224
    375c:	92 81       	ldd	r25, Z+2	; 0x02
    375e:	9f 71       	andi	r25, 0x1F	; 31
    3760:	92 2b       	or	r25, r18
    3762:	92 83       	std	Z+2, r25	; 0x02
    3764:	83 fb       	bst	r24, 3
    3766:	22 27       	eor	r18, r18
    3768:	20 f9       	bld	r18, 0
    376a:	93 81       	ldd	r25, Z+3	; 0x03
    376c:	9e 7f       	andi	r25, 0xFE	; 254
    376e:	92 2b       	or	r25, r18
    3770:	93 83       	std	Z+3, r25	; 0x03
    3772:	ed e8       	ldi	r30, 0x8D	; 141
    3774:	f5 e0       	ldi	r31, 0x05	; 5
    3776:	82 95       	swap	r24
    3778:	8f 70       	andi	r24, 0x0F	; 15
    377a:	90 81       	ld	r25, Z
    377c:	90 7f       	andi	r25, 0xF0	; 240
    377e:	89 2b       	or	r24, r25
    3780:	80 83       	st	Z, r24
    3782:	e5 ee       	ldi	r30, 0xE5	; 229
    3784:	f2 e0       	ldi	r31, 0x02	; 2
    3786:	80 81       	ld	r24, Z
    3788:	80 68       	ori	r24, 0x80	; 128
    378a:	80 83       	st	Z, r24
    378c:	80 81       	ld	r24, Z
    378e:	80 62       	ori	r24, 0x20	; 32
    3790:	80 83       	st	Z, r24
    3792:	79 c2       	rjmp	.+1266   	; 0x3c86 <update_step_board+0x994>
    3794:	ce 30       	cpi	r28, 0x0E	; 14
    3796:	09 f0       	breq	.+2      	; 0x379a <update_step_board+0x4a8>
    3798:	76 c2       	rjmp	.+1260   	; 0x3c86 <update_step_board+0x994>
    379a:	80 91 fe 04 	lds	r24, 0x04FE
    379e:	8f 5f       	subi	r24, 0xFF	; 255
    37a0:	80 34       	cpi	r24, 0x40	; 64
    37a2:	19 f0       	breq	.+6      	; 0x37aa <update_step_board+0x4b8>
    37a4:	80 93 fe 04 	sts	0x04FE, r24
    37a8:	03 c0       	rjmp	.+6      	; 0x37b0 <update_step_board+0x4be>
    37aa:	8f e3       	ldi	r24, 0x3F	; 63
    37ac:	80 93 fe 04 	sts	0x04FE, r24
    37b0:	80 91 e5 02 	lds	r24, 0x02E5
    37b4:	86 fd       	sbrc	r24, 6
    37b6:	50 c0       	rjmp	.+160    	; 0x3858 <update_step_board+0x566>
    37b8:	80 91 98 05 	lds	r24, 0x0598
    37bc:	98 2f       	mov	r25, r24
    37be:	96 95       	lsr	r25
    37c0:	96 95       	lsr	r25
    37c2:	96 95       	lsr	r25
    37c4:	80 91 99 05 	lds	r24, 0x0599
    37c8:	83 70       	andi	r24, 0x03	; 3
    37ca:	82 95       	swap	r24
    37cc:	88 0f       	add	r24, r24
    37ce:	80 7e       	andi	r24, 0xE0	; 224
    37d0:	89 2b       	or	r24, r25
    37d2:	99 f0       	breq	.+38     	; 0x37fa <update_step_board+0x508>
    37d4:	81 58       	subi	r24, 0x81	; 129
    37d6:	98 2f       	mov	r25, r24
    37d8:	9f 77       	andi	r25, 0x7F	; 127
    37da:	e4 e9       	ldi	r30, 0x94	; 148
    37dc:	f5 e0       	ldi	r31, 0x05	; 5
    37de:	88 0f       	add	r24, r24
    37e0:	88 0f       	add	r24, r24
    37e2:	88 0f       	add	r24, r24
    37e4:	24 81       	ldd	r18, Z+4	; 0x04
    37e6:	27 70       	andi	r18, 0x07	; 7
    37e8:	82 2b       	or	r24, r18
    37ea:	84 83       	std	Z+4, r24	; 0x04
    37ec:	92 95       	swap	r25
    37ee:	96 95       	lsr	r25
    37f0:	97 70       	andi	r25, 0x07	; 7
    37f2:	85 81       	ldd	r24, Z+5	; 0x05
    37f4:	8c 7f       	andi	r24, 0xFC	; 252
    37f6:	89 2b       	or	r24, r25
    37f8:	85 83       	std	Z+5, r24	; 0x05
    37fa:	80 91 98 05 	lds	r24, 0x0598
    37fe:	98 2f       	mov	r25, r24
    3800:	96 95       	lsr	r25
    3802:	96 95       	lsr	r25
    3804:	96 95       	lsr	r25
    3806:	80 91 99 05 	lds	r24, 0x0599
    380a:	83 70       	andi	r24, 0x03	; 3
    380c:	82 95       	swap	r24
    380e:	88 0f       	add	r24, r24
    3810:	80 7e       	andi	r24, 0xE0	; 224
    3812:	89 2b       	or	r24, r25
    3814:	e8 2f       	mov	r30, r24
    3816:	f0 e0       	ldi	r31, 0x00	; 0
    3818:	e2 54       	subi	r30, 0x42	; 66
    381a:	fb 4f       	sbci	r31, 0xFB	; 251
    381c:	90 81       	ld	r25, Z
    381e:	ed e8       	ldi	r30, 0x8D	; 141
    3820:	f5 e0       	ldi	r31, 0x05	; 5
    3822:	39 2f       	mov	r19, r25
    3824:	32 95       	swap	r19
    3826:	3f 70       	andi	r19, 0x0F	; 15
    3828:	20 81       	ld	r18, Z
    382a:	20 7f       	andi	r18, 0xF0	; 240
    382c:	23 2b       	or	r18, r19
    382e:	20 83       	st	Z, r18
    3830:	e4 e9       	ldi	r30, 0x94	; 148
    3832:	f5 e0       	ldi	r31, 0x05	; 5
    3834:	39 2f       	mov	r19, r25
    3836:	32 95       	swap	r19
    3838:	33 0f       	add	r19, r19
    383a:	30 7e       	andi	r19, 0xE0	; 224
    383c:	22 81       	ldd	r18, Z+2	; 0x02
    383e:	2f 71       	andi	r18, 0x1F	; 31
    3840:	23 2b       	or	r18, r19
    3842:	22 83       	std	Z+2, r18	; 0x02
    3844:	93 fb       	bst	r25, 3
    3846:	99 27       	eor	r25, r25
    3848:	90 f9       	bld	r25, 0
    384a:	23 81       	ldd	r18, Z+3	; 0x03
    384c:	2e 7f       	andi	r18, 0xFE	; 254
    384e:	92 2b       	or	r25, r18
    3850:	93 83       	std	Z+3, r25	; 0x03
    3852:	0e 94 5d 19 	call	0x32ba	; 0x32ba <insert_track_pattern>
    3856:	14 c0       	rjmp	.+40     	; 0x3880 <update_step_board+0x58e>
    3858:	e4 e9       	ldi	r30, 0x94	; 148
    385a:	f5 e0       	ldi	r31, 0x05	; 5
    385c:	80 91 fe 04 	lds	r24, 0x04FE
    3860:	28 2f       	mov	r18, r24
    3862:	22 0f       	add	r18, r18
    3864:	22 0f       	add	r18, r18
    3866:	22 0f       	add	r18, r18
    3868:	94 81       	ldd	r25, Z+4	; 0x04
    386a:	97 70       	andi	r25, 0x07	; 7
    386c:	92 2b       	or	r25, r18
    386e:	94 83       	std	Z+4, r25	; 0x04
    3870:	82 95       	swap	r24
    3872:	86 95       	lsr	r24
    3874:	87 70       	andi	r24, 0x07	; 7
    3876:	83 70       	andi	r24, 0x03	; 3
    3878:	95 81       	ldd	r25, Z+5	; 0x05
    387a:	9c 7f       	andi	r25, 0xFC	; 252
    387c:	89 2b       	or	r24, r25
    387e:	85 83       	std	Z+5, r24	; 0x05
    3880:	e0 91 98 05 	lds	r30, 0x0598
    3884:	8e 2f       	mov	r24, r30
    3886:	86 95       	lsr	r24
    3888:	86 95       	lsr	r24
    388a:	86 95       	lsr	r24
    388c:	e0 91 99 05 	lds	r30, 0x0599
    3890:	e3 70       	andi	r30, 0x03	; 3
    3892:	e2 95       	swap	r30
    3894:	ee 0f       	add	r30, r30
    3896:	e0 7e       	andi	r30, 0xE0	; 224
    3898:	e8 2b       	or	r30, r24
    389a:	f0 e0       	ldi	r31, 0x00	; 0
    389c:	e2 54       	subi	r30, 0x42	; 66
    389e:	fb 4f       	sbci	r31, 0xFB	; 251
    38a0:	80 91 8d 05 	lds	r24, 0x058D
    38a4:	90 91 96 05 	lds	r25, 0x0596
    38a8:	29 2f       	mov	r18, r25
    38aa:	22 95       	swap	r18
    38ac:	26 95       	lsr	r18
    38ae:	27 70       	andi	r18, 0x07	; 7
    38b0:	90 91 97 05 	lds	r25, 0x0597
    38b4:	91 70       	andi	r25, 0x01	; 1
    38b6:	99 0f       	add	r25, r25
    38b8:	99 0f       	add	r25, r25
    38ba:	99 0f       	add	r25, r25
    38bc:	92 2b       	or	r25, r18
    38be:	82 95       	swap	r24
    38c0:	80 7f       	andi	r24, 0xF0	; 240
    38c2:	89 2b       	or	r24, r25
    38c4:	80 83       	st	Z, r24
    38c6:	e5 ee       	ldi	r30, 0xE5	; 229
    38c8:	f2 e0       	ldi	r31, 0x02	; 2
    38ca:	80 81       	ld	r24, Z
    38cc:	80 62       	ori	r24, 0x20	; 32
    38ce:	80 83       	st	Z, r24
    38d0:	80 81       	ld	r24, Z
    38d2:	80 68       	ori	r24, 0x80	; 128
    38d4:	80 83       	st	Z, r24
    38d6:	d7 c1       	rjmp	.+942    	; 0x3c86 <update_step_board+0x994>
    38d8:	2c 2f       	mov	r18, r28
    38da:	2f 70       	andi	r18, 0x0F	; 15
    38dc:	e4 e9       	ldi	r30, 0x94	; 148
    38de:	f5 e0       	ldi	r31, 0x05	; 5
    38e0:	92 2f       	mov	r25, r18
    38e2:	99 0f       	add	r25, r25
    38e4:	82 81       	ldd	r24, Z+2	; 0x02
    38e6:	81 70       	andi	r24, 0x01	; 1
    38e8:	9c 2e       	mov	r9, r28
    38ea:	99 0c       	add	r9, r9
    38ec:	99 0c       	add	r9, r9
    38ee:	99 0c       	add	r9, r9
    38f0:	99 0c       	add	r9, r9
    38f2:	99 0c       	add	r9, r9
    38f4:	89 2b       	or	r24, r25
    38f6:	89 29       	or	r24, r9
    38f8:	82 83       	std	Z+2, r24	; 0x02
    38fa:	32 2f       	mov	r19, r18
    38fc:	36 95       	lsr	r19
    38fe:	36 95       	lsr	r19
    3900:	36 95       	lsr	r19
    3902:	93 81       	ldd	r25, Z+3	; 0x03
    3904:	9e 7f       	andi	r25, 0xFE	; 254
    3906:	93 2b       	or	r25, r19
    3908:	93 83       	std	Z+3, r25	; 0x03
    390a:	90 91 95 05 	lds	r25, 0x0595
    390e:	92 95       	swap	r25
    3910:	96 95       	lsr	r25
    3912:	97 70       	andi	r25, 0x07	; 7
    3914:	81 70       	andi	r24, 0x01	; 1
    3916:	88 0f       	add	r24, r24
    3918:	88 0f       	add	r24, r24
    391a:	88 0f       	add	r24, r24
    391c:	89 2b       	or	r24, r25
    391e:	28 17       	cp	r18, r24
    3920:	09 f4       	brne	.+2      	; 0x3924 <update_step_board+0x632>
    3922:	b1 c1       	rjmp	.+866    	; 0x3c86 <update_step_board+0x994>
    3924:	e5 ee       	ldi	r30, 0xE5	; 229
    3926:	f2 e0       	ldi	r31, 0x02	; 2
    3928:	80 81       	ld	r24, Z
    392a:	80 62       	ori	r24, 0x20	; 32
    392c:	80 83       	st	Z, r24
    392e:	80 91 99 05 	lds	r24, 0x0599
    3932:	82 ff       	sbrs	r24, 2
    3934:	a8 c1       	rjmp	.+848    	; 0x3c86 <update_step_board+0x994>
    3936:	e0 91 98 05 	lds	r30, 0x0598
    393a:	8e 2f       	mov	r24, r30
    393c:	86 95       	lsr	r24
    393e:	86 95       	lsr	r24
    3940:	86 95       	lsr	r24
    3942:	e0 91 99 05 	lds	r30, 0x0599
    3946:	e3 70       	andi	r30, 0x03	; 3
    3948:	e2 95       	swap	r30
    394a:	ee 0f       	add	r30, r30
    394c:	e0 7e       	andi	r30, 0xE0	; 224
    394e:	e8 2b       	or	r30, r24
    3950:	f0 e0       	ldi	r31, 0x00	; 0
    3952:	e2 54       	subi	r30, 0x42	; 66
    3954:	fb 4f       	sbci	r31, 0xFB	; 251
    3956:	80 81       	ld	r24, Z
    3958:	80 7f       	andi	r24, 0xF0	; 240
    395a:	28 2b       	or	r18, r24
    395c:	20 83       	st	Z, r18
    395e:	e5 ee       	ldi	r30, 0xE5	; 229
    3960:	f2 e0       	ldi	r31, 0x02	; 2
    3962:	80 81       	ld	r24, Z
    3964:	80 68       	ori	r24, 0x80	; 128
    3966:	80 83       	st	Z, r24
    3968:	8e c1       	rjmp	.+796    	; 0x3c86 <update_step_board+0x994>
    396a:	80 91 ff 04 	lds	r24, 0x04FF
    396e:	83 30       	cpi	r24, 0x03	; 3
    3970:	11 f4       	brne	.+4      	; 0x3976 <update_step_board+0x684>
    3972:	0e 94 12 12 	call	0x2424	; 0x2424 <check_tap>
    3976:	0e 94 3e 21 	call	0x427c	; 0x427c <check_step_press>
    397a:	c8 2f       	mov	r28, r24
    397c:	8f 3f       	cpi	r24, 0xFF	; 255
    397e:	09 f4       	brne	.+2      	; 0x3982 <update_step_board+0x690>
    3980:	82 c1       	rjmp	.+772    	; 0x3c86 <update_step_board+0x994>
    3982:	80 91 ff 04 	lds	r24, 0x04FF
    3986:	83 30       	cpi	r24, 0x03	; 3
    3988:	09 f4       	brne	.+2      	; 0x398c <update_step_board+0x69a>
    398a:	a8 c0       	rjmp	.+336    	; 0x3adc <update_step_board+0x7ea>
    398c:	20 f0       	brcs	.+8      	; 0x3996 <update_step_board+0x6a4>
    398e:	85 30       	cpi	r24, 0x05	; 5
    3990:	09 f4       	brne	.+2      	; 0x3994 <update_step_board+0x6a2>
    3992:	15 c1       	rjmp	.+554    	; 0x3bbe <update_step_board+0x8cc>
    3994:	78 c1       	rjmp	.+752    	; 0x3c86 <update_step_board+0x994>
    3996:	80 91 01 05 	lds	r24, 0x0501
    399a:	84 ff       	sbrs	r24, 4
    399c:	59 c0       	rjmp	.+178    	; 0x3a50 <update_step_board+0x75e>
    399e:	80 91 02 05 	lds	r24, 0x0502
    39a2:	80 ff       	sbrs	r24, 0
    39a4:	15 c0       	rjmp	.+42     	; 0x39d0 <update_step_board+0x6de>
    39a6:	80 91 9d 05 	lds	r24, 0x059D
    39aa:	86 95       	lsr	r24
    39ac:	86 95       	lsr	r24
    39ae:	8f 70       	andi	r24, 0x0F	; 15
    39b0:	0e 94 4a 08 	call	0x1094	; 0x1094 <turn_off>
    39b4:	ec e9       	ldi	r30, 0x9C	; 156
    39b6:	f5 e0       	ldi	r31, 0x05	; 5
    39b8:	8c 2f       	mov	r24, r28
    39ba:	8f 70       	andi	r24, 0x0F	; 15
    39bc:	28 2f       	mov	r18, r24
    39be:	22 0f       	add	r18, r18
    39c0:	22 0f       	add	r18, r18
    39c2:	91 81       	ldd	r25, Z+1	; 0x01
    39c4:	93 7c       	andi	r25, 0xC3	; 195
    39c6:	92 2b       	or	r25, r18
    39c8:	91 83       	std	Z+1, r25	; 0x01
    39ca:	0e 94 2f 08 	call	0x105e	; 0x105e <turn_on>
    39ce:	5b c1       	rjmp	.+694    	; 0x3c86 <update_step_board+0x994>
    39d0:	cc 30       	cpi	r28, 0x0C	; 12
    39d2:	08 f0       	brcs	.+2      	; 0x39d6 <update_step_board+0x6e4>
    39d4:	58 c1       	rjmp	.+688    	; 0x3c86 <update_step_board+0x994>
    39d6:	80 91 e5 02 	lds	r24, 0x02E5
    39da:	84 ff       	sbrs	r24, 4
    39dc:	16 c0       	rjmp	.+44     	; 0x3a0a <update_step_board+0x718>
    39de:	e5 ee       	ldi	r30, 0xE5	; 229
    39e0:	f2 e0       	ldi	r31, 0x02	; 2
    39e2:	80 81       	ld	r24, Z
    39e4:	8f 7e       	andi	r24, 0xEF	; 239
    39e6:	80 83       	st	Z, r24
    39e8:	60 91 8d 05 	lds	r22, 0x058D
    39ec:	6f 70       	andi	r22, 0x0F	; 15
    39ee:	90 91 95 05 	lds	r25, 0x0595
    39f2:	92 95       	swap	r25
    39f4:	96 95       	lsr	r25
    39f6:	97 70       	andi	r25, 0x07	; 7
    39f8:	80 91 96 05 	lds	r24, 0x0596
    39fc:	81 70       	andi	r24, 0x01	; 1
    39fe:	88 0f       	add	r24, r24
    3a00:	88 0f       	add	r24, r24
    3a02:	88 0f       	add	r24, r24
    3a04:	89 2b       	or	r24, r25
    3a06:	0e 94 27 13 	call	0x264e	; 0x264e <write_current_pattern>
    3a0a:	0d e8       	ldi	r16, 0x8D	; 141
    3a0c:	15 e0       	ldi	r17, 0x05	; 5
    3a0e:	f8 01       	movw	r30, r16
    3a10:	80 81       	ld	r24, Z
    3a12:	8f 70       	andi	r24, 0x0F	; 15
    3a14:	0e 94 4a 08 	call	0x1094	; 0x1094 <turn_off>
    3a18:	8c 2f       	mov	r24, r28
    3a1a:	8f 70       	andi	r24, 0x0F	; 15
    3a1c:	98 2f       	mov	r25, r24
    3a1e:	92 95       	swap	r25
    3a20:	90 7f       	andi	r25, 0xF0	; 240
    3a22:	98 2b       	or	r25, r24
    3a24:	d8 01       	movw	r26, r16
    3a26:	9c 93       	st	X, r25
    3a28:	0e 94 2f 08 	call	0x105e	; 0x105e <turn_on>
    3a2c:	f8 01       	movw	r30, r16
    3a2e:	60 81       	ld	r22, Z
    3a30:	6f 70       	andi	r22, 0x0F	; 15
    3a32:	90 91 95 05 	lds	r25, 0x0595
    3a36:	92 95       	swap	r25
    3a38:	96 95       	lsr	r25
    3a3a:	97 70       	andi	r25, 0x07	; 7
    3a3c:	80 91 96 05 	lds	r24, 0x0596
    3a40:	81 70       	andi	r24, 0x01	; 1
    3a42:	88 0f       	add	r24, r24
    3a44:	88 0f       	add	r24, r24
    3a46:	88 0f       	add	r24, r24
    3a48:	89 2b       	or	r24, r25
    3a4a:	0e 94 5a 10 	call	0x20b4	; 0x20b4 <read_next_pattern>
    3a4e:	1b c1       	rjmp	.+566    	; 0x3c86 <update_step_board+0x994>
    3a50:	86 ff       	sbrs	r24, 6
    3a52:	1a c0       	rjmp	.+52     	; 0x3a88 <update_step_board+0x796>
    3a54:	80 91 95 05 	lds	r24, 0x0595
    3a58:	98 2f       	mov	r25, r24
    3a5a:	92 95       	swap	r25
    3a5c:	96 95       	lsr	r25
    3a5e:	97 70       	andi	r25, 0x07	; 7
    3a60:	80 91 96 05 	lds	r24, 0x0596
    3a64:	81 70       	andi	r24, 0x01	; 1
    3a66:	88 0f       	add	r24, r24
    3a68:	88 0f       	add	r24, r24
    3a6a:	88 0f       	add	r24, r24
    3a6c:	89 2b       	or	r24, r25
    3a6e:	90 e0       	ldi	r25, 0x00	; 0
    3a70:	2c 2f       	mov	r18, r28
    3a72:	30 e0       	ldi	r19, 0x00	; 0
    3a74:	82 17       	cp	r24, r18
    3a76:	93 07       	cpc	r25, r19
    3a78:	69 f0       	breq	.+26     	; 0x3a94 <update_step_board+0x7a2>
    3a7a:	60 91 8d 05 	lds	r22, 0x058D
    3a7e:	6f 70       	andi	r22, 0x0F	; 15
    3a80:	8c 2f       	mov	r24, r28
    3a82:	0e 94 27 13 	call	0x264e	; 0x264e <write_current_pattern>
    3a86:	06 c0       	rjmp	.+12     	; 0x3a94 <update_step_board+0x7a2>
    3a88:	60 91 8d 05 	lds	r22, 0x058D
    3a8c:	6f 70       	andi	r22, 0x0F	; 15
    3a8e:	8c 2f       	mov	r24, r28
    3a90:	0e 94 5a 10 	call	0x20b4	; 0x20b4 <read_next_pattern>
    3a94:	9c 2f       	mov	r25, r28
    3a96:	9f 70       	andi	r25, 0x0F	; 15
    3a98:	e4 e9       	ldi	r30, 0x94	; 148
    3a9a:	f5 e0       	ldi	r31, 0x05	; 5
    3a9c:	39 2f       	mov	r19, r25
    3a9e:	33 0f       	add	r19, r19
    3aa0:	8c 2f       	mov	r24, r28
    3aa2:	82 95       	swap	r24
    3aa4:	88 0f       	add	r24, r24
    3aa6:	80 7e       	andi	r24, 0xE0	; 224
    3aa8:	96 95       	lsr	r25
    3aaa:	96 95       	lsr	r25
    3aac:	96 95       	lsr	r25
    3aae:	23 81       	ldd	r18, Z+3	; 0x03
    3ab0:	2e 7f       	andi	r18, 0xFE	; 254
    3ab2:	29 2b       	or	r18, r25
    3ab4:	23 83       	std	Z+3, r18	; 0x03
    3ab6:	c1 81       	ldd	r28, Z+1	; 0x01
    3ab8:	23 2f       	mov	r18, r19
    3aba:	28 2b       	or	r18, r24
    3abc:	92 2b       	or	r25, r18
    3abe:	92 83       	std	Z+2, r25	; 0x02
    3ac0:	cc 71       	andi	r28, 0x1C	; 28
    3ac2:	90 81       	ld	r25, Z
    3ac4:	9f 71       	andi	r25, 0x1F	; 31
    3ac6:	90 83       	st	Z, r25
    3ac8:	8c 2b       	or	r24, r28
    3aca:	81 83       	std	Z+1, r24	; 0x01
    3acc:	10 92 01 03 	sts	0x0301, r1
    3ad0:	e4 e0       	ldi	r30, 0x04	; 4
    3ad2:	f3 e0       	ldi	r31, 0x03	; 3
    3ad4:	80 81       	ld	r24, Z
    3ad6:	8c 7f       	andi	r24, 0xFC	; 252
    3ad8:	80 83       	st	Z, r24
    3ada:	d5 c0       	rjmp	.+426    	; 0x3c86 <update_step_board+0x994>
    3adc:	80 91 01 05 	lds	r24, 0x0501
    3ae0:	84 ff       	sbrs	r24, 4
    3ae2:	2b c0       	rjmp	.+86     	; 0x3b3a <update_step_board+0x848>
    3ae4:	80 91 02 05 	lds	r24, 0x0502
    3ae8:	80 ff       	sbrs	r24, 0
    3aea:	cd c0       	rjmp	.+410    	; 0x3c86 <update_step_board+0x994>
    3aec:	cc 30       	cpi	r28, 0x0C	; 12
    3aee:	08 f0       	brcs	.+2      	; 0x3af2 <update_step_board+0x800>
    3af0:	ca c0       	rjmp	.+404    	; 0x3c86 <update_step_board+0x994>
    3af2:	80 91 8d 05 	lds	r24, 0x058D
    3af6:	8f 70       	andi	r24, 0x0F	; 15
    3af8:	8c 17       	cp	r24, r28
    3afa:	09 f4       	brne	.+2      	; 0x3afe <update_step_board+0x80c>
    3afc:	c4 c0       	rjmp	.+392    	; 0x3c86 <update_step_board+0x994>
    3afe:	0e 94 4a 08 	call	0x1094	; 0x1094 <turn_off>
    3b02:	8c 2f       	mov	r24, r28
    3b04:	8f 70       	andi	r24, 0x0F	; 15
    3b06:	cd e8       	ldi	r28, 0x8D	; 141
    3b08:	d5 e0       	ldi	r29, 0x05	; 5
    3b0a:	98 2f       	mov	r25, r24
    3b0c:	92 95       	swap	r25
    3b0e:	90 7f       	andi	r25, 0xF0	; 240
    3b10:	98 2b       	or	r25, r24
    3b12:	98 83       	st	Y, r25
    3b14:	0e 94 2f 08 	call	0x105e	; 0x105e <turn_on>
    3b18:	68 81       	ld	r22, Y
    3b1a:	6f 70       	andi	r22, 0x0F	; 15
    3b1c:	90 91 95 05 	lds	r25, 0x0595
    3b20:	92 95       	swap	r25
    3b22:	96 95       	lsr	r25
    3b24:	97 70       	andi	r25, 0x07	; 7
    3b26:	80 91 96 05 	lds	r24, 0x0596
    3b2a:	81 70       	andi	r24, 0x01	; 1
    3b2c:	88 0f       	add	r24, r24
    3b2e:	88 0f       	add	r24, r24
    3b30:	88 0f       	add	r24, r24
    3b32:	89 2b       	or	r24, r25
    3b34:	0e 94 5a 10 	call	0x20b4	; 0x20b4 <read_next_pattern>
    3b38:	a6 c0       	rjmp	.+332    	; 0x3c86 <update_step_board+0x994>
    3b3a:	cc 30       	cpi	r28, 0x0C	; 12
    3b3c:	b0 f5       	brcc	.+108    	; 0x3baa <update_step_board+0x8b8>
    3b3e:	8c 2f       	mov	r24, r28
    3b40:	8f 70       	andi	r24, 0x0F	; 15
    3b42:	04 e9       	ldi	r16, 0x94	; 148
    3b44:	15 e0       	ldi	r17, 0x05	; 5
    3b46:	38 2f       	mov	r19, r24
    3b48:	33 0f       	add	r19, r19
    3b4a:	c2 95       	swap	r28
    3b4c:	cc 0f       	add	r28, r28
    3b4e:	c0 7e       	andi	r28, 0xE0	; 224
    3b50:	28 2f       	mov	r18, r24
    3b52:	26 95       	lsr	r18
    3b54:	26 95       	lsr	r18
    3b56:	26 95       	lsr	r18
    3b58:	d8 01       	movw	r26, r16
    3b5a:	13 96       	adiw	r26, 0x03	; 3
    3b5c:	9c 91       	ld	r25, X
    3b5e:	13 97       	sbiw	r26, 0x03	; 3
    3b60:	9e 7f       	andi	r25, 0xFE	; 254
    3b62:	92 2b       	or	r25, r18
    3b64:	13 96       	adiw	r26, 0x03	; 3
    3b66:	9c 93       	st	X, r25
    3b68:	13 97       	sbiw	r26, 0x03	; 3
    3b6a:	11 96       	adiw	r26, 0x01	; 1
    3b6c:	9c 91       	ld	r25, X
    3b6e:	11 97       	sbiw	r26, 0x01	; 1
    3b70:	9f 71       	andi	r25, 0x1F	; 31
    3b72:	9c 2b       	or	r25, r28
    3b74:	11 96       	adiw	r26, 0x01	; 1
    3b76:	9c 93       	st	X, r25
    3b78:	11 97       	sbiw	r26, 0x01	; 1
    3b7a:	c3 2b       	or	r28, r19
    3b7c:	2c 2b       	or	r18, r28
    3b7e:	12 96       	adiw	r26, 0x02	; 2
    3b80:	2c 93       	st	X, r18
    3b82:	60 91 8d 05 	lds	r22, 0x058D
    3b86:	6f 70       	andi	r22, 0x0F	; 15
    3b88:	0e 94 5a 10 	call	0x20b4	; 0x20b4 <read_next_pattern>
    3b8c:	f8 01       	movw	r30, r16
    3b8e:	81 81       	ldd	r24, Z+1	; 0x01
    3b90:	90 81       	ld	r25, Z
    3b92:	9f 71       	andi	r25, 0x1F	; 31
    3b94:	90 83       	st	Z, r25
    3b96:	8c 7f       	andi	r24, 0xFC	; 252
    3b98:	81 83       	std	Z+1, r24	; 0x01
    3b9a:	10 92 01 03 	sts	0x0301, r1
    3b9e:	e4 e0       	ldi	r30, 0x04	; 4
    3ba0:	f3 e0       	ldi	r31, 0x03	; 3
    3ba2:	80 81       	ld	r24, Z
    3ba4:	8c 7f       	andi	r24, 0xFC	; 252
    3ba6:	80 83       	st	Z, r24
    3ba8:	6e c0       	rjmp	.+220    	; 0x3c86 <update_step_board+0x994>
    3baa:	e4 e9       	ldi	r30, 0x94	; 148
    3bac:	f5 e0       	ldi	r31, 0x05	; 5
    3bae:	cf 70       	andi	r28, 0x0F	; 15
    3bb0:	8c 2f       	mov	r24, r28
    3bb2:	88 0f       	add	r24, r24
    3bb4:	c3 81       	ldd	r28, Z+3	; 0x03
    3bb6:	c1 7e       	andi	r28, 0xE1	; 225
    3bb8:	c8 2b       	or	r28, r24
    3bba:	c3 83       	std	Z+3, r28	; 0x03
    3bbc:	64 c0       	rjmp	.+200    	; 0x3c86 <update_step_board+0x994>
    3bbe:	80 91 02 05 	lds	r24, 0x0502
    3bc2:	80 ff       	sbrs	r24, 0
    3bc4:	2b c0       	rjmp	.+86     	; 0x3c1c <update_step_board+0x92a>
    3bc6:	80 91 01 05 	lds	r24, 0x0501
    3bca:	84 fd       	sbrc	r24, 4
    3bcc:	27 c0       	rjmp	.+78     	; 0x3c1c <update_step_board+0x92a>
    3bce:	cc 30       	cpi	r28, 0x0C	; 12
    3bd0:	08 f0       	brcs	.+2      	; 0x3bd4 <update_step_board+0x8e2>
    3bd2:	59 c0       	rjmp	.+178    	; 0x3c86 <update_step_board+0x994>
    3bd4:	80 91 8d 05 	lds	r24, 0x058D
    3bd8:	8f 70       	andi	r24, 0x0F	; 15
    3bda:	8c 17       	cp	r24, r28
    3bdc:	09 f4       	brne	.+2      	; 0x3be0 <update_step_board+0x8ee>
    3bde:	53 c0       	rjmp	.+166    	; 0x3c86 <update_step_board+0x994>
    3be0:	0e 94 4a 08 	call	0x1094	; 0x1094 <turn_off>
    3be4:	8c 2f       	mov	r24, r28
    3be6:	8f 70       	andi	r24, 0x0F	; 15
    3be8:	cd e8       	ldi	r28, 0x8D	; 141
    3bea:	d5 e0       	ldi	r29, 0x05	; 5
    3bec:	98 2f       	mov	r25, r24
    3bee:	92 95       	swap	r25
    3bf0:	90 7f       	andi	r25, 0xF0	; 240
    3bf2:	98 2b       	or	r25, r24
    3bf4:	98 83       	st	Y, r25
    3bf6:	0e 94 2f 08 	call	0x105e	; 0x105e <turn_on>
    3bfa:	68 81       	ld	r22, Y
    3bfc:	6f 70       	andi	r22, 0x0F	; 15
    3bfe:	90 91 95 05 	lds	r25, 0x0595
    3c02:	92 95       	swap	r25
    3c04:	96 95       	lsr	r25
    3c06:	97 70       	andi	r25, 0x07	; 7
    3c08:	80 91 96 05 	lds	r24, 0x0596
    3c0c:	81 70       	andi	r24, 0x01	; 1
    3c0e:	88 0f       	add	r24, r24
    3c10:	88 0f       	add	r24, r24
    3c12:	88 0f       	add	r24, r24
    3c14:	89 2b       	or	r24, r25
    3c16:	0e 94 5a 10 	call	0x20b4	; 0x20b4 <read_next_pattern>
    3c1a:	35 c0       	rjmp	.+106    	; 0x3c86 <update_step_board+0x994>
    3c1c:	8c 2f       	mov	r24, r28
    3c1e:	8f 70       	andi	r24, 0x0F	; 15
    3c20:	04 e9       	ldi	r16, 0x94	; 148
    3c22:	15 e0       	ldi	r17, 0x05	; 5
    3c24:	38 2f       	mov	r19, r24
    3c26:	33 0f       	add	r19, r19
    3c28:	c2 95       	swap	r28
    3c2a:	cc 0f       	add	r28, r28
    3c2c:	c0 7e       	andi	r28, 0xE0	; 224
    3c2e:	28 2f       	mov	r18, r24
    3c30:	26 95       	lsr	r18
    3c32:	26 95       	lsr	r18
    3c34:	26 95       	lsr	r18
    3c36:	d8 01       	movw	r26, r16
    3c38:	13 96       	adiw	r26, 0x03	; 3
    3c3a:	9c 91       	ld	r25, X
    3c3c:	13 97       	sbiw	r26, 0x03	; 3
    3c3e:	9e 7f       	andi	r25, 0xFE	; 254
    3c40:	92 2b       	or	r25, r18
    3c42:	13 96       	adiw	r26, 0x03	; 3
    3c44:	9c 93       	st	X, r25
    3c46:	13 97       	sbiw	r26, 0x03	; 3
    3c48:	11 96       	adiw	r26, 0x01	; 1
    3c4a:	9c 91       	ld	r25, X
    3c4c:	11 97       	sbiw	r26, 0x01	; 1
    3c4e:	9f 71       	andi	r25, 0x1F	; 31
    3c50:	9c 2b       	or	r25, r28
    3c52:	11 96       	adiw	r26, 0x01	; 1
    3c54:	9c 93       	st	X, r25
    3c56:	11 97       	sbiw	r26, 0x01	; 1
    3c58:	c3 2b       	or	r28, r19
    3c5a:	c2 2b       	or	r28, r18
    3c5c:	12 96       	adiw	r26, 0x02	; 2
    3c5e:	cc 93       	st	X, r28
    3c60:	60 91 8d 05 	lds	r22, 0x058D
    3c64:	6f 70       	andi	r22, 0x0F	; 15
    3c66:	0e 94 5a 10 	call	0x20b4	; 0x20b4 <read_next_pattern>
    3c6a:	f8 01       	movw	r30, r16
    3c6c:	81 81       	ldd	r24, Z+1	; 0x01
    3c6e:	90 81       	ld	r25, Z
    3c70:	9f 71       	andi	r25, 0x1F	; 31
    3c72:	90 83       	st	Z, r25
    3c74:	8c 7f       	andi	r24, 0xFC	; 252
    3c76:	81 83       	std	Z+1, r24	; 0x01
    3c78:	10 92 01 03 	sts	0x0301, r1
    3c7c:	e4 e0       	ldi	r30, 0x04	; 4
    3c7e:	f3 e0       	ldi	r31, 0x03	; 3
    3c80:	80 81       	ld	r24, Z
    3c82:	8c 7f       	andi	r24, 0xFC	; 252
    3c84:	80 83       	st	Z, r24
    3c86:	df 91       	pop	r29
    3c88:	cf 91       	pop	r28
    3c8a:	1f 91       	pop	r17
    3c8c:	0f 91       	pop	r16
    3c8e:	ff 90       	pop	r15
    3c90:	ef 90       	pop	r14
    3c92:	df 90       	pop	r13
    3c94:	cf 90       	pop	r12
    3c96:	bf 90       	pop	r11
    3c98:	af 90       	pop	r10
    3c9a:	9f 90       	pop	r9
    3c9c:	8f 90       	pop	r8
    3c9e:	08 95       	ret

00003ca0 <spi_shift_byte>:
    3ca0:	80 93 ae 00 	sts	0x00AE, r24
    3ca4:	ed ea       	ldi	r30, 0xAD	; 173
    3ca6:	f0 e0       	ldi	r31, 0x00	; 0
    3ca8:	80 81       	ld	r24, Z
    3caa:	88 23       	and	r24, r24
    3cac:	ec f7       	brge	.-6      	; 0x3ca8 <spi_shift_byte+0x8>
    3cae:	80 91 ae 00 	lds	r24, 0x00AE
    3cb2:	08 95       	ret

00003cb4 <update_spi>:
    3cb4:	cf 93       	push	r28
    3cb6:	df 93       	push	r29
    3cb8:	c5 e4       	ldi	r28, 0x45	; 69
    3cba:	d2 e0       	ldi	r29, 0x02	; 2
    3cbc:	88 81       	ld	r24, Y
    3cbe:	0e 94 50 1e 	call	0x3ca0	; 0x3ca0 <spi_shift_byte>
    3cc2:	89 81       	ldd	r24, Y+1	; 0x01
    3cc4:	0e 94 50 1e 	call	0x3ca0	; 0x3ca0 <spi_shift_byte>
    3cc8:	8a 81       	ldd	r24, Y+2	; 0x02
    3cca:	0e 94 50 1e 	call	0x3ca0	; 0x3ca0 <spi_shift_byte>
    3cce:	8b 81       	ldd	r24, Y+3	; 0x03
    3cd0:	0e 94 50 1e 	call	0x3ca0	; 0x3ca0 <spi_shift_byte>
    3cd4:	8c 81       	ldd	r24, Y+4	; 0x04
    3cd6:	0e 94 50 1e 	call	0x3ca0	; 0x3ca0 <spi_shift_byte>
    3cda:	8d 81       	ldd	r24, Y+5	; 0x05
    3cdc:	0e 94 50 1e 	call	0x3ca0	; 0x3ca0 <spi_shift_byte>
    3ce0:	8e 81       	ldd	r24, Y+6	; 0x06
    3ce2:	0e 94 50 1e 	call	0x3ca0	; 0x3ca0 <spi_shift_byte>
    3ce6:	8f 81       	ldd	r24, Y+7	; 0x07
    3ce8:	0e 94 50 1e 	call	0x3ca0	; 0x3ca0 <spi_shift_byte>
    3cec:	88 85       	ldd	r24, Y+8	; 0x08
    3cee:	0e 94 50 1e 	call	0x3ca0	; 0x3ca0 <spi_shift_byte>
    3cf2:	71 98       	cbi	0x0e, 1	; 14
    3cf4:	71 9a       	sbi	0x0e, 1	; 14
    3cf6:	df 91       	pop	r29
    3cf8:	cf 91       	pop	r28
    3cfa:	08 95       	ret

00003cfc <read_switches>:
    3cfc:	cf 93       	push	r28
    3cfe:	df 93       	push	r29
    3d00:	70 9a       	sbi	0x0e, 0	; 14
    3d02:	80 e0       	ldi	r24, 0x00	; 0
    3d04:	0e 94 50 1e 	call	0x3ca0	; 0x3ca0 <spi_shift_byte>
    3d08:	c0 e4       	ldi	r28, 0x40	; 64
    3d0a:	d2 e0       	ldi	r29, 0x02	; 2
    3d0c:	88 83       	st	Y, r24
    3d0e:	80 e0       	ldi	r24, 0x00	; 0
    3d10:	0e 94 50 1e 	call	0x3ca0	; 0x3ca0 <spi_shift_byte>
    3d14:	89 83       	std	Y+1, r24	; 0x01
    3d16:	80 e0       	ldi	r24, 0x00	; 0
    3d18:	0e 94 50 1e 	call	0x3ca0	; 0x3ca0 <spi_shift_byte>
    3d1c:	8a 83       	std	Y+2, r24	; 0x02
    3d1e:	80 e0       	ldi	r24, 0x00	; 0
    3d20:	0e 94 50 1e 	call	0x3ca0	; 0x3ca0 <spi_shift_byte>
    3d24:	8b 83       	std	Y+3, r24	; 0x03
    3d26:	80 e0       	ldi	r24, 0x00	; 0
    3d28:	0e 94 50 1e 	call	0x3ca0	; 0x3ca0 <spi_shift_byte>
    3d2c:	8c 83       	std	Y+4, r24	; 0x04
    3d2e:	70 98       	cbi	0x0e, 0	; 14
    3d30:	98 81       	ld	r25, Y
    3d32:	29 2f       	mov	r18, r25
    3d34:	26 95       	lsr	r18
    3d36:	e1 e0       	ldi	r30, 0x01	; 1
    3d38:	f5 e0       	ldi	r31, 0x05	; 5
    3d3a:	30 81       	ld	r19, Z
    3d3c:	20 fb       	bst	r18, 0
    3d3e:	34 f9       	bld	r19, 4
    3d40:	49 2f       	mov	r20, r25
    3d42:	46 95       	lsr	r20
    3d44:	46 95       	lsr	r20
    3d46:	21 81       	ldd	r18, Z+1	; 0x01
    3d48:	40 fb       	bst	r20, 0
    3d4a:	20 f9       	bld	r18, 0
    3d4c:	21 83       	std	Z+1, r18	; 0x01
    3d4e:	2a 81       	ldd	r18, Y+2	; 0x02
    3d50:	42 2f       	mov	r20, r18
    3d52:	42 95       	swap	r20
    3d54:	4f 70       	andi	r20, 0x0F	; 15
    3d56:	40 fb       	bst	r20, 0
    3d58:	36 f9       	bld	r19, 6
    3d5a:	30 83       	st	Z, r19
    3d5c:	eb e3       	ldi	r30, 0x3B	; 59
    3d5e:	f2 e0       	ldi	r31, 0x02	; 2
    3d60:	30 81       	ld	r19, Z
    3d62:	93 27       	eor	r25, r19
    3d64:	39 27       	eor	r19, r25
    3d66:	30 83       	st	Z, r19
    3d68:	93 23       	and	r25, r19
    3d6a:	98 83       	st	Y, r25
    3d6c:	31 81       	ldd	r19, Z+1	; 0x01
    3d6e:	99 81       	ldd	r25, Y+1	; 0x01
    3d70:	93 27       	eor	r25, r19
    3d72:	39 27       	eor	r19, r25
    3d74:	31 83       	std	Z+1, r19	; 0x01
    3d76:	93 23       	and	r25, r19
    3d78:	99 83       	std	Y+1, r25	; 0x01
    3d7a:	32 81       	ldd	r19, Z+2	; 0x02
    3d7c:	93 2f       	mov	r25, r19
    3d7e:	92 27       	eor	r25, r18
    3d80:	29 2f       	mov	r18, r25
    3d82:	23 27       	eor	r18, r19
    3d84:	22 83       	std	Z+2, r18	; 0x02
    3d86:	92 23       	and	r25, r18
    3d88:	9a 83       	std	Y+2, r25	; 0x02
    3d8a:	23 81       	ldd	r18, Z+3	; 0x03
    3d8c:	9b 81       	ldd	r25, Y+3	; 0x03
    3d8e:	92 27       	eor	r25, r18
    3d90:	29 27       	eor	r18, r25
    3d92:	23 83       	std	Z+3, r18	; 0x03
    3d94:	92 23       	and	r25, r18
    3d96:	9b 83       	std	Y+3, r25	; 0x03
    3d98:	94 81       	ldd	r25, Z+4	; 0x04
    3d9a:	89 27       	eor	r24, r25
    3d9c:	98 27       	eor	r25, r24
    3d9e:	94 83       	std	Z+4, r25	; 0x04
    3da0:	89 23       	and	r24, r25
    3da2:	8c 83       	std	Y+4, r24	; 0x04
    3da4:	df 91       	pop	r29
    3da6:	cf 91       	pop	r28
    3da8:	08 95       	ret

00003daa <parse_switch_data>:
    3daa:	40 e0       	ldi	r20, 0x00	; 0
    3dac:	50 e0       	ldi	r21, 0x00	; 0
    3dae:	da 01       	movw	r26, r20
    3db0:	aa 50       	subi	r26, 0x0A	; 10
    3db2:	be 4f       	sbci	r27, 0xFE	; 254
    3db4:	8c 91       	ld	r24, X
    3db6:	e8 2f       	mov	r30, r24
    3db8:	e6 95       	lsr	r30
    3dba:	e6 95       	lsr	r30
    3dbc:	e6 95       	lsr	r30
    3dbe:	e7 70       	andi	r30, 0x07	; 7
    3dc0:	f0 e0       	ldi	r31, 0x00	; 0
    3dc2:	e0 5c       	subi	r30, 0xC0	; 192
    3dc4:	fd 4f       	sbci	r31, 0xFD	; 253
    3dc6:	20 81       	ld	r18, Z
    3dc8:	30 e0       	ldi	r19, 0x00	; 0
    3dca:	98 2f       	mov	r25, r24
    3dcc:	97 70       	andi	r25, 0x07	; 7
    3dce:	02 c0       	rjmp	.+4      	; 0x3dd4 <parse_switch_data+0x2a>
    3dd0:	35 95       	asr	r19
    3dd2:	27 95       	ror	r18
    3dd4:	9a 95       	dec	r25
    3dd6:	e2 f7       	brpl	.-8      	; 0x3dd0 <parse_switch_data+0x26>
    3dd8:	21 70       	andi	r18, 0x01	; 1
    3dda:	86 fb       	bst	r24, 6
    3ddc:	99 27       	eor	r25, r25
    3dde:	90 f9       	bld	r25, 0
    3de0:	29 27       	eor	r18, r25
    3de2:	20 fb       	bst	r18, 0
    3de4:	86 f9       	bld	r24, 6
    3de6:	8c 93       	st	X, r24
    3de8:	4f 5f       	subi	r20, 0xFF	; 255
    3dea:	5f 4f       	sbci	r21, 0xFF	; 255
    3dec:	43 32       	cpi	r20, 0x23	; 35
    3dee:	51 05       	cpc	r21, r1
    3df0:	f1 f6       	brne	.-68     	; 0x3dae <parse_switch_data+0x4>
    3df2:	08 95       	ret

00003df4 <check_write_sw>:
    3df4:	80 91 12 02 	lds	r24, 0x0212
    3df8:	86 ff       	sbrs	r24, 6
    3dfa:	d1 c0       	rjmp	.+418    	; 0x3f9e <check_write_sw+0x1aa>
    3dfc:	e2 e1       	ldi	r30, 0x12	; 18
    3dfe:	f2 e0       	ldi	r31, 0x02	; 2
    3e00:	8f 7b       	andi	r24, 0xBF	; 191
    3e02:	80 83       	st	Z, r24
    3e04:	80 91 ff 04 	lds	r24, 0x04FF
    3e08:	85 30       	cpi	r24, 0x05	; 5
    3e0a:	09 f0       	breq	.+2      	; 0x3e0e <check_write_sw+0x1a>
    3e0c:	c8 c0       	rjmp	.+400    	; 0x3f9e <check_write_sw+0x1aa>
    3e0e:	80 91 02 05 	lds	r24, 0x0502
    3e12:	80 fd       	sbrc	r24, 0
    3e14:	c4 c0       	rjmp	.+392    	; 0x3f9e <check_write_sw+0x1aa>
    3e16:	80 91 99 05 	lds	r24, 0x0599
    3e1a:	82 ff       	sbrs	r24, 2
    3e1c:	76 c0       	rjmp	.+236    	; 0x3f0a <check_write_sw+0x116>
    3e1e:	80 91 98 05 	lds	r24, 0x0598
    3e22:	98 2f       	mov	r25, r24
    3e24:	96 95       	lsr	r25
    3e26:	96 95       	lsr	r25
    3e28:	96 95       	lsr	r25
    3e2a:	80 91 99 05 	lds	r24, 0x0599
    3e2e:	83 70       	andi	r24, 0x03	; 3
    3e30:	82 95       	swap	r24
    3e32:	88 0f       	add	r24, r24
    3e34:	80 7e       	andi	r24, 0xE0	; 224
    3e36:	89 2b       	or	r24, r25
    3e38:	8f 5f       	subi	r24, 0xFF	; 255
    3e3a:	8f 77       	andi	r24, 0x7F	; 127
    3e3c:	e4 e9       	ldi	r30, 0x94	; 148
    3e3e:	f5 e0       	ldi	r31, 0x05	; 5
    3e40:	28 2f       	mov	r18, r24
    3e42:	22 0f       	add	r18, r18
    3e44:	22 0f       	add	r18, r18
    3e46:	22 0f       	add	r18, r18
    3e48:	94 81       	ldd	r25, Z+4	; 0x04
    3e4a:	97 70       	andi	r25, 0x07	; 7
    3e4c:	92 2b       	or	r25, r18
    3e4e:	94 83       	std	Z+4, r25	; 0x04
    3e50:	28 2f       	mov	r18, r24
    3e52:	22 95       	swap	r18
    3e54:	26 95       	lsr	r18
    3e56:	27 70       	andi	r18, 0x07	; 7
    3e58:	95 81       	ldd	r25, Z+5	; 0x05
    3e5a:	9c 7f       	andi	r25, 0xFC	; 252
    3e5c:	92 2b       	or	r25, r18
    3e5e:	95 83       	std	Z+5, r25	; 0x05
    3e60:	20 91 fe 04 	lds	r18, 0x04FE
    3e64:	90 e0       	ldi	r25, 0x00	; 0
    3e66:	42 2f       	mov	r20, r18
    3e68:	50 e0       	ldi	r21, 0x00	; 0
    3e6a:	48 17       	cp	r20, r24
    3e6c:	59 07       	cpc	r21, r25
    3e6e:	bc f4       	brge	.+46     	; 0x3e9e <check_write_sw+0xaa>
    3e70:	92 2f       	mov	r25, r18
    3e72:	99 0f       	add	r25, r25
    3e74:	99 0f       	add	r25, r25
    3e76:	99 0f       	add	r25, r25
    3e78:	84 81       	ldd	r24, Z+4	; 0x04
    3e7a:	87 70       	andi	r24, 0x07	; 7
    3e7c:	89 2b       	or	r24, r25
    3e7e:	84 83       	std	Z+4, r24	; 0x04
    3e80:	22 95       	swap	r18
    3e82:	26 95       	lsr	r18
    3e84:	27 70       	andi	r18, 0x07	; 7
    3e86:	82 2f       	mov	r24, r18
    3e88:	83 70       	andi	r24, 0x03	; 3
    3e8a:	25 81       	ldd	r18, Z+5	; 0x05
    3e8c:	2c 7f       	andi	r18, 0xFC	; 252
    3e8e:	28 2b       	or	r18, r24
    3e90:	25 83       	std	Z+5, r18	; 0x05
    3e92:	e5 ee       	ldi	r30, 0xE5	; 229
    3e94:	f2 e0       	ldi	r31, 0x02	; 2
    3e96:	80 81       	ld	r24, Z
    3e98:	80 64       	ori	r24, 0x40	; 64
    3e9a:	80 83       	st	Z, r24
    3e9c:	05 c0       	rjmp	.+10     	; 0x3ea8 <check_write_sw+0xb4>
    3e9e:	e5 ee       	ldi	r30, 0xE5	; 229
    3ea0:	f2 e0       	ldi	r31, 0x02	; 2
    3ea2:	80 81       	ld	r24, Z
    3ea4:	8f 7b       	andi	r24, 0xBF	; 191
    3ea6:	80 83       	st	Z, r24
    3ea8:	e0 91 98 05 	lds	r30, 0x0598
    3eac:	8e 2f       	mov	r24, r30
    3eae:	86 95       	lsr	r24
    3eb0:	86 95       	lsr	r24
    3eb2:	86 95       	lsr	r24
    3eb4:	e0 91 99 05 	lds	r30, 0x0599
    3eb8:	e3 70       	andi	r30, 0x03	; 3
    3eba:	e2 95       	swap	r30
    3ebc:	ee 0f       	add	r30, r30
    3ebe:	e0 7e       	andi	r30, 0xE0	; 224
    3ec0:	e8 2b       	or	r30, r24
    3ec2:	f0 e0       	ldi	r31, 0x00	; 0
    3ec4:	e2 54       	subi	r30, 0x42	; 66
    3ec6:	fb 4f       	sbci	r31, 0xFB	; 251
    3ec8:	80 81       	ld	r24, Z
    3eca:	ed e8       	ldi	r30, 0x8D	; 141
    3ecc:	f5 e0       	ldi	r31, 0x05	; 5
    3ece:	28 2f       	mov	r18, r24
    3ed0:	22 95       	swap	r18
    3ed2:	2f 70       	andi	r18, 0x0F	; 15
    3ed4:	90 81       	ld	r25, Z
    3ed6:	90 7f       	andi	r25, 0xF0	; 240
    3ed8:	92 2b       	or	r25, r18
    3eda:	90 83       	st	Z, r25
    3edc:	e4 e9       	ldi	r30, 0x94	; 148
    3ede:	f5 e0       	ldi	r31, 0x05	; 5
    3ee0:	28 2f       	mov	r18, r24
    3ee2:	22 95       	swap	r18
    3ee4:	22 0f       	add	r18, r18
    3ee6:	20 7e       	andi	r18, 0xE0	; 224
    3ee8:	92 81       	ldd	r25, Z+2	; 0x02
    3eea:	9f 71       	andi	r25, 0x1F	; 31
    3eec:	92 2b       	or	r25, r18
    3eee:	92 83       	std	Z+2, r25	; 0x02
    3ef0:	83 fb       	bst	r24, 3
    3ef2:	99 27       	eor	r25, r25
    3ef4:	90 f9       	bld	r25, 0
    3ef6:	83 81       	ldd	r24, Z+3	; 0x03
    3ef8:	8e 7f       	andi	r24, 0xFE	; 254
    3efa:	89 2b       	or	r24, r25
    3efc:	83 83       	std	Z+3, r24	; 0x03
    3efe:	e5 ee       	ldi	r30, 0xE5	; 229
    3f00:	f2 e0       	ldi	r31, 0x02	; 2
    3f02:	80 81       	ld	r24, Z
    3f04:	80 62       	ori	r24, 0x20	; 32
    3f06:	80 83       	st	Z, r24
    3f08:	08 95       	ret
    3f0a:	80 91 98 05 	lds	r24, 0x0598
    3f0e:	98 2f       	mov	r25, r24
    3f10:	96 95       	lsr	r25
    3f12:	96 95       	lsr	r25
    3f14:	96 95       	lsr	r25
    3f16:	80 91 99 05 	lds	r24, 0x0599
    3f1a:	83 70       	andi	r24, 0x03	; 3
    3f1c:	82 95       	swap	r24
    3f1e:	88 0f       	add	r24, r24
    3f20:	80 7e       	andi	r24, 0xE0	; 224
    3f22:	89 2b       	or	r24, r25
    3f24:	e8 2f       	mov	r30, r24
    3f26:	f0 e0       	ldi	r31, 0x00	; 0
    3f28:	e2 54       	subi	r30, 0x42	; 66
    3f2a:	fb 4f       	sbci	r31, 0xFB	; 251
    3f2c:	90 91 8d 05 	lds	r25, 0x058D
    3f30:	20 91 96 05 	lds	r18, 0x0596
    3f34:	32 2f       	mov	r19, r18
    3f36:	32 95       	swap	r19
    3f38:	36 95       	lsr	r19
    3f3a:	37 70       	andi	r19, 0x07	; 7
    3f3c:	20 91 97 05 	lds	r18, 0x0597
    3f40:	21 70       	andi	r18, 0x01	; 1
    3f42:	22 0f       	add	r18, r18
    3f44:	22 0f       	add	r18, r18
    3f46:	22 0f       	add	r18, r18
    3f48:	23 2b       	or	r18, r19
    3f4a:	92 95       	swap	r25
    3f4c:	90 7f       	andi	r25, 0xF0	; 240
    3f4e:	92 2b       	or	r25, r18
    3f50:	90 83       	st	Z, r25
    3f52:	80 93 fe 04 	sts	0x04FE, r24
    3f56:	8f 5f       	subi	r24, 0xFF	; 255
    3f58:	8f 77       	andi	r24, 0x7F	; 127
    3f5a:	80 34       	cpi	r24, 0x40	; 64
    3f5c:	91 f0       	breq	.+36     	; 0x3f82 <check_write_sw+0x18e>
    3f5e:	e4 e9       	ldi	r30, 0x94	; 148
    3f60:	f5 e0       	ldi	r31, 0x05	; 5
    3f62:	28 2f       	mov	r18, r24
    3f64:	22 0f       	add	r18, r18
    3f66:	22 0f       	add	r18, r18
    3f68:	22 0f       	add	r18, r18
    3f6a:	94 81       	ldd	r25, Z+4	; 0x04
    3f6c:	97 70       	andi	r25, 0x07	; 7
    3f6e:	92 2b       	or	r25, r18
    3f70:	94 83       	std	Z+4, r25	; 0x04
    3f72:	82 95       	swap	r24
    3f74:	86 95       	lsr	r24
    3f76:	87 70       	andi	r24, 0x07	; 7
    3f78:	95 81       	ldd	r25, Z+5	; 0x05
    3f7a:	9c 7f       	andi	r25, 0xFC	; 252
    3f7c:	89 2b       	or	r24, r25
    3f7e:	85 83       	std	Z+5, r24	; 0x05
    3f80:	09 c0       	rjmp	.+18     	; 0x3f94 <check_write_sw+0x1a0>
    3f82:	e4 e9       	ldi	r30, 0x94	; 148
    3f84:	f5 e0       	ldi	r31, 0x05	; 5
    3f86:	84 81       	ldd	r24, Z+4	; 0x04
    3f88:	88 6f       	ori	r24, 0xF8	; 248
    3f8a:	84 83       	std	Z+4, r24	; 0x04
    3f8c:	85 81       	ldd	r24, Z+5	; 0x05
    3f8e:	8c 7f       	andi	r24, 0xFC	; 252
    3f90:	81 60       	ori	r24, 0x01	; 1
    3f92:	85 83       	std	Z+5, r24	; 0x05
    3f94:	e5 ee       	ldi	r30, 0xE5	; 229
    3f96:	f2 e0       	ldi	r31, 0x02	; 2
    3f98:	80 81       	ld	r24, Z
    3f9a:	80 68       	ori	r24, 0x80	; 128
    3f9c:	80 83       	st	Z, r24
    3f9e:	08 95       	ret

00003fa0 <check_start_stop_tap>:
    3fa0:	93 b1       	in	r25, 0x03	; 3
    3fa2:	29 2f       	mov	r18, r25
    3fa4:	26 95       	lsr	r18
    3fa6:	26 95       	lsr	r18
    3fa8:	e1 e0       	ldi	r30, 0x01	; 1
    3faa:	f5 e0       	ldi	r31, 0x05	; 5
    3fac:	80 81       	ld	r24, Z
    3fae:	20 fb       	bst	r18, 0
    3fb0:	87 f9       	bld	r24, 7
    3fb2:	80 83       	st	Z, r24
    3fb4:	80 91 4e 02 	lds	r24, 0x024E
    3fb8:	98 27       	eor	r25, r24
    3fba:	89 27       	eor	r24, r25
    3fbc:	80 93 4e 02 	sts	0x024E, r24
    3fc0:	89 23       	and	r24, r25
    3fc2:	82 fd       	sbrc	r24, 2
    3fc4:	03 c0       	rjmp	.+6      	; 0x3fcc <check_start_stop_tap+0x2c>
    3fc6:	80 93 4f 02 	sts	0x024F, r24
    3fca:	09 c0       	rjmp	.+18     	; 0x3fde <check_start_stop_tap+0x3e>
    3fcc:	94 e0       	ldi	r25, 0x04	; 4
    3fce:	89 27       	eor	r24, r25
    3fd0:	80 93 4f 02 	sts	0x024F, r24
    3fd4:	e6 ee       	ldi	r30, 0xE6	; 230
    3fd6:	f2 e0       	ldi	r31, 0x02	; 2
    3fd8:	80 81       	ld	r24, Z
    3fda:	84 60       	ori	r24, 0x04	; 4
    3fdc:	80 83       	st	Z, r24
    3fde:	80 91 0b 03 	lds	r24, 0x030B
    3fe2:	81 30       	cpi	r24, 0x01	; 1
    3fe4:	21 f4       	brne	.+8      	; 0x3fee <check_start_stop_tap+0x4e>
    3fe6:	80 91 00 05 	lds	r24, 0x0500
    3fea:	84 30       	cpi	r24, 0x04	; 4
    3fec:	c9 f4       	brne	.+50     	; 0x4020 <check_start_stop_tap+0x80>
    3fee:	e1 e0       	ldi	r30, 0x01	; 1
    3ff0:	f5 e0       	ldi	r31, 0x05	; 5
    3ff2:	80 81       	ld	r24, Z
    3ff4:	85 fb       	bst	r24, 5
    3ff6:	22 27       	eor	r18, r18
    3ff8:	20 f9       	bld	r18, 0
    3ffa:	90 91 4f 02 	lds	r25, 0x024F
    3ffe:	96 95       	lsr	r25
    4000:	92 27       	eor	r25, r18
    4002:	90 fb       	bst	r25, 0
    4004:	85 f9       	bld	r24, 5
    4006:	80 83       	st	Z, r24
    4008:	85 ff       	sbrs	r24, 5
    400a:	08 c0       	rjmp	.+16     	; 0x401c <check_start_stop_tap+0x7c>
    400c:	21 11       	cpse	r18, r1
    400e:	08 c0       	rjmp	.+16     	; 0x4020 <check_start_stop_tap+0x80>
    4010:	0e 94 1a 0f 	call	0x1e34	; 0x1e34 <process_start>
    4014:	08 95       	ret
    4016:	0e 94 d4 10 	call	0x21a8	; 0x21a8 <process_stop>
    401a:	08 95       	ret
    401c:	21 30       	cpi	r18, 0x01	; 1
    401e:	d9 f3       	breq	.-10     	; 0x4016 <check_start_stop_tap+0x76>
    4020:	08 95       	ret

00004022 <check_variation_switches>:
    4022:	80 91 14 02 	lds	r24, 0x0214
    4026:	86 ff       	sbrs	r24, 6
    4028:	3b c0       	rjmp	.+118    	; 0x40a0 <check_variation_switches+0x7e>
    402a:	90 91 01 05 	lds	r25, 0x0501
    402e:	94 fd       	sbrc	r25, 4
    4030:	37 c0       	rjmp	.+110    	; 0x40a0 <check_variation_switches+0x7e>
    4032:	e4 e1       	ldi	r30, 0x14	; 20
    4034:	f2 e0       	ldi	r31, 0x02	; 2
    4036:	8f 7b       	andi	r24, 0xBF	; 191
    4038:	80 83       	st	Z, r24
    403a:	80 91 ff 04 	lds	r24, 0x04FF
    403e:	81 11       	cpse	r24, r1
    4040:	0e c0       	rjmp	.+28     	; 0x405e <check_variation_switches+0x3c>
    4042:	80 91 0b 03 	lds	r24, 0x030B
    4046:	81 30       	cpi	r24, 0x01	; 1
    4048:	51 f4       	brne	.+20     	; 0x405e <check_variation_switches+0x3c>
    404a:	80 91 01 03 	lds	r24, 0x0301
    404e:	88 23       	and	r24, r24
    4050:	39 f1       	breq	.+78     	; 0x40a0 <check_variation_switches+0x7e>
    4052:	ef ef       	ldi	r30, 0xFF	; 255
    4054:	f2 e0       	ldi	r31, 0x02	; 2
    4056:	82 81       	ldd	r24, Z+2	; 0x02
    4058:	81 50       	subi	r24, 0x01	; 1
    405a:	82 83       	std	Z+2, r24	; 0x02
    405c:	08 95       	ret
    405e:	e1 e9       	ldi	r30, 0x91	; 145
    4060:	f5 e0       	ldi	r31, 0x05	; 5
    4062:	80 81       	ld	r24, Z
    4064:	8f 5f       	subi	r24, 0xFF	; 255
    4066:	80 83       	st	Z, r24
    4068:	83 30       	cpi	r24, 0x03	; 3
    406a:	29 f4       	brne	.+10     	; 0x4076 <check_variation_switches+0x54>
    406c:	10 92 91 05 	sts	0x0591, r1
    4070:	95 ff       	sbrs	r25, 5
    4072:	0b c0       	rjmp	.+22     	; 0x408a <check_variation_switches+0x68>
    4074:	02 c0       	rjmp	.+4      	; 0x407a <check_variation_switches+0x58>
    4076:	95 ff       	sbrs	r25, 5
    4078:	06 c0       	rjmp	.+12     	; 0x4086 <check_variation_switches+0x64>
    407a:	e5 ee       	ldi	r30, 0xE5	; 229
    407c:	f2 e0       	ldi	r31, 0x02	; 2
    407e:	80 81       	ld	r24, Z
    4080:	84 60       	ori	r24, 0x04	; 4
    4082:	80 83       	st	Z, r24
    4084:	08 95       	ret
    4086:	8d 7f       	andi	r24, 0xFD	; 253
    4088:	31 f4       	brne	.+12     	; 0x4096 <check_variation_switches+0x74>
    408a:	e0 e9       	ldi	r30, 0x90	; 144
    408c:	f5 e0       	ldi	r31, 0x05	; 5
    408e:	80 81       	ld	r24, Z
    4090:	8d 7f       	andi	r24, 0xFD	; 253
    4092:	80 83       	st	Z, r24
    4094:	08 95       	ret
    4096:	e0 e9       	ldi	r30, 0x90	; 144
    4098:	f5 e0       	ldi	r31, 0x05	; 5
    409a:	80 81       	ld	r24, Z
    409c:	82 60       	ori	r24, 0x02	; 2
    409e:	80 83       	st	Z, r24
    40a0:	08 95       	ret

000040a2 <check_clear_switch>:
    40a2:	ef 92       	push	r14
    40a4:	ff 92       	push	r15
    40a6:	0f 93       	push	r16
    40a8:	1f 93       	push	r17
    40aa:	cf 93       	push	r28
    40ac:	df 93       	push	r29
    40ae:	80 91 01 05 	lds	r24, 0x0501
    40b2:	84 fd       	sbrc	r24, 4
    40b4:	dc c0       	rjmp	.+440    	; 0x426e <check_clear_switch+0x1cc>
    40b6:	86 ff       	sbrs	r24, 6
    40b8:	b9 c0       	rjmp	.+370    	; 0x422c <check_clear_switch+0x18a>
    40ba:	e8 e1       	ldi	r30, 0x18	; 24
    40bc:	f2 e0       	ldi	r31, 0x02	; 2
    40be:	80 81       	ld	r24, Z
    40c0:	8f 7b       	andi	r24, 0xBF	; 191
    40c2:	80 83       	st	Z, r24
    40c4:	80 91 ff 04 	lds	r24, 0x04FF
    40c8:	88 23       	and	r24, r24
    40ca:	21 f0       	breq	.+8      	; 0x40d4 <check_clear_switch+0x32>
    40cc:	85 30       	cpi	r24, 0x05	; 5
    40ce:	09 f4       	brne	.+2      	; 0x40d2 <check_clear_switch+0x30>
    40d0:	70 c0       	rjmp	.+224    	; 0x41b2 <check_clear_switch+0x110>
    40d2:	cd c0       	rjmp	.+410    	; 0x426e <check_clear_switch+0x1cc>
    40d4:	e1 eb       	ldi	r30, 0xB1	; 177
    40d6:	f0 e0       	ldi	r31, 0x00	; 0
    40d8:	80 81       	ld	r24, Z
    40da:	87 60       	ori	r24, 0x07	; 7
    40dc:	80 83       	st	Z, r24
    40de:	a0 eb       	ldi	r26, 0xB0	; 176
    40e0:	b0 e0       	ldi	r27, 0x00	; 0
    40e2:	8c 91       	ld	r24, X
    40e4:	8c 93       	st	X, r24
    40e6:	20 e7       	ldi	r18, 0x70	; 112
    40e8:	30 e0       	ldi	r19, 0x00	; 0
    40ea:	e9 01       	movw	r28, r18
    40ec:	88 81       	ld	r24, Y
    40ee:	82 60       	ori	r24, 0x02	; 2
    40f0:	88 83       	st	Y, r24
    40f2:	8c 91       	ld	r24, X
    40f4:	81 60       	ori	r24, 0x01	; 1
    40f6:	8c 93       	st	X, r24
    40f8:	80 81       	ld	r24, Z
    40fa:	88 60       	ori	r24, 0x08	; 8
    40fc:	80 83       	st	Z, r24
    40fe:	8c e8       	ldi	r24, 0x8C	; 140
    4100:	80 93 b3 00 	sts	0x00B3, r24
    4104:	80 91 e7 02 	lds	r24, 0x02E7
    4108:	81 ff       	sbrs	r24, 1
    410a:	08 c0       	rjmp	.+16     	; 0x411c <check_clear_switch+0x7a>
    410c:	e7 ee       	ldi	r30, 0xE7	; 231
    410e:	f2 e0       	ldi	r31, 0x02	; 2
    4110:	80 81       	ld	r24, Z
    4112:	8d 7f       	andi	r24, 0xFD	; 253
    4114:	80 83       	st	Z, r24
    4116:	8c e1       	ldi	r24, 0x1C	; 28
    4118:	0e 94 66 08 	call	0x10cc	; 0x10cc <toggle>
    411c:	a0 e9       	ldi	r26, 0x90	; 144
    411e:	b5 e0       	ldi	r27, 0x05	; 5
    4120:	8c 91       	ld	r24, X
    4122:	81 fb       	bst	r24, 1
    4124:	00 27       	eor	r16, r16
    4126:	00 f9       	bld	r16, 0
    4128:	10 e0       	ldi	r17, 0x00	; 0
    412a:	84 e4       	ldi	r24, 0x44	; 68
    412c:	80 9f       	mul	r24, r16
    412e:	f0 01       	movw	r30, r0
    4130:	81 9f       	mul	r24, r17
    4132:	f0 0d       	add	r31, r0
    4134:	11 24       	eor	r1, r1
    4136:	e7 5f       	subi	r30, 0xF7	; 247
    4138:	fa 4f       	sbci	r31, 0xFA	; 250
    413a:	90 e4       	ldi	r25, 0x40	; 64
    413c:	ef 01       	movw	r28, r30
    413e:	19 92       	st	Y+, r1
    4140:	9a 95       	dec	r25
    4142:	e9 f7       	brne	.-6      	; 0x413e <check_clear_switch+0x9c>
    4144:	10 92 8f 05 	sts	0x058F, r1
    4148:	10 92 8e 05 	sts	0x058E, r1
    414c:	9c 91       	ld	r25, X
    414e:	91 fb       	bst	r25, 1
    4150:	ee 24       	eor	r14, r14
    4152:	e0 f8       	bld	r14, 0
    4154:	f1 2c       	mov	r15, r1
    4156:	8e 9d       	mul	r24, r14
    4158:	f0 01       	movw	r30, r0
    415a:	8f 9d       	mul	r24, r15
    415c:	f0 0d       	add	r31, r0
    415e:	11 24       	eor	r1, r1
    4160:	e1 50       	subi	r30, 0x01	; 1
    4162:	fb 4f       	sbci	r31, 0xFB	; 251
    4164:	17 82       	std	Z+7, r1	; 0x07
    4166:	16 82       	std	Z+6, r1	; 0x06
    4168:	11 86       	std	Z+9, r1	; 0x09
    416a:	10 86       	std	Z+8, r1	; 0x08
    416c:	8f e0       	ldi	r24, 0x0F	; 15
    416e:	80 93 92 05 	sts	0x0592, r24
    4172:	80 e1       	ldi	r24, 0x10	; 16
    4174:	80 93 93 05 	sts	0x0593, r24
    4178:	e4 e9       	ldi	r30, 0x94	; 148
    417a:	f5 e0       	ldi	r31, 0x05	; 5
    417c:	81 81       	ldd	r24, Z+1	; 0x01
    417e:	87 7e       	andi	r24, 0xE7	; 231
    4180:	88 60       	ori	r24, 0x08	; 8
    4182:	81 83       	std	Z+1, r24	; 0x01
    4184:	88 e1       	ldi	r24, 0x18	; 24
    4186:	80 93 ff 02 	sts	0x02FF, r24
    418a:	0e 94 cc 09 	call	0x1398	; 0x1398 <update_prescale_leds>
    418e:	60 91 8d 05 	lds	r22, 0x058D
    4192:	6f 70       	andi	r22, 0x0F	; 15
    4194:	90 91 95 05 	lds	r25, 0x0595
    4198:	92 95       	swap	r25
    419a:	96 95       	lsr	r25
    419c:	97 70       	andi	r25, 0x07	; 7
    419e:	80 91 96 05 	lds	r24, 0x0596
    41a2:	81 70       	andi	r24, 0x01	; 1
    41a4:	88 0f       	add	r24, r24
    41a6:	88 0f       	add	r24, r24
    41a8:	88 0f       	add	r24, r24
    41aa:	89 2b       	or	r24, r25
    41ac:	0e 94 27 13 	call	0x264e	; 0x264e <write_current_pattern>
    41b0:	5e c0       	rjmp	.+188    	; 0x426e <check_clear_switch+0x1cc>
    41b2:	e1 eb       	ldi	r30, 0xB1	; 177
    41b4:	f0 e0       	ldi	r31, 0x00	; 0
    41b6:	80 81       	ld	r24, Z
    41b8:	87 60       	ori	r24, 0x07	; 7
    41ba:	80 83       	st	Z, r24
    41bc:	a0 eb       	ldi	r26, 0xB0	; 176
    41be:	b0 e0       	ldi	r27, 0x00	; 0
    41c0:	8c 91       	ld	r24, X
    41c2:	8c 93       	st	X, r24
    41c4:	c0 e7       	ldi	r28, 0x70	; 112
    41c6:	d0 e0       	ldi	r29, 0x00	; 0
    41c8:	88 81       	ld	r24, Y
    41ca:	82 60       	ori	r24, 0x02	; 2
    41cc:	88 83       	st	Y, r24
    41ce:	8c 91       	ld	r24, X
    41d0:	81 60       	ori	r24, 0x01	; 1
    41d2:	8c 93       	st	X, r24
    41d4:	80 81       	ld	r24, Z
    41d6:	88 60       	ori	r24, 0x08	; 8
    41d8:	80 83       	st	Z, r24
    41da:	8c e8       	ldi	r24, 0x8C	; 140
    41dc:	80 93 b3 00 	sts	0x00B3, r24
    41e0:	80 91 e7 02 	lds	r24, 0x02E7
    41e4:	81 ff       	sbrs	r24, 1
    41e6:	08 c0       	rjmp	.+16     	; 0x41f8 <check_clear_switch+0x156>
    41e8:	e7 ee       	ldi	r30, 0xE7	; 231
    41ea:	f2 e0       	ldi	r31, 0x02	; 2
    41ec:	80 81       	ld	r24, Z
    41ee:	8d 7f       	andi	r24, 0xFD	; 253
    41f0:	80 83       	st	Z, r24
    41f2:	81 e2       	ldi	r24, 0x21	; 33
    41f4:	0e 94 66 08 	call	0x10cc	; 0x10cc <toggle>
    41f8:	80 e4       	ldi	r24, 0x40	; 64
    41fa:	ee eb       	ldi	r30, 0xBE	; 190
    41fc:	f4 e0       	ldi	r31, 0x04	; 4
    41fe:	df 01       	movw	r26, r30
    4200:	1d 92       	st	X+, r1
    4202:	8a 95       	dec	r24
    4204:	e9 f7       	brne	.-6      	; 0x4200 <check_clear_switch+0x15e>
    4206:	10 92 fe 04 	sts	0x04FE, r1
    420a:	e4 e9       	ldi	r30, 0x94	; 148
    420c:	f5 e0       	ldi	r31, 0x05	; 5
    420e:	84 81       	ldd	r24, Z+4	; 0x04
    4210:	87 70       	andi	r24, 0x07	; 7
    4212:	84 83       	std	Z+4, r24	; 0x04
    4214:	85 81       	ldd	r24, Z+5	; 0x05
    4216:	8c 7f       	andi	r24, 0xFC	; 252
    4218:	8b 7f       	andi	r24, 0xFB	; 251
    421a:	85 83       	std	Z+5, r24	; 0x05
    421c:	0e 94 9c 18 	call	0x3138	; 0x3138 <write_rhythm_track>
    4220:	ed e8       	ldi	r30, 0x8D	; 141
    4222:	f5 e0       	ldi	r31, 0x05	; 5
    4224:	80 81       	ld	r24, Z
    4226:	80 7f       	andi	r24, 0xF0	; 240
    4228:	80 83       	st	Z, r24
    422a:	21 c0       	rjmp	.+66     	; 0x426e <check_clear_switch+0x1cc>
    422c:	80 91 ff 04 	lds	r24, 0x04FF
    4230:	81 11       	cpse	r24, r1
    4232:	0e c0       	rjmp	.+28     	; 0x4250 <check_clear_switch+0x1ae>
    4234:	10 92 b0 00 	sts	0x00B0, r1
    4238:	e0 e7       	ldi	r30, 0x70	; 112
    423a:	f0 e0       	ldi	r31, 0x00	; 0
    423c:	80 81       	ld	r24, Z
    423e:	8d 7f       	andi	r24, 0xFD	; 253
    4240:	80 83       	st	Z, r24
    4242:	86 e4       	ldi	r24, 0x46	; 70
    4244:	80 93 b3 00 	sts	0x00B3, r24
    4248:	8c e1       	ldi	r24, 0x1C	; 28
    424a:	0e 94 2f 08 	call	0x105e	; 0x105e <turn_on>
    424e:	0f c0       	rjmp	.+30     	; 0x426e <check_clear_switch+0x1cc>
    4250:	85 30       	cpi	r24, 0x05	; 5
    4252:	69 f4       	brne	.+26     	; 0x426e <check_clear_switch+0x1cc>
    4254:	10 92 b0 00 	sts	0x00B0, r1
    4258:	e0 e7       	ldi	r30, 0x70	; 112
    425a:	f0 e0       	ldi	r31, 0x00	; 0
    425c:	80 81       	ld	r24, Z
    425e:	8d 7f       	andi	r24, 0xFD	; 253
    4260:	80 83       	st	Z, r24
    4262:	86 e4       	ldi	r24, 0x46	; 70
    4264:	80 93 b3 00 	sts	0x00B3, r24
    4268:	81 e2       	ldi	r24, 0x21	; 33
    426a:	0e 94 2f 08 	call	0x105e	; 0x105e <turn_on>
    426e:	df 91       	pop	r29
    4270:	cf 91       	pop	r28
    4272:	1f 91       	pop	r17
    4274:	0f 91       	pop	r16
    4276:	ff 90       	pop	r15
    4278:	ef 90       	pop	r14
    427a:	08 95       	ret

0000427c <check_step_press>:
    427c:	80 91 f6 01 	lds	r24, 0x01F6
    4280:	86 fd       	sbrc	r24, 6
    4282:	09 c0       	rjmp	.+18     	; 0x4296 <check_step_press+0x1a>
    4284:	81 e0       	ldi	r24, 0x01	; 1
    4286:	90 e0       	ldi	r25, 0x00	; 0
    4288:	fc 01       	movw	r30, r24
    428a:	ea 50       	subi	r30, 0x0A	; 10
    428c:	fe 4f       	sbci	r31, 0xFE	; 254
    428e:	20 81       	ld	r18, Z
    4290:	26 ff       	sbrs	r18, 6
    4292:	0a c0       	rjmp	.+20     	; 0x42a8 <check_step_press+0x2c>
    4294:	02 c0       	rjmp	.+4      	; 0x429a <check_step_press+0x1e>
    4296:	80 e0       	ldi	r24, 0x00	; 0
    4298:	90 e0       	ldi	r25, 0x00	; 0
    429a:	fc 01       	movw	r30, r24
    429c:	ea 50       	subi	r30, 0x0A	; 10
    429e:	fe 4f       	sbci	r31, 0xFE	; 254
    42a0:	90 81       	ld	r25, Z
    42a2:	9f 7b       	andi	r25, 0xBF	; 191
    42a4:	90 83       	st	Z, r25
    42a6:	08 95       	ret
    42a8:	01 96       	adiw	r24, 0x01	; 1
    42aa:	80 31       	cpi	r24, 0x10	; 16
    42ac:	91 05       	cpc	r25, r1
    42ae:	61 f7       	brne	.-40     	; 0x4288 <check_step_press+0xc>
    42b0:	8f ef       	ldi	r24, 0xFF	; 255
    42b2:	08 95       	ret

000042b4 <check_intro_fill_variation_switch>:
    42b4:	80 91 13 02 	lds	r24, 0x0213
    42b8:	86 ff       	sbrs	r24, 6
    42ba:	78 c0       	rjmp	.+240    	; 0x43ac <check_intro_fill_variation_switch+0xf8>
    42bc:	e3 e1       	ldi	r30, 0x13	; 19
    42be:	f2 e0       	ldi	r31, 0x02	; 2
    42c0:	8f 7b       	andi	r24, 0xBF	; 191
    42c2:	80 83       	st	Z, r24
    42c4:	80 91 01 05 	lds	r24, 0x0501
    42c8:	84 ff       	sbrs	r24, 4
    42ca:	5b c0       	rjmp	.+182    	; 0x4382 <check_intro_fill_variation_switch+0xce>
    42cc:	80 91 ff 04 	lds	r24, 0x04FF
    42d0:	85 30       	cpi	r24, 0x05	; 5
    42d2:	09 f0       	breq	.+2      	; 0x42d6 <check_intro_fill_variation_switch+0x22>
    42d4:	56 c0       	rjmp	.+172    	; 0x4382 <check_intro_fill_variation_switch+0xce>
    42d6:	80 91 99 05 	lds	r24, 0x0599
    42da:	82 ff       	sbrs	r24, 2
    42dc:	67 c0       	rjmp	.+206    	; 0x43ac <check_intro_fill_variation_switch+0xf8>
    42de:	80 91 98 05 	lds	r24, 0x0598
    42e2:	98 2f       	mov	r25, r24
    42e4:	96 95       	lsr	r25
    42e6:	96 95       	lsr	r25
    42e8:	96 95       	lsr	r25
    42ea:	80 91 99 05 	lds	r24, 0x0599
    42ee:	83 70       	andi	r24, 0x03	; 3
    42f0:	82 95       	swap	r24
    42f2:	88 0f       	add	r24, r24
    42f4:	80 7e       	andi	r24, 0xE0	; 224
    42f6:	89 2b       	or	r24, r25
    42f8:	99 f0       	breq	.+38     	; 0x4320 <check_intro_fill_variation_switch+0x6c>
    42fa:	81 58       	subi	r24, 0x81	; 129
    42fc:	98 2f       	mov	r25, r24
    42fe:	9f 77       	andi	r25, 0x7F	; 127
    4300:	e4 e9       	ldi	r30, 0x94	; 148
    4302:	f5 e0       	ldi	r31, 0x05	; 5
    4304:	88 0f       	add	r24, r24
    4306:	88 0f       	add	r24, r24
    4308:	88 0f       	add	r24, r24
    430a:	24 81       	ldd	r18, Z+4	; 0x04
    430c:	27 70       	andi	r18, 0x07	; 7
    430e:	82 2b       	or	r24, r18
    4310:	84 83       	std	Z+4, r24	; 0x04
    4312:	92 95       	swap	r25
    4314:	96 95       	lsr	r25
    4316:	97 70       	andi	r25, 0x07	; 7
    4318:	85 81       	ldd	r24, Z+5	; 0x05
    431a:	8c 7f       	andi	r24, 0xFC	; 252
    431c:	89 2b       	or	r24, r25
    431e:	85 83       	std	Z+5, r24	; 0x05
    4320:	e0 91 98 05 	lds	r30, 0x0598
    4324:	8e 2f       	mov	r24, r30
    4326:	86 95       	lsr	r24
    4328:	86 95       	lsr	r24
    432a:	86 95       	lsr	r24
    432c:	e0 91 99 05 	lds	r30, 0x0599
    4330:	e3 70       	andi	r30, 0x03	; 3
    4332:	e2 95       	swap	r30
    4334:	ee 0f       	add	r30, r30
    4336:	e0 7e       	andi	r30, 0xE0	; 224
    4338:	e8 2b       	or	r30, r24
    433a:	f0 e0       	ldi	r31, 0x00	; 0
    433c:	e2 54       	subi	r30, 0x42	; 66
    433e:	fb 4f       	sbci	r31, 0xFB	; 251
    4340:	80 81       	ld	r24, Z
    4342:	ed e8       	ldi	r30, 0x8D	; 141
    4344:	f5 e0       	ldi	r31, 0x05	; 5
    4346:	28 2f       	mov	r18, r24
    4348:	22 95       	swap	r18
    434a:	2f 70       	andi	r18, 0x0F	; 15
    434c:	90 81       	ld	r25, Z
    434e:	90 7f       	andi	r25, 0xF0	; 240
    4350:	92 2b       	or	r25, r18
    4352:	90 83       	st	Z, r25
    4354:	e4 e9       	ldi	r30, 0x94	; 148
    4356:	f5 e0       	ldi	r31, 0x05	; 5
    4358:	28 2f       	mov	r18, r24
    435a:	22 95       	swap	r18
    435c:	22 0f       	add	r18, r18
    435e:	20 7e       	andi	r18, 0xE0	; 224
    4360:	92 81       	ldd	r25, Z+2	; 0x02
    4362:	9f 71       	andi	r25, 0x1F	; 31
    4364:	92 2b       	or	r25, r18
    4366:	92 83       	std	Z+2, r25	; 0x02
    4368:	83 fb       	bst	r24, 3
    436a:	99 27       	eor	r25, r25
    436c:	90 f9       	bld	r25, 0
    436e:	83 81       	ldd	r24, Z+3	; 0x03
    4370:	8e 7f       	andi	r24, 0xFE	; 254
    4372:	89 2b       	or	r24, r25
    4374:	83 83       	std	Z+3, r24	; 0x03
    4376:	e5 ee       	ldi	r30, 0xE5	; 229
    4378:	f2 e0       	ldi	r31, 0x02	; 2
    437a:	80 81       	ld	r24, Z
    437c:	80 62       	ori	r24, 0x20	; 32
    437e:	80 83       	st	Z, r24
    4380:	08 95       	ret
    4382:	80 91 ff 04 	lds	r24, 0x04FF
    4386:	83 30       	cpi	r24, 0x03	; 3
    4388:	89 f4       	brne	.+34     	; 0x43ac <check_intro_fill_variation_switch+0xf8>
    438a:	8e e2       	ldi	r24, 0x2E	; 46
    438c:	0e 94 66 08 	call	0x10cc	; 0x10cc <toggle>
    4390:	8f e2       	ldi	r24, 0x2F	; 47
    4392:	0e 94 66 08 	call	0x10cc	; 0x10cc <toggle>
    4396:	e0 e9       	ldi	r30, 0x90	; 144
    4398:	f5 e0       	ldi	r31, 0x05	; 5
    439a:	80 81       	ld	r24, Z
    439c:	82 fb       	bst	r24, 2
    439e:	22 27       	eor	r18, r18
    43a0:	20 f9       	bld	r18, 0
    43a2:	91 e0       	ldi	r25, 0x01	; 1
    43a4:	92 27       	eor	r25, r18
    43a6:	90 fb       	bst	r25, 0
    43a8:	82 f9       	bld	r24, 2
    43aa:	80 83       	st	Z, r24
    43ac:	08 95       	ret

000043ae <assign_triggers>:
    43ae:	90 91 90 05 	lds	r25, 0x0590
    43b2:	92 fd       	sbrc	r25, 2
    43b4:	39 c0       	rjmp	.+114    	; 0x4428 <assign_triggers+0x7a>
    43b6:	48 2f       	mov	r20, r24
    43b8:	50 e0       	ldi	r21, 0x00	; 0
    43ba:	97 e0       	ldi	r25, 0x07	; 7
    43bc:	89 9f       	mul	r24, r25
    43be:	f0 01       	movw	r30, r0
    43c0:	11 24       	eor	r1, r1
    43c2:	e0 50       	subi	r30, 0x00	; 0
    43c4:	ff 4f       	sbci	r31, 0xFF	; 255
    43c6:	93 81       	ldd	r25, Z+3	; 0x03
    43c8:	9f 3f       	cpi	r25, 0xFF	; 255
    43ca:	c1 f0       	breq	.+48     	; 0x43fc <assign_triggers+0x4e>
    43cc:	20 91 9c 05 	lds	r18, 0x059C
    43d0:	2f 71       	andi	r18, 0x1F	; 31
    43d2:	30 e0       	ldi	r19, 0x00	; 0
    43d4:	42 17       	cp	r20, r18
    43d6:	53 07       	cpc	r21, r19
    43d8:	49 f4       	brne	.+18     	; 0x43ec <assign_triggers+0x3e>
    43da:	87 5f       	subi	r24, 0xF7	; 247
    43dc:	ec e9       	ldi	r30, 0x9C	; 156
    43de:	f5 e0       	ldi	r31, 0x05	; 5
    43e0:	8f 71       	andi	r24, 0x1F	; 31
    43e2:	90 81       	ld	r25, Z
    43e4:	90 7e       	andi	r25, 0xE0	; 224
    43e6:	89 2b       	or	r24, r25
    43e8:	80 83       	st	Z, r24
    43ea:	08 95       	ret
    43ec:	ec e9       	ldi	r30, 0x9C	; 156
    43ee:	f5 e0       	ldi	r31, 0x05	; 5
    43f0:	8f 71       	andi	r24, 0x1F	; 31
    43f2:	90 81       	ld	r25, Z
    43f4:	90 7e       	andi	r25, 0xE0	; 224
    43f6:	89 2b       	or	r24, r25
    43f8:	80 83       	st	Z, r24
    43fa:	08 95       	ret
    43fc:	90 91 9c 05 	lds	r25, 0x059C
    4400:	9f 71       	andi	r25, 0x1F	; 31
    4402:	96 30       	cpi	r25, 0x06	; 6
    4404:	49 f4       	brne	.+18     	; 0x4418 <assign_triggers+0x6a>
    4406:	86 30       	cpi	r24, 0x06	; 6
    4408:	39 f4       	brne	.+14     	; 0x4418 <assign_triggers+0x6a>
    440a:	ec e9       	ldi	r30, 0x9C	; 156
    440c:	f5 e0       	ldi	r31, 0x05	; 5
    440e:	80 81       	ld	r24, Z
    4410:	80 7e       	andi	r24, 0xE0	; 224
    4412:	8f 60       	ori	r24, 0x0F	; 15
    4414:	80 83       	st	Z, r24
    4416:	08 95       	ret
    4418:	ec e9       	ldi	r30, 0x9C	; 156
    441a:	f5 e0       	ldi	r31, 0x05	; 5
    441c:	8f 71       	andi	r24, 0x1F	; 31
    441e:	90 81       	ld	r25, Z
    4420:	90 7e       	andi	r25, 0xE0	; 224
    4422:	89 2b       	or	r24, r25
    4424:	80 83       	st	Z, r24
    4426:	08 95       	ret
    4428:	48 2f       	mov	r20, r24
    442a:	50 e0       	ldi	r21, 0x00	; 0
    442c:	97 e0       	ldi	r25, 0x07	; 7
    442e:	89 9f       	mul	r24, r25
    4430:	f0 01       	movw	r30, r0
    4432:	11 24       	eor	r1, r1
    4434:	e0 50       	subi	r30, 0x00	; 0
    4436:	ff 4f       	sbci	r31, 0xFF	; 255
    4438:	93 81       	ldd	r25, Z+3	; 0x03
    443a:	9f 3f       	cpi	r25, 0xFF	; 255
    443c:	c1 f1       	breq	.+112    	; 0x44ae <assign_triggers+0x100>
    443e:	20 91 9c 05 	lds	r18, 0x059C
    4442:	92 2f       	mov	r25, r18
    4444:	92 95       	swap	r25
    4446:	96 95       	lsr	r25
    4448:	97 70       	andi	r25, 0x07	; 7
    444a:	20 91 9d 05 	lds	r18, 0x059D
    444e:	23 70       	andi	r18, 0x03	; 3
    4450:	22 0f       	add	r18, r18
    4452:	22 0f       	add	r18, r18
    4454:	22 0f       	add	r18, r18
    4456:	29 2b       	or	r18, r25
    4458:	30 e0       	ldi	r19, 0x00	; 0
    445a:	42 17       	cp	r20, r18
    445c:	53 07       	cpc	r21, r19
    445e:	a1 f4       	brne	.+40     	; 0x4488 <assign_triggers+0xda>
    4460:	87 5f       	subi	r24, 0xF7	; 247
    4462:	ec e9       	ldi	r30, 0x9C	; 156
    4464:	f5 e0       	ldi	r31, 0x05	; 5
    4466:	28 2f       	mov	r18, r24
    4468:	22 95       	swap	r18
    446a:	22 0f       	add	r18, r18
    446c:	20 7e       	andi	r18, 0xE0	; 224
    446e:	90 81       	ld	r25, Z
    4470:	9f 71       	andi	r25, 0x1F	; 31
    4472:	92 2b       	or	r25, r18
    4474:	90 83       	st	Z, r25
    4476:	86 95       	lsr	r24
    4478:	86 95       	lsr	r24
    447a:	86 95       	lsr	r24
    447c:	83 70       	andi	r24, 0x03	; 3
    447e:	91 81       	ldd	r25, Z+1	; 0x01
    4480:	9c 7f       	andi	r25, 0xFC	; 252
    4482:	89 2b       	or	r24, r25
    4484:	81 83       	std	Z+1, r24	; 0x01
    4486:	08 95       	ret
    4488:	ec e9       	ldi	r30, 0x9C	; 156
    448a:	f5 e0       	ldi	r31, 0x05	; 5
    448c:	28 2f       	mov	r18, r24
    448e:	22 95       	swap	r18
    4490:	22 0f       	add	r18, r18
    4492:	20 7e       	andi	r18, 0xE0	; 224
    4494:	90 81       	ld	r25, Z
    4496:	9f 71       	andi	r25, 0x1F	; 31
    4498:	92 2b       	or	r25, r18
    449a:	90 83       	st	Z, r25
    449c:	86 95       	lsr	r24
    449e:	86 95       	lsr	r24
    44a0:	86 95       	lsr	r24
    44a2:	83 70       	andi	r24, 0x03	; 3
    44a4:	91 81       	ldd	r25, Z+1	; 0x01
    44a6:	9c 7f       	andi	r25, 0xFC	; 252
    44a8:	89 2b       	or	r24, r25
    44aa:	81 83       	std	Z+1, r24	; 0x01
    44ac:	08 95       	ret
    44ae:	90 91 9c 05 	lds	r25, 0x059C
    44b2:	29 2f       	mov	r18, r25
    44b4:	22 95       	swap	r18
    44b6:	26 95       	lsr	r18
    44b8:	27 70       	andi	r18, 0x07	; 7
    44ba:	90 91 9d 05 	lds	r25, 0x059D
    44be:	93 70       	andi	r25, 0x03	; 3
    44c0:	99 0f       	add	r25, r25
    44c2:	99 0f       	add	r25, r25
    44c4:	99 0f       	add	r25, r25
    44c6:	92 2b       	or	r25, r18
    44c8:	96 30       	cpi	r25, 0x06	; 6
    44ca:	61 f4       	brne	.+24     	; 0x44e4 <assign_triggers+0x136>
    44cc:	86 30       	cpi	r24, 0x06	; 6
    44ce:	51 f4       	brne	.+20     	; 0x44e4 <assign_triggers+0x136>
    44d0:	ec e9       	ldi	r30, 0x9C	; 156
    44d2:	f5 e0       	ldi	r31, 0x05	; 5
    44d4:	80 81       	ld	r24, Z
    44d6:	80 6e       	ori	r24, 0xE0	; 224
    44d8:	80 83       	st	Z, r24
    44da:	81 81       	ldd	r24, Z+1	; 0x01
    44dc:	8c 7f       	andi	r24, 0xFC	; 252
    44de:	81 60       	ori	r24, 0x01	; 1
    44e0:	81 83       	std	Z+1, r24	; 0x01
    44e2:	08 95       	ret
    44e4:	ec e9       	ldi	r30, 0x9C	; 156
    44e6:	f5 e0       	ldi	r31, 0x05	; 5
    44e8:	28 2f       	mov	r18, r24
    44ea:	22 95       	swap	r18
    44ec:	22 0f       	add	r18, r18
    44ee:	20 7e       	andi	r18, 0xE0	; 224
    44f0:	90 81       	ld	r25, Z
    44f2:	9f 71       	andi	r25, 0x1F	; 31
    44f4:	92 2b       	or	r25, r18
    44f6:	90 83       	st	Z, r25
    44f8:	86 95       	lsr	r24
    44fa:	86 95       	lsr	r24
    44fc:	86 95       	lsr	r24
    44fe:	83 70       	andi	r24, 0x03	; 3
    4500:	91 81       	ldd	r25, Z+1	; 0x01
    4502:	9c 7f       	andi	r25, 0xFC	; 252
    4504:	89 2b       	or	r24, r25
    4506:	81 83       	std	Z+1, r24	; 0x01
    4508:	08 95       	ret

0000450a <assign_mutes>:
    450a:	48 2f       	mov	r20, r24
    450c:	50 e0       	ldi	r21, 0x00	; 0
    450e:	97 e0       	ldi	r25, 0x07	; 7
    4510:	89 9f       	mul	r24, r25
    4512:	f0 01       	movw	r30, r0
    4514:	11 24       	eor	r1, r1
    4516:	e0 50       	subi	r30, 0x00	; 0
    4518:	ff 4f       	sbci	r31, 0xFF	; 255
    451a:	93 81       	ldd	r25, Z+3	; 0x03
    451c:	9f 3f       	cpi	r25, 0xFF	; 255
    451e:	19 f4       	brne	.+6      	; 0x4526 <assign_mutes+0x1c>
    4520:	86 30       	cpi	r24, 0x06	; 6
    4522:	09 f0       	breq	.+2      	; 0x4526 <assign_mutes+0x1c>
    4524:	9e c0       	rjmp	.+316    	; 0x4662 <assign_mutes+0x158>
    4526:	ca 01       	movw	r24, r20
    4528:	09 96       	adiw	r24, 0x09	; 9
    452a:	fc 01       	movw	r30, r24
    452c:	ee 0f       	add	r30, r30
    452e:	ff 1f       	adc	r31, r31
    4530:	ee 0f       	add	r30, r30
    4532:	ff 1f       	adc	r31, r31
    4534:	ee 0f       	add	r30, r30
    4536:	ff 1f       	adc	r31, r31
    4538:	e8 1b       	sub	r30, r24
    453a:	f9 0b       	sbc	r31, r25
    453c:	ea 5f       	subi	r30, 0xFA	; 250
    453e:	fe 4f       	sbci	r31, 0xFE	; 254
    4540:	60 81       	ld	r22, Z
    4542:	26 2f       	mov	r18, r22
    4544:	21 70       	andi	r18, 0x01	; 1
    4546:	30 e0       	ldi	r19, 0x00	; 0
    4548:	22 0f       	add	r18, r18
    454a:	33 1f       	adc	r19, r19
    454c:	fa 01       	movw	r30, r20
    454e:	ee 0f       	add	r30, r30
    4550:	ff 1f       	adc	r31, r31
    4552:	ee 0f       	add	r30, r30
    4554:	ff 1f       	adc	r31, r31
    4556:	ee 0f       	add	r30, r30
    4558:	ff 1f       	adc	r31, r31
    455a:	e4 1b       	sub	r30, r20
    455c:	f5 0b       	sbc	r31, r21
    455e:	ea 5f       	subi	r30, 0xFA	; 250
    4560:	fe 4f       	sbci	r31, 0xFE	; 254
    4562:	30 81       	ld	r19, Z
    4564:	31 70       	andi	r19, 0x01	; 1
    4566:	23 2b       	or	r18, r19
    4568:	21 30       	cpi	r18, 0x01	; 1
    456a:	21 f1       	breq	.+72     	; 0x45b4 <assign_mutes+0xaa>
    456c:	30 f0       	brcs	.+12     	; 0x457a <assign_mutes+0x70>
    456e:	22 30       	cpi	r18, 0x02	; 2
    4570:	f1 f1       	breq	.+124    	; 0x45ee <assign_mutes+0xe4>
    4572:	23 30       	cpi	r18, 0x03	; 3
    4574:	09 f4       	brne	.+2      	; 0x4578 <assign_mutes+0x6e>
    4576:	58 c0       	rjmp	.+176    	; 0x4628 <assign_mutes+0x11e>
    4578:	08 95       	ret
    457a:	fa 01       	movw	r30, r20
    457c:	ee 0f       	add	r30, r30
    457e:	ff 1f       	adc	r31, r31
    4580:	ee 0f       	add	r30, r30
    4582:	ff 1f       	adc	r31, r31
    4584:	ee 0f       	add	r30, r30
    4586:	ff 1f       	adc	r31, r31
    4588:	e4 1b       	sub	r30, r20
    458a:	f5 0b       	sbc	r31, r21
    458c:	ea 5f       	subi	r30, 0xFA	; 250
    458e:	fe 4f       	sbci	r31, 0xFE	; 254
    4590:	20 81       	ld	r18, Z
    4592:	21 60       	ori	r18, 0x01	; 1
    4594:	20 83       	st	Z, r18
    4596:	fc 01       	movw	r30, r24
    4598:	ee 0f       	add	r30, r30
    459a:	ff 1f       	adc	r31, r31
    459c:	ee 0f       	add	r30, r30
    459e:	ff 1f       	adc	r31, r31
    45a0:	ee 0f       	add	r30, r30
    45a2:	ff 1f       	adc	r31, r31
    45a4:	e8 1b       	sub	r30, r24
    45a6:	f9 0b       	sbc	r31, r25
    45a8:	ea 5f       	subi	r30, 0xFA	; 250
    45aa:	fe 4f       	sbci	r31, 0xFE	; 254
    45ac:	80 81       	ld	r24, Z
    45ae:	8e 7f       	andi	r24, 0xFE	; 254
    45b0:	80 83       	st	Z, r24
    45b2:	08 95       	ret
    45b4:	fa 01       	movw	r30, r20
    45b6:	ee 0f       	add	r30, r30
    45b8:	ff 1f       	adc	r31, r31
    45ba:	ee 0f       	add	r30, r30
    45bc:	ff 1f       	adc	r31, r31
    45be:	ee 0f       	add	r30, r30
    45c0:	ff 1f       	adc	r31, r31
    45c2:	e4 1b       	sub	r30, r20
    45c4:	f5 0b       	sbc	r31, r21
    45c6:	ea 5f       	subi	r30, 0xFA	; 250
    45c8:	fe 4f       	sbci	r31, 0xFE	; 254
    45ca:	20 81       	ld	r18, Z
    45cc:	2e 7f       	andi	r18, 0xFE	; 254
    45ce:	20 83       	st	Z, r18
    45d0:	fc 01       	movw	r30, r24
    45d2:	ee 0f       	add	r30, r30
    45d4:	ff 1f       	adc	r31, r31
    45d6:	ee 0f       	add	r30, r30
    45d8:	ff 1f       	adc	r31, r31
    45da:	ee 0f       	add	r30, r30
    45dc:	ff 1f       	adc	r31, r31
    45de:	e8 1b       	sub	r30, r24
    45e0:	f9 0b       	sbc	r31, r25
    45e2:	ea 5f       	subi	r30, 0xFA	; 250
    45e4:	fe 4f       	sbci	r31, 0xFE	; 254
    45e6:	80 81       	ld	r24, Z
    45e8:	81 60       	ori	r24, 0x01	; 1
    45ea:	80 83       	st	Z, r24
    45ec:	08 95       	ret
    45ee:	fa 01       	movw	r30, r20
    45f0:	ee 0f       	add	r30, r30
    45f2:	ff 1f       	adc	r31, r31
    45f4:	ee 0f       	add	r30, r30
    45f6:	ff 1f       	adc	r31, r31
    45f8:	ee 0f       	add	r30, r30
    45fa:	ff 1f       	adc	r31, r31
    45fc:	e4 1b       	sub	r30, r20
    45fe:	f5 0b       	sbc	r31, r21
    4600:	ea 5f       	subi	r30, 0xFA	; 250
    4602:	fe 4f       	sbci	r31, 0xFE	; 254
    4604:	20 81       	ld	r18, Z
    4606:	21 60       	ori	r18, 0x01	; 1
    4608:	20 83       	st	Z, r18
    460a:	fc 01       	movw	r30, r24
    460c:	ee 0f       	add	r30, r30
    460e:	ff 1f       	adc	r31, r31
    4610:	ee 0f       	add	r30, r30
    4612:	ff 1f       	adc	r31, r31
    4614:	ee 0f       	add	r30, r30
    4616:	ff 1f       	adc	r31, r31
    4618:	e8 1b       	sub	r30, r24
    461a:	f9 0b       	sbc	r31, r25
    461c:	ea 5f       	subi	r30, 0xFA	; 250
    461e:	fe 4f       	sbci	r31, 0xFE	; 254
    4620:	80 81       	ld	r24, Z
    4622:	81 60       	ori	r24, 0x01	; 1
    4624:	80 83       	st	Z, r24
    4626:	08 95       	ret
    4628:	fa 01       	movw	r30, r20
    462a:	ee 0f       	add	r30, r30
    462c:	ff 1f       	adc	r31, r31
    462e:	ee 0f       	add	r30, r30
    4630:	ff 1f       	adc	r31, r31
    4632:	ee 0f       	add	r30, r30
    4634:	ff 1f       	adc	r31, r31
    4636:	e4 1b       	sub	r30, r20
    4638:	f5 0b       	sbc	r31, r21
    463a:	ea 5f       	subi	r30, 0xFA	; 250
    463c:	fe 4f       	sbci	r31, 0xFE	; 254
    463e:	20 81       	ld	r18, Z
    4640:	2e 7f       	andi	r18, 0xFE	; 254
    4642:	20 83       	st	Z, r18
    4644:	fc 01       	movw	r30, r24
    4646:	ee 0f       	add	r30, r30
    4648:	ff 1f       	adc	r31, r31
    464a:	ee 0f       	add	r30, r30
    464c:	ff 1f       	adc	r31, r31
    464e:	ee 0f       	add	r30, r30
    4650:	ff 1f       	adc	r31, r31
    4652:	e8 1b       	sub	r30, r24
    4654:	f9 0b       	sbc	r31, r25
    4656:	ea 5f       	subi	r30, 0xFA	; 250
    4658:	fe 4f       	sbci	r31, 0xFE	; 254
    465a:	80 81       	ld	r24, Z
    465c:	8e 7f       	andi	r24, 0xFE	; 254
    465e:	80 83       	st	Z, r24
    4660:	08 95       	ret
    4662:	fa 01       	movw	r30, r20
    4664:	ee 0f       	add	r30, r30
    4666:	ff 1f       	adc	r31, r31
    4668:	ee 0f       	add	r30, r30
    466a:	ff 1f       	adc	r31, r31
    466c:	ee 0f       	add	r30, r30
    466e:	ff 1f       	adc	r31, r31
    4670:	e4 1b       	sub	r30, r20
    4672:	f5 0b       	sbc	r31, r21
    4674:	ea 5f       	subi	r30, 0xFA	; 250
    4676:	fe 4f       	sbci	r31, 0xFE	; 254
    4678:	80 81       	ld	r24, Z
    467a:	98 2f       	mov	r25, r24
    467c:	90 95       	com	r25
    467e:	90 fb       	bst	r25, 0
    4680:	80 f9       	bld	r24, 0
    4682:	80 83       	st	Z, r24
    4684:	08 95       	ret

00004686 <process_inst_press>:
    4686:	cf 93       	push	r28
    4688:	c8 2f       	mov	r28, r24
    468a:	80 91 01 05 	lds	r24, 0x0501
    468e:	84 fd       	sbrc	r24, 4
    4690:	25 c0       	rjmp	.+74     	; 0x46dc <process_inst_press+0x56>
    4692:	0e 94 75 08 	call	0x10ea	; 0x10ea <turn_off_all_inst_leds>
    4696:	87 e0       	ldi	r24, 0x07	; 7
    4698:	c8 9f       	mul	r28, r24
    469a:	f0 01       	movw	r30, r0
    469c:	11 24       	eor	r1, r1
    469e:	e0 50       	subi	r30, 0x00	; 0
    46a0:	ff 4f       	sbci	r31, 0xFF	; 255
    46a2:	83 81       	ldd	r24, Z+3	; 0x03
    46a4:	8f 3f       	cpi	r24, 0xFF	; 255
    46a6:	59 f0       	breq	.+22     	; 0x46be <process_inst_press+0x38>
    46a8:	80 91 9a 05 	lds	r24, 0x059A
    46ac:	8c 13       	cpse	r24, r28
    46ae:	04 c0       	rjmp	.+8      	; 0x46b8 <process_inst_press+0x32>
    46b0:	87 5f       	subi	r24, 0xF7	; 247
    46b2:	80 93 9a 05 	sts	0x059A, r24
    46b6:	0f c0       	rjmp	.+30     	; 0x46d6 <process_inst_press+0x50>
    46b8:	c0 93 9a 05 	sts	0x059A, r28
    46bc:	0c c0       	rjmp	.+24     	; 0x46d6 <process_inst_press+0x50>
    46be:	80 91 9a 05 	lds	r24, 0x059A
    46c2:	86 30       	cpi	r24, 0x06	; 6
    46c4:	31 f4       	brne	.+12     	; 0x46d2 <process_inst_press+0x4c>
    46c6:	c6 30       	cpi	r28, 0x06	; 6
    46c8:	21 f4       	brne	.+8      	; 0x46d2 <process_inst_press+0x4c>
    46ca:	8f e0       	ldi	r24, 0x0F	; 15
    46cc:	80 93 9a 05 	sts	0x059A, r24
    46d0:	02 c0       	rjmp	.+4      	; 0x46d6 <process_inst_press+0x50>
    46d2:	c0 93 9a 05 	sts	0x059A, r28
    46d6:	0e 94 37 09 	call	0x126e	; 0x126e <update_inst_led_mask>
    46da:	0d c0       	rjmp	.+26     	; 0x46f6 <process_inst_press+0x70>
    46dc:	80 91 02 05 	lds	r24, 0x0502
    46e0:	80 ff       	sbrs	r24, 0
    46e2:	06 c0       	rjmp	.+12     	; 0x46f0 <process_inst_press+0x6a>
    46e4:	0e 94 75 08 	call	0x10ea	; 0x10ea <turn_off_all_inst_leds>
    46e8:	8c 2f       	mov	r24, r28
    46ea:	0e 94 d7 21 	call	0x43ae	; 0x43ae <assign_triggers>
    46ee:	03 c0       	rjmp	.+6      	; 0x46f6 <process_inst_press+0x70>
    46f0:	8c 2f       	mov	r24, r28
    46f2:	0e 94 85 22 	call	0x450a	; 0x450a <assign_mutes>
    46f6:	cf 91       	pop	r28
    46f8:	08 95       	ret

000046fa <check_inst_switches>:
    46fa:	0f 93       	push	r16
    46fc:	1f 93       	push	r17
    46fe:	cf 93       	push	r28
    4700:	df 93       	push	r29
    4702:	80 91 06 02 	lds	r24, 0x0206
    4706:	86 fd       	sbrc	r24, 6
    4708:	07 c0       	rjmp	.+14     	; 0x4718 <check_inst_switches+0x1e>
    470a:	80 91 07 02 	lds	r24, 0x0207
    470e:	86 fd       	sbrc	r24, 6
    4710:	61 c0       	rjmp	.+194    	; 0x47d4 <check_inst_switches+0xda>
    4712:	c2 e1       	ldi	r28, 0x12	; 18
    4714:	d0 e0       	ldi	r29, 0x00	; 0
    4716:	54 c0       	rjmp	.+168    	; 0x47c0 <check_inst_switches+0xc6>
    4718:	e6 e0       	ldi	r30, 0x06	; 6
    471a:	f2 e0       	ldi	r31, 0x02	; 2
    471c:	80 81       	ld	r24, Z
    471e:	8f 7b       	andi	r24, 0xBF	; 191
    4720:	80 83       	st	Z, r24
    4722:	80 91 ff 04 	lds	r24, 0x04FF
    4726:	81 30       	cpi	r24, 0x01	; 1
    4728:	08 f4       	brcc	.+2      	; 0x472c <check_inst_switches+0x32>
    472a:	9f c0       	rjmp	.+318    	; 0x486a <check_inst_switches+0x170>
    472c:	83 30       	cpi	r24, 0x03	; 3
    472e:	20 f0       	brcs	.+8      	; 0x4738 <check_inst_switches+0x3e>
    4730:	84 50       	subi	r24, 0x04	; 4
    4732:	82 30       	cpi	r24, 0x02	; 2
    4734:	70 f1       	brcs	.+92     	; 0x4792 <check_inst_switches+0x98>
    4736:	99 c0       	rjmp	.+306    	; 0x486a <check_inst_switches+0x170>
    4738:	80 91 01 05 	lds	r24, 0x0501
    473c:	84 fd       	sbrc	r24, 4
    473e:	0b c0       	rjmp	.+22     	; 0x4756 <check_inst_switches+0x5c>
    4740:	0e 94 75 08 	call	0x10ea	; 0x10ea <turn_off_all_inst_leds>
    4744:	84 e1       	ldi	r24, 0x14	; 20
    4746:	0e 94 2f 08 	call	0x105e	; 0x105e <turn_on>
    474a:	80 e1       	ldi	r24, 0x10	; 16
    474c:	80 93 9a 05 	sts	0x059A, r24
    4750:	0e 94 37 09 	call	0x126e	; 0x126e <update_inst_led_mask>
    4754:	8a c0       	rjmp	.+276    	; 0x486a <check_inst_switches+0x170>
    4756:	80 91 02 05 	lds	r24, 0x0502
    475a:	80 ff       	sbrs	r24, 0
    475c:	86 c0       	rjmp	.+268    	; 0x486a <check_inst_switches+0x170>
    475e:	0e 94 75 08 	call	0x10ea	; 0x10ea <turn_off_all_inst_leds>
    4762:	84 e1       	ldi	r24, 0x14	; 20
    4764:	0e 94 2f 08 	call	0x105e	; 0x105e <turn_on>
    4768:	80 91 90 05 	lds	r24, 0x0590
    476c:	82 fd       	sbrc	r24, 2
    476e:	07 c0       	rjmp	.+14     	; 0x477e <check_inst_switches+0x84>
    4770:	ec e9       	ldi	r30, 0x9C	; 156
    4772:	f5 e0       	ldi	r31, 0x05	; 5
    4774:	80 81       	ld	r24, Z
    4776:	80 7e       	andi	r24, 0xE0	; 224
    4778:	80 61       	ori	r24, 0x10	; 16
    477a:	80 83       	st	Z, r24
    477c:	76 c0       	rjmp	.+236    	; 0x486a <check_inst_switches+0x170>
    477e:	ec e9       	ldi	r30, 0x9C	; 156
    4780:	f5 e0       	ldi	r31, 0x05	; 5
    4782:	80 81       	ld	r24, Z
    4784:	8f 71       	andi	r24, 0x1F	; 31
    4786:	80 83       	st	Z, r24
    4788:	81 81       	ldd	r24, Z+1	; 0x01
    478a:	8c 7f       	andi	r24, 0xFC	; 252
    478c:	82 60       	ori	r24, 0x02	; 2
    478e:	81 83       	std	Z+1, r24	; 0x01
    4790:	6c c0       	rjmp	.+216    	; 0x486a <check_inst_switches+0x170>
    4792:	80 91 e5 02 	lds	r24, 0x02E5
    4796:	88 23       	and	r24, r24
    4798:	3c f4       	brge	.+14     	; 0x47a8 <check_inst_switches+0xae>
    479a:	0e 94 9c 18 	call	0x3138	; 0x3138 <write_rhythm_track>
    479e:	e5 ee       	ldi	r30, 0xE5	; 229
    47a0:	f2 e0       	ldi	r31, 0x02	; 2
    47a2:	80 81       	ld	r24, Z
    47a4:	8f 77       	andi	r24, 0x7F	; 127
    47a6:	80 83       	st	Z, r24
    47a8:	80 91 99 05 	lds	r24, 0x0599
    47ac:	88 77       	andi	r24, 0x78	; 120
    47ae:	09 f4       	brne	.+2      	; 0x47b2 <check_inst_switches+0xb8>
    47b0:	5c c0       	rjmp	.+184    	; 0x486a <check_inst_switches+0x170>
    47b2:	80 e0       	ldi	r24, 0x00	; 0
    47b4:	0e 94 da 18 	call	0x31b4	; 0x31b4 <update_rhythm_track>
    47b8:	84 e1       	ldi	r24, 0x14	; 20
    47ba:	0e 94 2f 08 	call	0x105e	; 0x105e <turn_on>
    47be:	55 c0       	rjmp	.+170    	; 0x486a <check_inst_switches+0x170>
    47c0:	fe 01       	movw	r30, r28
    47c2:	ea 50       	subi	r30, 0x0A	; 10
    47c4:	fe 4f       	sbci	r31, 0xFE	; 254
    47c6:	80 81       	ld	r24, Z
    47c8:	86 ff       	sbrs	r24, 6
    47ca:	4a c0       	rjmp	.+148    	; 0x4860 <check_inst_switches+0x166>
    47cc:	8e 01       	movw	r16, r28
    47ce:	01 51       	subi	r16, 0x11	; 17
    47d0:	11 09       	sbc	r17, r1
    47d2:	04 c0       	rjmp	.+8      	; 0x47dc <check_inst_switches+0xe2>
    47d4:	00 e0       	ldi	r16, 0x00	; 0
    47d6:	10 e0       	ldi	r17, 0x00	; 0
    47d8:	c1 e1       	ldi	r28, 0x11	; 17
    47da:	d0 e0       	ldi	r29, 0x00	; 0
    47dc:	fe 01       	movw	r30, r28
    47de:	ea 50       	subi	r30, 0x0A	; 10
    47e0:	fe 4f       	sbci	r31, 0xFE	; 254
    47e2:	90 81       	ld	r25, Z
    47e4:	9f 7b       	andi	r25, 0xBF	; 191
    47e6:	90 83       	st	Z, r25
    47e8:	90 91 ff 04 	lds	r25, 0x04FF
    47ec:	91 30       	cpi	r25, 0x01	; 1
    47ee:	e8 f1       	brcs	.+122    	; 0x486a <check_inst_switches+0x170>
    47f0:	93 30       	cpi	r25, 0x03	; 3
    47f2:	20 f0       	brcs	.+8      	; 0x47fc <check_inst_switches+0x102>
    47f4:	94 50       	subi	r25, 0x04	; 4
    47f6:	92 30       	cpi	r25, 0x02	; 2
    47f8:	28 f0       	brcs	.+10     	; 0x4804 <check_inst_switches+0x10a>
    47fa:	37 c0       	rjmp	.+110    	; 0x486a <check_inst_switches+0x170>
    47fc:	80 2f       	mov	r24, r16
    47fe:	0e 94 43 23 	call	0x4686	; 0x4686 <process_inst_press>
    4802:	33 c0       	rjmp	.+102    	; 0x486a <check_inst_switches+0x170>
    4804:	80 91 01 05 	lds	r24, 0x0501
    4808:	84 ff       	sbrs	r24, 4
    480a:	04 c0       	rjmp	.+8      	; 0x4814 <check_inst_switches+0x11a>
    480c:	80 2f       	mov	r24, r16
    480e:	0e 94 85 22 	call	0x450a	; 0x450a <assign_mutes>
    4812:	2b c0       	rjmp	.+86     	; 0x486a <check_inst_switches+0x170>
    4814:	80 91 e5 02 	lds	r24, 0x02E5
    4818:	88 23       	and	r24, r24
    481a:	3c f4       	brge	.+14     	; 0x482a <check_inst_switches+0x130>
    481c:	0e 94 9c 18 	call	0x3138	; 0x3138 <write_rhythm_track>
    4820:	e5 ee       	ldi	r30, 0xE5	; 229
    4822:	f2 e0       	ldi	r31, 0x02	; 2
    4824:	80 81       	ld	r24, Z
    4826:	8f 77       	andi	r24, 0x7F	; 127
    4828:	80 83       	st	Z, r24
    482a:	80 91 99 05 	lds	r24, 0x0599
    482e:	86 95       	lsr	r24
    4830:	86 95       	lsr	r24
    4832:	86 95       	lsr	r24
    4834:	8f 70       	andi	r24, 0x0F	; 15
    4836:	90 e0       	ldi	r25, 0x00	; 0
    4838:	60 97       	sbiw	r28, 0x10	; 16
    483a:	8c 17       	cp	r24, r28
    483c:	9d 07       	cpc	r25, r29
    483e:	a9 f0       	breq	.+42     	; 0x486a <check_inst_switches+0x170>
    4840:	fc 01       	movw	r30, r24
    4842:	e9 58       	subi	r30, 0x89	; 137
    4844:	fe 4f       	sbci	r31, 0xFE	; 254
    4846:	80 81       	ld	r24, Z
    4848:	0e 94 4a 08 	call	0x1094	; 0x1094 <turn_off>
    484c:	81 e0       	ldi	r24, 0x01	; 1
    484e:	80 0f       	add	r24, r16
    4850:	0e 94 da 18 	call	0x31b4	; 0x31b4 <update_rhythm_track>
    4854:	c9 58       	subi	r28, 0x89	; 137
    4856:	de 4f       	sbci	r29, 0xFE	; 254
    4858:	88 81       	ld	r24, Y
    485a:	0e 94 2f 08 	call	0x105e	; 0x105e <turn_on>
    485e:	05 c0       	rjmp	.+10     	; 0x486a <check_inst_switches+0x170>
    4860:	21 96       	adiw	r28, 0x01	; 1
    4862:	cc 31       	cpi	r28, 0x1C	; 28
    4864:	d1 05       	cpc	r29, r1
    4866:	09 f0       	breq	.+2      	; 0x486a <check_inst_switches+0x170>
    4868:	ab cf       	rjmp	.-170    	; 0x47c0 <check_inst_switches+0xc6>
    486a:	df 91       	pop	r29
    486c:	cf 91       	pop	r28
    486e:	1f 91       	pop	r17
    4870:	0f 91       	pop	r16
    4872:	08 95       	ret

00004874 <TWI_init>:
    4874:	cf 92       	push	r12
    4876:	df 92       	push	r13
    4878:	ef 92       	push	r14
    487a:	ff 92       	push	r15
    487c:	0f 93       	push	r16
    487e:	1f 93       	push	r17
    4880:	d0 92 ee 02 	sts	0x02EE, r13
    4884:	c0 92 ed 02 	sts	0x02ED, r12
    4888:	10 93 e9 02 	sts	0x02E9, r17
    488c:	00 93 e8 02 	sts	0x02E8, r16
    4890:	f0 92 53 02 	sts	0x0253, r15
    4894:	e0 92 52 02 	sts	0x0252, r14
    4898:	0e 94 90 29 	call	0x5320	; 0x5320 <__divmodsi4>
    489c:	ba 01       	movw	r22, r20
    489e:	a9 01       	movw	r20, r18
    48a0:	40 51       	subi	r20, 0x10	; 16
    48a2:	51 09       	sbc	r21, r1
    48a4:	61 09       	sbc	r22, r1
    48a6:	71 09       	sbc	r23, r1
    48a8:	db 01       	movw	r26, r22
    48aa:	ca 01       	movw	r24, r20
    48ac:	1a f4       	brpl	.+6      	; 0x48b4 <TWI_init+0x40>
    48ae:	01 96       	adiw	r24, 0x01	; 1
    48b0:	a1 1d       	adc	r26, r1
    48b2:	b1 1d       	adc	r27, r1
    48b4:	b5 95       	asr	r27
    48b6:	a7 95       	ror	r26
    48b8:	97 95       	ror	r25
    48ba:	87 95       	ror	r24
    48bc:	80 93 b8 00 	sts	0x00B8, r24
    48c0:	10 92 b9 00 	sts	0x00B9, r1
    48c4:	10 92 f3 02 	sts	0x02F3, r1
    48c8:	1f 91       	pop	r17
    48ca:	0f 91       	pop	r16
    48cc:	ff 90       	pop	r15
    48ce:	ef 90       	pop	r14
    48d0:	df 90       	pop	r13
    48d2:	cf 90       	pop	r12
    48d4:	08 95       	ret

000048d6 <TWI_master_start_write>:
    48d6:	91 e0       	ldi	r25, 0x01	; 1
    48d8:	90 93 f3 02 	sts	0x02F3, r25
    48dc:	20 91 52 02 	lds	r18, 0x0252
    48e0:	30 91 53 02 	lds	r19, 0x0253
    48e4:	26 17       	cp	r18, r22
    48e6:	37 07       	cpc	r19, r23
    48e8:	48 f4       	brcc	.+18     	; 0x48fc <TWI_master_start_write+0x26>
    48ea:	20 91 52 02 	lds	r18, 0x0252
    48ee:	30 91 53 02 	lds	r19, 0x0253
    48f2:	30 93 51 02 	sts	0x0251, r19
    48f6:	20 93 50 02 	sts	0x0250, r18
    48fa:	04 c0       	rjmp	.+8      	; 0x4904 <TWI_master_start_write+0x2e>
    48fc:	70 93 51 02 	sts	0x0251, r23
    4900:	60 93 50 02 	sts	0x0250, r22
    4904:	91 e0       	ldi	r25, 0x01	; 1
    4906:	90 93 f4 02 	sts	0x02F4, r25
    490a:	90 93 e1 02 	sts	0x02E1, r25
    490e:	80 93 ef 02 	sts	0x02EF, r24
    4912:	85 ea       	ldi	r24, 0xA5	; 165
    4914:	80 93 bc 00 	sts	0x00BC, r24
    4918:	08 95       	ret

0000491a <TWI_master_start_write_then_read>:
    491a:	91 e0       	ldi	r25, 0x01	; 1
    491c:	90 93 f3 02 	sts	0x02F3, r25
    4920:	20 91 52 02 	lds	r18, 0x0252
    4924:	30 91 53 02 	lds	r19, 0x0253
    4928:	26 17       	cp	r18, r22
    492a:	37 07       	cpc	r19, r23
    492c:	48 f4       	brcc	.+18     	; 0x4940 <TWI_master_start_write_then_read+0x26>
    492e:	20 91 52 02 	lds	r18, 0x0252
    4932:	30 91 53 02 	lds	r19, 0x0253
    4936:	30 93 51 02 	sts	0x0251, r19
    493a:	20 93 50 02 	sts	0x0250, r18
    493e:	04 c0       	rjmp	.+8      	; 0x4948 <TWI_master_start_write_then_read+0x2e>
    4940:	70 93 51 02 	sts	0x0251, r23
    4944:	60 93 50 02 	sts	0x0250, r22
    4948:	20 91 52 02 	lds	r18, 0x0252
    494c:	30 91 53 02 	lds	r19, 0x0253
    4950:	24 17       	cp	r18, r20
    4952:	35 07       	cpc	r19, r21
    4954:	48 f4       	brcc	.+18     	; 0x4968 <TWI_master_start_write_then_read+0x4e>
    4956:	20 91 52 02 	lds	r18, 0x0252
    495a:	30 91 53 02 	lds	r19, 0x0253
    495e:	30 93 ec 02 	sts	0x02EC, r19
    4962:	20 93 eb 02 	sts	0x02EB, r18
    4966:	04 c0       	rjmp	.+8      	; 0x4970 <TWI_master_start_write_then_read+0x56>
    4968:	50 93 ec 02 	sts	0x02EC, r21
    496c:	40 93 eb 02 	sts	0x02EB, r20
    4970:	93 e0       	ldi	r25, 0x03	; 3
    4972:	90 93 f4 02 	sts	0x02F4, r25
    4976:	91 e0       	ldi	r25, 0x01	; 1
    4978:	90 93 e1 02 	sts	0x02E1, r25
    497c:	80 93 ef 02 	sts	0x02EF, r24
    4980:	85 ea       	ldi	r24, 0xA5	; 165
    4982:	80 93 bc 00 	sts	0x00BC, r24
    4986:	08 95       	ret

00004988 <__vector_24>:
    4988:	1f 92       	push	r1
    498a:	0f 92       	push	r0
    498c:	0f b6       	in	r0, 0x3f	; 63
    498e:	0f 92       	push	r0
    4990:	11 24       	eor	r1, r1
    4992:	2f 93       	push	r18
    4994:	3f 93       	push	r19
    4996:	4f 93       	push	r20
    4998:	5f 93       	push	r21
    499a:	6f 93       	push	r22
    499c:	7f 93       	push	r23
    499e:	8f 93       	push	r24
    49a0:	9f 93       	push	r25
    49a2:	af 93       	push	r26
    49a4:	bf 93       	push	r27
    49a6:	ef 93       	push	r30
    49a8:	ff 93       	push	r31
    49aa:	80 91 b9 00 	lds	r24, 0x00B9
    49ae:	88 7f       	andi	r24, 0xF8	; 248
    49b0:	80 93 e4 02 	sts	0x02E4, r24
    49b4:	e0 91 e4 02 	lds	r30, 0x02E4
    49b8:	8e 2f       	mov	r24, r30
    49ba:	90 e0       	ldi	r25, 0x00	; 0
    49bc:	fc 01       	movw	r30, r24
    49be:	38 97       	sbiw	r30, 0x08	; 8
    49c0:	e1 3c       	cpi	r30, 0xC1	; 193
    49c2:	f1 05       	cpc	r31, r1
    49c4:	08 f0       	brcs	.+2      	; 0x49c8 <__vector_24+0x40>
    49c6:	25 c1       	rjmp	.+586    	; 0x4c12 <__vector_24+0x28a>
    49c8:	e6 5a       	subi	r30, 0xA6	; 166
    49ca:	ff 4f       	sbci	r31, 0xFF	; 255
    49cc:	0c 94 af 29 	jmp	0x535e	; 0x535e <__tablejump2__>
    49d0:	80 91 e1 02 	lds	r24, 0x02E1
    49d4:	81 30       	cpi	r24, 0x01	; 1
    49d6:	19 f0       	breq	.+6      	; 0x49de <__vector_24+0x56>
    49d8:	82 30       	cpi	r24, 0x02	; 2
    49da:	59 f0       	breq	.+22     	; 0x49f2 <__vector_24+0x6a>
    49dc:	14 c0       	rjmp	.+40     	; 0x4a06 <__vector_24+0x7e>
    49de:	10 92 fc 02 	sts	0x02FC, r1
    49e2:	10 92 fb 02 	sts	0x02FB, r1
    49e6:	80 91 ef 02 	lds	r24, 0x02EF
    49ea:	88 0f       	add	r24, r24
    49ec:	80 93 bb 00 	sts	0x00BB, r24
    49f0:	0a c0       	rjmp	.+20     	; 0x4a06 <__vector_24+0x7e>
    49f2:	10 92 fc 02 	sts	0x02FC, r1
    49f6:	10 92 fb 02 	sts	0x02FB, r1
    49fa:	80 91 ef 02 	lds	r24, 0x02EF
    49fe:	88 0f       	add	r24, r24
    4a00:	81 60       	ori	r24, 0x01	; 1
    4a02:	80 93 bb 00 	sts	0x00BB, r24
    4a06:	85 ec       	ldi	r24, 0xC5	; 197
    4a08:	80 93 bc 00 	sts	0x00BC, r24
    4a0c:	0d c1       	rjmp	.+538    	; 0x4c28 <__vector_24+0x2a0>
    4a0e:	20 91 fb 02 	lds	r18, 0x02FB
    4a12:	30 91 fc 02 	lds	r19, 0x02FC
    4a16:	80 91 50 02 	lds	r24, 0x0250
    4a1a:	90 91 51 02 	lds	r25, 0x0251
    4a1e:	28 17       	cp	r18, r24
    4a20:	39 07       	cpc	r19, r25
    4a22:	f1 f4       	brne	.+60     	; 0x4a60 <__vector_24+0xd8>
    4a24:	80 91 f4 02 	lds	r24, 0x02F4
    4a28:	83 30       	cpi	r24, 0x03	; 3
    4a2a:	39 f4       	brne	.+14     	; 0x4a3a <__vector_24+0xb2>
    4a2c:	82 e0       	ldi	r24, 0x02	; 2
    4a2e:	80 93 e1 02 	sts	0x02E1, r24
    4a32:	85 ea       	ldi	r24, 0xA5	; 165
    4a34:	80 93 bc 00 	sts	0x00BC, r24
    4a38:	f7 c0       	rjmp	.+494    	; 0x4c28 <__vector_24+0x2a0>
    4a3a:	e0 91 ed 02 	lds	r30, 0x02ED
    4a3e:	f0 91 ee 02 	lds	r31, 0x02EE
    4a42:	30 97       	sbiw	r30, 0x00	; 0
    4a44:	11 f0       	breq	.+4      	; 0x4a4a <__vector_24+0xc2>
    4a46:	80 e0       	ldi	r24, 0x00	; 0
    4a48:	09 95       	icall
    4a4a:	85 e9       	ldi	r24, 0x95	; 149
    4a4c:	80 93 bc 00 	sts	0x00BC, r24
    4a50:	ec eb       	ldi	r30, 0xBC	; 188
    4a52:	f0 e0       	ldi	r31, 0x00	; 0
    4a54:	80 81       	ld	r24, Z
    4a56:	84 fd       	sbrc	r24, 4
    4a58:	fd cf       	rjmp	.-6      	; 0x4a54 <__vector_24+0xcc>
    4a5a:	10 92 f3 02 	sts	0x02F3, r1
    4a5e:	e4 c0       	rjmp	.+456    	; 0x4c28 <__vector_24+0x2a0>
    4a60:	20 91 e8 02 	lds	r18, 0x02E8
    4a64:	30 91 e9 02 	lds	r19, 0x02E9
    4a68:	80 91 fb 02 	lds	r24, 0x02FB
    4a6c:	90 91 fc 02 	lds	r25, 0x02FC
    4a70:	ac 01       	movw	r20, r24
    4a72:	4f 5f       	subi	r20, 0xFF	; 255
    4a74:	5f 4f       	sbci	r21, 0xFF	; 255
    4a76:	50 93 fc 02 	sts	0x02FC, r21
    4a7a:	40 93 fb 02 	sts	0x02FB, r20
    4a7e:	f9 01       	movw	r30, r18
    4a80:	e8 0f       	add	r30, r24
    4a82:	f9 1f       	adc	r31, r25
    4a84:	80 81       	ld	r24, Z
    4a86:	80 93 bb 00 	sts	0x00BB, r24
    4a8a:	85 e8       	ldi	r24, 0x85	; 133
    4a8c:	80 93 bc 00 	sts	0x00BC, r24
    4a90:	cb c0       	rjmp	.+406    	; 0x4c28 <__vector_24+0x2a0>
    4a92:	20 91 e8 02 	lds	r18, 0x02E8
    4a96:	30 91 e9 02 	lds	r19, 0x02E9
    4a9a:	80 91 fb 02 	lds	r24, 0x02FB
    4a9e:	90 91 fc 02 	lds	r25, 0x02FC
    4aa2:	ac 01       	movw	r20, r24
    4aa4:	4f 5f       	subi	r20, 0xFF	; 255
    4aa6:	5f 4f       	sbci	r21, 0xFF	; 255
    4aa8:	50 93 fc 02 	sts	0x02FC, r21
    4aac:	40 93 fb 02 	sts	0x02FB, r20
    4ab0:	f9 01       	movw	r30, r18
    4ab2:	e8 0f       	add	r30, r24
    4ab4:	f9 1f       	adc	r31, r25
    4ab6:	20 91 bb 00 	lds	r18, 0x00BB
    4aba:	20 83       	st	Z, r18
    4abc:	80 91 eb 02 	lds	r24, 0x02EB
    4ac0:	90 91 ec 02 	lds	r25, 0x02EC
    4ac4:	20 91 fb 02 	lds	r18, 0x02FB
    4ac8:	30 91 fc 02 	lds	r19, 0x02FC
    4acc:	01 97       	sbiw	r24, 0x01	; 1
    4ace:	82 17       	cp	r24, r18
    4ad0:	93 07       	cpc	r25, r19
    4ad2:	21 f4       	brne	.+8      	; 0x4adc <__vector_24+0x154>
    4ad4:	85 e8       	ldi	r24, 0x85	; 133
    4ad6:	80 93 bc 00 	sts	0x00BC, r24
    4ada:	a6 c0       	rjmp	.+332    	; 0x4c28 <__vector_24+0x2a0>
    4adc:	85 ec       	ldi	r24, 0xC5	; 197
    4ade:	80 93 bc 00 	sts	0x00BC, r24
    4ae2:	a2 c0       	rjmp	.+324    	; 0x4c28 <__vector_24+0x2a0>
    4ae4:	20 91 e8 02 	lds	r18, 0x02E8
    4ae8:	30 91 e9 02 	lds	r19, 0x02E9
    4aec:	80 91 fb 02 	lds	r24, 0x02FB
    4af0:	90 91 fc 02 	lds	r25, 0x02FC
    4af4:	ac 01       	movw	r20, r24
    4af6:	4f 5f       	subi	r20, 0xFF	; 255
    4af8:	5f 4f       	sbci	r21, 0xFF	; 255
    4afa:	50 93 fc 02 	sts	0x02FC, r21
    4afe:	40 93 fb 02 	sts	0x02FB, r20
    4b02:	f9 01       	movw	r30, r18
    4b04:	e8 0f       	add	r30, r24
    4b06:	f9 1f       	adc	r31, r25
    4b08:	20 91 bb 00 	lds	r18, 0x00BB
    4b0c:	20 83       	st	Z, r18
    4b0e:	e0 91 ed 02 	lds	r30, 0x02ED
    4b12:	f0 91 ee 02 	lds	r31, 0x02EE
    4b16:	30 97       	sbiw	r30, 0x00	; 0
    4b18:	11 f0       	breq	.+4      	; 0x4b1e <__vector_24+0x196>
    4b1a:	80 e0       	ldi	r24, 0x00	; 0
    4b1c:	09 95       	icall
    4b1e:	85 e9       	ldi	r24, 0x95	; 149
    4b20:	80 93 bc 00 	sts	0x00BC, r24
    4b24:	ec eb       	ldi	r30, 0xBC	; 188
    4b26:	f0 e0       	ldi	r31, 0x00	; 0
    4b28:	80 81       	ld	r24, Z
    4b2a:	84 fd       	sbrc	r24, 4
    4b2c:	fd cf       	rjmp	.-6      	; 0x4b28 <__vector_24+0x1a0>
    4b2e:	10 92 f3 02 	sts	0x02F3, r1
    4b32:	7a c0       	rjmp	.+244    	; 0x4c28 <__vector_24+0x2a0>
    4b34:	10 92 fc 02 	sts	0x02FC, r1
    4b38:	10 92 fb 02 	sts	0x02FB, r1
    4b3c:	85 ec       	ldi	r24, 0xC5	; 197
    4b3e:	80 93 bc 00 	sts	0x00BC, r24
    4b42:	72 c0       	rjmp	.+228    	; 0x4c28 <__vector_24+0x2a0>
    4b44:	20 91 fb 02 	lds	r18, 0x02FB
    4b48:	30 91 fc 02 	lds	r19, 0x02FC
    4b4c:	80 91 52 02 	lds	r24, 0x0252
    4b50:	90 91 53 02 	lds	r25, 0x0253
    4b54:	28 17       	cp	r18, r24
    4b56:	39 07       	cpc	r19, r25
    4b58:	a8 f4       	brcc	.+42     	; 0x4b84 <__vector_24+0x1fc>
    4b5a:	20 91 e8 02 	lds	r18, 0x02E8
    4b5e:	30 91 e9 02 	lds	r19, 0x02E9
    4b62:	80 91 fb 02 	lds	r24, 0x02FB
    4b66:	90 91 fc 02 	lds	r25, 0x02FC
    4b6a:	ac 01       	movw	r20, r24
    4b6c:	4f 5f       	subi	r20, 0xFF	; 255
    4b6e:	5f 4f       	sbci	r21, 0xFF	; 255
    4b70:	50 93 fc 02 	sts	0x02FC, r21
    4b74:	40 93 fb 02 	sts	0x02FB, r20
    4b78:	f9 01       	movw	r30, r18
    4b7a:	e8 0f       	add	r30, r24
    4b7c:	f9 1f       	adc	r31, r25
    4b7e:	20 91 bb 00 	lds	r18, 0x00BB
    4b82:	20 83       	st	Z, r18
    4b84:	85 ec       	ldi	r24, 0xC5	; 197
    4b86:	80 93 bc 00 	sts	0x00BC, r24
    4b8a:	4e c0       	rjmp	.+156    	; 0x4c28 <__vector_24+0x2a0>
    4b8c:	80 91 fb 02 	lds	r24, 0x02FB
    4b90:	90 91 fc 02 	lds	r25, 0x02FC
    4b94:	80 93 f0 02 	sts	0x02F0, r24
    4b98:	e0 91 ed 02 	lds	r30, 0x02ED
    4b9c:	f0 91 ee 02 	lds	r31, 0x02EE
    4ba0:	30 97       	sbiw	r30, 0x00	; 0
    4ba2:	11 f0       	breq	.+4      	; 0x4ba8 <__vector_24+0x220>
    4ba4:	80 e0       	ldi	r24, 0x00	; 0
    4ba6:	09 95       	icall
    4ba8:	85 ec       	ldi	r24, 0xC5	; 197
    4baa:	80 93 bc 00 	sts	0x00BC, r24
    4bae:	3c c0       	rjmp	.+120    	; 0x4c28 <__vector_24+0x2a0>
    4bb0:	10 92 fc 02 	sts	0x02FC, r1
    4bb4:	10 92 fb 02 	sts	0x02FB, r1
    4bb8:	20 91 fb 02 	lds	r18, 0x02FB
    4bbc:	30 91 fc 02 	lds	r19, 0x02FC
    4bc0:	80 91 52 02 	lds	r24, 0x0252
    4bc4:	90 91 53 02 	lds	r25, 0x0253
    4bc8:	28 17       	cp	r18, r24
    4bca:	39 07       	cpc	r19, r25
    4bcc:	a8 f4       	brcc	.+42     	; 0x4bf8 <__vector_24+0x270>
    4bce:	20 91 e8 02 	lds	r18, 0x02E8
    4bd2:	30 91 e9 02 	lds	r19, 0x02E9
    4bd6:	80 91 fb 02 	lds	r24, 0x02FB
    4bda:	90 91 fc 02 	lds	r25, 0x02FC
    4bde:	ac 01       	movw	r20, r24
    4be0:	4f 5f       	subi	r20, 0xFF	; 255
    4be2:	5f 4f       	sbci	r21, 0xFF	; 255
    4be4:	50 93 fc 02 	sts	0x02FC, r21
    4be8:	40 93 fb 02 	sts	0x02FB, r20
    4bec:	f9 01       	movw	r30, r18
    4bee:	e8 0f       	add	r30, r24
    4bf0:	f9 1f       	adc	r31, r25
    4bf2:	80 81       	ld	r24, Z
    4bf4:	80 93 bb 00 	sts	0x00BB, r24
    4bf8:	85 ec       	ldi	r24, 0xC5	; 197
    4bfa:	80 93 bc 00 	sts	0x00BC, r24
    4bfe:	14 c0       	rjmp	.+40     	; 0x4c28 <__vector_24+0x2a0>
    4c00:	e0 91 ed 02 	lds	r30, 0x02ED
    4c04:	f0 91 ee 02 	lds	r31, 0x02EE
    4c08:	30 97       	sbiw	r30, 0x00	; 0
    4c0a:	19 f0       	breq	.+6      	; 0x4c12 <__vector_24+0x28a>
    4c0c:	80 91 e4 02 	lds	r24, 0x02E4
    4c10:	09 95       	icall
    4c12:	85 e9       	ldi	r24, 0x95	; 149
    4c14:	80 93 bc 00 	sts	0x00BC, r24
    4c18:	ec eb       	ldi	r30, 0xBC	; 188
    4c1a:	f0 e0       	ldi	r31, 0x00	; 0
    4c1c:	80 81       	ld	r24, Z
    4c1e:	84 fd       	sbrc	r24, 4
    4c20:	fd cf       	rjmp	.-6      	; 0x4c1c <__vector_24+0x294>
    4c22:	85 ea       	ldi	r24, 0xA5	; 165
    4c24:	80 93 bc 00 	sts	0x00BC, r24
    4c28:	ff 91       	pop	r31
    4c2a:	ef 91       	pop	r30
    4c2c:	bf 91       	pop	r27
    4c2e:	af 91       	pop	r26
    4c30:	9f 91       	pop	r25
    4c32:	8f 91       	pop	r24
    4c34:	7f 91       	pop	r23
    4c36:	6f 91       	pop	r22
    4c38:	5f 91       	pop	r21
    4c3a:	4f 91       	pop	r20
    4c3c:	3f 91       	pop	r19
    4c3e:	2f 91       	pop	r18
    4c40:	0f 90       	pop	r0
    4c42:	0f be       	out	0x3f, r0	; 63
    4c44:	0f 90       	pop	r0
    4c46:	1f 90       	pop	r1
    4c48:	18 95       	reti

00004c4a <bytequeue_init>:
    4c4a:	fc 01       	movw	r30, r24
    4c4c:	42 83       	std	Z+2, r20	; 0x02
    4c4e:	74 83       	std	Z+4, r23	; 0x04
    4c50:	63 83       	std	Z+3, r22	; 0x03
    4c52:	11 82       	std	Z+1, r1	; 0x01
    4c54:	10 82       	st	Z, r1
    4c56:	08 95       	ret

00004c58 <bytequeue_enqueue>:
    4c58:	ff 92       	push	r15
    4c5a:	0f 93       	push	r16
    4c5c:	1f 93       	push	r17
    4c5e:	cf 93       	push	r28
    4c60:	df 93       	push	r29
    4c62:	ec 01       	movw	r28, r24
    4c64:	06 2f       	mov	r16, r22
    4c66:	0e 94 a5 26 	call	0x4d4a	; 0x4d4a <store_and_clear_interrupt>
    4c6a:	18 2f       	mov	r17, r24
    4c6c:	f9 80       	ldd	r15, Y+1	; 0x01
    4c6e:	4f 2d       	mov	r20, r15
    4c70:	50 e0       	ldi	r21, 0x00	; 0
    4c72:	ca 01       	movw	r24, r20
    4c74:	01 96       	adiw	r24, 0x01	; 1
    4c76:	2a 81       	ldd	r18, Y+2	; 0x02
    4c78:	62 2f       	mov	r22, r18
    4c7a:	70 e0       	ldi	r23, 0x00	; 0
    4c7c:	0e 94 7c 29 	call	0x52f8	; 0x52f8 <__divmodhi4>
    4c80:	28 81       	ld	r18, Y
    4c82:	30 e0       	ldi	r19, 0x00	; 0
    4c84:	82 17       	cp	r24, r18
    4c86:	93 07       	cpc	r25, r19
    4c88:	29 f4       	brne	.+10     	; 0x4c94 <bytequeue_enqueue+0x3c>
    4c8a:	81 2f       	mov	r24, r17
    4c8c:	0e 94 a8 26 	call	0x4d50	; 0x4d50 <restore_interrupt_setting>
    4c90:	80 e0       	ldi	r24, 0x00	; 0
    4c92:	12 c0       	rjmp	.+36     	; 0x4cb8 <bytequeue_enqueue+0x60>
    4c94:	eb 81       	ldd	r30, Y+3	; 0x03
    4c96:	fc 81       	ldd	r31, Y+4	; 0x04
    4c98:	ef 0d       	add	r30, r15
    4c9a:	f1 1d       	adc	r31, r1
    4c9c:	00 83       	st	Z, r16
    4c9e:	29 81       	ldd	r18, Y+1	; 0x01
    4ca0:	30 e0       	ldi	r19, 0x00	; 0
    4ca2:	c9 01       	movw	r24, r18
    4ca4:	01 96       	adiw	r24, 0x01	; 1
    4ca6:	6a 81       	ldd	r22, Y+2	; 0x02
    4ca8:	70 e0       	ldi	r23, 0x00	; 0
    4caa:	0e 94 7c 29 	call	0x52f8	; 0x52f8 <__divmodhi4>
    4cae:	89 83       	std	Y+1, r24	; 0x01
    4cb0:	81 2f       	mov	r24, r17
    4cb2:	0e 94 a8 26 	call	0x4d50	; 0x4d50 <restore_interrupt_setting>
    4cb6:	81 e0       	ldi	r24, 0x01	; 1
    4cb8:	df 91       	pop	r29
    4cba:	cf 91       	pop	r28
    4cbc:	1f 91       	pop	r17
    4cbe:	0f 91       	pop	r16
    4cc0:	ff 90       	pop	r15
    4cc2:	08 95       	ret

00004cc4 <bytequeue_length>:
    4cc4:	cf 93       	push	r28
    4cc6:	df 93       	push	r29
    4cc8:	ec 01       	movw	r28, r24
    4cca:	0e 94 a5 26 	call	0x4d4a	; 0x4d4a <store_and_clear_interrupt>
    4cce:	39 81       	ldd	r19, Y+1	; 0x01
    4cd0:	28 81       	ld	r18, Y
    4cd2:	32 17       	cp	r19, r18
    4cd4:	18 f0       	brcs	.+6      	; 0x4cdc <bytequeue_length+0x18>
    4cd6:	c3 2f       	mov	r28, r19
    4cd8:	c2 1b       	sub	r28, r18
    4cda:	04 c0       	rjmp	.+8      	; 0x4ce4 <bytequeue_length+0x20>
    4cdc:	9a 81       	ldd	r25, Y+2	; 0x02
    4cde:	c3 2f       	mov	r28, r19
    4ce0:	c9 0f       	add	r28, r25
    4ce2:	c2 1b       	sub	r28, r18
    4ce4:	0e 94 a8 26 	call	0x4d50	; 0x4d50 <restore_interrupt_setting>
    4ce8:	8c 2f       	mov	r24, r28
    4cea:	df 91       	pop	r29
    4cec:	cf 91       	pop	r28
    4cee:	08 95       	ret

00004cf0 <bytequeue_get>:
    4cf0:	fc 01       	movw	r30, r24
    4cf2:	80 81       	ld	r24, Z
    4cf4:	70 e0       	ldi	r23, 0x00	; 0
    4cf6:	9b 01       	movw	r18, r22
    4cf8:	28 0f       	add	r18, r24
    4cfa:	31 1d       	adc	r19, r1
    4cfc:	c9 01       	movw	r24, r18
    4cfe:	62 81       	ldd	r22, Z+2	; 0x02
    4d00:	70 e0       	ldi	r23, 0x00	; 0
    4d02:	0e 94 7c 29 	call	0x52f8	; 0x52f8 <__divmodhi4>
    4d06:	03 80       	ldd	r0, Z+3	; 0x03
    4d08:	f4 81       	ldd	r31, Z+4	; 0x04
    4d0a:	e0 2d       	mov	r30, r0
    4d0c:	e8 0f       	add	r30, r24
    4d0e:	f9 1f       	adc	r31, r25
    4d10:	80 81       	ld	r24, Z
    4d12:	08 95       	ret

00004d14 <bytequeue_remove>:
    4d14:	1f 93       	push	r17
    4d16:	cf 93       	push	r28
    4d18:	df 93       	push	r29
    4d1a:	ec 01       	movw	r28, r24
    4d1c:	16 2f       	mov	r17, r22
    4d1e:	0e 94 a5 26 	call	0x4d4a	; 0x4d4a <store_and_clear_interrupt>
    4d22:	48 2f       	mov	r20, r24
    4d24:	88 81       	ld	r24, Y
    4d26:	21 2f       	mov	r18, r17
    4d28:	30 e0       	ldi	r19, 0x00	; 0
    4d2a:	b9 01       	movw	r22, r18
    4d2c:	68 0f       	add	r22, r24
    4d2e:	71 1d       	adc	r23, r1
    4d30:	cb 01       	movw	r24, r22
    4d32:	6a 81       	ldd	r22, Y+2	; 0x02
    4d34:	70 e0       	ldi	r23, 0x00	; 0
    4d36:	0e 94 7c 29 	call	0x52f8	; 0x52f8 <__divmodhi4>
    4d3a:	88 83       	st	Y, r24
    4d3c:	84 2f       	mov	r24, r20
    4d3e:	0e 94 a8 26 	call	0x4d50	; 0x4d50 <restore_interrupt_setting>
    4d42:	df 91       	pop	r29
    4d44:	cf 91       	pop	r28
    4d46:	1f 91       	pop	r17
    4d48:	08 95       	ret

00004d4a <store_and_clear_interrupt>:
    4d4a:	8f b7       	in	r24, 0x3f	; 63
    4d4c:	f8 94       	cli
    4d4e:	08 95       	ret

00004d50 <restore_interrupt_setting>:
    4d50:	8f bf       	out	0x3f, r24	; 63
    4d52:	08 95       	ret

00004d54 <midi_is_statusbyte>:
    4d54:	88 1f       	adc	r24, r24
    4d56:	88 27       	eor	r24, r24
    4d58:	88 1f       	adc	r24, r24
    4d5a:	08 95       	ret

00004d5c <midi_is_realtime>:
    4d5c:	91 e0       	ldi	r25, 0x01	; 1
    4d5e:	88 3f       	cpi	r24, 0xF8	; 248
    4d60:	08 f4       	brcc	.+2      	; 0x4d64 <midi_is_realtime+0x8>
    4d62:	90 e0       	ldi	r25, 0x00	; 0
    4d64:	89 2f       	mov	r24, r25
    4d66:	08 95       	ret

00004d68 <midi_packet_length>:
    4d68:	98 2f       	mov	r25, r24
    4d6a:	90 7f       	andi	r25, 0xF0	; 240
    4d6c:	90 3c       	cpi	r25, 0xC0	; 192
    4d6e:	b1 f0       	breq	.+44     	; 0x4d9c <midi_packet_length+0x34>
    4d70:	58 f4       	brcc	.+22     	; 0x4d88 <midi_packet_length+0x20>
    4d72:	90 39       	cpi	r25, 0x90	; 144
    4d74:	41 f1       	breq	.+80     	; 0x4dc6 <midi_packet_length+0x5e>
    4d76:	18 f4       	brcc	.+6      	; 0x4d7e <midi_packet_length+0x16>
    4d78:	90 38       	cpi	r25, 0x80	; 128
    4d7a:	19 f5       	brne	.+70     	; 0x4dc2 <midi_packet_length+0x5a>
    4d7c:	24 c0       	rjmp	.+72     	; 0x4dc6 <midi_packet_length+0x5e>
    4d7e:	90 3a       	cpi	r25, 0xA0	; 160
    4d80:	11 f1       	breq	.+68     	; 0x4dc6 <midi_packet_length+0x5e>
    4d82:	90 3b       	cpi	r25, 0xB0	; 176
    4d84:	f1 f4       	brne	.+60     	; 0x4dc2 <midi_packet_length+0x5a>
    4d86:	1f c0       	rjmp	.+62     	; 0x4dc6 <midi_packet_length+0x5e>
    4d88:	90 3e       	cpi	r25, 0xE0	; 224
    4d8a:	e9 f0       	breq	.+58     	; 0x4dc6 <midi_packet_length+0x5e>
    4d8c:	18 f4       	brcc	.+6      	; 0x4d94 <midi_packet_length+0x2c>
    4d8e:	90 3d       	cpi	r25, 0xD0	; 208
    4d90:	29 f0       	breq	.+10     	; 0x4d9c <midi_packet_length+0x34>
    4d92:	17 c0       	rjmp	.+46     	; 0x4dc2 <midi_packet_length+0x5a>
    4d94:	90 3f       	cpi	r25, 0xF0	; 240
    4d96:	21 f0       	breq	.+8      	; 0x4da0 <midi_packet_length+0x38>
    4d98:	93 3f       	cpi	r25, 0xF3	; 243
    4d9a:	99 f4       	brne	.+38     	; 0x4dc2 <midi_packet_length+0x5a>
    4d9c:	82 e0       	ldi	r24, 0x02	; 2
    4d9e:	08 95       	ret
    4da0:	90 e0       	ldi	r25, 0x00	; 0
    4da2:	fc 01       	movw	r30, r24
    4da4:	e1 5f       	subi	r30, 0xF1	; 241
    4da6:	f1 09       	sbc	r31, r1
    4da8:	ef 30       	cpi	r30, 0x0F	; 15
    4daa:	f1 05       	cpc	r31, r1
    4dac:	40 f4       	brcc	.+16     	; 0x4dbe <midi_packet_length+0x56>
    4dae:	e5 5e       	subi	r30, 0xE5	; 229
    4db0:	fe 4f       	sbci	r31, 0xFE	; 254
    4db2:	0c 94 af 29 	jmp	0x535e	; 0x535e <__tablejump2__>
    4db6:	83 e0       	ldi	r24, 0x03	; 3
    4db8:	08 95       	ret
    4dba:	82 e0       	ldi	r24, 0x02	; 2
    4dbc:	08 95       	ret
    4dbe:	80 e0       	ldi	r24, 0x00	; 0
    4dc0:	08 95       	ret
    4dc2:	80 e0       	ldi	r24, 0x00	; 0
    4dc4:	08 95       	ret
    4dc6:	83 e0       	ldi	r24, 0x03	; 3
    4dc8:	08 95       	ret
    4dca:	81 e0       	ldi	r24, 0x01	; 1
    4dcc:	08 95       	ret

00004dce <midi_send_clock>:
    4dce:	0f 93       	push	r16
    4dd0:	dc 01       	movw	r26, r24
    4dd2:	ed 91       	ld	r30, X+
    4dd4:	fc 91       	ld	r31, X
    4dd6:	00 e0       	ldi	r16, 0x00	; 0
    4dd8:	20 e0       	ldi	r18, 0x00	; 0
    4dda:	48 ef       	ldi	r20, 0xF8	; 248
    4ddc:	61 e0       	ldi	r22, 0x01	; 1
    4dde:	70 e0       	ldi	r23, 0x00	; 0
    4de0:	09 95       	icall
    4de2:	0f 91       	pop	r16
    4de4:	08 95       	ret

00004de6 <midi_send_start>:
    4de6:	0f 93       	push	r16
    4de8:	dc 01       	movw	r26, r24
    4dea:	ed 91       	ld	r30, X+
    4dec:	fc 91       	ld	r31, X
    4dee:	00 e0       	ldi	r16, 0x00	; 0
    4df0:	20 e0       	ldi	r18, 0x00	; 0
    4df2:	4a ef       	ldi	r20, 0xFA	; 250
    4df4:	61 e0       	ldi	r22, 0x01	; 1
    4df6:	70 e0       	ldi	r23, 0x00	; 0
    4df8:	09 95       	icall
    4dfa:	0f 91       	pop	r16
    4dfc:	08 95       	ret

00004dfe <midi_send_stop>:
    4dfe:	0f 93       	push	r16
    4e00:	dc 01       	movw	r26, r24
    4e02:	ed 91       	ld	r30, X+
    4e04:	fc 91       	ld	r31, X
    4e06:	00 e0       	ldi	r16, 0x00	; 0
    4e08:	20 e0       	ldi	r18, 0x00	; 0
    4e0a:	4c ef       	ldi	r20, 0xFC	; 252
    4e0c:	61 e0       	ldi	r22, 0x01	; 1
    4e0e:	70 e0       	ldi	r23, 0x00	; 0
    4e10:	09 95       	icall
    4e12:	0f 91       	pop	r16
    4e14:	08 95       	ret

00004e16 <midi_register_noteon_callback>:
    4e16:	fc 01       	movw	r30, r24
    4e18:	75 83       	std	Z+5, r23	; 0x05
    4e1a:	64 83       	std	Z+4, r22	; 0x04
    4e1c:	08 95       	ret

00004e1e <midi_register_noteoff_callback>:
    4e1e:	fc 01       	movw	r30, r24
    4e20:	77 83       	std	Z+7, r23	; 0x07
    4e22:	66 83       	std	Z+6, r22	; 0x06
    4e24:	08 95       	ret

00004e26 <midi_register_realtime_callback>:
    4e26:	fc 01       	movw	r30, r24
    4e28:	77 8b       	std	Z+23, r23	; 0x17
    4e2a:	66 8b       	std	Z+22, r22	; 0x16
    4e2c:	08 95       	ret

00004e2e <midi_device_init>:
    4e2e:	cf 93       	push	r28
    4e30:	df 93       	push	r29
    4e32:	ec 01       	movw	r28, r24
    4e34:	1d a2       	std	Y+37, r1	; 0x25
    4e36:	1f a2       	std	Y+39, r1	; 0x27
    4e38:	1e a2       	std	Y+38, r1	; 0x26
    4e3a:	bc 01       	movw	r22, r24
    4e3c:	68 5d       	subi	r22, 0xD8	; 216
    4e3e:	7f 4f       	sbci	r23, 0xFF	; 255
    4e40:	40 ec       	ldi	r20, 0xC0	; 192
    4e42:	88 51       	subi	r24, 0x18	; 24
    4e44:	9f 4f       	sbci	r25, 0xFF	; 255
    4e46:	0e 94 25 26 	call	0x4c4a	; 0x4c4a <bytequeue_init>
    4e4a:	1b 82       	std	Y+3, r1	; 0x03
    4e4c:	1a 82       	std	Y+2, r1	; 0x02
    4e4e:	1d 82       	std	Y+5, r1	; 0x05
    4e50:	1c 82       	std	Y+4, r1	; 0x04
    4e52:	1f 82       	std	Y+7, r1	; 0x07
    4e54:	1e 82       	std	Y+6, r1	; 0x06
    4e56:	19 86       	std	Y+9, r1	; 0x09
    4e58:	18 86       	std	Y+8, r1	; 0x08
    4e5a:	1b 86       	std	Y+11, r1	; 0x0b
    4e5c:	1a 86       	std	Y+10, r1	; 0x0a
    4e5e:	1d 86       	std	Y+13, r1	; 0x0d
    4e60:	1c 86       	std	Y+12, r1	; 0x0c
    4e62:	1f 86       	std	Y+15, r1	; 0x0f
    4e64:	1e 86       	std	Y+14, r1	; 0x0e
    4e66:	19 8a       	std	Y+17, r1	; 0x11
    4e68:	18 8a       	std	Y+16, r1	; 0x10
    4e6a:	1b 8a       	std	Y+19, r1	; 0x13
    4e6c:	1a 8a       	std	Y+18, r1	; 0x12
    4e6e:	1d 8a       	std	Y+21, r1	; 0x15
    4e70:	1c 8a       	std	Y+20, r1	; 0x14
    4e72:	1f 8a       	std	Y+23, r1	; 0x17
    4e74:	1e 8a       	std	Y+22, r1	; 0x16
    4e76:	19 8e       	std	Y+25, r1	; 0x19
    4e78:	18 8e       	std	Y+24, r1	; 0x18
    4e7a:	1b 8e       	std	Y+27, r1	; 0x1b
    4e7c:	1a 8e       	std	Y+26, r1	; 0x1a
    4e7e:	1d 8e       	std	Y+29, r1	; 0x1d
    4e80:	1c 8e       	std	Y+28, r1	; 0x1c
    4e82:	1f 8e       	std	Y+31, r1	; 0x1f
    4e84:	1e 8e       	std	Y+30, r1	; 0x1e
    4e86:	19 a2       	std	Y+33, r1	; 0x21
    4e88:	18 a2       	std	Y+32, r1	; 0x20
    4e8a:	df 91       	pop	r29
    4e8c:	cf 91       	pop	r28
    4e8e:	08 95       	ret

00004e90 <midi_device_input>:
    4e90:	ef 92       	push	r14
    4e92:	ff 92       	push	r15
    4e94:	0f 93       	push	r16
    4e96:	1f 93       	push	r17
    4e98:	cf 93       	push	r28
    4e9a:	df 93       	push	r29
    4e9c:	66 23       	and	r22, r22
    4e9e:	99 f0       	breq	.+38     	; 0x4ec6 <midi_device_input+0x36>
    4ea0:	ea 01       	movw	r28, r20
    4ea2:	61 50       	subi	r22, 0x01	; 1
    4ea4:	06 2f       	mov	r16, r22
    4ea6:	10 e0       	ldi	r17, 0x00	; 0
    4ea8:	0f 5f       	subi	r16, 0xFF	; 255
    4eaa:	1f 4f       	sbci	r17, 0xFF	; 255
    4eac:	04 0f       	add	r16, r20
    4eae:	15 1f       	adc	r17, r21
    4eb0:	7c 01       	movw	r14, r24
    4eb2:	28 ee       	ldi	r18, 0xE8	; 232
    4eb4:	e2 0e       	add	r14, r18
    4eb6:	f1 1c       	adc	r15, r1
    4eb8:	69 91       	ld	r22, Y+
    4eba:	c7 01       	movw	r24, r14
    4ebc:	0e 94 2c 26 	call	0x4c58	; 0x4c58 <bytequeue_enqueue>
    4ec0:	c0 17       	cp	r28, r16
    4ec2:	d1 07       	cpc	r29, r17
    4ec4:	c9 f7       	brne	.-14     	; 0x4eb8 <midi_device_input+0x28>
    4ec6:	df 91       	pop	r29
    4ec8:	cf 91       	pop	r28
    4eca:	1f 91       	pop	r17
    4ecc:	0f 91       	pop	r16
    4ece:	ff 90       	pop	r15
    4ed0:	ef 90       	pop	r14
    4ed2:	08 95       	ret

00004ed4 <midi_device_set_send_func>:
    4ed4:	fc 01       	movw	r30, r24
    4ed6:	71 83       	std	Z+1, r23	; 0x01
    4ed8:	60 83       	st	Z, r22
    4eda:	08 95       	ret

00004edc <midi_input_callbacks>:
    4edc:	af 92       	push	r10
    4ede:	bf 92       	push	r11
    4ee0:	cf 92       	push	r12
    4ee2:	df 92       	push	r13
    4ee4:	ef 92       	push	r14
    4ee6:	ff 92       	push	r15
    4ee8:	0f 93       	push	r16
    4eea:	1f 93       	push	r17
    4eec:	cf 93       	push	r28
    4eee:	df 93       	push	r29
    4ef0:	00 d0       	rcall	.+0      	; 0x4ef2 <midi_input_callbacks+0x16>
    4ef2:	1f 92       	push	r1
    4ef4:	cd b7       	in	r28, 0x3d	; 61
    4ef6:	de b7       	in	r29, 0x3e	; 62
    4ef8:	7c 01       	movw	r14, r24
    4efa:	6b 01       	movw	r12, r22
    4efc:	14 2f       	mov	r17, r20
    4efe:	b2 2e       	mov	r11, r18
    4f00:	a0 2e       	mov	r10, r16
    4f02:	dc 01       	movw	r26, r24
    4f04:	95 96       	adiw	r26, 0x25	; 37
    4f06:	8c 91       	ld	r24, X
    4f08:	95 97       	sbiw	r26, 0x25	; 37
    4f0a:	84 30       	cpi	r24, 0x04	; 4
    4f0c:	11 f5       	brne	.+68     	; 0x4f52 <midi_input_callbacks+0x76>
    4f0e:	5a 96       	adiw	r26, 0x1a	; 26
    4f10:	ed 91       	ld	r30, X+
    4f12:	fc 91       	ld	r31, X
    4f14:	5b 97       	sbiw	r26, 0x1b	; 27
    4f16:	30 97       	sbiw	r30, 0x00	; 0
    4f18:	09 f4       	brne	.+2      	; 0x4f1c <midi_input_callbacks+0x40>
    4f1a:	cc c0       	rjmp	.+408    	; 0x50b4 <midi_input_callbacks+0x1d8>
    4f1c:	9b 01       	movw	r18, r22
    4f1e:	21 50       	subi	r18, 0x01	; 1
    4f20:	31 09       	sbc	r19, r1
    4f22:	ab ea       	ldi	r26, 0xAB	; 171
    4f24:	ba ea       	ldi	r27, 0xAA	; 170
    4f26:	0e 94 b5 29 	call	0x536a	; 0x536a <__umulhisi3>
    4f2a:	96 95       	lsr	r25
    4f2c:	87 95       	ror	r24
    4f2e:	9c 01       	movw	r18, r24
    4f30:	22 0f       	add	r18, r18
    4f32:	33 1f       	adc	r19, r19
    4f34:	82 0f       	add	r24, r18
    4f36:	93 1f       	adc	r25, r19
    4f38:	49 83       	std	Y+1, r20	; 0x01
    4f3a:	ba 82       	std	Y+2, r11	; 0x02
    4f3c:	0b 83       	std	Y+3, r16	; 0x03
    4f3e:	4c 2d       	mov	r20, r12
    4f40:	48 1b       	sub	r20, r24
    4f42:	9e 01       	movw	r18, r28
    4f44:	2f 5f       	subi	r18, 0xFF	; 255
    4f46:	3f 4f       	sbci	r19, 0xFF	; 255
    4f48:	68 2f       	mov	r22, r24
    4f4a:	79 2f       	mov	r23, r25
    4f4c:	c7 01       	movw	r24, r14
    4f4e:	09 95       	icall
    4f50:	be c0       	rjmp	.+380    	; 0x50ce <midi_input_callbacks+0x1f2>
    4f52:	62 30       	cpi	r22, 0x02	; 2
    4f54:	71 05       	cpc	r23, r1
    4f56:	09 f4       	brne	.+2      	; 0x4f5a <midi_input_callbacks+0x7e>
    4f58:	55 c0       	rjmp	.+170    	; 0x5004 <midi_input_callbacks+0x128>
    4f5a:	63 30       	cpi	r22, 0x03	; 3
    4f5c:	71 05       	cpc	r23, r1
    4f5e:	29 f0       	breq	.+10     	; 0x4f6a <midi_input_callbacks+0x8e>
    4f60:	61 30       	cpi	r22, 0x01	; 1
    4f62:	71 05       	cpc	r23, r1
    4f64:	09 f0       	breq	.+2      	; 0x4f68 <midi_input_callbacks+0x8c>
    4f66:	a1 c0       	rjmp	.+322    	; 0x50aa <midi_input_callbacks+0x1ce>
    4f68:	88 c0       	rjmp	.+272    	; 0x507a <midi_input_callbacks+0x19e>
    4f6a:	84 2f       	mov	r24, r20
    4f6c:	80 7f       	andi	r24, 0xF0	; 240
    4f6e:	80 3a       	cpi	r24, 0xA0	; 160
    4f70:	f1 f0       	breq	.+60     	; 0x4fae <midi_input_callbacks+0xd2>
    4f72:	28 f4       	brcc	.+10     	; 0x4f7e <midi_input_callbacks+0xa2>
    4f74:	80 38       	cpi	r24, 0x80	; 128
    4f76:	a9 f0       	breq	.+42     	; 0x4fa2 <midi_input_callbacks+0xc6>
    4f78:	80 39       	cpi	r24, 0x90	; 144
    4f7a:	69 f0       	breq	.+26     	; 0x4f96 <midi_input_callbacks+0xba>
    4f7c:	2f c0       	rjmp	.+94     	; 0x4fdc <midi_input_callbacks+0x100>
    4f7e:	80 3e       	cpi	r24, 0xE0	; 224
    4f80:	e1 f0       	breq	.+56     	; 0x4fba <midi_input_callbacks+0xde>
    4f82:	80 3f       	cpi	r24, 0xF0	; 240
    4f84:	01 f1       	breq	.+64     	; 0x4fc6 <midi_input_callbacks+0xea>
    4f86:	80 3b       	cpi	r24, 0xB0	; 176
    4f88:	49 f5       	brne	.+82     	; 0x4fdc <midi_input_callbacks+0x100>
    4f8a:	d7 01       	movw	r26, r14
    4f8c:	12 96       	adiw	r26, 0x02	; 2
    4f8e:	ed 91       	ld	r30, X+
    4f90:	fc 91       	ld	r31, X
    4f92:	13 97       	sbiw	r26, 0x03	; 3
    4f94:	25 c0       	rjmp	.+74     	; 0x4fe0 <midi_input_callbacks+0x104>
    4f96:	d7 01       	movw	r26, r14
    4f98:	14 96       	adiw	r26, 0x04	; 4
    4f9a:	ed 91       	ld	r30, X+
    4f9c:	fc 91       	ld	r31, X
    4f9e:	15 97       	sbiw	r26, 0x05	; 5
    4fa0:	1f c0       	rjmp	.+62     	; 0x4fe0 <midi_input_callbacks+0x104>
    4fa2:	d7 01       	movw	r26, r14
    4fa4:	16 96       	adiw	r26, 0x06	; 6
    4fa6:	ed 91       	ld	r30, X+
    4fa8:	fc 91       	ld	r31, X
    4faa:	17 97       	sbiw	r26, 0x07	; 7
    4fac:	19 c0       	rjmp	.+50     	; 0x4fe0 <midi_input_callbacks+0x104>
    4fae:	d7 01       	movw	r26, r14
    4fb0:	18 96       	adiw	r26, 0x08	; 8
    4fb2:	ed 91       	ld	r30, X+
    4fb4:	fc 91       	ld	r31, X
    4fb6:	19 97       	sbiw	r26, 0x09	; 9
    4fb8:	13 c0       	rjmp	.+38     	; 0x4fe0 <midi_input_callbacks+0x104>
    4fba:	d7 01       	movw	r26, r14
    4fbc:	1a 96       	adiw	r26, 0x0a	; 10
    4fbe:	ed 91       	ld	r30, X+
    4fc0:	fc 91       	ld	r31, X
    4fc2:	1b 97       	sbiw	r26, 0x0b	; 11
    4fc4:	0d c0       	rjmp	.+26     	; 0x4fe0 <midi_input_callbacks+0x104>
    4fc6:	42 3f       	cpi	r20, 0xF2	; 242
    4fc8:	09 f0       	breq	.+2      	; 0x4fcc <midi_input_callbacks+0xf0>
    4fca:	74 c0       	rjmp	.+232    	; 0x50b4 <midi_input_callbacks+0x1d8>
    4fcc:	d7 01       	movw	r26, r14
    4fce:	1c 96       	adiw	r26, 0x0c	; 12
    4fd0:	ed 91       	ld	r30, X+
    4fd2:	fc 91       	ld	r31, X
    4fd4:	1d 97       	sbiw	r26, 0x0d	; 13
    4fd6:	30 97       	sbiw	r30, 0x00	; 0
    4fd8:	41 f4       	brne	.+16     	; 0x4fea <midi_input_callbacks+0x10e>
    4fda:	6c c0       	rjmp	.+216    	; 0x50b4 <midi_input_callbacks+0x1d8>
    4fdc:	e0 e0       	ldi	r30, 0x00	; 0
    4fde:	f0 e0       	ldi	r31, 0x00	; 0
    4fe0:	30 97       	sbiw	r30, 0x00	; 0
    4fe2:	09 f4       	brne	.+2      	; 0x4fe6 <midi_input_callbacks+0x10a>
    4fe4:	67 c0       	rjmp	.+206    	; 0x50b4 <midi_input_callbacks+0x1d8>
    4fe6:	12 3f       	cpi	r17, 0xF2	; 242
    4fe8:	31 f4       	brne	.+12     	; 0x4ff6 <midi_input_callbacks+0x11a>
    4fea:	2a 2d       	mov	r18, r10
    4fec:	4b 2d       	mov	r20, r11
    4fee:	62 ef       	ldi	r22, 0xF2	; 242
    4ff0:	c7 01       	movw	r24, r14
    4ff2:	09 95       	icall
    4ff4:	6c c0       	rjmp	.+216    	; 0x50ce <midi_input_callbacks+0x1f2>
    4ff6:	2a 2d       	mov	r18, r10
    4ff8:	4b 2d       	mov	r20, r11
    4ffa:	61 2f       	mov	r22, r17
    4ffc:	6f 70       	andi	r22, 0x0F	; 15
    4ffe:	c7 01       	movw	r24, r14
    5000:	09 95       	icall
    5002:	65 c0       	rjmp	.+202    	; 0x50ce <midi_input_callbacks+0x1f2>
    5004:	84 2f       	mov	r24, r20
    5006:	80 7f       	andi	r24, 0xF0	; 240
    5008:	80 3d       	cpi	r24, 0xD0	; 208
    500a:	51 f0       	breq	.+20     	; 0x5020 <midi_input_callbacks+0x144>
    500c:	80 3f       	cpi	r24, 0xF0	; 240
    500e:	71 f0       	breq	.+28     	; 0x502c <midi_input_callbacks+0x150>
    5010:	80 3c       	cpi	r24, 0xC0	; 192
    5012:	01 f5       	brne	.+64     	; 0x5054 <midi_input_callbacks+0x178>
    5014:	d7 01       	movw	r26, r14
    5016:	1e 96       	adiw	r26, 0x0e	; 14
    5018:	ed 91       	ld	r30, X+
    501a:	fc 91       	ld	r31, X
    501c:	1f 97       	sbiw	r26, 0x0f	; 15
    501e:	1c c0       	rjmp	.+56     	; 0x5058 <midi_input_callbacks+0x17c>
    5020:	d7 01       	movw	r26, r14
    5022:	50 96       	adiw	r26, 0x10	; 16
    5024:	ed 91       	ld	r30, X+
    5026:	fc 91       	ld	r31, X
    5028:	51 97       	sbiw	r26, 0x11	; 17
    502a:	16 c0       	rjmp	.+44     	; 0x5058 <midi_input_callbacks+0x17c>
    502c:	43 3f       	cpi	r20, 0xF3	; 243
    502e:	41 f4       	brne	.+16     	; 0x5040 <midi_input_callbacks+0x164>
    5030:	d7 01       	movw	r26, r14
    5032:	52 96       	adiw	r26, 0x12	; 18
    5034:	ed 91       	ld	r30, X+
    5036:	fc 91       	ld	r31, X
    5038:	53 97       	sbiw	r26, 0x13	; 19
    503a:	30 97       	sbiw	r30, 0x00	; 0
    503c:	99 f4       	brne	.+38     	; 0x5064 <midi_input_callbacks+0x188>
    503e:	3a c0       	rjmp	.+116    	; 0x50b4 <midi_input_callbacks+0x1d8>
    5040:	41 3f       	cpi	r20, 0xF1	; 241
    5042:	c1 f5       	brne	.+112    	; 0x50b4 <midi_input_callbacks+0x1d8>
    5044:	d7 01       	movw	r26, r14
    5046:	54 96       	adiw	r26, 0x14	; 20
    5048:	ed 91       	ld	r30, X+
    504a:	fc 91       	ld	r31, X
    504c:	55 97       	sbiw	r26, 0x15	; 21
    504e:	30 97       	sbiw	r30, 0x00	; 0
    5050:	49 f4       	brne	.+18     	; 0x5064 <midi_input_callbacks+0x188>
    5052:	30 c0       	rjmp	.+96     	; 0x50b4 <midi_input_callbacks+0x1d8>
    5054:	e0 e0       	ldi	r30, 0x00	; 0
    5056:	f0 e0       	ldi	r31, 0x00	; 0
    5058:	30 97       	sbiw	r30, 0x00	; 0
    505a:	61 f1       	breq	.+88     	; 0x50b4 <midi_input_callbacks+0x1d8>
    505c:	81 2f       	mov	r24, r17
    505e:	8d 7f       	andi	r24, 0xFD	; 253
    5060:	81 3f       	cpi	r24, 0xF1	; 241
    5062:	29 f4       	brne	.+10     	; 0x506e <midi_input_callbacks+0x192>
    5064:	4b 2d       	mov	r20, r11
    5066:	61 2f       	mov	r22, r17
    5068:	c7 01       	movw	r24, r14
    506a:	09 95       	icall
    506c:	30 c0       	rjmp	.+96     	; 0x50ce <midi_input_callbacks+0x1f2>
    506e:	4b 2d       	mov	r20, r11
    5070:	61 2f       	mov	r22, r17
    5072:	6f 70       	andi	r22, 0x0F	; 15
    5074:	c7 01       	movw	r24, r14
    5076:	09 95       	icall
    5078:	2a c0       	rjmp	.+84     	; 0x50ce <midi_input_callbacks+0x1f2>
    507a:	84 2f       	mov	r24, r20
    507c:	0e 94 ae 26 	call	0x4d5c	; 0x4d5c <midi_is_realtime>
    5080:	88 23       	and	r24, r24
    5082:	31 f0       	breq	.+12     	; 0x5090 <midi_input_callbacks+0x1b4>
    5084:	d7 01       	movw	r26, r14
    5086:	56 96       	adiw	r26, 0x16	; 22
    5088:	ed 91       	ld	r30, X+
    508a:	fc 91       	ld	r31, X
    508c:	57 97       	sbiw	r26, 0x17	; 23
    508e:	07 c0       	rjmp	.+14     	; 0x509e <midi_input_callbacks+0x1c2>
    5090:	16 3f       	cpi	r17, 0xF6	; 246
    5092:	81 f4       	brne	.+32     	; 0x50b4 <midi_input_callbacks+0x1d8>
    5094:	d7 01       	movw	r26, r14
    5096:	58 96       	adiw	r26, 0x18	; 24
    5098:	ed 91       	ld	r30, X+
    509a:	fc 91       	ld	r31, X
    509c:	59 97       	sbiw	r26, 0x19	; 25
    509e:	30 97       	sbiw	r30, 0x00	; 0
    50a0:	49 f0       	breq	.+18     	; 0x50b4 <midi_input_callbacks+0x1d8>
    50a2:	61 2f       	mov	r22, r17
    50a4:	c7 01       	movw	r24, r14
    50a6:	09 95       	icall
    50a8:	12 c0       	rjmp	.+36     	; 0x50ce <midi_input_callbacks+0x1f2>
    50aa:	64 30       	cpi	r22, 0x04	; 4
    50ac:	71 05       	cpc	r23, r1
    50ae:	10 f0       	brcs	.+4      	; 0x50b4 <midi_input_callbacks+0x1d8>
    50b0:	c1 2c       	mov	r12, r1
    50b2:	d1 2c       	mov	r13, r1
    50b4:	d7 01       	movw	r26, r14
    50b6:	5c 96       	adiw	r26, 0x1c	; 28
    50b8:	ed 91       	ld	r30, X+
    50ba:	fc 91       	ld	r31, X
    50bc:	5d 97       	sbiw	r26, 0x1d	; 29
    50be:	30 97       	sbiw	r30, 0x00	; 0
    50c0:	31 f0       	breq	.+12     	; 0x50ce <midi_input_callbacks+0x1f2>
    50c2:	0a 2d       	mov	r16, r10
    50c4:	2b 2d       	mov	r18, r11
    50c6:	41 2f       	mov	r20, r17
    50c8:	b6 01       	movw	r22, r12
    50ca:	c7 01       	movw	r24, r14
    50cc:	09 95       	icall
    50ce:	d7 01       	movw	r26, r14
    50d0:	5e 96       	adiw	r26, 0x1e	; 30
    50d2:	ed 91       	ld	r30, X+
    50d4:	fc 91       	ld	r31, X
    50d6:	5f 97       	sbiw	r26, 0x1f	; 31
    50d8:	30 97       	sbiw	r30, 0x00	; 0
    50da:	31 f0       	breq	.+12     	; 0x50e8 <midi_input_callbacks+0x20c>
    50dc:	0a 2d       	mov	r16, r10
    50de:	2b 2d       	mov	r18, r11
    50e0:	41 2f       	mov	r20, r17
    50e2:	b6 01       	movw	r22, r12
    50e4:	c7 01       	movw	r24, r14
    50e6:	09 95       	icall
    50e8:	0f 90       	pop	r0
    50ea:	0f 90       	pop	r0
    50ec:	0f 90       	pop	r0
    50ee:	df 91       	pop	r29
    50f0:	cf 91       	pop	r28
    50f2:	1f 91       	pop	r17
    50f4:	0f 91       	pop	r16
    50f6:	ff 90       	pop	r15
    50f8:	ef 90       	pop	r14
    50fa:	df 90       	pop	r13
    50fc:	cf 90       	pop	r12
    50fe:	bf 90       	pop	r11
    5100:	af 90       	pop	r10
    5102:	08 95       	ret

00005104 <midi_process_byte>:
    5104:	ff 92       	push	r15
    5106:	0f 93       	push	r16
    5108:	1f 93       	push	r17
    510a:	cf 93       	push	r28
    510c:	df 93       	push	r29
    510e:	ec 01       	movw	r28, r24
    5110:	16 2f       	mov	r17, r22
    5112:	86 2f       	mov	r24, r22
    5114:	0e 94 ae 26 	call	0x4d5c	; 0x4d5c <midi_is_realtime>
    5118:	88 23       	and	r24, r24
    511a:	69 f0       	breq	.+26     	; 0x5136 <midi_process_byte+0x32>
    511c:	fd a0       	ldd	r15, Y+37	; 0x25
    511e:	81 e0       	ldi	r24, 0x01	; 1
    5120:	8d a3       	std	Y+37, r24	; 0x25
    5122:	00 e0       	ldi	r16, 0x00	; 0
    5124:	20 e0       	ldi	r18, 0x00	; 0
    5126:	41 2f       	mov	r20, r17
    5128:	61 e0       	ldi	r22, 0x01	; 1
    512a:	70 e0       	ldi	r23, 0x00	; 0
    512c:	ce 01       	movw	r24, r28
    512e:	0e 94 6e 27 	call	0x4edc	; 0x4edc <midi_input_callbacks>
    5132:	fd a2       	std	Y+37, r15	; 0x25
    5134:	a4 c0       	rjmp	.+328    	; 0x527e <midi_process_byte+0x17a>
    5136:	81 2f       	mov	r24, r17
    5138:	0e 94 aa 26 	call	0x4d54	; 0x4d54 <midi_is_statusbyte>
    513c:	88 23       	and	r24, r24
    513e:	09 f4       	brne	.+2      	; 0x5142 <midi_process_byte+0x3e>
    5140:	5d c0       	rjmp	.+186    	; 0x51fc <midi_process_byte+0xf8>
    5142:	8d a1       	ldd	r24, Y+37	; 0x25
    5144:	84 30       	cpi	r24, 0x04	; 4
    5146:	29 f0       	breq	.+10     	; 0x5152 <midi_process_byte+0x4e>
    5148:	1a a3       	std	Y+34, r17	; 0x22
    514a:	81 e0       	ldi	r24, 0x01	; 1
    514c:	90 e0       	ldi	r25, 0x00	; 0
    514e:	9f a3       	std	Y+39, r25	; 0x27
    5150:	8e a3       	std	Y+38, r24	; 0x26
    5152:	81 2f       	mov	r24, r17
    5154:	0e 94 b4 26 	call	0x4d68	; 0x4d68 <midi_packet_length>
    5158:	81 30       	cpi	r24, 0x01	; 1
    515a:	31 f0       	breq	.+12     	; 0x5168 <midi_process_byte+0x64>
    515c:	b8 f0       	brcs	.+46     	; 0x518c <midi_process_byte+0x88>
    515e:	82 30       	cpi	r24, 0x02	; 2
    5160:	79 f0       	breq	.+30     	; 0x5180 <midi_process_byte+0x7c>
    5162:	83 30       	cpi	r24, 0x03	; 3
    5164:	81 f0       	breq	.+32     	; 0x5186 <midi_process_byte+0x82>
    5166:	46 c0       	rjmp	.+140    	; 0x51f4 <midi_process_byte+0xf0>
    5168:	81 e0       	ldi	r24, 0x01	; 1
    516a:	8d a3       	std	Y+37, r24	; 0x25
    516c:	00 e0       	ldi	r16, 0x00	; 0
    516e:	20 e0       	ldi	r18, 0x00	; 0
    5170:	41 2f       	mov	r20, r17
    5172:	61 e0       	ldi	r22, 0x01	; 1
    5174:	70 e0       	ldi	r23, 0x00	; 0
    5176:	ce 01       	movw	r24, r28
    5178:	0e 94 6e 27 	call	0x4edc	; 0x4edc <midi_input_callbacks>
    517c:	1d a2       	std	Y+37, r1	; 0x25
    517e:	7f c0       	rjmp	.+254    	; 0x527e <midi_process_byte+0x17a>
    5180:	82 e0       	ldi	r24, 0x02	; 2
    5182:	8d a3       	std	Y+37, r24	; 0x25
    5184:	7c c0       	rjmp	.+248    	; 0x527e <midi_process_byte+0x17a>
    5186:	83 e0       	ldi	r24, 0x03	; 3
    5188:	8d a3       	std	Y+37, r24	; 0x25
    518a:	79 c0       	rjmp	.+242    	; 0x527e <midi_process_byte+0x17a>
    518c:	10 3f       	cpi	r17, 0xF0	; 240
    518e:	19 f0       	breq	.+6      	; 0x5196 <midi_process_byte+0x92>
    5190:	17 3f       	cpi	r17, 0xF7	; 247
    5192:	51 f0       	breq	.+20     	; 0x51a8 <midi_process_byte+0xa4>
    5194:	2b c0       	rjmp	.+86     	; 0x51ec <midi_process_byte+0xe8>
    5196:	84 e0       	ldi	r24, 0x04	; 4
    5198:	8d a3       	std	Y+37, r24	; 0x25
    519a:	80 ef       	ldi	r24, 0xF0	; 240
    519c:	8a a3       	std	Y+34, r24	; 0x22
    519e:	81 e0       	ldi	r24, 0x01	; 1
    51a0:	90 e0       	ldi	r25, 0x00	; 0
    51a2:	9f a3       	std	Y+39, r25	; 0x27
    51a4:	8e a3       	std	Y+38, r24	; 0x26
    51a6:	6b c0       	rjmp	.+214    	; 0x527e <midi_process_byte+0x17a>
    51a8:	4e a1       	ldd	r20, Y+38	; 0x26
    51aa:	5f a1       	ldd	r21, Y+39	; 0x27
    51ac:	9a 01       	movw	r18, r20
    51ae:	ab ea       	ldi	r26, 0xAB	; 171
    51b0:	ba ea       	ldi	r27, 0xAA	; 170
    51b2:	0e 94 b5 29 	call	0x536a	; 0x536a <__umulhisi3>
    51b6:	96 95       	lsr	r25
    51b8:	87 95       	ror	r24
    51ba:	9c 01       	movw	r18, r24
    51bc:	22 0f       	add	r18, r18
    51be:	33 1f       	adc	r19, r19
    51c0:	82 0f       	add	r24, r18
    51c2:	93 1f       	adc	r25, r19
    51c4:	fa 01       	movw	r30, r20
    51c6:	e8 1b       	sub	r30, r24
    51c8:	f9 0b       	sbc	r31, r25
    51ca:	ec 0f       	add	r30, r28
    51cc:	fd 1f       	adc	r31, r29
    51ce:	87 ef       	ldi	r24, 0xF7	; 247
    51d0:	82 a3       	std	Z+34, r24	; 0x22
    51d2:	ba 01       	movw	r22, r20
    51d4:	6f 5f       	subi	r22, 0xFF	; 255
    51d6:	7f 4f       	sbci	r23, 0xFF	; 255
    51d8:	7f a3       	std	Y+39, r23	; 0x27
    51da:	6e a3       	std	Y+38, r22	; 0x26
    51dc:	0c a1       	ldd	r16, Y+36	; 0x24
    51de:	2b a1       	ldd	r18, Y+35	; 0x23
    51e0:	4a a1       	ldd	r20, Y+34	; 0x22
    51e2:	ce 01       	movw	r24, r28
    51e4:	0e 94 6e 27 	call	0x4edc	; 0x4edc <midi_input_callbacks>
    51e8:	1d a2       	std	Y+37, r1	; 0x25
    51ea:	49 c0       	rjmp	.+146    	; 0x527e <midi_process_byte+0x17a>
    51ec:	1d a2       	std	Y+37, r1	; 0x25
    51ee:	1f a2       	std	Y+39, r1	; 0x27
    51f0:	1e a2       	std	Y+38, r1	; 0x26
    51f2:	45 c0       	rjmp	.+138    	; 0x527e <midi_process_byte+0x17a>
    51f4:	1d a2       	std	Y+37, r1	; 0x25
    51f6:	1f a2       	std	Y+39, r1	; 0x27
    51f8:	1e a2       	std	Y+38, r1	; 0x26
    51fa:	41 c0       	rjmp	.+130    	; 0x527e <midi_process_byte+0x17a>
    51fc:	ed a1       	ldd	r30, Y+37	; 0x25
    51fe:	ee 23       	and	r30, r30
    5200:	f1 f1       	breq	.+124    	; 0x527e <midi_process_byte+0x17a>
    5202:	4e a1       	ldd	r20, Y+38	; 0x26
    5204:	5f a1       	ldd	r21, Y+39	; 0x27
    5206:	9a 01       	movw	r18, r20
    5208:	ab ea       	ldi	r26, 0xAB	; 171
    520a:	ba ea       	ldi	r27, 0xAA	; 170
    520c:	0e 94 b5 29 	call	0x536a	; 0x536a <__umulhisi3>
    5210:	96 95       	lsr	r25
    5212:	87 95       	ror	r24
    5214:	9c 01       	movw	r18, r24
    5216:	22 0f       	add	r18, r18
    5218:	33 1f       	adc	r19, r19
    521a:	82 0f       	add	r24, r18
    521c:	93 1f       	adc	r25, r19
    521e:	9a 01       	movw	r18, r20
    5220:	28 1b       	sub	r18, r24
    5222:	39 0b       	sbc	r19, r25
    5224:	de 01       	movw	r26, r28
    5226:	a2 0f       	add	r26, r18
    5228:	b3 1f       	adc	r27, r19
    522a:	92 96       	adiw	r26, 0x22	; 34
    522c:	1c 93       	st	X, r17
    522e:	ba 01       	movw	r22, r20
    5230:	6f 5f       	subi	r22, 0xFF	; 255
    5232:	7f 4f       	sbci	r23, 0xFF	; 255
    5234:	7f a3       	std	Y+39, r23	; 0x27
    5236:	6e a3       	std	Y+38, r22	; 0x26
    5238:	21 30       	cpi	r18, 0x01	; 1
    523a:	31 05       	cpc	r19, r1
    523c:	89 f0       	breq	.+34     	; 0x5260 <midi_process_byte+0x15c>
    523e:	22 30       	cpi	r18, 0x02	; 2
    5240:	31 05       	cpc	r19, r1
    5242:	e9 f4       	brne	.+58     	; 0x527e <midi_process_byte+0x17a>
    5244:	0c a1       	ldd	r16, Y+36	; 0x24
    5246:	2b a1       	ldd	r18, Y+35	; 0x23
    5248:	4a a1       	ldd	r20, Y+34	; 0x22
    524a:	ce 01       	movw	r24, r28
    524c:	0e 94 6e 27 	call	0x4edc	; 0x4edc <midi_input_callbacks>
    5250:	8d a1       	ldd	r24, Y+37	; 0x25
    5252:	84 30       	cpi	r24, 0x04	; 4
    5254:	a1 f0       	breq	.+40     	; 0x527e <midi_process_byte+0x17a>
    5256:	81 e0       	ldi	r24, 0x01	; 1
    5258:	90 e0       	ldi	r25, 0x00	; 0
    525a:	9f a3       	std	Y+39, r25	; 0x27
    525c:	8e a3       	std	Y+38, r24	; 0x26
    525e:	0f c0       	rjmp	.+30     	; 0x527e <midi_process_byte+0x17a>
    5260:	e2 30       	cpi	r30, 0x02	; 2
    5262:	69 f4       	brne	.+26     	; 0x527e <midi_process_byte+0x17a>
    5264:	00 e0       	ldi	r16, 0x00	; 0
    5266:	2b a1       	ldd	r18, Y+35	; 0x23
    5268:	4a a1       	ldd	r20, Y+34	; 0x22
    526a:	ce 01       	movw	r24, r28
    526c:	0e 94 6e 27 	call	0x4edc	; 0x4edc <midi_input_callbacks>
    5270:	8d a1       	ldd	r24, Y+37	; 0x25
    5272:	84 30       	cpi	r24, 0x04	; 4
    5274:	21 f0       	breq	.+8      	; 0x527e <midi_process_byte+0x17a>
    5276:	81 e0       	ldi	r24, 0x01	; 1
    5278:	90 e0       	ldi	r25, 0x00	; 0
    527a:	9f a3       	std	Y+39, r25	; 0x27
    527c:	8e a3       	std	Y+38, r24	; 0x26
    527e:	df 91       	pop	r29
    5280:	cf 91       	pop	r28
    5282:	1f 91       	pop	r17
    5284:	0f 91       	pop	r16
    5286:	ff 90       	pop	r15
    5288:	08 95       	ret

0000528a <midi_device_process>:
    528a:	cf 92       	push	r12
    528c:	df 92       	push	r13
    528e:	ef 92       	push	r14
    5290:	ff 92       	push	r15
    5292:	0f 93       	push	r16
    5294:	1f 93       	push	r17
    5296:	cf 93       	push	r28
    5298:	df 93       	push	r29
    529a:	6c 01       	movw	r12, r24
    529c:	dc 01       	movw	r26, r24
    529e:	90 96       	adiw	r26, 0x20	; 32
    52a0:	ed 91       	ld	r30, X+
    52a2:	fc 91       	ld	r31, X
    52a4:	91 97       	sbiw	r26, 0x21	; 33
    52a6:	30 97       	sbiw	r30, 0x00	; 0
    52a8:	09 f0       	breq	.+2      	; 0x52ac <midi_device_process+0x22>
    52aa:	09 95       	icall
    52ac:	86 01       	movw	r16, r12
    52ae:	08 51       	subi	r16, 0x18	; 24
    52b0:	1f 4f       	sbci	r17, 0xFF	; 255
    52b2:	c8 01       	movw	r24, r16
    52b4:	0e 94 62 26 	call	0x4cc4	; 0x4cc4 <bytequeue_length>
    52b8:	e8 2e       	mov	r14, r24
    52ba:	f1 2c       	mov	r15, r1
    52bc:	e1 14       	cp	r14, r1
    52be:	f1 04       	cpc	r15, r1
    52c0:	91 f0       	breq	.+36     	; 0x52e6 <midi_device_process+0x5c>
    52c2:	c0 e0       	ldi	r28, 0x00	; 0
    52c4:	d0 e0       	ldi	r29, 0x00	; 0
    52c6:	60 e0       	ldi	r22, 0x00	; 0
    52c8:	c8 01       	movw	r24, r16
    52ca:	0e 94 78 26 	call	0x4cf0	; 0x4cf0 <bytequeue_get>
    52ce:	68 2f       	mov	r22, r24
    52d0:	c6 01       	movw	r24, r12
    52d2:	0e 94 82 28 	call	0x5104	; 0x5104 <midi_process_byte>
    52d6:	61 e0       	ldi	r22, 0x01	; 1
    52d8:	c8 01       	movw	r24, r16
    52da:	0e 94 8a 26 	call	0x4d14	; 0x4d14 <bytequeue_remove>
    52de:	21 96       	adiw	r28, 0x01	; 1
    52e0:	ce 15       	cp	r28, r14
    52e2:	df 05       	cpc	r29, r15
    52e4:	81 f7       	brne	.-32     	; 0x52c6 <midi_device_process+0x3c>
    52e6:	df 91       	pop	r29
    52e8:	cf 91       	pop	r28
    52ea:	1f 91       	pop	r17
    52ec:	0f 91       	pop	r16
    52ee:	ff 90       	pop	r15
    52f0:	ef 90       	pop	r14
    52f2:	df 90       	pop	r13
    52f4:	cf 90       	pop	r12
    52f6:	08 95       	ret

000052f8 <__divmodhi4>:
    52f8:	97 fb       	bst	r25, 7
    52fa:	07 2e       	mov	r0, r23
    52fc:	16 f4       	brtc	.+4      	; 0x5302 <__divmodhi4+0xa>
    52fe:	00 94       	com	r0
    5300:	07 d0       	rcall	.+14     	; 0x5310 <__divmodhi4_neg1>
    5302:	77 fd       	sbrc	r23, 7
    5304:	09 d0       	rcall	.+18     	; 0x5318 <__divmodhi4_neg2>
    5306:	0e 94 c4 29 	call	0x5388	; 0x5388 <__udivmodhi4>
    530a:	07 fc       	sbrc	r0, 7
    530c:	05 d0       	rcall	.+10     	; 0x5318 <__divmodhi4_neg2>
    530e:	3e f4       	brtc	.+14     	; 0x531e <__divmodhi4_exit>

00005310 <__divmodhi4_neg1>:
    5310:	90 95       	com	r25
    5312:	81 95       	neg	r24
    5314:	9f 4f       	sbci	r25, 0xFF	; 255
    5316:	08 95       	ret

00005318 <__divmodhi4_neg2>:
    5318:	70 95       	com	r23
    531a:	61 95       	neg	r22
    531c:	7f 4f       	sbci	r23, 0xFF	; 255

0000531e <__divmodhi4_exit>:
    531e:	08 95       	ret

00005320 <__divmodsi4>:
    5320:	05 2e       	mov	r0, r21
    5322:	97 fb       	bst	r25, 7
    5324:	1e f4       	brtc	.+6      	; 0x532c <__divmodsi4+0xc>
    5326:	00 94       	com	r0
    5328:	0e 94 a7 29 	call	0x534e	; 0x534e <__negsi2>
    532c:	57 fd       	sbrc	r21, 7
    532e:	07 d0       	rcall	.+14     	; 0x533e <__divmodsi4_neg2>
    5330:	0e 94 d8 29 	call	0x53b0	; 0x53b0 <__udivmodsi4>
    5334:	07 fc       	sbrc	r0, 7
    5336:	03 d0       	rcall	.+6      	; 0x533e <__divmodsi4_neg2>
    5338:	4e f4       	brtc	.+18     	; 0x534c <__divmodsi4_exit>
    533a:	0c 94 a7 29 	jmp	0x534e	; 0x534e <__negsi2>

0000533e <__divmodsi4_neg2>:
    533e:	50 95       	com	r21
    5340:	40 95       	com	r20
    5342:	30 95       	com	r19
    5344:	21 95       	neg	r18
    5346:	3f 4f       	sbci	r19, 0xFF	; 255
    5348:	4f 4f       	sbci	r20, 0xFF	; 255
    534a:	5f 4f       	sbci	r21, 0xFF	; 255

0000534c <__divmodsi4_exit>:
    534c:	08 95       	ret

0000534e <__negsi2>:
    534e:	90 95       	com	r25
    5350:	80 95       	com	r24
    5352:	70 95       	com	r23
    5354:	61 95       	neg	r22
    5356:	7f 4f       	sbci	r23, 0xFF	; 255
    5358:	8f 4f       	sbci	r24, 0xFF	; 255
    535a:	9f 4f       	sbci	r25, 0xFF	; 255
    535c:	08 95       	ret

0000535e <__tablejump2__>:
    535e:	ee 0f       	add	r30, r30
    5360:	ff 1f       	adc	r31, r31
    5362:	05 90       	lpm	r0, Z+
    5364:	f4 91       	lpm	r31, Z
    5366:	e0 2d       	mov	r30, r0
    5368:	09 94       	ijmp

0000536a <__umulhisi3>:
    536a:	a2 9f       	mul	r26, r18
    536c:	b0 01       	movw	r22, r0
    536e:	b3 9f       	mul	r27, r19
    5370:	c0 01       	movw	r24, r0
    5372:	a3 9f       	mul	r26, r19
    5374:	70 0d       	add	r23, r0
    5376:	81 1d       	adc	r24, r1
    5378:	11 24       	eor	r1, r1
    537a:	91 1d       	adc	r25, r1
    537c:	b2 9f       	mul	r27, r18
    537e:	70 0d       	add	r23, r0
    5380:	81 1d       	adc	r24, r1
    5382:	11 24       	eor	r1, r1
    5384:	91 1d       	adc	r25, r1
    5386:	08 95       	ret

00005388 <__udivmodhi4>:
    5388:	aa 1b       	sub	r26, r26
    538a:	bb 1b       	sub	r27, r27
    538c:	51 e1       	ldi	r21, 0x11	; 17
    538e:	07 c0       	rjmp	.+14     	; 0x539e <__udivmodhi4_ep>

00005390 <__udivmodhi4_loop>:
    5390:	aa 1f       	adc	r26, r26
    5392:	bb 1f       	adc	r27, r27
    5394:	a6 17       	cp	r26, r22
    5396:	b7 07       	cpc	r27, r23
    5398:	10 f0       	brcs	.+4      	; 0x539e <__udivmodhi4_ep>
    539a:	a6 1b       	sub	r26, r22
    539c:	b7 0b       	sbc	r27, r23

0000539e <__udivmodhi4_ep>:
    539e:	88 1f       	adc	r24, r24
    53a0:	99 1f       	adc	r25, r25
    53a2:	5a 95       	dec	r21
    53a4:	a9 f7       	brne	.-22     	; 0x5390 <__udivmodhi4_loop>
    53a6:	80 95       	com	r24
    53a8:	90 95       	com	r25
    53aa:	bc 01       	movw	r22, r24
    53ac:	cd 01       	movw	r24, r26
    53ae:	08 95       	ret

000053b0 <__udivmodsi4>:
    53b0:	a1 e2       	ldi	r26, 0x21	; 33
    53b2:	1a 2e       	mov	r1, r26
    53b4:	aa 1b       	sub	r26, r26
    53b6:	bb 1b       	sub	r27, r27
    53b8:	fd 01       	movw	r30, r26
    53ba:	0d c0       	rjmp	.+26     	; 0x53d6 <__udivmodsi4_ep>

000053bc <__udivmodsi4_loop>:
    53bc:	aa 1f       	adc	r26, r26
    53be:	bb 1f       	adc	r27, r27
    53c0:	ee 1f       	adc	r30, r30
    53c2:	ff 1f       	adc	r31, r31
    53c4:	a2 17       	cp	r26, r18
    53c6:	b3 07       	cpc	r27, r19
    53c8:	e4 07       	cpc	r30, r20
    53ca:	f5 07       	cpc	r31, r21
    53cc:	20 f0       	brcs	.+8      	; 0x53d6 <__udivmodsi4_ep>
    53ce:	a2 1b       	sub	r26, r18
    53d0:	b3 0b       	sbc	r27, r19
    53d2:	e4 0b       	sbc	r30, r20
    53d4:	f5 0b       	sbc	r31, r21

000053d6 <__udivmodsi4_ep>:
    53d6:	66 1f       	adc	r22, r22
    53d8:	77 1f       	adc	r23, r23
    53da:	88 1f       	adc	r24, r24
    53dc:	99 1f       	adc	r25, r25
    53de:	1a 94       	dec	r1
    53e0:	69 f7       	brne	.-38     	; 0x53bc <__udivmodsi4_loop>
    53e2:	60 95       	com	r22
    53e4:	70 95       	com	r23
    53e6:	80 95       	com	r24
    53e8:	90 95       	com	r25
    53ea:	9b 01       	movw	r18, r22
    53ec:	ac 01       	movw	r20, r24
    53ee:	bd 01       	movw	r22, r26
    53f0:	cf 01       	movw	r24, r30
    53f2:	08 95       	ret

000053f4 <_exit>:
    53f4:	f8 94       	cli

000053f6 <__stop_program>:
    53f6:	ff cf       	rjmp	.-2      	; 0x53f6 <__stop_program>
